---
source: src/executor/wall_time/perf/perf_map.rs
expression: module_symbols
---
ModuleSymbols {
    load_bias: 0,
    symbols: [
        Symbol { offset: 4002f8, size: 20, name: __abi_tag },
        Symbol { offset: 45b020, size: 1, name: completed.0 },
        Symbol { offset: 40cae0, size: 102, name: _ZL21BM_FibonacciIterativeRN9benchmark5StateE },
        Symbol { offset: 40cbf0, size: 12e, name: _ZL9BM_memcpyRN9benchmark5StateE },
        Symbol { offset: 40a000, size: 97, name: _ZNSt7__cxx1112basic_stringIcSt11char_traitsIcESaIcEEC2IS3_EEPKcRKS3_.constprop.0 },
        Symbol { offset: 4052c0, size: c, name: _ZNSt7__cxx1112basic_stringIcSt11char_traitsIcESaIcEEC2IS3_EEPKcRKS3_.constprop.0.cold },
        Symbol { offset: 40cd20, size: 87, name: _ZNL28benchmark_uniq_29_benchmark_MUlRN9benchmark5StateEE_4_FUNES2_ },
        Symbol { offset: 40a0a0, size: 69, name: _ZNK4testL28benchmark_uniq_22BM_TemplateMUlvE_clEv.isra.0 },
        Symbol { offset: 4052cc, size: 24, name: _ZNK4testL28benchmark_uniq_22BM_TemplateMUlvE_clEv.isra.0.cold },
        Symbol { offset: 40a110, size: 69, name: _ZNK17example_namespaceL20ns_MyFixture_FooTestMUlvE_clEv.isra.0 },
        Symbol { offset: 4052f0, size: 24, name: _ZNK17example_namespaceL20ns_MyFixture_FooTestMUlvE_clEv.isra.0.cold },
        Symbol { offset: 40a180, size: 69, name: _ZNKL27benchmark_uniq_2_benchmark_MUlvE_clEv.isra.0 },
        Symbol { offset: 405314, size: 24, name: _ZNKL27benchmark_uniq_2_benchmark_MUlvE_clEv.isra.0.cold },
        Symbol { offset: 40cdb0, size: 8a, name: _ZL13BM_sleep_10nsRN9benchmark5StateE },
        Symbol { offset: 40ce40, size: 3c8, name: _ZL19fibonacci_recursivei },
        Symbol { offset: 40d210, size: 125, name: _ZL21BM_FibonacciRecursiveRN9benchmark5StateE },
        Symbol { offset: 40d340, size: 11c, name: _ZNL37benchmark_uniq_27BM_Template1_CaptureMUlRN9benchmark5StateEE_4_FUNES2_ },
        Symbol { offset: 405338, size: 2e, name: _ZNL37benchmark_uniq_27BM_Template1_CaptureMUlRN9benchmark5StateEE_4_FUNES2_.cold },
        Symbol { offset: 40d460, size: 114, name: _ZNL28benchmark_uniq_28_benchmark_MUlRN9benchmark5StateEE_4_FUNES2_ },
        Symbol { offset: 405366, size: 2e, name: _ZNL28benchmark_uniq_28_benchmark_MUlRN9benchmark5StateEE_4_FUNES2_.cold },
        Symbol { offset: 40d580, size: 114, name: _ZNL28benchmark_uniq_26_benchmark_MUlRN9benchmark5StateEE_4_FUNES2_ },
        Symbol { offset: 405394, size: 2e, name: _ZNL28benchmark_uniq_26_benchmark_MUlRN9benchmark5StateEE_4_FUNES2_.cold },
        Symbol { offset: 40d6a0, size: 1b6, name: _ZL13BM_StringCopyRN9benchmark5StateE },
        Symbol { offset: 4053c2, size: 25, name: _ZL13BM_StringCopyRN9benchmark5StateE.cold },
        Symbol { offset: 40d8f0, size: 89, name: _ZL12BM_sleep_1nsRN9benchmark5StateE },
        Symbol { offset: 40d980, size: 8c, name: _ZL14BM_sleep_100msRN9benchmark5StateE },
        Symbol { offset: 40da10, size: 8c, name: _ZL13BM_sleep_50msRN9benchmark5StateE },
        Symbol { offset: 40daa0, size: 8c, name: _ZL13BM_sleep_10msRN9benchmark5StateE },
        Symbol { offset: 40db30, size: 8c, name: _ZL12BM_sleep_1msRN9benchmark5StateE },
        Symbol { offset: 40dbc0, size: 8c, name: _ZL14BM_sleep_100usRN9benchmark5StateE },
        Symbol { offset: 40dc50, size: 8c, name: _ZL13BM_sleep_50usRN9benchmark5StateE },
        Symbol { offset: 40dce0, size: 8c, name: _ZL13BM_sleep_10usRN9benchmark5StateE },
        Symbol { offset: 40dd70, size: 8c, name: _ZL12BM_sleep_1usRN9benchmark5StateE },
        Symbol { offset: 40de00, size: 8a, name: _ZL14BM_sleep_100nsRN9benchmark5StateE },
        Symbol { offset: 40de90, size: 8a, name: _ZL13BM_sleep_50nsRN9benchmark5StateE },
        Symbol { offset: 45b0e0, size: 20, name: _ZN17example_namespaceL20ns_MyFixture_FooTestE },
        Symbol { offset: 45b0c0, size: 20, name: _ZN17example_namespaceL20ns_MyFixture_BarTestE },
        Symbol { offset: 45b0a0, size: 20, name: _ZN17example_namespaceL29ns_MyTemplatedFixture_IntTestE },
        Symbol { offset: 45b080, size: 20, name: _ZN17example_namespaceL32ns_MyTemplatedFixture_DoubleTestE },
        Symbol { offset: 45b060, size: 20, name: _ZN17example_namespaceL20ns_MyTemplate1_TestAE },
        Symbol { offset: 45b040, size: 20, name: _ZN17example_namespaceL20ns_MyTemplate2_TestBE },
        Symbol { offset: 40a290, size: 21c3, name: _Z41__static_initialization_and_destruction_0v },
        Symbol { offset: 40df20, size: dd, name: _ZL14BM_rand_vectorRN9benchmark5StateE },
        Symbol { offset: 4053e7, size: 1034, name: _Z41__static_initialization_and_destruction_0v.cold },
        Symbol { offset: 40641b, size: 2f, name: _ZL14BM_rand_vectorRN9benchmark5StateE.cold },
        Symbol { offset: 40c460, size: 5, name: _GLOBAL__sub_I_main.cpp },
        Symbol { offset: 411200, size: 8b, name: _ZNSt8_Rb_treeIiSt4pairIKiN9benchmark17BenchmarkReporter19PerFamilyRunReportsEESt10_Select1stIS5_ESt4lessIiESaIS5_EE24_M_get_insert_unique_posERS1_.isra.0 },
        Symbol { offset: 411290, size: 90, name: _ZNSt7__cxx1112basic_stringIcSt11char_traitsIcESaIcEE12_M_constructIPcEEvT_S7_St20forward_iterator_tag.isra.0 },
        Symbol { offset: 411320, size: 59, name: _ZNSt8_Rb_treeINSt7__cxx1112basic_stringIcSt11char_traitsIcESaIcEEESt4pairIKS5_N9benchmark7CounterEESt10_Select1stISA_ESt4lessIS5_ESaISA_EE8_M_eraseEPSt13_Rb_tree_nodeISA_E.isra.0 },
        Symbol { offset: 418ce0, size: 182, name: _ZNSt8_Rb_treeINSt7__cxx1112basic_stringIcSt11char_traitsIcESaIcEEESt4pairIKS5_N9benchmark7CounterEESt10_Select1stISA_ESt4lessIS5_ESaISA_EE7_M_copyILb0ENSG_11_Alloc_nodeEEEPSt13_Rb_tree_nodeISA_ESL_PSt18_Rb_tree_node_baseRT0_.isra.0 },
        Symbol { offset: 411380, size: 71, name: _ZNSt8_Rb_treeINSt7__cxx1112basic_stringIcSt11char_traitsIcESaIcEEESt4pairIKS5_S5_ESt10_Select1stIS8_ESt4lessIS5_ESaIS8_EE8_M_eraseEPSt13_Rb_tree_nodeIS8_E.isra.0 },
        Symbol { offset: 411400, size: 145, name: _ZNSt8_Rb_treeINSt7__cxx1112basic_stringIcSt11char_traitsIcESaIcEEESt4pairIKS5_N9benchmark7CounterEESt10_Select1stISA_ESt4lessIS5_ESaISA_EE24_M_get_insert_unique_posERS7_.isra.0 },
        Symbol { offset: 418fd0, size: 145, name: _ZNSt8_Rb_treeINSt7__cxx1112basic_stringIcSt11char_traitsIcESaIcEEESt4pairIKS5_S5_ESt10_Select1stIS8_ESt4lessIS5_ESaIS8_EE24_M_get_insert_unique_posERS7_.isra.0 },
        Symbol { offset: 411550, size: 1e1, name: _ZN9benchmark8internal12_GLOBAL__N_114CreateReporterERKNSt7__cxx1112basic_stringIcSt11char_traitsIcESaIcEEENS_15ConsoleReporter13OutputOptionsE },
        Symbol { offset: 40644a, size: 3f, name: _ZN9benchmark8internal12_GLOBAL__N_114CreateReporterERKNSt7__cxx1112basic_stringIcSt11char_traitsIcESaIcEEENS_15ConsoleReporter13OutputOptionsE.cold },
        Symbol { offset: 411740, size: 445, name: _ZNSt8_Rb_treeINSt7__cxx1112basic_stringIcSt11char_traitsIcESaIcEEESt4pairIKS5_N9benchmark7CounterEESt10_Select1stISA_ESt4lessIS5_ESaISA_EE22_M_emplace_hint_uniqueIJRKSt21piecewise_construct_tSt5tupleIJRS7_EESL_IJEEEEESt17_Rb_tree_iteratorISA_ESt23_Rb_tree_const_iteratorISA_EDpOT_.isra.0 },
        Symbol { offset: 40648a, size: 27, name: _ZNSt8_Rb_treeINSt7__cxx1112basic_stringIcSt11char_traitsIcESaIcEEESt4pairIKS5_N9benchmark7CounterEESt10_Select1stISA_ESt4lessIS5_ESaISA_EE22_M_emplace_hint_uniqueIJRKSt21piecewise_construct_tSt5tupleIJRS7_EESL_IJEEEEESt17_Rb_tree_iteratorISA_ESt23_Rb_tree_const_iteratorISA_EDpOT_.isra.0.cold },
        Symbol { offset: 411b90, size: 9c, name: _ZN9benchmark8internal11ThreadTimer9StopTimerEv.part.0 },
        Symbol { offset: 45b2c8, size: 8, name: _ZN9benchmark8internalL27global_force_escape_pointerE },
        Symbol { offset: 4064b2, size: c4, name: _ZN9benchmark5State11PauseTimingEv.cold },
        Symbol { offset: 45b2b8, size: 8, name: _ZGVZN9benchmark28CreateDefaultDisplayReporterEvE24default_display_reporter },
        Symbol { offset: 45b2c0, size: 8, name: _ZZN9benchmark28CreateDefaultDisplayReporterEvE24default_display_reporter },
        Symbol { offset: 406576, size: 10, name: _ZN9benchmark28CreateDefaultDisplayReporterEv.cold },
        Symbol { offset: 45b2b4, size: 4, name: _ZN9benchmark12_GLOBAL__N_117default_time_unitE },
        Symbol { offset: 45b2a8, size: 8, name: _ZGVZN9benchmark8internal17InitializeStreamsEvE4init },
        Symbol { offset: 45b2b0, size: 1, name: _ZZN9benchmark8internal17InitializeStreamsEvE4init },
        Symbol { offset: 406586, size: 10, name: _ZN9benchmark8internal17InitializeStreamsEv.cold },
        Symbol { offset: 406596, size: 98, name: _ZN9benchmark5StateC2ENSt7__cxx1112basic_stringIcSt11char_traitsIcESaIcEEElRKSt6vectorIlSaIlEEiiPNS_8internal11ThreadTimerEPNSC_13ThreadManagerEPNSC_23PerfCountersMeasurementEPNS_15ProfilerManagerEPN8codspeed8CodSpeedE.cold },
        Symbol { offset: 413800, size: 240, name: _ZNSt8_Rb_treeIiSt4pairIKiN9benchmark17BenchmarkReporter19PerFamilyRunReportsEESt10_Select1stIS5_ESt4lessIiESaIS5_EE8_M_eraseEPSt13_Rb_tree_nodeIS5_E.isra.0 },
        Symbol { offset: 40662e, size: 18, name: _ZN9benchmark5State8SetLabelERKNSt7__cxx1112basic_stringIcSt11char_traitsIcESaIcEEE.cold },
        Symbol { offset: 406646, size: 18, name: _ZN9benchmark5State15SkipWithMessageERKNSt7__cxx1112basic_stringIcSt11char_traitsIcESaIcEEE.cold },
        Symbol { offset: 40665e, size: 18, name: _ZN9benchmark5State13SkipWithErrorERKNSt7__cxx1112basic_stringIcSt11char_traitsIcESaIcEEE.cold },
        Symbol { offset: 413d70, size: 15a, name: _ZN9benchmark7Barrier4waitEv.isra.0 },
        Symbol { offset: 406676, size: 1e, name: _ZN9benchmark7Barrier4waitEv.isra.0.cold },
        Symbol { offset: 414100, size: 755, name: _ZN9benchmark8internal12_GLOBAL__N_126generate_raw_walltime_dataERKNS0_10RunResultsE },
        Symbol { offset: 406694, size: a3, name: _ZN9benchmark8internal12_GLOBAL__N_126generate_raw_walltime_dataERKNS0_10RunResultsE.cold },
        Symbol { offset: 45a5d0, size: 10, name: C.289.0 },
        Symbol { offset: 406737, size: 2c, name: _ZN9benchmark8internal21ParseCommandLineFlagsEPiPPc.cold },
        Symbol { offset: 41b140, size: da, name: _ZNSt24uniform_int_distributionImEclISt23mersenne_twister_engineImLm32ELm624ELm397ELm31ELm2567483615ELm11ELm4294967295ELm7ELm2636928640ELm15ELm4022730752ELm18ELm1812433253EEEEmRT_RKNS0_10param_typeE.isra.0 },
        Symbol { offset: 414fe0, size: 1fe, name: _ZNSt8_Rb_treeINSt7__cxx1112basic_stringIcSt11char_traitsIcESaIcEEESt4pairIKS5_N9benchmark7CounterEESt10_Select1stISA_ESt4lessIS5_ESaISA_EE7_M_copyILb0ENSG_20_Reuse_or_alloc_nodeEEEPSt13_Rb_tree_nodeISA_ESL_PSt18_Rb_tree_node_baseRT0_.isra.0 },
        Symbol { offset: 406764, size: 65, name: _ZNSt8_Rb_treeINSt7__cxx1112basic_stringIcSt11char_traitsIcESaIcEEESt4pairIKS5_N9benchmark7CounterEESt10_Select1stISA_ESt4lessIS5_ESaISA_EE7_M_copyILb0ENSG_20_Reuse_or_alloc_nodeEEEPSt13_Rb_tree_nodeISA_ESL_PSt18_Rb_tree_node_baseRT0_.isra.0.cold },
        Symbol { offset: 4151e0, size: 3f3, name: _ZNSt11__copy_moveILb0ELb0ESt26random_access_iterator_tagE8__copy_mIPN9benchmark17BenchmarkReporter3RunES6_EET0_T_S8_S7_.isra.0 },
        Symbol { offset: 4067c9, size: 11, name: _ZNSt11__copy_moveILb0ELb0ESt26random_access_iterator_tagE8__copy_mIPN9benchmark17BenchmarkReporter3RunES6_EET0_T_S8_S7_.isra.0.cold },
        Symbol { offset: 4155e0, size: 2b11, name: _ZN9benchmark8internal12_GLOBAL__N_113RunBenchmarksERKSt6vectorINS0_17BenchmarkInstanceESaIS3_EEPNS_17BenchmarkReporterES9_ },
        Symbol { offset: 4067da, size: 2f1, name: _ZN9benchmark8internal12_GLOBAL__N_113RunBenchmarksERKSt6vectorINS0_17BenchmarkInstanceESaIS3_EEPNS_17BenchmarkReporterES9_.cold },
        Symbol { offset: 406acb, size: 103, name: _ZN9benchmark22RunSpecifiedBenchmarksEPNS_17BenchmarkReporterES1_NSt7__cxx1112basic_stringIcSt11char_traitsIcESaIcEEE.cold },
        Symbol { offset: 406bce, size: 24, name: _ZN9benchmark22RunSpecifiedBenchmarksEv.cold },
        Symbol { offset: 406bf2, size: 24, name: _ZN9benchmark22RunSpecifiedBenchmarksENSt7__cxx1112basic_stringIcSt11char_traitsIcESaIcEEE.cold },
        Symbol { offset: 406c16, size: 24, name: _ZN9benchmark22RunSpecifiedBenchmarksEPNS_17BenchmarkReporterE.cold },
        Symbol { offset: 406c3a, size: 24, name: _ZN9benchmark22RunSpecifiedBenchmarksEPNS_17BenchmarkReporterENSt7__cxx1112basic_stringIcSt11char_traitsIcESaIcEEE.cold },
        Symbol { offset: 406c5e, size: 24, name: _ZN9benchmark22RunSpecifiedBenchmarksEPNS_17BenchmarkReporterES1_.cold },
        Symbol { offset: 40c470, size: 313, name: _GLOBAL__sub_I_benchmark.cc },
        Symbol { offset: 44e210, size: 5, name: _ZN9benchmarkL18kDefaultMinTimeStrE },
        Symbol { offset: 406c82, size: 11, name: _GLOBAL__sub_I_benchmark.cc.cold },
        Symbol { offset: 41cb20, size: 36, name: _ZStlsISt11char_traitsIcEERSt13basic_ostreamIcT_ES5_c.isra.0 },
        Symbol { offset: 41cb60, size: 4a, name: _ZN9benchmark12_GLOBAL__N_115DiagnoseAndExitEPKc },
        Symbol { offset: 40c790, size: 5, name: _GLOBAL__sub_I_timers.cc },
        Symbol { offset: 406c94, size: df, name: _ZNK9benchmark13BenchmarkName3strB5cxx11Ev.cold },
        Symbol { offset: 40c7a0, size: 5, name: _GLOBAL__sub_I_benchmark_name.cc },
        Symbol { offset: 41d440, size: 90, name: _ZNSt7__cxx1112basic_stringIcSt11char_traitsIcESaIcEE12_M_constructIPKcEEvT_S8_St20forward_iterator_tag.isra.0 },
        Symbol { offset: 41d4d0, size: 1a4, name: _ZN9benchmark12_GLOBAL__N_112StrFormatImpEPKcP13__va_list_tag },
        Symbol { offset: 406d73, size: 24, name: _ZN9benchmark12_GLOBAL__N_112StrFormatImpEPKcP13__va_list_tag.cold },
        Symbol { offset: 45a0e0, size: 40, name: _ZN9benchmark12_GLOBAL__N_1L11kBigSIUnitsE },
        Symbol { offset: 45a0a0, size: 40, name: _ZN9benchmark12_GLOBAL__N_1L12kBigIECUnitsE },
        Symbol { offset: 45a060, size: 40, name: _ZN9benchmark12_GLOBAL__N_1L13kSmallSIUnitsE },
        Symbol { offset: 406d97, size: 13b, name: _ZN9benchmark19HumanReadableNumberB5cxx11EdNS_7Counter4OneKE.cold },
        Symbol { offset: 406ed2, size: 100, name: _ZN9benchmark8StrSplitERKNSt7__cxx1112basic_stringIcSt11char_traitsIcESaIcEEEc.cold },
        Symbol { offset: 40c7b0, size: 5, name: _GLOBAL__sub_I_string_util.cc },
        Symbol { offset: 41ed90, size: 90, name: _ZNSt7__cxx1112basic_stringIcSt11char_traitsIcESaIcEE12_M_constructIPcEEvT_S7_St20forward_iterator_tag.isra.0 },
        Symbol { offset: 41ee20, size: 2f1, name: _ZNSt8_Rb_treeINSt7__cxx1112basic_stringIcSt11char_traitsIcESaIcEEESt4pairIKS5_N9benchmark7CounterEESt10_Select1stISA_ESt4lessIS5_ESaISA_EE8_M_eraseEPSt13_Rb_tree_nodeISA_E.isra.0 },
        Symbol { offset: 45b360, size: 8, name: _ZGVZN9benchmark8internal17BenchmarkFamilies11GetInstanceEvE8instance },
        Symbol { offset: 45b380, size: 40, name: _ZZN9benchmark8internal17BenchmarkFamilies11GetInstanceEvE8instance },
        Symbol { offset: 406fd2, size: 25, name: _ZN9benchmark8internal17BenchmarkFamilies15ClearBenchmarksEv.cold },
        Symbol { offset: 406ff8, size: 8, name: _ZN9benchmark8internal9Benchmark11UseRealTimeEv.cold },
        Symbol { offset: 407000, size: 8, name: _ZN9benchmark8internal9Benchmark13UseManualTimeEv.cold },
        Symbol { offset: 407008, size: 8a, name: _ZN9benchmark8internal9Benchmark8ArgNamesERKSt6vectorINSt7__cxx1112basic_stringIcSt11char_traitsIcESaIcEEESaIS8_EE.cold },
        Symbol { offset: 407092, size: 10, name: _ZN9benchmark16CreateDenseRangeElli.cold },
        Symbol { offset: 4070a2, size: 85, name: _ZN9benchmark8internal9Benchmark11ArgsProductERKSt6vectorIS2_IlSaIlEESaIS4_EE.cold },
        Symbol { offset: 407128, size: d1, name: _ZN9benchmark8internal9BenchmarkC2ERKNSt7__cxx1112basic_stringIcSt11char_traitsIcESaIcEEE.cold },
        Symbol { offset: 4071fa, size: 17, name: _ZN9benchmark8internal17BenchmarkFamilies12AddBenchmarkESt10unique_ptrINS0_9BenchmarkESt14default_deleteIS3_EE.cold },
        Symbol { offset: 407211, size: 17, name: _ZN9benchmark8internal25RegisterBenchmarkInternalESt10unique_ptrINS0_9BenchmarkESt14default_deleteIS2_EE.cold },
        Symbol { offset: 44e270, size: a, name: _ZN9benchmark12_GLOBAL__N_1L15kDisabledPrefixE },
        Symbol { offset: 407228, size: aa, name: _ZN9benchmark8internal17BenchmarkFamilies14FindBenchmarksENSt7__cxx1112basic_stringIcSt11char_traitsIcESaIcEEEPSt6vectorINS0_17BenchmarkInstanceESaIS9_EEPSo.cold },
        Symbol { offset: 4072d2, size: 24, name: _ZN9benchmark8internal22FindBenchmarksInternalERKNSt7__cxx1112basic_stringIcSt11char_traitsIcESaIcEEEPSt6vectorINS0_17BenchmarkInstanceESaISA_EEPSo.cold },
        Symbol { offset: 4072f6, size: 2b, name: _ZN9benchmark8internal9Benchmark3ArgEl.cold },
        Symbol { offset: 407322, size: 2b, name: _ZN9benchmark8internal9Benchmark10DenseRangeElli.cold },
        Symbol { offset: 40734d, size: 10, name: _ZN9benchmark11CreateRangeElli.cold },
        Symbol { offset: 40735e, size: 32, name: _ZN9benchmark8internal9Benchmark5RangeEll.cold },
        Symbol { offset: 407390, size: 1c, name: _ZN9benchmark8internal9Benchmark6RangesERKSt6vectorISt4pairIllESaIS4_EE.cold },
        Symbol { offset: 4073ac, size: 30, name: _ZN9benchmark8internal9Benchmark7ArgNameERKNSt7__cxx1112basic_stringIcSt11char_traitsIcESaIcEEE.cold },
        Symbol { offset: 40c7c0, size: 5, name: _GLOBAL__sub_I_benchmark_register.cc },
        Symbol { offset: 4073dc, size: 67, name: _ZN9benchmark17BenchmarkReporter17PrintBasicContextEPSoRKNS0_7ContextE.cold },
        Symbol { offset: 407444, size: 91, name: _ZNK9benchmark17BenchmarkReporter3Run14benchmark_nameB5cxx11Ev.cold },
        Symbol { offset: 44e280, size: 20, name: CSWTCH.47 },
        Symbol { offset: 40c7d0, size: 5, name: _GLOBAL__sub_I_reporter.cc },
        Symbol { offset: 4074d6, size: 10, name: _ZN9benchmark8internal23PerfCountersMeasurementC2ERKSt6vectorINSt7__cxx1112basic_stringIcSt11char_traitsIcESaIcEEESaIS8_EE.cold },
        Symbol { offset: 40c7e0, size: 5, name: _GLOBAL__sub_I_perf_counters.cc },
        Symbol { offset: 428080, size: 27f, name: _ZN9benchmark12_GLOBAL__N_19StrEscapeERKNSt7__cxx1112basic_stringIcSt11char_traitsIcESaIcEEE },
        Symbol { offset: 4074e6, size: 67, name: _ZN9benchmark12_GLOBAL__N_19StrEscapeERKNSt7__cxx1112basic_stringIcSt11char_traitsIcESaIcEEE.cold },
        Symbol { offset: 428300, size: 99, name: _ZN9benchmark12_GLOBAL__N_18FormatKVERKNSt7__cxx1112basic_stringIcSt11char_traitsIcESaIcEEEb },
        Symbol { offset: 40754d, size: 24, name: _ZN9benchmark12_GLOBAL__N_18FormatKVERKNSt7__cxx1112basic_stringIcSt11char_traitsIcESaIcEEEb.cold },
        Symbol { offset: 4283a0, size: c8, name: _ZN9benchmark12_GLOBAL__N_18FormatKVERKNSt7__cxx1112basic_stringIcSt11char_traitsIcESaIcEEES8_ },
        Symbol { offset: 407571, size: 2c, name: _ZN9benchmark12_GLOBAL__N_18FormatKVERKNSt7__cxx1112basic_stringIcSt11char_traitsIcESaIcEEES8_.cold },
        Symbol { offset: 428470, size: 1b8, name: _ZN9benchmark12_GLOBAL__N_18FormatKVERKNSt7__cxx1112basic_stringIcSt11char_traitsIcESaIcEEEPKc },
        Symbol { offset: 40759d, size: 54, name: _ZN9benchmark12_GLOBAL__N_18FormatKVERKNSt7__cxx1112basic_stringIcSt11char_traitsIcESaIcEEEPKc.cold },
        Symbol { offset: 428630, size: 4a1, name: _ZN9benchmark12_GLOBAL__N_18FormatKVERKNSt7__cxx1112basic_stringIcSt11char_traitsIcESaIcEEEl },
        Symbol { offset: 4075f1, size: bc, name: _ZN9benchmark12_GLOBAL__N_18FormatKVERKNSt7__cxx1112basic_stringIcSt11char_traitsIcESaIcEEEl.cold },
        Symbol { offset: 4076ae, size: 14c, name: _ZN9benchmark12JSONReporter13ReportContextERKNS_17BenchmarkReporter7ContextE.cold },
        Symbol { offset: 429e50, size: 577, name: _ZN9benchmark12_GLOBAL__N_18FormatKVERKNSt7__cxx1112basic_stringIcSt11char_traitsIcESaIcEEEd },
        Symbol { offset: 4077fa, size: c4, name: _ZN9benchmark12_GLOBAL__N_18FormatKVERKNSt7__cxx1112basic_stringIcSt11char_traitsIcESaIcEEEd.cold },
        Symbol { offset: 4078be, size: 244, name: _ZN9benchmark12JSONReporter12PrintRunDataERKNS_17BenchmarkReporter3RunE.cold },
        Symbol { offset: 407b02, size: 28, name: _ZN9benchmark12JSONReporter10ReportRunsERKSt6vectorINS_17BenchmarkReporter3RunESaIS3_EE.cold },
        Symbol { offset: 40c7f0, size: 5, name: _GLOBAL__sub_I_json_reporter.cc },
        Symbol { offset: 42c040, size: 36, name: _ZStlsISt11char_traitsIcEERSt13basic_ostreamIcT_ES5_c.isra.0 },
        Symbol { offset: 42d670, size: 59, name: _ZNSt8_Rb_treeINSt7__cxx1112basic_stringIcSt11char_traitsIcESaIcEEES5_St9_IdentityIS5_ESt4lessIS5_ESaIS5_EE8_M_eraseEPSt13_Rb_tree_nodeIS5_E.isra.0 },
        Symbol { offset: 407b2a, size: a2, name: _ZN9benchmark9CsvEscapeERKNSt7__cxx1112basic_stringIcSt11char_traitsIcESaIcEEE.cold },
        Symbol { offset: 45b3d0, size: 18, name: _ZN9benchmark12_GLOBAL__N_18elementsE },
        Symbol { offset: 407bcc, size: a7, name: _ZN9benchmark11CSVReporter12PrintRunDataERKNS_17BenchmarkReporter3RunE.cold },
        Symbol { offset: 407c74, size: 76, name: _ZN9benchmark11CSVReporter10ReportRunsERKSt6vectorINS_17BenchmarkReporter3RunESaIS3_EE.cold },
        Symbol { offset: 40c800, size: 13c, name: _GLOBAL__sub_I_csv_reporter.cc },
        Symbol { offset: 45a120, size: 50, name: C.62.0 },
        Symbol { offset: 407cea, size: 63, name: _GLOBAL__sub_I_csv_reporter.cc.cold },
        Symbol { offset: 42d900, size: 90, name: _ZNSt7__cxx1112basic_stringIcSt11char_traitsIcESaIcEE12_M_constructIPcEEvT_S7_St20forward_iterator_tag.isra.0 },
        Symbol { offset: 42d990, size: 59, name: _ZNSt8_Rb_treeINSt7__cxx1112basic_stringIcSt11char_traitsIcESaIcEEESt4pairIKS5_N9benchmark7CounterEESt10_Select1stISA_ESt4lessIS5_ESaISA_EE8_M_eraseEPSt13_Rb_tree_nodeISA_E.isra.0 },
        Symbol { offset: 4317a0, size: 182, name: _ZNSt8_Rb_treeINSt7__cxx1112basic_stringIcSt11char_traitsIcESaIcEEESt4pairIKS5_N9benchmark7CounterEESt10_Select1stISA_ESt4lessIS5_ESaISA_EE7_M_copyILb0ENSG_11_Alloc_nodeEEEPSt13_Rb_tree_nodeISA_ESL_PSt18_Rb_tree_node_baseRT0_.isra.0 },
        Symbol { offset: 407d4e, size: 71, name: _ZNKSt14default_deleteIN9benchmark8internal13ThreadManagerEEclEPS2_.part.0 },
        Symbol { offset: 407dbf, size: 26, name: _ZN9benchmark8internal17ParseBenchMinTimeERKNSt7__cxx1112basic_stringIcSt11char_traitsIcESaIcEEE.cold },
        Symbol { offset: 45b3f8, size: 8, name: _ZN9benchmark8internal12_GLOBAL__N_1L15kDefaultMinTimeE },
        Symbol { offset: 407de6, size: 85, name: _ZN9benchmark8internal15BenchmarkRunnerC2ERKNS0_17BenchmarkInstanceEPNS0_23PerfCountersMeasurementEPNS_17BenchmarkReporter19PerFamilyRunReportsE.cold },
        Symbol { offset: 42e9c0, size: 5a7, name: _ZN9benchmark8internal12_GLOBAL__N_111RunInThreadEPKNS0_17BenchmarkInstanceEliPNS0_13ThreadManagerEPNS0_23PerfCountersMeasurementEPNS_15ProfilerManagerE },
        Symbol { offset: 407e6b, size: e8, name: _ZN9benchmark8internal12_GLOBAL__N_111RunInThreadEPKNS0_17BenchmarkInstanceEliPNS0_13ThreadManagerEPNS0_23PerfCountersMeasurementEPNS_15ProfilerManagerE.cold },
        Symbol { offset: 407f54, size: 2b, name: _ZN9benchmark8internal15BenchmarkRunner18RunProfilerManagerEl.cold },
        Symbol { offset: 407f80, size: 36, name: _ZN9benchmark8internal15BenchmarkRunner16RunMemoryManagerEl.cold },
        Symbol { offset: 42f5a0, size: 1fe, name: _ZNSt8_Rb_treeINSt7__cxx1112basic_stringIcSt11char_traitsIcESaIcEEESt4pairIKS5_N9benchmark7CounterEESt10_Select1stISA_ESt4lessIS5_ESaISA_EE7_M_copyILb0ENSG_20_Reuse_or_alloc_nodeEEEPSt13_Rb_tree_nodeISA_ESL_PSt18_Rb_tree_node_baseRT0_.isra.0 },
        Symbol { offset: 407fb6, size: 65, name: _ZNSt8_Rb_treeINSt7__cxx1112basic_stringIcSt11char_traitsIcESaIcEEESt4pairIKS5_N9benchmark7CounterEESt10_Select1stISA_ESt4lessIS5_ESaISA_EE7_M_copyILb0ENSG_20_Reuse_or_alloc_nodeEEEPSt13_Rb_tree_nodeISA_ESL_PSt18_Rb_tree_node_baseRT0_.isra.0.cold },
        Symbol { offset: 42f7a0, size: fd, name: _ZNSt8_Rb_treeINSt7__cxx1112basic_stringIcSt11char_traitsIcESaIcEEESt4pairIKS5_N9benchmark7CounterEESt10_Select1stISA_ESt4lessIS5_ESaISA_EEaSERKSG_.isra.0 },
        Symbol { offset: 40801c, size: 11, name: _ZNSt8_Rb_treeINSt7__cxx1112basic_stringIcSt11char_traitsIcESaIcEEESt4pairIKS5_N9benchmark7CounterEESt10_Select1stISA_ESt4lessIS5_ESaISA_EEaSERKSG_.isra.0.cold },
        Symbol { offset: 40802e, size: ea, name: _ZN9benchmark8internal15BenchmarkRunner13DoNIterationsEv.cold },
        Symbol { offset: 408118, size: 28, name: _ZN9benchmark8internal15BenchmarkRunner9RunWarmUpEv.cold },
        Symbol { offset: 408140, size: 85, name: _ZN9benchmark8internal15BenchmarkRunner15DoOneRepetitionEv.cold },
        Symbol { offset: 40c940, size: 21, name: _GLOBAL__sub_I_benchmark_runner.cc },
        Symbol { offset: 44e43e, size: 5, name: _ZN9benchmarkL18kDefaultMinTimeStrE },
        Symbol { offset: 432f30, size: da, name: _ZN9benchmarkL10FormatTimeEd },
        Symbol { offset: 433010, size: 109, name: _ZN9benchmarkL16IgnoreColorPrintERSoNS_8LogColorEPKcz },
        Symbol { offset: 4081c6, size: 27, name: _ZN9benchmarkL16IgnoreColorPrintERSoNS_8LogColorEPKcz.cold },
        Symbol { offset: 433120, size: 59, name: _ZNSt8_Rb_treeINSt7__cxx1112basic_stringIcSt11char_traitsIcESaIcEEESt4pairIKS5_N9benchmark7CounterEESt10_Select1stISA_ESt4lessIS5_ESaISA_EE8_M_eraseEPSt13_Rb_tree_nodeISA_E.isra.0 },
        Symbol { offset: 4081ee, size: 7e, name: _ZN9benchmark15ConsoleReporter11PrintHeaderERKNS_17BenchmarkReporter3RunE.cold },
        Symbol { offset: 433410, size: 508, name: _ZNSt8_Rb_treeINSt7__cxx1112basic_stringIcSt11char_traitsIcESaIcEEESt4pairIKS5_N9benchmark7CounterEESt10_Select1stISA_ESt4lessIS5_ESaISA_EE7_M_copyILb0ENSG_20_Reuse_or_alloc_nodeEEEPSt13_Rb_tree_nodeISA_ESL_PSt18_Rb_tree_node_baseRT0_.isra.0 },
        Symbol { offset: 40826c, size: b3, name: _ZNSt8_Rb_treeINSt7__cxx1112basic_stringIcSt11char_traitsIcESaIcEEESt4pairIKS5_N9benchmark7CounterEESt10_Select1stISA_ESt4lessIS5_ESaISA_EE7_M_copyILb0ENSG_20_Reuse_or_alloc_nodeEEEPSt13_Rb_tree_nodeISA_ESL_PSt18_Rb_tree_node_baseRT0_.isra.0.cold },
        Symbol { offset: 408320, size: 11, name: _ZN9benchmark15ConsoleReporter10ReportRunsERKSt6vectorINS_17BenchmarkReporter3RunESaIS3_EE.cold },
        Symbol { offset: 408332, size: 66, name: _ZN9benchmark15ConsoleReporter12PrintRunDataERKNS_17BenchmarkReporter3RunE.cold },
        Symbol { offset: 40c970, size: 5, name: _GLOBAL__sub_I_console_reporter.cc },
        Symbol { offset: 434530, size: a, name: _ZZN9benchmark12FittingCurveENS_4BigOEENUllE_4_FUNEl },
        Symbol { offset: 434540, size: 9, name: _ZZN9benchmark12FittingCurveENS_4BigOEENUllE4_4_FUNEl },
        Symbol { offset: 434550, size: 2a, name: _ZZN9benchmark12FittingCurveENS_4BigOEENUllE3_4_FUNEl },
        Symbol { offset: 434580, size: e, name: _ZZN9benchmark12FittingCurveENS_4BigOEENUllE2_4_FUNEl },
        Symbol { offset: 434590, size: 16, name: _ZZN9benchmark12FittingCurveENS_4BigOEENUllE1_4_FUNEl },
        Symbol { offset: 4345b0, size: e, name: _ZZN9benchmark12FittingCurveENS_4BigOEENUllE0_4_FUNEl },
        Symbol { offset: 4345c0, size: 90, name: _ZNSt7__cxx1112basic_stringIcSt11char_traitsIcESaIcEE12_M_constructIPcEEvT_S7_St20forward_iterator_tag.isra.0 },
        Symbol { offset: 434650, size: 59, name: _ZNSt8_Rb_treeINSt7__cxx1112basic_stringIcSt11char_traitsIcESaIcEEESt4pairIKS5_N9benchmark7CounterEESt10_Select1stISA_ESt4lessIS5_ESaISA_EE8_M_eraseEPSt13_Rb_tree_nodeISA_E.isra.0 },
        Symbol { offset: 4346b0, size: 11a, name: _ZNSt8_Rb_treeINSt7__cxx1112basic_stringIcSt11char_traitsIcESaIcEEESt4pairIKS5_N9benchmark7CounterEESt10_Select1stISA_ESt4lessIS5_ESaISA_EE7_M_copyILb0ENSG_11_Alloc_nodeEEEPSt13_Rb_tree_nodeISA_ESL_PSt18_Rb_tree_node_baseRT0_.isra.0 },
        Symbol { offset: 408398, size: 6b, name: _ZNSt8_Rb_treeINSt7__cxx1112basic_stringIcSt11char_traitsIcESaIcEEESt4pairIKS5_N9benchmark7CounterEESt10_Select1stISA_ESt4lessIS5_ESaISA_EE7_M_copyILb0ENSG_11_Alloc_nodeEEEPSt13_Rb_tree_nodeISA_ESL_PSt18_Rb_tree_node_baseRT0_.isra.0.cold },
        Symbol { offset: 408403, size: 11, name: _ZN9benchmark14MinimalLeastSqERKSt6vectorIlSaIlEERKS0_IdSaIdEENS_4BigOE.cold },
        Symbol { offset: 44e4c0, size: 20, name: CSWTCH.112 },
        Symbol { offset: 408414, size: 1b0, name: _ZN9benchmark11ComputeBigOERKSt6vectorINS_17BenchmarkReporter3RunESaIS2_EE.cold },
        Symbol { offset: 40c980, size: 5, name: _GLOBAL__sub_I_complexity.cc },
        Symbol { offset: 436540, size: 90, name: _ZNSt7__cxx1112basic_stringIcSt11char_traitsIcESaIcEE12_M_constructIPcEEvT_S7_St20forward_iterator_tag.isra.0 },
        Symbol { offset: 4365d0, size: 78, name: _ZN9benchmark12_GLOBAL__N_111ParseDoubleERKNSt7__cxx1112basic_stringIcSt11char_traitsIcESaIcEEEPKcPd.part.0.isra.0 },
        Symbol { offset: 436650, size: 71, name: _ZNSt8_Rb_treeINSt7__cxx1112basic_stringIcSt11char_traitsIcESaIcEEESt4pairIKS5_S5_ESt10_Select1stIS8_ESt4lessIS5_ESaIS8_EE8_M_eraseEPSt13_Rb_tree_nodeIS8_E.isra.0 },
        Symbol { offset: 4366d0, size: 177, name: _ZN9benchmark12_GLOBAL__N_110ParseInt32ERKNSt7__cxx1112basic_stringIcSt11char_traitsIcESaIcEEEPKcPi },
        Symbol { offset: 436850, size: 1c6, name: _ZN9benchmark12_GLOBAL__N_112FlagToEnvVarEPKc },
        Symbol { offset: 4085c4, size: 50, name: _ZN9benchmark12_GLOBAL__N_112FlagToEnvVarEPKc.cold },
        Symbol { offset: 436a20, size: 5c8, name: _ZNSt8_Rb_treeINSt7__cxx1112basic_stringIcSt11char_traitsIcESaIcEEESt4pairIKS5_S5_ESt10_Select1stIS8_ESt4lessIS5_ESaIS8_EE7_M_copyILb0ENSE_20_Reuse_or_alloc_nodeEEEPSt13_Rb_tree_nodeIS8_ESJ_PSt18_Rb_tree_node_baseRT0_.isra.0 },
        Symbol { offset: 408614, size: e6, name: _ZNSt8_Rb_treeINSt7__cxx1112basic_stringIcSt11char_traitsIcESaIcEEESt4pairIKS5_S5_ESt10_Select1stIS8_ESt4lessIS5_ESaIS8_EE7_M_copyILb0ENSE_20_Reuse_or_alloc_nodeEEEPSt13_Rb_tree_nodeIS8_ESJ_PSt18_Rb_tree_node_baseRT0_.isra.0.cold },
        Symbol { offset: 4086fa, size: 61, name: _ZN9benchmark12Int32FromEnvEPKci.cold },
        Symbol { offset: 40875b, size: 5e, name: _ZN9benchmark13DoubleFromEnvEPKcd.cold },
        Symbol { offset: 4087b9, size: 57, name: _ZN9benchmark14ParseFlagValueEPKcS1_b.cold },
        Symbol { offset: 408810, size: 55, name: _ZN9benchmark14ParseInt32FlagEPKcS1_Pi.cold },
        Symbol { offset: 408865, size: 52, name: _ZN9benchmark15ParseDoubleFlagEPKcS1_Pd.cold },
        Symbol { offset: 4088b7, size: 2c, name: _ZN9benchmark11BoolFromEnvEPKcb.cold },
        Symbol { offset: 4088e3, size: 24, name: _ZN9benchmark13ParseBoolFlagEPKcS1_Pb.cold },
        Symbol { offset: 408907, size: d0, name: _ZN9benchmark14KvPairsFromEnvEPKcSt3mapINSt7__cxx1112basic_stringIcSt11char_traitsIcESaIcEEES8_St4lessIS8_ESaISt4pairIKS8_S8_EEE.cold },
        Symbol { offset: 4089d7, size: 58, name: _ZN9benchmark17ParseKeyValueFlagEPKcS1_PSt3mapINSt7__cxx1112basic_stringIcSt11char_traitsIcESaIcEEES8_St4lessIS8_ESaISt4pairIKS8_S8_EEE.cold },
        Symbol { offset: 40c990, size: 5, name: _GLOBAL__sub_I_commandlineflags.cc },
        Symbol { offset: 439070, size: 90, name: _ZNSt7__cxx1112basic_stringIcSt11char_traitsIcESaIcEE12_M_constructIPKcEEvT_S8_St20forward_iterator_tag.isra.0 },
        Symbol { offset: 408a2f, size: 24, name: _ZN9benchmark12FormatStringB5cxx11EPKcP13__va_list_tag.cold },
        Symbol { offset: 408a53, size: 48, name: _ZN9benchmark11ColorPrintfERSoNS_8LogColorEPKcP13__va_list_tag.cold },
        Symbol { offset: 45b018, size: 8, name: _ZN9benchmark8internalL7handlerE },
        Symbol { offset: 439800, size: 90, name: _ZNSt7__cxx1112basic_stringIcSt11char_traitsIcESaIcEE12_M_constructIPKcEEvT_S8_St20forward_iterator_tag.isra.0 },
        Symbol { offset: 439890, size: 45, name: _ZStlsISt11char_traitsIcEERSt13basic_ostreamIcT_ES5_PKc.isra.0 },
        Symbol { offset: 4398e0, size: 36, name: _ZStlsISt11char_traitsIcEERSt13basic_ostreamIcT_ES5_c.isra.0 },
        Symbol { offset: 439920, size: 90, name: _ZNSt7__cxx1112basic_stringIcSt11char_traitsIcESaIcEE12_M_constructIPcEEvT_S7_St20forward_iterator_tag.isra.0 },
        Symbol { offset: 4399b0, size: 60, name: _ZN9benchmark12_GLOBAL__N_116PrintErrorAndDieIJRA28_KcRNSt7__cxx1112basic_stringIcSt11char_traitsIcESaIcEEERA6_S2_EEEvDpOT_ },
        Symbol { offset: 4399b0, size: 60, name: _ZN9benchmark12_GLOBAL__N_116PrintErrorAndDieIJRA26_KcRNSt7__cxx1112basic_stringIcSt11char_traitsIcESaIcEEERA15_S2_EEEvDpOT_ },
        Symbol { offset: 4399b0, size: 60, name: _ZN9benchmark12_GLOBAL__N_116PrintErrorAndDieIJRA26_KcRNSt7__cxx1112basic_stringIcSt11char_traitsIcESaIcEEERA6_S2_EEEvDpOT_ },
        Symbol { offset: 4399b0, size: 60, name: _ZN9benchmark12_GLOBAL__N_116PrintErrorAndDieIJRA26_KcRNSt7__cxx1112basic_stringIcSt11char_traitsIcESaIcEEERA5_S2_EEEvDpOT_ },
        Symbol { offset: 45b400, size: 8, name: _ZGVZN9benchmark10SystemInfo3GetEvE4info },
        Symbol { offset: 45b408, size: 8, name: _ZZN9benchmark10SystemInfo3GetEvE4info },
        Symbol { offset: 408a9c, size: 1d, name: _ZN9benchmark10SystemInfo3GetEv.cold },
        Symbol { offset: 439c20, size: 26d, name: _ZN9benchmark12_GLOBAL__N_112ReadFromFileIlEEbRKNSt7__cxx1112basic_stringIcSt11char_traitsIcESaIcEEEPT_.isra.0 },
        Symbol { offset: 408ab9, size: 91, name: _ZN9benchmark12_GLOBAL__N_112ReadFromFileIlEEbRKNSt7__cxx1112basic_stringIcSt11char_traitsIcESaIcEEEPT_.isra.0.cold },
        Symbol { offset: 439e90, size: da5, name: _ZN9benchmark12_GLOBAL__N_121GetCPUCyclesPerSecondENS_7CPUInfo7ScalingE },
        Symbol { offset: 408b4a, size: 156, name: _ZN9benchmark12_GLOBAL__N_121GetCPUCyclesPerSecondENS_7CPUInfo7ScalingE.cold },
        Symbol { offset: 43ac40, size: 2c5, name: _ZN9benchmark12_GLOBAL__N_112ReadFromFileINSt7__cxx1112basic_stringIcSt11char_traitsIcESaIcEEEEEbRKS7_PT_ },
        Symbol { offset: 408ca0, size: 9c, name: _ZN9benchmark12_GLOBAL__N_112ReadFromFileINSt7__cxx1112basic_stringIcSt11char_traitsIcESaIcEEEEEbRKS7_PT_.cold },
        Symbol { offset: 43af10, size: 445, name: _ZN9benchmark12_GLOBAL__N_110CpuScalingEi },
        Symbol { offset: 408d3c, size: 8f, name: _ZN9benchmark12_GLOBAL__N_110CpuScalingEi.cold },
        Symbol { offset: 43b360, size: 209a, name: _ZN9benchmark12_GLOBAL__N_121GetCacheSizesFromKVFSEv },
        Symbol { offset: 408dcb, size: 548, name: _ZN9benchmark12_GLOBAL__N_121GetCacheSizesFromKVFSEv.cold },
        Symbol { offset: 409314, size: 25, name: _ZN9benchmark7CPUInfoC2Ev.cold },
        Symbol { offset: 45b410, size: 8, name: _ZGVZN9benchmark7CPUInfo3GetEvE4info },
        Symbol { offset: 45b418, size: 8, name: _ZZN9benchmark7CPUInfo3GetEvE4info },
        Symbol { offset: 40933a, size: 1d, name: _ZN9benchmark7CPUInfo3GetEv.cold },
        Symbol { offset: 40c9a0, size: 5, name: _GLOBAL__sub_I_sysinfo.cc },
        Symbol { offset: 43dc10, size: 145, name: _ZNSt8_Rb_treeINSt7__cxx1112basic_stringIcSt11char_traitsIcESaIcEEESt4pairIKS5_N9benchmark7CounterEESt10_Select1stISA_ESt4lessIS5_ESaISA_EE24_M_get_insert_unique_posERS7_.isra.0 },
        Symbol { offset: 409357, size: 27, name: _ZN9benchmark8internal9IncrementEPSt3mapINSt7__cxx1112basic_stringIcSt11char_traitsIcESaIcEEENS_7CounterESt4lessIS7_ESaISt4pairIKS7_S8_EEERKSF_.cold },
        Symbol { offset: 40c9b0, size: 5, name: _GLOBAL__sub_I_counter.cc },
        Symbol { offset: 43e5c0, size: 16c, name: _ZSt13__adjust_heapIN9__gnu_cxx17__normal_iteratorIPdSt6vectorIdSaIdEEEEldNS0_5__ops15_Iter_less_iterEEvT_T0_SA_T1_T2_.isra.0 },
        Symbol { offset: 43e730, size: 90, name: _ZNSt7__cxx1112basic_stringIcSt11char_traitsIcESaIcEE12_M_constructIPcEEvT_S7_St20forward_iterator_tag.isra.0 },
        Symbol { offset: 43e7c0, size: 59, name: _ZNSt8_Rb_treeINSt7__cxx1112basic_stringIcSt11char_traitsIcESaIcEEESt4pairIKS5_N9benchmark7CounterEESt10_Select1stISA_ESt4lessIS5_ESaISA_EE8_M_eraseEPSt13_Rb_tree_nodeISA_E.isra.0 },
        Symbol { offset: 43e820, size: 71, name: _ZNSt8_Rb_treeINSt7__cxx1112basic_stringIcSt11char_traitsIcESaIcEEESt4pairIKS5_ZN9benchmark12ComputeStatsERKSt6vectorINS8_17BenchmarkReporter3RunESaISB_EEE11CounterStatESt10_Select1stISH_ESt4lessIS5_ESaISH_EE8_M_eraseEPSt13_Rb_tree_nodeISH_E.isra.0 },
        Symbol { offset: 43e8a0, size: 145, name: _ZNSt8_Rb_treeINSt7__cxx1112basic_stringIcSt11char_traitsIcESaIcEEESt4pairIKS5_N9benchmark7CounterEESt10_Select1stISA_ESt4lessIS5_ESaISA_EE24_M_get_insert_unique_posERS7_.isra.0 },
        Symbol { offset: 43e9f0, size: 145, name: _ZNSt8_Rb_treeINSt7__cxx1112basic_stringIcSt11char_traitsIcESaIcEEESt4pairIKS5_ZN9benchmark12ComputeStatsERKSt6vectorINS8_17BenchmarkReporter3RunESaISB_EEE11CounterStatESt10_Select1stISH_ESt4lessIS5_ESaISH_EE24_M_get_insert_unique_posERS7_.isra.0 },
        Symbol { offset: 43eb40, size: f6, name: _ZNSt8_Rb_treeINSt7__cxx1112basic_stringIcSt11char_traitsIcESaIcEEESt4pairIKS5_ZN9benchmark12ComputeStatsERKSt6vectorINS8_17BenchmarkReporter3RunESaISB_EEE11CounterStatESt10_Select1stISH_ESt4lessIS5_ESaISH_EE4findERS7_ },
        Symbol { offset: 43ec40, size: 25c, name: _ZNSt8_Rb_treeINSt7__cxx1112basic_stringIcSt11char_traitsIcESaIcEEESt4pairIKS5_ZN9benchmark12ComputeStatsERKSt6vectorINS8_17BenchmarkReporter3RunESaISB_EEE11CounterStatESt10_Select1stISH_ESt4lessIS5_ESaISH_EE29_M_get_insert_hint_unique_posESt23_Rb_tree_const_iteratorISH_ERS7_.isra.0 },
        Symbol { offset: 43eea0, size: 162, name: _ZNSt8_Rb_treeINSt7__cxx1112basic_stringIcSt11char_traitsIcESaIcEEESt4pairIKS5_ZN9benchmark12ComputeStatsERKSt6vectorINS8_17BenchmarkReporter3RunESaISB_EEE11CounterStatESt10_Select1stISH_ESt4lessIS5_ESaISH_EE22_M_emplace_hint_uniqueIJRKSt21piecewise_construct_tSt5tupleIJRS7_EESS_IJEEEEESt17_Rb_tree_iteratorISH_ESt23_Rb_tree_const_iteratorISH_EDpOT_.constprop.0.isra.0 },
        Symbol { offset: 40937e, size: 27, name: _ZNSt8_Rb_treeINSt7__cxx1112basic_stringIcSt11char_traitsIcESaIcEEESt4pairIKS5_ZN9benchmark12ComputeStatsERKSt6vectorINS8_17BenchmarkReporter3RunESaISB_EEE11CounterStatESt10_Select1stISH_ESt4lessIS5_ESaISH_EE22_M_emplace_hint_uniqueIJRKSt21piecewise_construct_tSt5tupleIJRS7_EESS_IJEEEEESt17_Rb_tree_iteratorISH_ESt23_Rb_tree_const_iteratorISH_EDpOT_.constprop.0.isra.0.cold },
        Symbol { offset: 4093a5, size: 127, name: _ZN9benchmark12ComputeStatsERKSt6vectorINS_17BenchmarkReporter3RunESaIS2_EE.cold },
        Symbol { offset: 40c9c0, size: 5, name: _GLOBAL__sub_I_statistics.cc },
        Symbol { offset: 4416d0, size: 90, name: _ZNSt7__cxx1112basic_stringIcSt11char_traitsIcESaIcEE12_M_constructIPcEEvT_S7_St20forward_iterator_tag.isra.0 },
        Symbol { offset: 441760, size: 59, name: _ZNSt8_Rb_treeINSt7__cxx1112basic_stringIcSt11char_traitsIcESaIcEEESt4pairIKS5_N9benchmark7CounterEESt10_Select1stISA_ESt4lessIS5_ESaISA_EE8_M_eraseEPSt13_Rb_tree_nodeISA_E.isra.0 },
        Symbol { offset: 4094cc, size: c3, name: _ZN9benchmark8internal17BenchmarkInstanceC2EPNS0_9BenchmarkEiiRKSt6vectorIlSaIlEEi.cold },
        Symbol { offset: 409590, size: 6c, name: _ZNK9benchmark8internal17BenchmarkInstance26__codspeed_root_frame__RunEliPNS0_11ThreadTimerEPNS0_13ThreadManagerEPNS0_23PerfCountersMeasurementEPNS_15ProfilerManagerE.cold },
        Symbol { offset: 4095fc, size: 48, name: _ZNK9benchmark8internal17BenchmarkInstance5SetupEv.cold },
        Symbol { offset: 409644, size: 48, name: _ZNK9benchmark8internal17BenchmarkInstance8TeardownEv.cold },
        Symbol { offset: 40c9d0, size: 5, name: _GLOBAL__sub_I_benchmark_api_internal.cc },
        Symbol { offset: 442a70, size: 90, name: _ZNSt7__cxx1112basic_stringIcSt11char_traitsIcESaIcEE12_M_constructIPKcEEvT_S8_St20forward_iterator_tag.isra.0 },
        Symbol { offset: 442b00, size: 90, name: _ZNSt7__cxx1112basic_stringIcSt11char_traitsIcESaIcEE12_M_constructIPcEEvT_S7_St20forward_iterator_tag.isra.0 },
        Symbol { offset: 40968c, size: d8, name: _ZN8codspeed19sanitize_bench_argsERNSt7__cxx1112basic_stringIcSt11char_traitsIcESaIcEEE.cold },
        Symbol { offset: 409764, size: 2b, name: _ZN8codspeed4joinERKSt6vectorINSt7__cxx1112basic_stringIcSt11char_traitsIcESaIcEEESaIS6_EERKS6_.cold },
        Symbol { offset: 409790, size: 8d, name: _ZN8codspeed8CodSpeed15start_benchmarkERKNSt7__cxx1112basic_stringIcSt11char_traitsIcESaIcEEE.cold },
        Symbol { offset: 40981e, size: 5c, name: _ZN8codspeed8CodSpeedC2Ev.cold },
        Symbol { offset: 40987a, size: a0, name: _ZN8codspeed8CodSpeed13end_benchmarkEv.cold },
        Symbol { offset: 443e60, size: 90, name: _ZNSt7__cxx1112basic_stringIcSt11char_traitsIcESaIcEE12_M_constructIPKcEEvT_S8_St20forward_iterator_tag.isra.0 },
        Symbol { offset: 40991a, size: af, name: _ZN8codspeed30get_path_relative_to_workspaceERKNSt7__cxx1112basic_stringIcSt11char_traitsIcESaIcEEE.cold },
        Symbol { offset: 444240, size: 16c, name: _ZSt13__adjust_heapIN9__gnu_cxx17__normal_iteratorIPdSt6vectorIdSaIdEEEEldNS0_5__ops15_Iter_less_iterEEvT_T0_SA_T1_T2_.isra.0 },
        Symbol { offset: 4443b0, size: 10a, name: _ZSt16__insertion_sortIN9__gnu_cxx17__normal_iteratorIPdSt6vectorIdSaIdEEEENS0_5__ops15_Iter_less_iterEEvT_S9_T0_.isra.0 },
        Symbol { offset: 4444c0, size: 90, name: _ZNSt7__cxx1112basic_stringIcSt11char_traitsIcESaIcEE12_M_constructIPKcEEvT_S8_St20forward_iterator_tag.isra.0 },
        Symbol { offset: 444550, size: 22a, name: _ZSt16__introsort_loopIN9__gnu_cxx17__normal_iteratorIPdSt6vectorIdSaIdEEEElNS0_5__ops15_Iter_less_iterEEvT_S9_T0_T1_.isra.0 },
        Symbol { offset: 444780, size: 90, name: _ZNSt7__cxx1112basic_stringIcSt11char_traitsIcESaIcEE12_M_constructIPcEEvT_S7_St20forward_iterator_tag.isra.0 },
        Symbol { offset: 4099c9, size: 1d, name: _ZN8codspeed24compute_iqr_and_outliersERKSt6vectorIdSaIdEEddRdS5_S5_RmS6_.cold },
        Symbol { offset: 4099e6, size: 1f, name: _ZN8codspeed17escapeBackslashesERKNSt7__cxx1112basic_stringIcSt11char_traitsIcESaIcEEE.cold },
        Symbol { offset: 409a05, size: 35e, name: _ZN8codspeed33write_codspeed_benchmarks_to_jsonERKSt6vectorINS_25CodspeedWalltimeBenchmarkESaIS1_EE.cold },
        Symbol { offset: 409d63, size: 10c, name: _ZN8codspeed33generate_codspeed_walltime_reportERKSt6vectorINS_20RawWalltimeBenchmarkESaIS1_EE.cold },
        Symbol { offset: 447780, size: 90, name: _ZNSt7__cxx1112basic_stringIcSt11char_traitsIcESaIcEE12_M_constructIPKcEEvT_S8_St20forward_iterator_tag.isra.0 },
        Symbol { offset: 409e6f, size: 73, name: _ZN8codspeed23extract_namespace_clangERKNSt7__cxx1112basic_stringIcSt11char_traitsIcESaIcEEE.cold },
        Symbol { offset: 409ee2, size: 47, name: _ZN8codspeed21extract_namespace_gccERKNSt7__cxx1112basic_stringIcSt11char_traitsIcESaIcEEE.cold },
        Symbol { offset: 409f29, size: 5, name: _ZN8codspeed24extract_lambda_namespaceERKNSt7__cxx1112basic_stringIcSt11char_traitsIcESaIcEEE.cold },
        Symbol { offset: 447d60, size: c8, name: simd_firstTrue__anon_4179__6577 },
        Symbol { offset: 447e30, size: f, name: io_GenericWriter_28_2aio_counting_writer_CountingWriter_28io_GenericWriter_28void_2cerror_7b_7d_2c_28function_20_27dummyWr__6629 },
        Symbol { offset: 447e40, size: 1cb, name: mem_indexOfSentinel__anon_3953__6211 },
        Symbol { offset: 448010, size: 3b7, name: unicode_utf8CountCodepoints__6658 },
        Symbol { offset: 4483d0, size: 8, name: heap_CAllocator_free__3560 },
        Symbol { offset: 4483e0, size: 30, name: heap_CAllocator_resize__3558 },
        Symbol { offset: 448410, size: 3f, name: heap_CAllocator_remap__3559 },
        Symbol { offset: 448450, size: 3b, name: heap_CAllocator_alloc__3557 },
        Symbol { offset: 448490, size: 64, name: mem_Allocator_alloc__anon_2157__4173 },
        Symbol { offset: 448490, size: 64, name: mem_Allocator_alignedAlloc__anon_3782__6202 },
        Symbol { offset: 448500, size: 1df, name: io_GenericWriter_28_2aarray_list_ArrayListAligned_28u8_2cnull_29_2cerror_7bOutOfMemory_7d_2c_28function_20_27appendWrite_27_29_29___4130 },
        Symbol { offset: 4486e0, size: 5b, name: io_GenericReader_28_2aio_fixed_buffer_stream_FixedBufferStream_28_5b_5du8_29_2cerror_7b_7d_2c_28function_20_27read_27_29_29_typeEras__4238 },
        Symbol { offset: 448740, size: 6b, name: io_GenericWriter_28_2aio_fixed_buffer_stream_FixedBufferStream_28_5b_5du8_29_2cerror_7bNoSpaceLeft_7d_2c_28function_20_27write__6811 },
        Symbol { offset: 4487b0, size: 18a, name: posix_write__1436 },
        Symbol { offset: 448940, size: ff, name: unicode_utf8EncodeImpl__anon_4956__6813.constprop.0 },
        Symbol { offset: 448a40, size: d6, name: posix_toPosixPath__1701.constprop.0 },
        Symbol { offset: 448b20, size: 143, name: fs_File_readAll__1207 },
        Symbol { offset: 448c70, size: dc, name: io_Reader_readAtLeast__4246.constprop.0 },
        Symbol { offset: 448d50, size: 181, name: bincode_deserializePointerAlloc__anon_2436__4284 },
        Symbol { offset: 409f2e, size: 2, name: bincode_deserializePointerAlloc__anon_2436__4284.cold },
        Symbol { offset: 448ee0, size: 85, name: bincode_deserializeAlloc__anon_2299__4241.isra.0 },
        Symbol { offset: 448f70, size: 4c, name: time_nanoTimestamp__4145 },
        Symbol { offset: 448fc0, size: 24a, name: fs_Dir_openFile__3702.constprop.0 },
        Symbol { offset: 449210, size: 11c, name: fs_Dir_access__3766.constprop.0.isra.0 },
        Symbol { offset: 449330, size: 82, name: shared_Command_deinit__3908.isra.0 },
        Symbol { offset: 4493c0, size: 42, name: array_list_ArrayListAligned_28u8_2cnull_29_deinit__3960 },
        Symbol { offset: 449410, size: ab, name: io_Writer_writeBytesNTimes__6109 },
        Symbol { offset: 4494c0, size: 590, name: fifo_UnixPipe_Reader_waitForAck__1071.constprop.0.isra.0 },
        Symbol { offset: 449a50, size: 523, name: fifo_UnixPipe_Writer_sendCmd__1064 },
        Symbol { offset: 449f80, size: 7f, name: instruments_perf_PerfInstrument_is_instrumented__742 },
        Symbol { offset: 44a000, size: 16e, name: fmt_format__anon_4398__6630 },
        Symbol { offset: 44e9c8, size: a, name: __anon_4452 },
        Symbol { offset: 44e9c1, size: 1, name: __anon_4733 },
        Symbol { offset: 44e9c0, size: 1, name: __anon_4753 },
        Symbol { offset: 45b430, size: 8, name: features_features__314 },
        Symbol { offset: 45a1c0, size: 20, name: heap_CAllocator_vtable__3549 },
        Symbol { offset: 44ea00, size: 15, name: __anon_1843 },
        Symbol { offset: 44e9e0, size: 15, name: __anon_1903 },
        Symbol { offset: 409f30, size: 67, name: instrument_hooks_start_benchmark.cold },
        Symbol { offset: 409f97, size: 67, name: instrument_hooks_stop_benchmark.cold },
        Symbol { offset: 40ca10, size: 5, name: _dl_relocate_static_pie },
        Symbol { offset: 45b010, size: 8, name: DW.ref.__gxx_personality_v0 },
        Symbol { offset: 44ab10, size: 5e, name: __popcountdi2 },
        Symbol { offset: 45a800, size: 250, name: _DYNAMIC },
        Symbol { offset: 45ab38, size: 4c8, name: _GLOBAL_OFFSET_TABLE_ },
        Symbol { offset: 42bf60, size: 50, name: _ZNSt7__cxx1115basic_stringbufIcSt11char_traitsIcESaIcEED2Ev },
        Symbol { offset: 42bfb0, size: 5d, name: _ZNSt7__cxx1115basic_stringbufIcSt11char_traitsIcESaIcEED0Ev },
        Symbol { offset: 42bf60, size: 50, name: _ZNSt7__cxx1115basic_stringbufIcSt11char_traitsIcESaIcEED1Ev },
        Symbol { offset: 44aa50, size: 57, name: callgrind_stop_instrumentation },
        Symbol { offset: 44a9a0, size: 57, name: callgrind_start_instrumentation },
        Symbol { offset: 44a940, size: 57, name: callgrind_zero_stats },
        Symbol { offset: 44a6a0, size: b5, name: instrument_hooks_set_executed_benchmark },
        Symbol { offset: 44a640, size: 53, name: callgrind_dump_stats_at },
        Symbol { offset: 44a5e0, size: 57, name: callgrind_dump_stats },
        Symbol { offset: 44a230, size: 5c, name: running_on_valgrind },
        Symbol { offset: 44a1b0, size: 77, name: instrument_hooks_deinit },
        Symbol { offset: 44a300, size: 2d1, name: instrument_hooks_init },
        Symbol { offset: 447a20, size: 1d2, name: _ZN8codspeed21extract_namespace_gccERKNSt7__cxx1112basic_stringIcSt11char_traitsIcESaIcEEE },
        Symbol { offset: 447810, size: 202, name: _ZN8codspeed23extract_namespace_clangERKNSt7__cxx1112basic_stringIcSt11char_traitsIcESaIcEEE },
        Symbol { offset: 444d00, size: 17fc, name: _ZN8codspeed33write_codspeed_benchmarks_to_jsonERKSt6vectorINS_25CodspeedWalltimeBenchmarkESaIS1_EE },
        Symbol { offset: 4471e0, size: 59d, name: _ZNSt10filesystem7__cxx11lsIcSt11char_traitsIcEEERSt13basic_ostreamIT_T0_ES8_RKNS0_4pathE },
        Symbol { offset: 444bf0, size: 10f, name: _ZN8codspeed17escapeBackslashesERKNSt7__cxx1112basic_stringIcSt11char_traitsIcESaIcEEE },
        Symbol { offset: 444900, size: 2e8, name: _ZN8codspeed24compute_iqr_and_outliersERKSt6vectorIdSaIdEEddRdS5_S5_RmS6_ },
        Symbol { offset: 444810, size: eb, name: _ZN8codspeed16compute_quantileERKSt6vectorIdSaIdEEd },
        Symbol { offset: 4441e0, size: 11, name: _ZNSt10unique_ptrINSt10filesystem7__cxx114path5_List5_ImplENS3_13_Impl_deleterEED1Ev },
        Symbol { offset: 4441e0, size: 11, name: _ZNSt10unique_ptrINSt10filesystem7__cxx114path5_List5_ImplENS3_13_Impl_deleterEED2Ev },
        Symbol { offset: 443ef0, size: 53, name: _ZN8codspeed11safe_getenvB5cxx11EPKc },
        Symbol { offset: 443b60, size: bf, name: _ZN8codspeed8CodSpeed10push_groupERKNSt7__cxx1112basic_stringIcSt11char_traitsIcESaIcEEE },
        Symbol { offset: 44a760, size: 5, name: instrument_hooks_executed_benchmark },
        Symbol { offset: 443c40, size: 220, name: _ZNSt6vectorINSt7__cxx1112basic_stringIcSt11char_traitsIcESaIcEEESaIS5_EE17_M_realloc_appendIJRKS5_EEEvDpOT_ },
        Symbol { offset: 44a770, size: 1c3, name: instrument_hooks_set_integration },
        Symbol { offset: 447d20, size: 2e, name: _Z16measurement_initv },
        Symbol { offset: 44a290, size: 69, name: instrument_hooks_is_instrumented },
        Symbol { offset: 443470, size: 168, name: _ZN8codspeed8CodSpeedC2Ev },
        Symbol { offset: 442f00, size: 31, name: _ZN8codspeed8CodSpeed9pop_groupEv },
        Symbol { offset: 442e10, size: e4, name: _ZN8codspeed4joinERKSt6vectorINSt7__cxx1112basic_stringIcSt11char_traitsIcESaIcEEESaIS6_EERKS6_ },
        Symbol { offset: 4429b0, size: ab, name: _ZN9benchmark5StateD1Ev },
        Symbol { offset: 4429b0, size: ab, name: _ZN9benchmark5StateD2Ev },
        Symbol { offset: 4417c0, size: c81, name: _ZN9benchmark8internal17BenchmarkInstanceC2EPNS0_9BenchmarkEiiRKSt6vectorIlSaIlEEi },
        Symbol { offset: 45b423, size: 1, name: _ZN9benchmark13StatisticsSumE },
        Symbol { offset: 45b422, size: 1, name: _ZN9benchmark10SumSquaresE },
        Symbol { offset: 45b421, size: 1, name: _ZN9benchmark3SqrE },
        Symbol { offset: 45b420, size: 1, name: _ZN9benchmark4SqrtE },
        Symbol { offset: 4415b0, size: 104, name: _ZNSt6vectorIdSaIdEE17_M_realloc_appendIJRKN9benchmark7CounterEEEEvDpOT_ },
        Symbol { offset: 4414a0, size: 104, name: _ZNSt6vectorIdSaIdEE17_M_realloc_appendIJRKdEEEvDpOT_ },
        Symbol { offset: 4413c0, size: d5, name: _ZNSt6vectorIdSaIdEE7reserveEm },
        Symbol { offset: 43dd60, size: 59, name: _ZN9benchmark8internal6FinishERKNS_7CounterEldd },
        Symbol { offset: 43d400, size: 181, name: _ZN9benchmark7CPUInfoC1Ev },
        Symbol { offset: 43d400, size: 181, name: _ZN9benchmark7CPUInfoC2Ev },
        Symbol { offset: 43da60, size: 191, name: _ZNSt6vectorIdSaIdEE17_M_default_appendEm },
        Symbol { offset: 43d7e0, size: 275, name: _ZNSt6vectorIN9benchmark7CPUInfo9CacheInfoESaIS2_EE17_M_realloc_appendIJRKS2_EEEvDpOT_ },
        Symbol { offset: 43d760, size: 73, name: _ZNSt6vectorIN9benchmark7CPUInfo9CacheInfoESaIS2_EED1Ev },
        Symbol { offset: 43d760, size: 73, name: _ZNSt6vectorIN9benchmark7CPUInfo9CacheInfoESaIS2_EED2Ev },
        Symbol { offset: 43d6d0, size: 8f, name: _ZN9__gnu_cxx6__stoaIddcJEEET0_PFT_PKT1_PPS3_DpT2_EPKcS5_PmS9_ },
        Symbol { offset: 43d630, size: 96, name: _ZN9__gnu_cxx6__stoaImmcJiEEET0_PFT_PKT1_PPS3_DpT2_EPKcS5_PmS9_ },
        Symbol { offset: 439a10, size: 176, name: _ZN9benchmark10SystemInfoC1Ev },
        Symbol { offset: 439a10, size: 176, name: _ZN9benchmark10SystemInfoC2Ev },
        Symbol { offset: 43d620, size: 3, name: _ZNKSt5ctypeIcE8do_widenEc },
        Symbol { offset: 439430, size: 17a, name: _ZN9benchmark11ColorPrintfERSoNS_8LogColorEPKcP13__va_list_tag },
        Symbol { offset: 4375c0, size: 35b, name: _ZN9benchmark14ParseFlagValueEPKcS1_b },
        Symbol { offset: 434b40, size: 2e1, name: _ZN9benchmark14MinimalLeastSqERKSt6vectorIlSaIlEERKS0_IdSaIdEENS_4BigOE },
        Symbol { offset: 436500, size: 21, name: _ZNSt12_Vector_baseIN9benchmark4BigOESaIS1_EED1Ev },
        Symbol { offset: 436500, size: 21, name: _ZNSt12_Vector_baseIN9benchmark4BigOESaIS1_EED2Ev },
        Symbol { offset: 4364d0, size: 21, name: _ZNSt12_Vector_baseIdSaIdEED1Ev },
        Symbol { offset: 4364d0, size: 21, name: _ZNSt12_Vector_baseIdSaIdEED2Ev },
        Symbol { offset: 436300, size: 1cf, name: _ZN9benchmark13BenchmarkNameC1ERKS0_ },
        Symbol { offset: 436300, size: 1cf, name: _ZN9benchmark13BenchmarkNameC2ERKS0_ },
        Symbol { offset: 434930, size: 206, name: _ZN9benchmark14MinimalLeastSqERKSt6vectorIlSaIlEERKS0_IdSaIdEEPFdlE },
        Symbol { offset: 4347d0, size: 70, name: _ZN9benchmark12FittingCurveENS_4BigOE },
        Symbol { offset: 45a798, size: 18, name: _ZTIN9benchmark15ConsoleReporterE },
        Symbol { offset: 44e450, size: 1e, name: _ZTSN9benchmark15ConsoleReporterE },
        Symbol { offset: 4395b0, size: 7f, name: _ZN9benchmark11ColorPrintfERSoNS_8LogColorEPKcz },
        Symbol { offset: 433ac0, size: 942, name: _ZN9benchmark15ConsoleReporter12PrintRunDataERKNS_17BenchmarkReporter3RunE },
        Symbol { offset: 43de30, size: 76, name: _ZN9benchmark8internal9SameNamesERKSt3mapINSt7__cxx1112basic_stringIcSt11char_traitsIcESaIcEEENS_7CounterESt4lessIS7_ESaISt4pairIKS7_S8_EEESH_ },
        Symbol { offset: 433920, size: 19d, name: _ZN9benchmark15ConsoleReporter10ReportRunsERKSt6vectorINS_17BenchmarkReporter3RunESaIS3_EE },
        Symbol { offset: 4331e0, size: 22c, name: _ZN9benchmark15ConsoleReporter11PrintHeaderERKNS_17BenchmarkReporter3RunE },
        Symbol { offset: 434490, size: 85, name: _ZN9benchmark15ConsoleReporterD0Ev },
        Symbol { offset: 434410, size: 78, name: _ZN9benchmark15ConsoleReporterD1Ev },
        Symbol { offset: 434410, size: 78, name: _ZN9benchmark15ConsoleReporterD2Ev },
        Symbol { offset: 433180, size: 54, name: _ZN9benchmark15ConsoleReporter13ReportContextERKNS_17BenchmarkReporter7ContextE },
        Symbol { offset: 439100, size: 281, name: _ZN9benchmark12FormatStringB5cxx11EPKcP13__va_list_tag },
        Symbol { offset: 439390, size: 97, name: _ZN9benchmark12FormatStringB5cxx11EPKcz },
        Symbol { offset: 45a758, size: 18, name: _ZTINSt6thread11_State_implINS_8_InvokerISt5tupleIJPFvPKN9benchmark8internal17BenchmarkInstanceEliPNS4_13ThreadManagerEPNS4_23PerfCountersMeasurementEPNS3_15ProfilerManagerEES7_liS9_SB_DnEEEEEE },
        Symbol { offset: 44e380, size: be, name: _ZTSNSt6thread11_State_implINS_8_InvokerISt5tupleIJPFvPKN9benchmark8internal17BenchmarkInstanceEliPNS4_13ThreadManagerEPNS4_23PerfCountersMeasurementEPNS3_15ProfilerManagerEES7_liS9_SB_DnEEEEEE },
        Symbol { offset: 43ddc0, size: 6d, name: _ZN9benchmark8internal6FinishEPSt3mapINSt7__cxx1112basic_stringIcSt11char_traitsIcESaIcEEENS_7CounterESt4lessIS7_ESaISt4pairIKS7_S8_EEEldd },
        Symbol { offset: 430110, size: 73a, name: _ZN9benchmark8internal15BenchmarkRunner9RunWarmUpEv },
        Symbol { offset: 42f8a0, size: 862, name: _ZN9benchmark8internal15BenchmarkRunner13DoNIterationsEv },
        Symbol { offset: 431db0, size: 1166, name: _ZNSt6vectorIN9benchmark17BenchmarkReporter3RunESaIS2_EE17_M_realloc_appendIJRKS2_EEEvDpOT_ },
        Symbol { offset: 431990, size: 417, name: _ZN9benchmark17BenchmarkReporter3RunC1ERKS1_ },
        Symbol { offset: 431990, size: 417, name: _ZN9benchmark17BenchmarkReporter3RunC2ERKS1_ },
        Symbol { offset: 42f1c0, size: 3d4, name: _ZN9benchmark8internal15BenchmarkRunner16RunMemoryManagerEl },
        Symbol { offset: 442810, size: 19c, name: _ZNK9benchmark8internal17BenchmarkInstance8TeardownEv },
        Symbol { offset: 442670, size: 19c, name: _ZNK9benchmark8internal17BenchmarkInstance5SetupEv },
        Symbol { offset: 42ef70, size: 248, name: _ZN9benchmark8internal15BenchmarkRunner18RunProfilerManagerEl },
        Symbol { offset: 43deb0, size: 6c4, name: _ZN9benchmark8internal9IncrementEPSt3mapINSt7__cxx1112basic_stringIcSt11char_traitsIcESaIcEEENS_7CounterESt4lessIS7_ESaISt4pairIKS7_S8_EEERKSF_ },
        Symbol { offset: 442450, size: 21a, name: _ZNK9benchmark8internal17BenchmarkInstance26__codspeed_root_frame__RunEliPNS0_11ThreadTimerEPNS0_13ThreadManagerEPNS0_23PerfCountersMeasurementEPNS_15ProfilerManagerE },
        Symbol { offset: 42e560, size: 458, name: _ZN9benchmark8internal15BenchmarkRunnerC2ERKNS0_17BenchmarkInstanceEPNS0_23PerfCountersMeasurementEPNS_17BenchmarkReporter19PerFamilyRunReportsE },
        Symbol { offset: 43f6c0, size: 1ce4, name: _ZN9benchmark12ComputeStatsERKSt6vectorINS_17BenchmarkReporter3RunESaIS2_EE },
        Symbol { offset: 42e160, size: f, name: _ZN9benchmark8internal15BenchmarkRunner12FinishWarmUpERKl },
        Symbol { offset: 42df20, size: 236, name: _ZNK9benchmark8internal15BenchmarkRunner21PredictNumItersNeededERKNS1_16IterationResultsE },
        Symbol { offset: 42de60, size: bb, name: _ZNK9benchmark8internal15BenchmarkRunner28ShouldReportIterationResultsERKNS1_16IterationResultsE },
        Symbol { offset: 42de40, size: 15, name: _ZNK9benchmark8internal15BenchmarkRunner17GetMinTimeToApplyEv },
        Symbol { offset: 42d9f0, size: 444, name: _ZN9benchmark8internal17ParseBenchMinTimeERKNSt7__cxx1112basic_stringIcSt11char_traitsIcESaIcEEE },
        Symbol { offset: 431930, size: 5e, name: _ZN9benchmark8internal13ThreadManager6ResultD1Ev },
        Symbol { offset: 431930, size: 5e, name: _ZN9benchmark8internal13ThreadManager6ResultD2Ev },
        Symbol { offset: 431780, size: 1f, name: _ZNSt6thread11_State_implINS_8_InvokerISt5tupleIJPFvPKN9benchmark8internal17BenchmarkInstanceEliPNS4_13ThreadManagerEPNS4_23PerfCountersMeasurementEPNS3_15ProfilerManagerEES7_liS9_SB_DnEEEEE6_M_runEv },
        Symbol { offset: 431740, size: 31, name: _ZNSt6thread11_State_implINS_8_InvokerISt5tupleIJPFvPKN9benchmark8internal17BenchmarkInstanceEliPNS4_13ThreadManagerEPNS4_23PerfCountersMeasurementEPNS3_15ProfilerManagerEES7_liS9_SB_DnEEEEED0Ev },
        Symbol { offset: 431720, size: 13, name: _ZNSt6thread11_State_implINS_8_InvokerISt5tupleIJPFvPKN9benchmark8internal17BenchmarkInstanceEliPNS4_13ThreadManagerEPNS4_23PerfCountersMeasurementEPNS3_15ProfilerManagerEES7_liS9_SB_DnEEEEED1Ev },
        Symbol { offset: 45a770, size: 28, name: _ZTVNSt6thread11_State_implINS_8_InvokerISt5tupleIJPFvPKN9benchmark8internal17BenchmarkInstanceEliPNS4_13ThreadManagerEPNS4_23PerfCountersMeasurementEPNS3_15ProfilerManagerEES7_liS9_SB_DnEEEEEE },
        Symbol { offset: 431720, size: 13, name: _ZNSt6thread11_State_implINS_8_InvokerISt5tupleIJPFvPKN9benchmark8internal17BenchmarkInstanceEliPNS4_13ThreadManagerEPNS4_23PerfCountersMeasurementEPNS3_15ProfilerManagerEES7_liS9_SB_DnEEEEED2Ev },
        Symbol { offset: 431710, size: 1, name: _ZNSt6thread24_M_thread_deps_never_runEv },
        Symbol { offset: 45a700, size: 18, name: _ZTIN9benchmark11CSVReporterE },
        Symbol { offset: 44e360, size: 1a, name: _ZTSN9benchmark11CSVReporterE },
        Symbol { offset: 42cdf0, size: 872, name: _ZN9benchmark11CSVReporter10ReportRunsERKSt6vectorINS_17BenchmarkReporter3RunESaIS3_EE },
        Symbol { offset: 42c3c0, size: a2c, name: _ZN9benchmark11CSVReporter12PrintRunDataERKNS_17BenchmarkReporter3RunE },
        Symbol { offset: 42d7e0, size: f6, name: _ZNKSt8_Rb_treeINSt7__cxx1112basic_stringIcSt11char_traitsIcESaIcEEESt4pairIKS5_N9benchmark7CounterEESt10_Select1stISA_ESt4lessIS5_ESaISA_EE4findERS7_ },
        Symbol { offset: 42c080, size: 337, name: _ZN9benchmark9CsvEscapeERKNSt7__cxx1112basic_stringIcSt11char_traitsIcESaIcEEE },
        Symbol { offset: 42d750, size: 85, name: _ZN9benchmark11CSVReporterD0Ev },
        Symbol { offset: 42d6d0, size: 78, name: _ZN9benchmark11CSVReporterD1Ev },
        Symbol { offset: 42d6d0, size: 78, name: _ZN9benchmark11CSVReporterD2Ev },
        Symbol { offset: 42c020, size: 14, name: _ZN9benchmark11CSVReporter13ReportContextERKNS_17BenchmarkReporter7ContextE },
        Symbol { offset: 44e338, size: 8, name: _ZN9benchmark13MemoryManager14TombstoneValueE },
        Symbol { offset: 45a6a8, size: 18, name: _ZTIN9benchmark12JSONReporterE },
        Symbol { offset: 44e340, size: 1b, name: _ZTSN9benchmark12JSONReporterE },
        Symbol { offset: 42bd60, size: 19e, name: _ZN9benchmark12JSONReporter10ReportRunsERKSt6vectorINS_17BenchmarkReporter3RunESaIS3_EE },
        Symbol { offset: 434840, size: e6, name: _ZN9benchmark13GetBigOStringB5cxx11ENS_4BigOE },
        Symbol { offset: 42a3d0, size: 198e, name: _ZN9benchmark12JSONReporter12PrintRunDataERKNS_17BenchmarkReporter3RunE },
        Symbol { offset: 428ae0, size: 136f, name: _ZN9benchmark12JSONReporter13ReportContextERKNS_17BenchmarkReporter7ContextE },
        Symbol { offset: 428060, size: 15, name: _ZN9benchmark12JSONReporter8FinalizeEv },
        Symbol { offset: 42bf20, size: 31, name: _ZN9benchmark12JSONReporterD0Ev },
        Symbol { offset: 42bf00, size: 13, name: _ZN9benchmark12JSONReporterD1Ev },
        Symbol { offset: 42bf00, size: 13, name: _ZN9benchmark12JSONReporterD2Ev },
        Symbol { offset: 44e2c0, size: 1, name: _ZN9benchmark8internal12PerfCounters10kSupportedE },
        Symbol { offset: 427ca0, size: 107, name: _ZN9benchmark8internal23PerfCountersMeasurementC2ERKSt6vectorINSt7__cxx1112basic_stringIcSt11char_traitsIcESaIcEEESaIS8_EE },
        Symbol { offset: 427b80, size: 117, name: _ZN9benchmark8internal12PerfCountersaSEOS1_ },
        Symbol { offset: 427f90, size: b3, name: _ZN9benchmark8internal12PerfCountersD1Ev },
        Symbol { offset: 427f90, size: b3, name: _ZN9benchmark8internal12PerfCountersD2Ev },
        Symbol { offset: 427ad0, size: a0, name: _ZN9benchmark8internal12PerfCounters6CreateERKSt6vectorINSt7__cxx1112basic_stringIcSt11char_traitsIcESaIcEEESaIS8_EE },
        Symbol { offset: 427ac0, size: 3, name: _ZN9benchmark8internal12PerfCounters18IsCounterSupportedERKNSt7__cxx1112basic_stringIcSt11char_traitsIcESaIcEEE },
        Symbol { offset: 427ab0, size: 3, name: _ZN9benchmark8internal12PerfCounters10InitializeEv },
        Symbol { offset: 427db0, size: 1d4, name: _ZN9benchmark8internal17PerfCounterValuesC1Em },
        Symbol { offset: 427db0, size: 1d4, name: _ZN9benchmark8internal17PerfCounterValuesC2Em },
        Symbol { offset: 45a658, size: 10, name: _ZTIN9benchmark17BenchmarkReporterE },
        Symbol { offset: 44e2a0, size: 20, name: _ZTSN9benchmark17BenchmarkReporterE },
        Symbol { offset: 427a40, size: 34, name: _ZNK9benchmark17BenchmarkReporter3Run18GetAdjustedCPUTimeEv },
        Symbol { offset: 439b90, size: 86, name: _ZN9benchmark10SystemInfo3GetEv },
        Symbol { offset: 427890, size: 2b, name: _ZN9benchmark17BenchmarkReporter7ContextC2Ev },
        Symbol { offset: 427210, size: 675, name: _ZN9benchmark17BenchmarkReporter17PrintBasicContextEPSoRKNS0_7ContextE },
        Symbol { offset: 4271e0, size: 23, name: _ZN9benchmark17BenchmarkReporterD0Ev },
        Symbol { offset: 4271d0, size: 1, name: _ZN9benchmark17BenchmarkReporterD1Ev },
        Symbol { offset: 4271d0, size: 1, name: _ZN9benchmark17BenchmarkReporterD2Ev },
        Symbol { offset: 4271a0, size: 26, name: _ZN9benchmark17BenchmarkReporterC1Ev },
        Symbol { offset: 45a668, size: 40, name: _ZTVN9benchmark17BenchmarkReporterE },
        Symbol { offset: 427a80, size: 1, name: _ZN9benchmark17BenchmarkReporter8FinalizeEv },
        Symbol { offset: 45a5f0, size: 18, name: _ZTIN9benchmark8internal17FunctionBenchmarkE },
        Symbol { offset: 44e240, size: 29, name: _ZTSN9benchmark8internal17FunctionBenchmarkE },
        Symbol { offset: 44e220, size: 20, name: _ZTSN9benchmark8internal9BenchmarkE },
        Symbol { offset: 423550, size: 23e, name: _ZN9benchmark8internal9Benchmark7ArgNameERKNSt7__cxx1112basic_stringIcSt11char_traitsIcESaIcEEE },
        Symbol { offset: 427080, size: 102, name: _ZSt16__do_uninit_copyIPKNSt7__cxx1112basic_stringIcSt11char_traitsIcESaIcEEEPS5_ET0_T_SA_S9_ },
        Symbol { offset: 423320, size: 22d, name: _ZN9benchmark8internal9Benchmark6RangesERKSt6vectorISt4pairIllESaIS4_EE },
        Symbol { offset: 423120, size: 2e, name: _ZN9benchmark11CreateRangeElli },
        Symbol { offset: 426b80, size: 4f4, name: _ZN9benchmark8internal8AddRangeIlEEvPSt6vectorIT_SaIS3_EES3_S3_i },
        Symbol { offset: 426a70, size: 104, name: _ZNSt6vectorIlSaIlEE17_M_realloc_appendIJlEEEvDpOT_ },
        Symbol { offset: 422f40, size: 1df, name: _ZN9benchmark8internal9Benchmark10DenseRangeElli },
        Symbol { offset: 426900, size: 168, name: _ZNSt6vectorIS_IlSaIlEESaIS1_EE17_M_realloc_appendIJS1_EEEvDpOT_ },
        Symbol { offset: 4417c0, size: c81, name: _ZN9benchmark8internal17BenchmarkInstanceC1EPNS0_9BenchmarkEiiRKSt6vectorIlSaIlEEi },
        Symbol { offset: 421810, size: 1521, name: _ZN9benchmark8internal17BenchmarkFamilies14FindBenchmarksENSt7__cxx1112basic_stringIcSt11char_traitsIcESaIcEEEPSt6vectorINS0_17BenchmarkInstanceESaIS9_EEPSo },
        Symbol { offset: 4251a0, size: 1758, name: _ZNSt6vectorIN9benchmark8internal17BenchmarkInstanceESaIS2_EE17_M_realloc_appendIJS2_EEEvDpOT_ },
        Symbol { offset: 421730, size: 7d, name: _ZN9benchmark8internal17BenchmarkFamilies12AddBenchmarkESt10unique_ptrINS0_9BenchmarkESt14default_deleteIS3_EE },
        Symbol { offset: 425080, size: 118, name: _ZNSt6vectorISt10unique_ptrIN9benchmark8internal9BenchmarkESt14default_deleteIS3_EESaIS6_EE17_M_realloc_appendIJS6_EEEvDpOT_ },
        Symbol { offset: 421320, size: 40d, name: _ZN9benchmark8internal9Benchmark11ThreadRangeEii },
        Symbol { offset: 4210c0, size: 25c, name: _ZN9benchmark8internal9Benchmark16DenseThreadRangeEiii },
        Symbol { offset: 420fd0, size: f0, name: _ZN9benchmark8internal9Benchmark7ThreadsEi },
        Symbol { offset: 43d590, size: 86, name: _ZN9benchmark7CPUInfo3GetEv },
        Symbol { offset: 420f70, size: 58, name: _ZN9benchmark8internal9Benchmark12ThreadPerCpuEv },
        Symbol { offset: 424f60, size: 104, name: _ZNSt6vectorIiSaIiEE17_M_realloc_appendIJRKiEEEvDpOT_ },
        Symbol { offset: 420d20, size: 24a, name: _ZN9benchmark8internal9BenchmarkC1ERKNSt7__cxx1112basic_stringIcSt11char_traitsIcESaIcEEE },
        Symbol { offset: 43f640, size: 7e, name: _ZN9benchmark12StatisticsCVERKSt6vectorIdSaIdEE },
        Symbol { offset: 43f560, size: da, name: _ZN9benchmark16StatisticsStdDevERKSt6vectorIdSaIdEE },
        Symbol { offset: 43f0a0, size: 4b9, name: _ZN9benchmark16StatisticsMedianERKSt6vectorIdSaIdEE },
        Symbol { offset: 43f010, size: 8d, name: _ZN9benchmark14StatisticsMeanERKSt6vectorIdSaIdEE },
        Symbol { offset: 420c80, size: 94, name: _ZN9benchmark8internal9Benchmark17ComputeStatisticsERKNSt7__cxx1112basic_stringIcSt11char_traitsIcESaIcEEEPFdRKSt6vectorIdSaIdEEENS_13StatisticUnitE },
        Symbol { offset: 424cc0, size: 295, name: _ZNSt6vectorIN9benchmark8internal10StatisticsESaIS2_EE17_M_realloc_appendIJRKNSt7__cxx1112basic_stringIcSt11char_traitsIcESaIcEEERPFdRKS_IdSaIdEEERNS0_13StatisticUnitEEEEvDpOT_ },
        Symbol { offset: 420710, size: 56c, name: _ZN9benchmark8internal9Benchmark11ArgsProductERKSt6vectorIS2_IlSaIlEESaIS4_EE },
        Symbol { offset: 420560, size: 1af, name: _ZN9benchmark8internal9Benchmark4ArgsERKSt6vectorIlSaIlEE },
        Symbol { offset: 424aa0, size: 21d, name: _ZNSt6vectorIS_IlSaIlEESaIS1_EE17_M_realloc_appendIJRKS1_EEEvDpOT_ },
        Symbol { offset: 424820, size: 27d, name: _ZN9benchmark8internal9AddPowersIlEENSt6vectorIT_SaIS3_EE8iteratorEPS5_S3_S3_i },
        Symbol { offset: 420400, size: 155, name: _ZN9benchmark16CreateDenseRangeElli },
        Symbol { offset: 424710, size: 104, name: _ZNSt6vectorIlSaIlEE17_M_realloc_appendIJRKlEEEvDpOT_ },
        Symbol { offset: 4246a0, size: 6b, name: _ZNSt6vectorIS_IlSaIlEESaIS1_EED1Ev },
        Symbol { offset: 4246a0, size: 6b, name: _ZNSt6vectorIS_IlSaIlEESaIS1_EED2Ev },
        Symbol { offset: 423a10, size: c8c, name: _ZNSt6vectorIN9benchmark8internal17BenchmarkInstanceESaIS2_EE7reserveEm },
        Symbol { offset: 4239e0, size: 21, name: _ZNSt12_Vector_baseIlSaIlEED1Ev },
        Symbol { offset: 4239e0, size: 21, name: _ZNSt12_Vector_baseIlSaIlEED2Ev },
        Symbol { offset: 4203e0, size: 12, name: _ZN9benchmark25ClearRegisteredBenchmarksEv },
        Symbol { offset: 4203c0, size: 15, name: _ZNK9benchmark8internal9Benchmark11GetTimeUnitEv },
        Symbol { offset: 4202a0, size: 120, name: _ZNK9benchmark8internal9Benchmark10GetArgNameEi },
        Symbol { offset: 41ff00, size: 393, name: _ZN9benchmark8internal9Benchmark8ArgNamesERKSt6vectorINSt7__cxx1112basic_stringIcSt11char_traitsIcESaIcEEESaIS8_EE },
        Symbol { offset: 41fec0, size: 3b, name: _ZNK9benchmark8internal9Benchmark7ArgsCntEv },
        Symbol { offset: 41feb0, size: 5, name: _ZNK9benchmark8internal9Benchmark7GetNameEv },
        Symbol { offset: 41fe90, size: 1a, name: _ZN9benchmark8internal9Benchmark4NameERKNSt7__cxx1112basic_stringIcSt11char_traitsIcESaIcEEE },
        Symbol { offset: 41fe60, size: 15, name: _ZN9benchmark8internal9Benchmark10ComplexityEPFdlE },
        Symbol { offset: 41fe50, size: a, name: _ZN9benchmark8internal9Benchmark10ComplexityENS_4BigOE },
        Symbol { offset: 41fd40, size: 10e, name: _ZN9benchmark8internal9Benchmark13UseManualTimeEv },
        Symbol { offset: 41fc30, size: 10e, name: _ZN9benchmark8internal9Benchmark11UseRealTimeEv },
        Symbol { offset: 41fc20, size: b, name: _ZN9benchmark8internal9Benchmark21MeasureProcessCPUTimeEv },
        Symbol { offset: 41fc00, size: 1b, name: _ZN9benchmark8internal9Benchmark21DisplayAggregatesOnlyEb },
        Symbol { offset: 41fbe0, size: 13, name: _ZN9benchmark8internal9Benchmark20ReportAggregatesOnlyEb },
        Symbol { offset: 41fb30, size: a6, name: _ZN9benchmark8internal9Benchmark11RepetitionsEi },
        Symbol { offset: 41f990, size: 19d, name: _ZN9benchmark8internal9Benchmark10IterationsEl },
        Symbol { offset: 41f850, size: 137, name: _ZN9benchmark8internal9Benchmark13MinWarmUpTimeEd },
        Symbol { offset: 41f660, size: a6, name: _ZN9benchmark8internal9Benchmark15RangeMultiplierEi },
        Symbol { offset: 41f5b0, size: a6, name: _ZN9benchmark8internal9Benchmark8TeardownEPFvRKNS_5StateEE },
        Symbol { offset: 41f500, size: a6, name: _ZN9benchmark8internal9Benchmark5SetupEPFvRKNS_5StateEE },
        Symbol { offset: 41f4e0, size: 17, name: _ZN9benchmark8internal9Benchmark5ApplyEPFvPS1_E },
        Symbol { offset: 41f4d0, size: b, name: _ZN9benchmark8internal9Benchmark4UnitENS_8TimeUnitE },
        Symbol { offset: 41f4a0, size: 23, name: _ZN9benchmark8internal9BenchmarkD0Ev },
        Symbol { offset: 4239a0, size: 31, name: _ZN9benchmark8internal17FunctionBenchmarkD0Ev },
        Symbol { offset: 423980, size: 13, name: _ZN9benchmark8internal17FunctionBenchmarkD1Ev },
        Symbol { offset: 423980, size: 13, name: _ZN9benchmark8internal17FunctionBenchmarkD2Ev },
        Symbol { offset: 41f320, size: 173, name: _ZN9benchmark8internal9BenchmarkD1Ev },
        Symbol { offset: 45a608, size: 28, name: _ZTVN9benchmark8internal9BenchmarkE },
        Symbol { offset: 423810, size: 16b, name: _ZN9benchmark8internal17BenchmarkInstanceD1Ev },
        Symbol { offset: 423810, size: 16b, name: _ZN9benchmark8internal17BenchmarkInstanceD2Ev },
        Symbol { offset: 41f1c0, size: 15a, name: _ZN9benchmark8internal17BenchmarkFamilies15ClearBenchmarksEv },
        Symbol { offset: 41f120, size: 9b, name: _ZN9benchmark8internal17BenchmarkFamilies11GetInstanceEv },
        Symbol { offset: 423790, size: 6b, name: _ZN9benchmark8internal17BenchmarkFamiliesD1Ev },
        Symbol { offset: 423790, size: 6b, name: _ZN9benchmark8internal17BenchmarkFamiliesD2Ev },
        Symbol { offset: 41ed80, size: c, name: _ZN9benchmark8internal17FunctionBenchmark3RunERNS_5StateE },
        Symbol { offset: 41ea80, size: 2ec, name: _ZNSt6vectorINSt7__cxx1112basic_stringIcSt11char_traitsIcESaIcEEESaIS5_EE17_M_realloc_appendIJS5_EEEvDpOT_ },
        Symbol { offset: 41d720, size: ec7, name: _ZN9benchmark19HumanReadableNumberB5cxx11EdNS_7Counter4OneKE },
        Symbol { offset: 41d680, size: 97, name: _ZN9benchmark9StrFormatB5cxx11EPKcz },
        Symbol { offset: 41cc50, size: 3cb, name: _ZN9benchmark19LocalDateTimeStringB5cxx11Ev },
        Symbol { offset: 4381f0, size: 9c6, name: _ZN9benchmark14KvPairsFromEnvEPKcSt3mapINSt7__cxx1112basic_stringIcSt11char_traitsIcESaIcEEES8_St4lessIS8_ESaISt4pairIKS8_S8_EEE },
        Symbol { offset: 436ff0, size: 277, name: _ZN9benchmark12Int32FromEnvEPKci },
        Symbol { offset: 437270, size: 2cc, name: _ZN9benchmark13DoubleFromEnvEPKcd },
        Symbol { offset: 437540, size: 77, name: _ZN9benchmark13StringFromEnvEPKcS1_ },
        Symbol { offset: 437f80, size: 147, name: _ZN9benchmark11BoolFromEnvEPKcb },
        Symbol { offset: 418c30, size: 9a, name: _ZN9benchmark22RunSpecifiedBenchmarksEPNS_17BenchmarkReporterES1_ },
        Symbol { offset: 418b00, size: 124, name: _ZN9benchmark22RunSpecifiedBenchmarksEPNS_17BenchmarkReporterENSt7__cxx1112basic_stringIcSt11char_traitsIcESaIcEEE },
        Symbol { offset: 418a60, size: 92, name: _ZN9benchmark22RunSpecifiedBenchmarksEPNS_17BenchmarkReporterE },
        Symbol { offset: 418930, size: 122, name: _ZN9benchmark22RunSpecifiedBenchmarksENSt7__cxx1112basic_stringIcSt11char_traitsIcESaIcEEE },
        Symbol { offset: 422d40, size: a5, name: _ZN9benchmark8internal22FindBenchmarksInternalERKNSt7__cxx1112basic_stringIcSt11char_traitsIcESaIcEEEPSt6vectorINS0_17BenchmarkInstanceESaISA_EEPSo },
        Symbol { offset: 418100, size: 79a, name: _ZN9benchmark22RunSpecifiedBenchmarksEPNS_17BenchmarkReporterES1_NSt7__cxx1112basic_stringIcSt11char_traitsIcESaIcEEE },
        Symbol { offset: 434e30, size: 14b5, name: _ZN9benchmark11ComputeBigOERKSt6vectorINS_17BenchmarkReporter3RunESaIS2_EE },
        Symbol { offset: 427b70, size: 1, name: _ZNK9benchmark8internal12PerfCounters13CloseCountersEv },
        Symbol { offset: 446500, size: cd9, name: _ZN8codspeed33generate_codspeed_walltime_reportERKSt6vectorINS_20RawWalltimeBenchmarkESaIS1_EE },
        Symbol { offset: 443470, size: 168, name: _ZN8codspeed8CodSpeedC1Ev },
        Symbol { offset: 45b2f8, size: 8, name: _ZGVZN8codspeed8CodSpeed11getInstanceEvE8instance },
        Symbol { offset: 4435e0, size: 580, name: _ZN8codspeed8CodSpeed13end_benchmarkEv },
        Symbol { offset: 44aab0, size: 53, name: instrument_hooks_stop_benchmark },
        Symbol { offset: 42e170, size: 3eb, name: _ZN9benchmark8internal15BenchmarkRunner10GetResultsEv },
        Symbol { offset: 430850, size: eba, name: _ZN9benchmark8internal15BenchmarkRunner15DoOneRepetitionEv },
        Symbol { offset: 44aa00, size: 4b, name: instrument_hooks_start_benchmark },
        Symbol { offset: 44a170, size: 39, name: instrument_hooks_set_feature },
        Symbol { offset: 45b428, size: 8, name: g_hooks },
        Symbol { offset: 442f40, size: 527, name: _ZN8codspeed8CodSpeed15start_benchmarkERKNSt7__cxx1112basic_stringIcSt11char_traitsIcESaIcEEE },
        Symbol { offset: 45b300, size: 58, name: _ZZN8codspeed8CodSpeed11getInstanceEvE8instance },
        Symbol { offset: 427ca0, size: 107, name: _ZN9benchmark8internal23PerfCountersMeasurementC1ERKSt6vectorINSt7__cxx1112basic_stringIcSt11char_traitsIcESaIcEEESaIS8_EE },
        Symbol { offset: 41e5f0, size: 42f, name: _ZN9benchmark8StrSplitERKNSt7__cxx1112basic_stringIcSt11char_traitsIcESaIcEEEc },
        Symbol { offset: 427890, size: 2b, name: _ZN9benchmark17BenchmarkReporter7ContextC1Ev },
        Symbol { offset: 41d030, size: 3d4, name: _ZNK9benchmark13BenchmarkName3strB5cxx11Ev },
        Symbol { offset: 41c980, size: 182, name: _ZNSt8_Rb_treeINSt7__cxx1112basic_stringIcSt11char_traitsIcESaIcEEESt4pairIKS5_N9benchmark7CounterEESt10_Select1stISA_ESt4lessIS5_ESaISA_EE20_Reuse_or_alloc_nodeclIRKSA_EEPSt13_Rb_tree_nodeISA_EOT_ },
        Symbol { offset: 41bac0, size: eb1, name: _ZN9benchmark17BenchmarkReporter3RunC1EOS1_ },
        Symbol { offset: 41bac0, size: eb1, name: _ZN9benchmark17BenchmarkReporter3RunC2EOS1_ },
        Symbol { offset: 41b600, size: 4b2, name: _ZSt16__do_uninit_copyIN9__gnu_cxx17__normal_iteratorIPN9benchmark17BenchmarkReporter3RunESt6vectorIS4_SaIS4_EEEES5_ET0_T_SB_SA_ },
        Symbol { offset: 41b4f0, size: 104, name: _ZNSt6vectorImSaImEE17_M_realloc_appendIJRKmEEEvDpOT_ },
        Symbol { offset: 41b360, size: 186, name: _ZN9benchmark17BenchmarkReporter3RunD1Ev },
        Symbol { offset: 41b360, size: 186, name: _ZN9benchmark17BenchmarkReporter3RunD2Ev },
        Symbol { offset: 41b220, size: 139, name: _ZSt7shuffleIN9__gnu_cxx17__normal_iteratorIPmSt6vectorImSaImEEEERSt23mersenne_twister_engineImLm32ELm624ELm397ELm31ELm2567483615ELm11ELm4294967295ELm7ELm2636928640ELm15ELm4022730752ELm18ELm1812433253EEEvT_SA_OT0_ },
        Symbol { offset: 41b0c0, size: 76, name: _ZNSt23mersenne_twister_engineImLm32ELm624ELm397ELm31ELm2567483615ELm11ELm4294967295ELm7ELm2636928640ELm15ELm4022730752ELm18ELm1812433253EEclEv },
        Symbol { offset: 41af50, size: 161, name: _ZNSt23mersenne_twister_engineImLm32ELm624ELm397ELm31ELm2567483615ELm11ELm4294967295ELm7ELm2636928640ELm15ELm4022730752ELm18ELm1812433253EE11_M_gen_randEv },
        Symbol { offset: 45b2f0, size: 4, name: _ZZN9benchmark8internal8LogLevelEvE9log_level },
        Symbol { offset: 437dc0, size: 16, name: _ZN9benchmark6IsFlagEPKcS1_ },
        Symbol { offset: 438bc0, size: 495, name: _ZN9benchmark17ParseKeyValueFlagEPKcS1_PSt3mapINSt7__cxx1112basic_stringIcSt11char_traitsIcESaIcEEES8_St4lessIS8_ESaISt4pairIKS8_S8_EEE },
        Symbol { offset: 45b140, size: 30, name: _ZN9benchmark23FLAGS_benchmark_contextB5cxx11E },
        Symbol { offset: 45b180, size: 20, name: _ZN9benchmark29FLAGS_benchmark_perf_countersB5cxx11E },
        Symbol { offset: 45b200, size: 20, name: _ZN9benchmark26FLAGS_benchmark_out_formatB5cxx11E },
        Symbol { offset: 45b1e0, size: 20, name: _ZN9benchmark19FLAGS_benchmark_outB5cxx11E },
        Symbol { offset: 45b240, size: 1, name: _ZN9benchmark39FLAGS_benchmark_display_aggregates_onlyE },
        Symbol { offset: 45b241, size: 1, name: _ZN9benchmark38FLAGS_benchmark_report_aggregates_onlyE },
        Symbol { offset: 45b242, size: 1, name: _ZN9benchmark42FLAGS_benchmark_enable_random_interleavingE },
        Symbol { offset: 437920, size: 1f7, name: _ZN9benchmark14ParseInt32FlagEPKcS1_Pi },
        Symbol { offset: 45b244, size: 4, name: _ZN9benchmark27FLAGS_benchmark_repetitionsE },
        Symbol { offset: 437b20, size: 246, name: _ZN9benchmark15ParseDoubleFlagEPKcS1_Pd },
        Symbol { offset: 45b248, size: 8, name: _ZN9benchmark31FLAGS_benchmark_min_warmup_timeE },
        Symbol { offset: 45b260, size: 20, name: _ZN9benchmark24FLAGS_benchmark_min_timeB5cxx11E },
        Symbol { offset: 437d70, size: 42, name: _ZN9benchmark15ParseStringFlagEPKcS1_PNSt7__cxx1112basic_stringIcSt11char_traitsIcESaIcEEE },
        Symbol { offset: 4380d0, size: 11f, name: _ZN9benchmark13ParseBoolFlagEPKcS1_Pb },
        Symbol { offset: 45b2a0, size: 1, name: _ZN9benchmark26FLAGS_benchmark_list_testsE },
        Symbol { offset: 45b120, size: 20, name: _ZN9benchmark25FLAGS_benchmark_time_unitB5cxx11E },
        Symbol { offset: 45b243, size: 1, name: _ZN9benchmark23FLAGS_benchmark_dry_runE },
        Symbol { offset: 45b3c0, size: 8, name: _ZN9benchmark17BenchmarkReporter7Context15executable_nameE },
        Symbol { offset: 414a60, size: 541, name: _ZN9benchmark8internal21ParseCommandLineFlagsEPiPPc },
        Symbol { offset: 414860, size: 1f7, name: _ZN9benchmark16AddCustomContextERKNSt7__cxx1112basic_stringIcSt11char_traitsIcESaIcEEES7_ },
        Symbol { offset: 41aaa0, size: 4a8, name: _ZNSt8_Rb_treeINSt7__cxx1112basic_stringIcSt11char_traitsIcESaIcEEESt4pairIKS5_S5_ESt10_Select1stIS8_ESt4lessIS5_ESaIS8_EE22_M_emplace_hint_uniqueIJRS7_SG_EEESt17_Rb_tree_iteratorIS8_ESt23_Rb_tree_const_iteratorIS8_EDpOT_ },
        Symbol { offset: 41a4d0, size: 5c2, name: _ZNSt6vectorIN8codspeed20RawWalltimeBenchmarkESaIS1_EE17_M_realloc_appendIJS1_EEEvDpOT_ },
        Symbol { offset: 442b90, size: 27d, name: _ZN8codspeed19sanitize_bench_argsERNSt7__cxx1112basic_stringIcSt11char_traitsIcESaIcEEE },
        Symbol { offset: 4278c0, size: 136, name: _ZNK9benchmark17BenchmarkReporter3Run14benchmark_nameB5cxx11Ev },
        Symbol { offset: 427a00, size: 34, name: _ZNK9benchmark17BenchmarkReporter3Run19GetAdjustedRealTimeEv },
        Symbol { offset: 41a3c0, size: 104, name: _ZNSt6vectorIdSaIdEE17_M_realloc_appendIJdEEEvDpOT_ },
        Symbol { offset: 42e560, size: 458, name: _ZN9benchmark8internal15BenchmarkRunnerC1ERKNS0_17BenchmarkInstanceEPNS0_23PerfCountersMeasurementEPNS_17BenchmarkReporter19PerFamilyRunReportsE },
        Symbol { offset: 41a180, size: 23f, name: _ZNSt6vectorIN9benchmark8internal15BenchmarkRunnerESaIS2_EE17_M_realloc_appendIJRKNS1_17BenchmarkInstanceEPNS1_23PerfCountersMeasurementERPNS0_17BenchmarkReporter19PerFamilyRunReportsEEEEvDpOT_ },
        Symbol { offset: 413c10, size: 153, name: _ZN9benchmark5State13SkipWithErrorERKNSt7__cxx1112basic_stringIcSt11char_traitsIcESaIcEEE },
        Symbol { offset: 413ab0, size: 153, name: _ZN9benchmark5State15SkipWithMessageERKNSt7__cxx1112basic_stringIcSt11char_traitsIcESaIcEEE },
        Symbol { offset: 413a40, size: 67, name: _ZN9benchmark5State8SetLabelERKNSt7__cxx1112basic_stringIcSt11char_traitsIcESaIcEEE },
        Symbol { offset: 41a140, size: 33, name: _ZNSt11unique_lockISt5mutexE6unlockEv },
        Symbol { offset: 419f80, size: 1b7, name: _ZNSt6vectorIN9benchmark8internal17BenchmarkInstanceESaIS2_EED1Ev },
        Symbol { offset: 419f80, size: 1b7, name: _ZNSt6vectorIN9benchmark8internal17BenchmarkInstanceESaIS2_EED2Ev },
        Symbol { offset: 419f60, size: 11, name: _ZNSt10unique_ptrIN9benchmark17BenchmarkReporterESt14default_deleteIS1_EED1Ev },
        Symbol { offset: 419f60, size: 11, name: _ZNSt10unique_ptrIN9benchmark17BenchmarkReporterESt14default_deleteIS1_EED2Ev },
        Symbol { offset: 419eb0, size: a3, name: _ZNSt6vectorIN8codspeed20RawWalltimeBenchmarkESaIS1_EED1Ev },
        Symbol { offset: 419eb0, size: a3, name: _ZNSt6vectorIN8codspeed20RawWalltimeBenchmarkESaIS1_EED2Ev },
        Symbol { offset: 419ca0, size: 20a, name: _ZNSt6vectorIN9benchmark8internal15BenchmarkRunnerESaIS2_EE7reserveEm },
        Symbol { offset: 4197f0, size: 4af, name: _ZNSt6vectorIN9benchmark8internal15BenchmarkRunnerESaIS2_EED1Ev },
        Symbol { offset: 4197f0, size: 4af, name: _ZNSt6vectorIN9benchmark8internal15BenchmarkRunnerESaIS2_EED2Ev },
        Symbol { offset: 4195d0, size: 21f, name: _ZNSt6vectorIN9benchmark17BenchmarkReporter3RunESaIS2_EED1Ev },
        Symbol { offset: 4195d0, size: 21f, name: _ZNSt6vectorIN9benchmark17BenchmarkReporter3RunESaIS2_EED2Ev },
        Symbol { offset: 419520, size: af, name: _ZNSt7__cxx1112basic_stringIcSt11char_traitsIcESaIcEEC1IS3_EEPKcRKS3_ },
        Symbol { offset: 419520, size: af, name: _ZNSt7__cxx1112basic_stringIcSt11char_traitsIcESaIcEEC2IS3_EEPKcRKS3_ },
        Symbol { offset: 4130f0, size: 704, name: _ZN9benchmark5StateC1ENSt7__cxx1112basic_stringIcSt11char_traitsIcESaIcEEElRKSt6vectorIlSaIlEEiiPNS_8internal11ThreadTimerEPNSC_13ThreadManagerEPNSC_23PerfCountersMeasurementEPNS_15ProfilerManagerEPN8codspeed8CodSpeedE },
        Symbol { offset: 4130f0, size: 704, name: _ZN9benchmark5StateC2ENSt7__cxx1112basic_stringIcSt11char_traitsIcESaIcEEElRKSt6vectorIlSaIlEEiiPNS_8internal11ThreadTimerEPNSC_13ThreadManagerEPNSC_23PerfCountersMeasurementEPNS_15ProfilerManagerEPN8codspeed8CodSpeedE },
        Symbol { offset: 4194a0, size: 73, name: _ZNSt6vectorINSt7__cxx1112basic_stringIcSt11char_traitsIcESaIcEEESaIS5_EED1Ev },
        Symbol { offset: 4194a0, size: 73, name: _ZNSt6vectorINSt7__cxx1112basic_stringIcSt11char_traitsIcESaIcEEESaIS5_EED2Ev },
        Symbol { offset: 412f80, size: 17, name: _ZN9benchmark19GetBenchmarkVersionB5cxx11Ev },
        Symbol { offset: 412e80, size: 72, name: _ZN9benchmark8internal26SetDefaultTimeUnitFromFlagERKNSt7__cxx1112basic_stringIcSt11char_traitsIcESaIcEEE },
        Symbol { offset: 45b100, size: 8, name: _ZN9benchmark8internal12HelperPrintfE },
        Symbol { offset: 412e50, size: 2c, name: _ZN9benchmark8internal17PrintUsageAndExitEv },
        Symbol { offset: 45b3e8, size: 8, name: _ZN9benchmark8internal16profiler_managerE },
        Symbol { offset: 412da0, size: ae, name: _ZN9benchmark23RegisterProfilerManagerEPNS_15ProfilerManagerE },
        Symbol { offset: 45b3f0, size: 8, name: _ZN9benchmark8internal14memory_managerE },
        Symbol { offset: 412d90, size: b, name: _ZN9benchmark21RegisterMemoryManagerEPNS_13MemoryManagerE },
        Symbol { offset: 45b110, size: 4, name: _ZN9benchmark7FLAGS_vE },
        Symbol { offset: 412d80, size: a, name: _ZN9benchmark21GetBenchmarkVerbosityEv },
        Symbol { offset: 412c00, size: 174, name: _ZN9benchmark18SetBenchmarkFilterENSt7__cxx1112basic_stringIcSt11char_traitsIcESaIcEEE },
        Symbol { offset: 45b280, size: 20, name: _ZN9benchmark22FLAGS_benchmark_filterB5cxx11E },
        Symbol { offset: 412b70, size: 90, name: _ZN9benchmark18GetBenchmarkFilterB5cxx11Ev },
        Symbol { offset: 412b60, size: 7, name: _ZN9benchmark18SetDefaultTimeUnitENS_8TimeUnitE },
        Symbol { offset: 412b50, size: 7, name: _ZN9benchmark18GetDefaultTimeUnitEv },
        Symbol { offset: 45b220, size: 20, name: _ZN9benchmark22FLAGS_benchmark_formatB5cxx11E },
        Symbol { offset: 412ab0, size: 94, name: _ZN9benchmark28CreateDefaultDisplayReporterEv },
        Symbol { offset: 439630, size: 16f, name: _ZN9benchmark15IsColorTerminalEv },
        Symbol { offset: 45b1a0, size: 1, name: _ZN9benchmark32FLAGS_benchmark_counters_tabularE },
        Symbol { offset: 437de0, size: 1a0, name: _ZN9benchmark17IsTruthyFlagValueERKNSt7__cxx1112basic_stringIcSt11char_traitsIcESaIcEEE },
        Symbol { offset: 45b1c0, size: 20, name: _ZN9benchmark21FLAGS_benchmark_colorB5cxx11E },
        Symbol { offset: 412a40, size: 6c, name: _ZN9benchmark8internal16GetOutputOptionsEb },
        Symbol { offset: 412a20, size: 18, name: _ZN9benchmark8internal6IsZeroEd },
        Symbol { offset: 419430, size: 66, name: _ZN8codspeed20RawWalltimeBenchmarkD1Ev },
        Symbol { offset: 419430, size: 66, name: _ZN8codspeed20RawWalltimeBenchmarkD2Ev },
        Symbol { offset: 412a00, size: 12, name: _ZN9benchmark5State16SetIterationTimeEd },
        Symbol { offset: 412870, size: 18f, name: _ZN9benchmark5State12ResumeTimingEv },
        Symbol { offset: 45b2e8, size: 8, name: _ZZN9benchmark8internal18GetNullLogInstanceEvE8null_log },
        Symbol { offset: 41cbb0, size: 50, name: _ZN9benchmark15ProcessCPUUsageEv },
        Symbol { offset: 427aa0, size: 3, name: _ZN9benchmark8internal17PerfCounterValues4ReadERKSt6vectorIiSaIiEE },
        Symbol { offset: 41cc00, size: 50, name: _ZN9benchmark14ThreadCPUUsageEv },
        Symbol { offset: 45b2e0, size: 8, name: _ZGVZN9benchmark8internal18GetNullLogInstanceEvE8null_log },
        Symbol { offset: 411c50, size: c1d, name: _ZN9benchmark5State11PauseTimingEv },
        Symbol { offset: 411c40, size: 8, name: _ZN9benchmark8internal14UseCharPointerEPVKc },
        Symbol { offset: 45b108, size: 8, name: _ZN9benchmark8internal14global_contextB5cxx11E },
        Symbol { offset: 411c30, size: 8, name: _ZN9benchmark8internal16GetGlobalContextB5cxx11Ev },
        Symbol { offset: 4193c0, size: 64, name: _ZN9benchmark8internal12CheckHandlerD1Ev },
        Symbol { offset: 4193c0, size: 64, name: _ZN9benchmark8internal12CheckHandlerD2Ev },
        Symbol { offset: 4397b0, size: 8, name: _ZN9benchmark8internal15GetAbortHandlerEv },
        Symbol { offset: 419230, size: 186, name: _ZN9benchmark8internal12CheckHandlerC1ESt17basic_string_viewIcSt11char_traitsIcEES5_S5_i },
        Symbol { offset: 45b2d8, size: 8, name: _ZZN9benchmark8internal19GetErrorLogInstanceEvE9error_log },
        Symbol { offset: 45b2d0, size: 8, name: _ZGVZN9benchmark8internal19GetErrorLogInstanceEvE9error_log },
        Symbol { offset: 419230, size: 186, name: _ZN9benchmark8internal12CheckHandlerC2ESt17basic_string_viewIcSt11char_traitsIcEES5_S5_i },
        Symbol { offset: 419120, size: 10e, name: _ZN9benchmark13BenchmarkNameD1Ev },
        Symbol { offset: 419120, size: 10e, name: _ZN9benchmark13BenchmarkNameD2Ev },
        Symbol { offset: 45a7b0, size: 50, name: _ZTVN9benchmark15ConsoleReporterE },
        Symbol { offset: 45a6c0, size: 40, name: _ZTVN9benchmark12JSONReporterE },
        Symbol { offset: 45a718, size: 40, name: _ZTVN9benchmark11CSVReporterE },
        Symbol { offset: 4271a0, size: 26, name: _ZN9benchmark17BenchmarkReporterC2Ev },
        Symbol { offset: 418ee0, size: e3, name: _ZN8codspeed8CodSpeedD1Ev },
        Symbol { offset: 418ee0, size: e3, name: _ZN8codspeed8CodSpeedD2Ev },
        Symbol { offset: 418e70, size: 6d, name: _ZNSt3mapINSt7__cxx1112basic_stringIcSt11char_traitsIcESaIcEEES5_St4lessIS5_ESaISt4pairIKS5_S5_EEED1Ev },
        Symbol { offset: 418e70, size: 6d, name: _ZNSt3mapINSt7__cxx1112basic_stringIcSt11char_traitsIcESaIcEEES5_St4lessIS5_ESaISt4pairIKS5_S5_EEED2Ev },
        Symbol { offset: 418cd0, size: 1, name: _ZN9benchmark17BenchmarkReporter16ReportRunsConfigEdbl },
        Symbol { offset: 45a388, size: 18, name: _ZTIN17example_namespace27MyTemplate2_TestB_BenchmarkE },
        Symbol { offset: 44df40, size: 33, name: _ZTSN17example_namespace27MyTemplate2_TestB_BenchmarkE },
        Symbol { offset: 45a370, size: 18, name: _ZTIN17example_namespace11MyTemplate2IidEE },
        Symbol { offset: 44df00, size: 27, name: _ZTSN17example_namespace11MyTemplate2IidEE },
        Symbol { offset: 45a358, size: 18, name: _ZTIN17example_namespace27MyTemplate1_TestA_BenchmarkE },
        Symbol { offset: 44dec0, size: 33, name: _ZTSN17example_namespace27MyTemplate1_TestA_BenchmarkE },
        Symbol { offset: 45a340, size: 18, name: _ZTIN17example_namespace11MyTemplate1IiEE },
        Symbol { offset: 44de80, size: 26, name: _ZTSN17example_namespace11MyTemplate1IiEE },
        Symbol { offset: 45a328, size: 18, name: _ZTIN17example_namespace39MyTemplatedFixture_DoubleTest_BenchmarkE },
        Symbol { offset: 44de40, size: 3f, name: _ZTSN17example_namespace39MyTemplatedFixture_DoubleTest_BenchmarkE },
        Symbol { offset: 45a310, size: 18, name: _ZTIN17example_namespace18MyTemplatedFixtureIdEE },
        Symbol { offset: 44de00, size: 2d, name: _ZTSN17example_namespace18MyTemplatedFixtureIdEE },
        Symbol { offset: 45a2f8, size: 18, name: _ZTIN17example_namespace36MyTemplatedFixture_IntTest_BenchmarkE },
        Symbol { offset: 44ddc0, size: 3c, name: _ZTSN17example_namespace36MyTemplatedFixture_IntTest_BenchmarkE },
        Symbol { offset: 45a2e0, size: 18, name: _ZTIN17example_namespace18MyTemplatedFixtureIiEE },
        Symbol { offset: 44dd80, size: 2d, name: _ZTSN17example_namespace18MyTemplatedFixtureIiEE },
        Symbol { offset: 45a2c8, size: 18, name: _ZTIN17example_namespace27MyFixture_BarTest_BenchmarkE },
        Symbol { offset: 44dd40, size: 33, name: _ZTSN17example_namespace27MyFixture_BarTest_BenchmarkE },
        Symbol { offset: 45a2b0, size: 18, name: _ZTIN17example_namespace27MyFixture_FooTest_BenchmarkE },
        Symbol { offset: 44dd00, size: 33, name: _ZTSN17example_namespace27MyFixture_FooTest_BenchmarkE },
        Symbol { offset: 45a298, size: 18, name: _ZTIN17example_namespace9MyFixtureE },
        Symbol { offset: 44dce0, size: 20, name: _ZTSN17example_namespace9MyFixtureE },
        Symbol { offset: 45a5e0, size: 10, name: _ZTIN9benchmark8internal9BenchmarkE },
        Symbol { offset: 45a280, size: 18, name: _ZTIN9benchmark7FixtureE },
        Symbol { offset: 44dcb0, size: 15, name: _ZTSN9benchmark7FixtureE },
        Symbol { offset: 410fe0, size: 21, name: _ZNSt12_Vector_baseIiSaIiEED1Ev },
        Symbol { offset: 410fe0, size: 21, name: _ZNSt12_Vector_baseIiSaIiEED2Ev },
        Symbol { offset: 423150, size: 1c5, name: _ZN9benchmark8internal9Benchmark5RangeEll },
        Symbol { offset: 411010, size: 1c2, name: _ZN4test11BM_TemplateIiEEvRN9benchmark5StateE },
        Symbol { offset: 41f710, size: 137, name: _ZN9benchmark8internal9Benchmark7MinTimeEd },
        Symbol { offset: 422df0, size: 145, name: _ZN9benchmark8internal9Benchmark3ArgEl },
        Symbol { offset: 4217b0, size: 53, name: _ZN9benchmark8internal25RegisterBenchmarkInternalESt10unique_ptrINS0_9BenchmarkESt14default_deleteIS2_EE },
        Symbol { offset: 412f00, size: 74, name: _ZN9benchmark8internal17InitializeStreamsEv },
        Symbol { offset: 45a630, size: 28, name: _ZTVN9benchmark8internal17FunctionBenchmarkE },
        Symbol { offset: 410f70, size: 69, name: _ZSt11make_uniqueIN9benchmark8internal17FunctionBenchmarkEJNSt7__cxx1112basic_stringIcSt11char_traitsIcESaIcEEERFvRNS0_5StateEEEENSt8__detail9_MakeUniqIT_E15__single_objectEDpOT0_ },
        Symbol { offset: 410d50, size: 219, name: _ZStplIcSt11char_traitsIcESaIcEENSt7__cxx1112basic_stringIT_T0_T1_EEOS8_S9_ },
        Symbol { offset: 410d30, size: 11, name: _ZNSt10unique_ptrIN9benchmark8internal9BenchmarkESt14default_deleteIS2_EED1Ev },
        Symbol { offset: 410d30, size: 11, name: _ZNSt10unique_ptrIN9benchmark8internal9BenchmarkESt14default_deleteIS2_EED2Ev },
        Symbol { offset: 410d10, size: 11, name: _ZNSt10unique_ptrIN9benchmark8internal17FunctionBenchmarkESt14default_deleteIS2_EED1Ev },
        Symbol { offset: 410d10, size: 11, name: _ZNSt10unique_ptrIN9benchmark8internal17FunctionBenchmarkESt14default_deleteIS2_EED2Ev },
        Symbol { offset: 412fc0, size: a3, name: _ZN9benchmark8ShutdownEv },
        Symbol { offset: 4188a0, size: 8a, name: _ZN9benchmark22RunSpecifiedBenchmarksEv },
        Symbol { offset: 413070, size: 73, name: _ZN9benchmark27ReportUnrecognizedArgumentsEiPPc },
        Symbol { offset: 414fb0, size: 27, name: _ZN9benchmark10InitializeEPiPPcPFvvE },
        Symbol { offset: 412fa0, size: 20, name: _ZN9benchmark16PrintDefaultHelpEv },
        Symbol { offset: 410720, size: 5ec, name: _ZN17example_namespace27MyTemplate2_TestB_BenchmarkC1Ev },
        Symbol { offset: 45a580, size: 50, name: _ZTVN17example_namespace27MyTemplate2_TestB_BenchmarkE },
        Symbol { offset: 410720, size: 5ec, name: _ZN17example_namespace27MyTemplate2_TestB_BenchmarkC2Ev },
        Symbol { offset: 410130, size: 5ec, name: _ZN17example_namespace27MyTemplate1_TestA_BenchmarkC1Ev },
        Symbol { offset: 45a530, size: 50, name: _ZTVN17example_namespace27MyTemplate1_TestA_BenchmarkE },
        Symbol { offset: 410130, size: 5ec, name: _ZN17example_namespace27MyTemplate1_TestA_BenchmarkC2Ev },
        Symbol { offset: 40fb40, size: 5ec, name: _ZN17example_namespace39MyTemplatedFixture_DoubleTest_BenchmarkC1Ev },
        Symbol { offset: 45a4e0, size: 50, name: _ZTVN17example_namespace39MyTemplatedFixture_DoubleTest_BenchmarkE },
        Symbol { offset: 40fb40, size: 5ec, name: _ZN17example_namespace39MyTemplatedFixture_DoubleTest_BenchmarkC2Ev },
        Symbol { offset: 40f550, size: 5ec, name: _ZN17example_namespace36MyTemplatedFixture_IntTest_BenchmarkC1Ev },
        Symbol { offset: 45a490, size: 50, name: _ZTVN17example_namespace36MyTemplatedFixture_IntTest_BenchmarkE },
        Symbol { offset: 40f550, size: 5ec, name: _ZN17example_namespace36MyTemplatedFixture_IntTest_BenchmarkC2Ev },
        Symbol { offset: 40ef60, size: 5ec, name: _ZN17example_namespace27MyFixture_BarTest_BenchmarkC1Ev },
        Symbol { offset: 45a440, size: 50, name: _ZTVN17example_namespace27MyFixture_BarTest_BenchmarkE },
        Symbol { offset: 40ef60, size: 5ec, name: _ZN17example_namespace27MyFixture_BarTest_BenchmarkC2Ev },
        Symbol { offset: 40e970, size: 5ec, name: _ZN17example_namespace27MyFixture_FooTest_BenchmarkC1Ev },
        Symbol { offset: 41fe80, size: 9, name: _ZN9benchmark8internal9Benchmark7SetNameERKNSt7__cxx1112basic_stringIcSt11char_traitsIcESaIcEEE },
        Symbol { offset: 443f50, size: 283, name: _ZN8codspeed30get_path_relative_to_workspaceERKNSt7__cxx1112basic_stringIcSt11char_traitsIcESaIcEEE },
        Symbol { offset: 45a3f0, size: 50, name: _ZTVN17example_namespace27MyFixture_FooTest_BenchmarkE },
        Symbol { offset: 420d20, size: 24a, name: _ZN9benchmark8internal9BenchmarkC2ERKNSt7__cxx1112basic_stringIcSt11char_traitsIcESaIcEEE },
        Symbol { offset: 40e970, size: 5ec, name: _ZN17example_namespace27MyFixture_FooTest_BenchmarkC2Ev },
        Symbol { offset: 40e8f0, size: 7d, name: _Z12BM_Template1IiEvRN9benchmark5StateE },
        Symbol { offset: 40d860, size: 85, name: _ZN17example_namespace27MyFixture_BarTest_Benchmark13BenchmarkCaseERN9benchmark5StateE },
        Symbol { offset: 40d860, size: 85, name: _ZN17example_namespace36MyTemplatedFixture_IntTest_Benchmark13BenchmarkCaseERN9benchmark5StateE },
        Symbol { offset: 40d860, size: 85, name: _ZN17example_namespace39MyTemplatedFixture_DoubleTest_Benchmark13BenchmarkCaseERN9benchmark5StateE },
        Symbol { offset: 40d860, size: 85, name: _ZN17example_namespace27MyTemplate1_TestA_Benchmark13BenchmarkCaseERN9benchmark5StateE },
        Symbol { offset: 40d860, size: 85, name: _ZN17example_namespace27MyTemplate2_TestB_Benchmark13BenchmarkCaseERN9benchmark5StateE },
        Symbol { offset: 40d860, size: 85, name: _ZN17example_namespace27MyFixture_FooTest_Benchmark13BenchmarkCaseERN9benchmark5StateE },
        Symbol { offset: 40e860, size: 85, name: _Z12BM_Template2IidEvRN9benchmark5StateE },
        Symbol { offset: 40e340, size: 512, name: _ZN4test11BM_TemplateINSt7__cxx1112basic_stringIcSt11char_traitsIcESaIcEEEEEvRN9benchmark5StateE },
        Symbol { offset: 40e2f0, size: 1a, name: _ZN9benchmark7Fixture5SetUpERNS_5StateE },
        Symbol { offset: 40e2d0, size: 1a, name: _ZN9benchmark7Fixture8TearDownERNS_5StateE },
        Symbol { offset: 447c00, size: 109, name: _ZN8codspeed24extract_lambda_namespaceERKNSt7__cxx1112basic_stringIcSt11char_traitsIcESaIcEEE },
        Symbol { offset: 40e280, size: 31, name: _ZN17example_namespace27MyTemplate2_TestB_BenchmarkD0Ev },
        Symbol { offset: 40e260, size: 13, name: _ZN17example_namespace27MyTemplate2_TestB_BenchmarkD1Ev },
        Symbol { offset: 40e260, size: 13, name: _ZN17example_namespace27MyTemplate2_TestB_BenchmarkD2Ev },
        Symbol { offset: 40e220, size: 31, name: _ZN17example_namespace27MyTemplate1_TestA_BenchmarkD0Ev },
        Symbol { offset: 40e200, size: 13, name: _ZN17example_namespace27MyTemplate1_TestA_BenchmarkD1Ev },
        Symbol { offset: 40e200, size: 13, name: _ZN17example_namespace27MyTemplate1_TestA_BenchmarkD2Ev },
        Symbol { offset: 40e1c0, size: 31, name: _ZN17example_namespace39MyTemplatedFixture_DoubleTest_BenchmarkD0Ev },
        Symbol { offset: 40e1a0, size: 13, name: _ZN17example_namespace39MyTemplatedFixture_DoubleTest_BenchmarkD1Ev },
        Symbol { offset: 40e1a0, size: 13, name: _ZN17example_namespace39MyTemplatedFixture_DoubleTest_BenchmarkD2Ev },
        Symbol { offset: 40e160, size: 31, name: _ZN17example_namespace36MyTemplatedFixture_IntTest_BenchmarkD0Ev },
        Symbol { offset: 40e140, size: 13, name: _ZN17example_namespace36MyTemplatedFixture_IntTest_BenchmarkD1Ev },
        Symbol { offset: 40e140, size: 13, name: _ZN17example_namespace36MyTemplatedFixture_IntTest_BenchmarkD2Ev },
        Symbol { offset: 40e100, size: 31, name: _ZN17example_namespace27MyFixture_FooTest_BenchmarkD0Ev },
        Symbol { offset: 40e0e0, size: 13, name: _ZN17example_namespace27MyFixture_FooTest_BenchmarkD1Ev },
        Symbol { offset: 40e0e0, size: 13, name: _ZN17example_namespace27MyFixture_FooTest_BenchmarkD2Ev },
        Symbol { offset: 40e0a0, size: 31, name: _ZN17example_namespace27MyFixture_BarTest_BenchmarkD0Ev },
        Symbol { offset: 40e080, size: 13, name: _ZN17example_namespace27MyFixture_BarTest_BenchmarkD1Ev },
        Symbol { offset: 41f320, size: 173, name: _ZN9benchmark8internal9BenchmarkD2Ev },
        Symbol { offset: 45a3a0, size: 50, name: _ZTVN9benchmark7FixtureE },
        Symbol { offset: 40e080, size: 13, name: _ZN17example_namespace27MyFixture_BarTest_BenchmarkD2Ev },
        Symbol { offset: 413ed0, size: 113, name: _ZN9benchmark5State17FinishKeepRunningEv },
        Symbol { offset: 413ff0, size: 10d, name: _ZN9benchmark5State16StartKeepRunningEv },
        Symbol { offset: 40e070, size: 1, name: _ZN17example_namespace9MyFixture8TearDownERN9benchmark5StateE },
        Symbol { offset: 40e060, size: 1, name: _ZN17example_namespace9MyFixture5SetUpERN9benchmark5StateE },
        Symbol { offset: 40e050, size: 1, name: _ZN9benchmark7Fixture8TearDownERKNS_5StateE },
        Symbol { offset: 40e040, size: 1, name: _ZN9benchmark7Fixture5SetUpERKNS_5StateE },
        Symbol { offset: 40e000, size: 32, name: _ZN9benchmark7Fixture3RunERNS_5StateE },
        Symbol { offset: 44ab80, size: 4, name: _IO_stdin_used },
        Symbol { offset: 40a1f0, size: 9d, name: main },
        Symbol { offset: 40c9e0, size: 26, name: _start },
        Symbol { offset: 45b2e0, size: 8, name: _ZGVZN9benchmark8internal18GetNullLogInstanceEvE8null_log },
        Symbol { offset: 45b2d0, size: 8, name: _ZGVZN9benchmark8internal19GetErrorLogInstanceEvE9error_log },
        Symbol { offset: 45b2f8, size: 8, name: _ZGVZN8codspeed8CodSpeed11getInstanceEvE8instance },
        Symbol { offset: 45b2e8, size: 8, name: _ZZN9benchmark8internal18GetNullLogInstanceEvE8null_log },
        Symbol { offset: 45b2d8, size: 8, name: _ZZN9benchmark8internal19GetErrorLogInstanceEvE9error_log },
        Symbol { offset: 42bf60, size: 50, name: _ZNSt7__cxx1115basic_stringbufIcSt11char_traitsIcESaIcEED2Ev },
        Symbol { offset: 42bfb0, size: 5d, name: _ZNSt7__cxx1115basic_stringbufIcSt11char_traitsIcESaIcEED0Ev },
        Symbol { offset: 42bf60, size: 50, name: _ZNSt7__cxx1115basic_stringbufIcSt11char_traitsIcESaIcEED1Ev },
        Symbol { offset: 43d620, size: 3, name: _ZNKSt5ctypeIcE8do_widenEc },
        Symbol { offset: 45b300, size: 58, name: _ZZN8codspeed8CodSpeed11getInstanceEvE8instance },
        Symbol { offset: 45b2f0, size: 4, name: _ZZN9benchmark8internal8LogLevelEvE9log_level },
    ],
}
