---
source: src/executor/wall_time/perf/debug_info.rs
expression: module_debug_info.debug_infos
---
[
    DebugInfo { addr: 20, size: 1, name: _ZN3std4sync4mpmc5waker17current_thread_id5DUMMY29_$u7b$$u7b$constant$u7d$$u7d$28_$u7b$$u7b$closure$u7d$$u7d$3VAL17h24ab788f88a1cd3eE, location: /home/not-matthias/.rustup/toolchains/stable-x86_64-unknown-linux-gnu/lib/rustlib/src/rust/library/core/src/slice/iter/macros.rs:0 },
    DebugInfo { addr: 28, size: 60, name: _ZN30codspeed_divan_compat_walltime5alloc19CURRENT_THREAD_INFO29_$u7b$$u7b$constant$u7d$$u7d$28_$u7b$$u7b$closure$u7d$$u7d$3VAL17h919c5d204d2c345aE, location: /home/not-matthias/.cargo/registry/src/index.crates.io-1949cf8c6b5b557f/serde_json-1.0.138/src/number.rs:165 },
    DebugInfo { addr: 88, size: 8, name: _ZN3std6thread7current2id2ID17h7db2101f282e5fa4E, location: /home/not-matthias/.cargo/registry/src/index.crates.io-1949cf8c6b5b557f/glob-0.3.2/src/lib.rs:993 },
    DebugInfo { addr: 90, size: 8, name: _ZN3std9panicking11panic_count17LOCAL_PANIC_COUNT29_$u7b$$u7b$constant$u7d$$u7d$28_$u7b$$u7b$closure$u7d$$u7d$3VAL17hfd921ba03a31328fE.0, location: /home/not-matthias/.cargo/registry/src/index.crates.io-1949cf8c6b5b557f/colored-2.1.0/src/control.rs:120 },
    DebugInfo { addr: 98, size: 1, name: _ZN3std9panicking11panic_count17LOCAL_PANIC_COUNT29_$u7b$$u7b$constant$u7d$$u7d$28_$u7b$$u7b$closure$u7d$$u7d$3VAL17hfd921ba03a31328fE.1, location: /home/not-matthias/.rustup/toolchains/stable-x86_64-unknown-linux-gnu/lib/rustlib/src/rust/library/core/src/char/methods.rs:1416 },
    DebugInfo { addr: a0, size: 8, name: _ZN3std3sys3pal4unix14stack_overflow3imp5GUARD29_$u7b$$u7b$constant$u7d$$u7d$28_$u7b$$u7b$closure$u7d$$u7d$3VAL17h3a2adbfd45e56303E.0, location: /home/not-matthias/.cargo/registry/src/index.crates.io-1949cf8c6b5b557f/serde_json-1.0.138/src/de.rs:0 },
    DebugInfo { addr: a8, size: 8, name: _ZN3std3sys3pal4unix14stack_overflow3imp5GUARD29_$u7b$$u7b$constant$u7d$$u7d$28_$u7b$$u7b$closure$u7d$$u7d$3VAL17h3a2adbfd45e56303E.1, location: /home/not-matthias/.cargo/registry/src/index.crates.io-1949cf8c6b5b557f/serde_json-1.0.138/src/de.rs:1852 },
    DebugInfo { addr: b0, size: 10, name: _ZN3std4sync4mpmc7context7Context4with7CONTEXT29_$u7b$$u7b$constant$u7d$$u7d$28_$u7b$$u7b$closure$u7d$$u7d$3VAL17h0e24ed330a3ab221E, location: /home/not-matthias/.rustup/toolchains/stable-x86_64-unknown-linux-gnu/lib/rustlib/src/rust/library/alloc/src/raw_vec/mod.rs:406 },
    DebugInfo { addr: c0, size: 10, name: _ZN3std2io5stdio14OUTPUT_CAPTURE29_$u7b$$u7b$constant$u7d$$u7d$28_$u7b$$u7b$closure$u7d$$u7d$3VAL17h1a3a73a5543fe63eE, location: /home/not-matthias/.rustup/toolchains/stable-x86_64-unknown-linux-gnu/lib/rustlib/src/rust/library/alloc/src/collections/btree/navigate.rs:634 },
    DebugInfo { addr: d0, size: 18, name: _ZN3std4hash6random11RandomState3new4KEYS29_$u7b$$u7b$constant$u7d$$u7d$28_$u7b$$u7b$closure$u7d$$u7d$3VAL17h7d75c4b6714d2d2dE, location: /home/not-matthias/.cargo/registry/src/index.crates.io-1949cf8c6b5b557f/serde_json-1.0.138/src/read.rs:0 },
    DebugInfo { addr: e8, size: 10, name: _ZN3std6thread9spawnhook11SPAWN_HOOKS29_$u7b$$u7b$constant$u7d$$u7d$28_$u7b$$u7b$closure$u7d$$u7d$3VAL17h4207ed9bd428b113E, location: /home/not-matthias/.rustup/toolchains/stable-x86_64-unknown-linux-gnu/lib/rustlib/src/rust/library/core/src/alloc/layout.rs:375 },
    DebugInfo { addr: f8, size: 8, name: _ZN3std6thread7current7CURRENT17h4e783fac72fd69c2E, location: /home/not-matthias/.cargo/registry/src/index.crates.io-1949cf8c6b5b557f/serde_json-1.0.138/src/de.rs:0 },
    DebugInfo { addr: 390, size: 20, name: __abi_tag, location: /home/not-matthias/Documents/work/wgit/codspeed-rust/crates/codspeed/src/walltime_results.rs:0 },
    DebugInfo { addr: 4e3d0, size: fc4, name: _ZN30codspeed_divan_compat_walltime5bench7Bencher5bench17h0da6d18105410acfE, location: /home/not-matthias/Documents/work/wgit/codspeed-rust/crates/divan_compat/divan_fork/src/bench/mod.rs:103 },
    DebugInfo { addr: 4f3a0, size: fc4, name: _ZN30codspeed_divan_compat_walltime5bench7Bencher5bench17h5592cdf8876773fbE, location: /home/not-matthias/Documents/work/wgit/codspeed-rust/crates/divan_compat/divan_fork/src/bench/mod.rs:103 },
    DebugInfo { addr: 50370, size: fc4, name: _ZN30codspeed_divan_compat_walltime5bench7Bencher5bench17h66ab3b436729a7afE, location: /home/not-matthias/Documents/work/wgit/codspeed-rust/crates/divan_compat/divan_fork/src/bench/mod.rs:103 },
    DebugInfo { addr: 51340, size: fc4, name: _ZN30codspeed_divan_compat_walltime5bench7Bencher5bench17h737824574d2b7789E, location: /home/not-matthias/Documents/work/wgit/codspeed-rust/crates/divan_compat/divan_fork/src/bench/mod.rs:103 },
    DebugInfo { addr: 52310, size: fc4, name: _ZN30codspeed_divan_compat_walltime5bench7Bencher5bench17hab3edb915262d5fcE, location: /home/not-matthias/Documents/work/wgit/codspeed-rust/crates/divan_compat/divan_fork/src/bench/mod.rs:103 },
    DebugInfo { addr: 532e0, size: 3a, name: _ZN4core3ptr44drop_in_place$LT$codspeed..fifo..FifoIpc$GT$17h2738a55b144de3c7E, location: /home/not-matthias/.rustup/toolchains/stable-x86_64-unknown-linux-gnu/lib/rustlib/src/rust/library/core/src/ptr/mod.rs:524 },
    DebugInfo { addr: 53320, size: bc, name: _ZN4core3ptr91drop_in_place$LT$core..result..Result$LT$codspeed..fifo..BenchGuard$C$anyhow..Error$GT$$GT$17hded2ca46b50fc00cE, location: /home/not-matthias/.rustup/toolchains/stable-x86_64-unknown-linux-gnu/lib/rustlib/src/rust/library/core/src/ptr/mod.rs:524 },
    DebugInfo { addr: 533e0, size: 13, name: _ZN30codspeed_divan_compat_walltime11thread_pool19TaskShared$LT$F$GT$3new4call17h3e84e302095d0b0dE, location: /home/not-matthias/Documents/work/wgit/codspeed-rust/crates/divan_compat/divan_fork/src/thread_pool.rs:200 },
    DebugInfo { addr: 53400, size: 13, name: _ZN30codspeed_divan_compat_walltime11thread_pool19TaskShared$LT$F$GT$3new4call17h716a8c76ad38c374E, location: /home/not-matthias/Documents/work/wgit/codspeed-rust/crates/divan_compat/divan_fork/src/thread_pool.rs:200 },
    DebugInfo { addr: 53400, size: 13, name: _ZN30codspeed_divan_compat_walltime11thread_pool19TaskShared$LT$F$GT$3new4call17h8a7fd0c6734f9a7dE, location: /home/not-matthias/Documents/work/wgit/codspeed-rust/crates/divan_compat/divan_fork/src/thread_pool.rs:200 },
    DebugInfo { addr: 53420, size: 13, name: _ZN30codspeed_divan_compat_walltime11thread_pool19TaskShared$LT$F$GT$3new4call17ha80ff79ac139f72fE, location: /home/not-matthias/Documents/work/wgit/codspeed-rust/crates/divan_compat/divan_fork/src/thread_pool.rs:200 },
    DebugInfo { addr: 53440, size: 13, name: _ZN30codspeed_divan_compat_walltime11thread_pool19TaskShared$LT$F$GT$3new4call17hfdf2aa9ea410980cE, location: /home/not-matthias/Documents/work/wgit/codspeed-rust/crates/divan_compat/divan_fork/src/thread_pool.rs:200 },
    DebugInfo { addr: 53460, size: 550, name: _ZN30codspeed_divan_compat_walltime11thread_pool19TaskShared$LT$F$GT$3new4call23__codspeed_root_frame__17h58df1f0fcd874df9E, location: /home/not-matthias/Documents/work/wgit/codspeed-rust/crates/divan_compat/divan_fork/src/thread_pool.rs:205 },
    DebugInfo { addr: 539b0, size: 550, name: _ZN30codspeed_divan_compat_walltime11thread_pool19TaskShared$LT$F$GT$3new4call23__codspeed_root_frame__17hb4c0add2903589f8E, location: /home/not-matthias/Documents/work/wgit/codspeed-rust/crates/divan_compat/divan_fork/src/thread_pool.rs:205 },
    DebugInfo { addr: 53f00, size: 550, name: _ZN30codspeed_divan_compat_walltime11thread_pool19TaskShared$LT$F$GT$3new4call23__codspeed_root_frame__17hbbe83a58e679adaeE, location: /home/not-matthias/Documents/work/wgit/codspeed-rust/crates/divan_compat/divan_fork/src/thread_pool.rs:205 },
    DebugInfo { addr: 54450, size: 550, name: _ZN30codspeed_divan_compat_walltime11thread_pool19TaskShared$LT$F$GT$3new4call23__codspeed_root_frame__17hd2c1e0cc0ac38fecE, location: /home/not-matthias/Documents/work/wgit/codspeed-rust/crates/divan_compat/divan_fork/src/thread_pool.rs:205 },
    DebugInfo { addr: 549a0, size: d, name: _ZN3std2rt10lang_start28_$u7b$$u7b$closure$u7d$$u7d$17h2d52dafd748a1776E, location: /home/not-matthias/.rustup/toolchains/stable-x86_64-unknown-linux-gnu/lib/rustlib/src/rust/library/std/src/rt.rs:199 },
    DebugInfo { addr: 549b0, size: 5, name: _ZN3std3sys9backtrace28__rust_begin_short_backtrace17h6b1de45521f1e620E, location: /home/not-matthias/.rustup/toolchains/stable-x86_64-unknown-linux-gnu/lib/rustlib/src/rust/library/std/src/sys/backtrace.rs:148 },
    DebugInfo { addr: 549c0, size: d, name: _ZN4core3ops8function6FnOnce40call_once$u7b$$u7b$vtable.shim$u7d$$u7d$17h11310b2424f7a2e5E, location: /home/not-matthias/.rustup/toolchains/stable-x86_64-unknown-linux-gnu/lib/rustlib/src/rust/library/core/src/ops/function.rs:250 },
    DebugInfo { addr: 549d0, size: 5, name: _ZN4core3ops8function6FnOnce9call_once17h04661b85bb5c3feeE, location: /home/not-matthias/Documents/work/wgit/codspeed-rust/crates/divan_compat/benches/sleep_benches.rs:6 },
    DebugInfo { addr: 549e0, size: 5, name: _ZN4core3ops8function6FnOnce9call_once17h0a6ec2c31ce6b466E, location: /home/not-matthias/Documents/work/wgit/codspeed-rust/crates/divan_compat/benches/sleep_benches.rs:11 },
    DebugInfo { addr: 549f0, size: 5, name: _ZN4core3ops8function6FnOnce9call_once17h4f124aa0e7906f70E, location: /home/not-matthias/Documents/work/wgit/codspeed-rust/crates/divan_compat/benches/sleep_benches.rs:22 },
    DebugInfo { addr: 54a00, size: 5, name: _ZN4core3ops8function6FnOnce9call_once17h90f6c2d0dd810eaaE, location: /home/not-matthias/Documents/work/wgit/codspeed-rust/crates/divan_compat/benches/sleep_benches.rs:1 },
    DebugInfo { addr: 54a10, size: 56, name: _ZN4core3ops8function6FnOnce9call_once17h9d629fb3cc739b19E, location: /home/not-matthias/.rustup/toolchains/stable-x86_64-unknown-linux-gnu/lib/rustlib/src/rust/library/core/src/ops/function.rs:250 },
    DebugInfo { addr: 54a70, size: 5, name: _ZN4core3ops8function6FnOnce9call_once17hdc50bcf81f8e08b4E, location: /home/not-matthias/Documents/work/wgit/codspeed-rust/crates/divan_compat/benches/sleep_benches.rs:16 },
    DebugInfo { addr: 54a80, size: 38c, name: _ZN9hashbrown3map28HashMap$LT$K$C$V$C$S$C$A$GT$6insert17heff1e1d0d713fcd8E, location: /rust/deps/hashbrown-0.15.3/src/map.rs:1790 },
    DebugInfo { addr: 54e10, size: 6, name: _ZN13sleep_benches4main17h41714caa90c0cdcdE, location: /home/not-matthias/Documents/work/wgit/codspeed-rust/crates/divan_compat/benches/sleep_benches.rs:28 },
    DebugInfo { addr: 54e20, size: 30, name: _ZN13sleep_benches23__DIVAN_BENCH_SLEEP_1MS4push17h5f2fc010f24e272aE, location: /home/not-matthias/.rustup/toolchains/stable-x86_64-unknown-linux-gnu/lib/rustlib/src/rust/library/core/src/sync/atomic.rs:3829 },
    DebugInfo { addr: 54e50, size: 30, name: _ZN13sleep_benches24__DIVAN_BENCH_SLEEP_10MS4push17h40a469a123fe18deE, location: /home/not-matthias/.rustup/toolchains/stable-x86_64-unknown-linux-gnu/lib/rustlib/src/rust/library/core/src/sync/atomic.rs:3829 },
    DebugInfo { addr: 54e80, size: 30, name: _ZN13sleep_benches24__DIVAN_BENCH_SLEEP_50MS4push17h9e47f01e9e2c6ddeE, location: /home/not-matthias/.rustup/toolchains/stable-x86_64-unknown-linux-gnu/lib/rustlib/src/rust/library/core/src/sync/atomic.rs:3829 },
    DebugInfo { addr: 54eb0, size: 30, name: _ZN13sleep_benches25__DIVAN_BENCH_SLEEP_100MS4push17ha2ef0b1a07d39eccE, location: /home/not-matthias/.rustup/toolchains/stable-x86_64-unknown-linux-gnu/lib/rustlib/src/rust/library/core/src/sync/atomic.rs:3829 },
    DebugInfo { addr: 54ee0, size: 30, name: _ZN13sleep_benches44__DIVAN_BENCH_SLEEP_100MS_WITH_CUSTOM_SAMPLE4push17h6fe02d4be9362fd3E, location: /home/not-matthias/.rustup/toolchains/stable-x86_64-unknown-linux-gnu/lib/rustlib/src/rust/library/core/src/sync/atomic.rs:3829 },
    DebugInfo { addr: 54f40, size: 9a2, name: _ZN9hashbrown3raw21RawTable$LT$T$C$A$GT$14reserve_rehash17hcf8cbca6a51729f3E.llvm.15001852044834820933, location: /rust/deps/hashbrown-0.15.3/src/raw/mod.rs:977 },
    DebugInfo { addr: 558f0, size: 6c, name: _ZN5alloc7raw_vec11finish_grow17h872326278bf00c80E.llvm.12997381087669990207, location: /home/not-matthias/.rustup/toolchains/stable-x86_64-unknown-linux-gnu/lib/rustlib/src/rust/library/alloc/src/raw_vec/mod.rs:766 },
    DebugInfo { addr: 55960, size: b4, name: _ZN5alloc7raw_vec19RawVec$LT$T$C$A$GT$8grow_one17h34f94c0018943cd9E, location: /home/not-matthias/.rustup/toolchains/stable-x86_64-unknown-linux-gnu/lib/rustlib/src/rust/library/alloc/src/raw_vec/mod.rs:339 },
    DebugInfo { addr: 55a20, size: f5, name: _ZN5alloc7raw_vec20RawVecInner$LT$A$GT$7reserve21do_reserve_and_handle17h87f2423aace61410E, location: /home/not-matthias/.rustup/toolchains/stable-x86_64-unknown-linux-gnu/lib/rustlib/src/rust/library/alloc/src/raw_vec/mod.rs:551 },
    DebugInfo { addr: 55b70, size: 68, name: _ZN132_$LT$alloc..vec..Vec$LT$T$C$A$GT$$u20$as$u20$alloc..vec..spec_extend..SpecExtend$LT$$RF$T$C$core..slice..iter..Iter$LT$T$GT$$GT$$GT$11spec_extend17h1b33bf5f0e7976d4E, location: /home/not-matthias/.rustup/toolchains/stable-x86_64-unknown-linux-gnu/lib/rustlib/src/rust/library/alloc/src/vec/spec_extend.rs:59 },
    DebugInfo { addr: 55be0, size: 5a, name: _ZN4core3ptr154drop_in_place$LT$alloc..boxed..Box$LT$dyn$u20$core..ops..function..FnOnce$LT$$LP$$RP$$GT$$u2b$Output$u20$$u3d$$u20$$LP$$RP$$u2b$core..marker..Send$GT$$GT$17h94d5d89b0f64be04E.llvm.16041781890786194790, location: /home/not-matthias/.rustup/toolchains/stable-x86_64-unknown-linux-gnu/lib/rustlib/src/rust/library/core/src/ptr/mod.rs:524 },
    DebugInfo { addr: 55c40, size: ae, name: _ZN4core3ptr333drop_in_place$LT$regex_lite..pool..Pool$LT$regex_lite..pikevm..Cache$C$alloc..boxed..Box$LT$dyn$u20$core..ops..function..Fn$LT$$LP$$RP$$GT$$u2b$Output$u20$$u3d$$u20$regex_lite..pikevm..Cache$u2b$core..panic..unwind_safe..RefUnwindSafe$u2b$core..panic..unwind_safe..UnwindSafe$u2b$core..marker..Send$u2b$core..marker..Sync$GT$$GT$$GT$17hfb992eb0c45179a1E.llvm.16041781890786194790, location: /home/not-matthias/.rustup/toolchains/stable-x86_64-unknown-linux-gnu/lib/rustlib/src/rust/library/core/src/ptr/mod.rs:524 },
    DebugInfo { addr: 55cf0, size: 643, name: _ZN4core3ptr52drop_in_place$LT$clap_builder..builder..arg..Arg$GT$17haa45778277852ae3E.llvm.16041781890786194790, location: /home/not-matthias/.rustup/toolchains/stable-x86_64-unknown-linux-gnu/lib/rustlib/src/rust/library/core/src/ptr/mod.rs:524 },
    DebugInfo { addr: 56340, size: 2f, name: _ZN4core3ptr59drop_in_place$LT$clap_builder..builder..ext..Extensions$GT$17h5ff9001bb2c6cc23E, location: /home/not-matthias/.rustup/toolchains/stable-x86_64-unknown-linux-gnu/lib/rustlib/src/rust/library/alloc/src/raw_vec/mod.rs:406 },
    DebugInfo { addr: 56370, size: 50d, name: _ZN4core3ptr60drop_in_place$LT$clap_builder..builder..command..Command$GT$17he95b42ae013968b2E.llvm.16041781890786194790, location: /home/not-matthias/.rustup/toolchains/stable-x86_64-unknown-linux-gnu/lib/rustlib/src/rust/library/core/src/ptr/mod.rs:524 },
    DebugInfo { addr: 56880, size: 82, name: _ZN4core3ptr65drop_in_place$LT$alloc..vec..Vec$LT$alloc..string..String$GT$$GT$17h9eaa0776f7d3c154E, location: /home/not-matthias/.rustup/toolchains/stable-x86_64-unknown-linux-gnu/lib/rustlib/src/rust/library/core/src/ptr/mod.rs:524 },
    DebugInfo { addr: 56910, size: 75, name: _ZN4core3ptr67drop_in_place$LT$codspeed_divan_compat_walltime..config..Filter$GT$17h35c820b301f43c0fE.llvm.16041781890786194790, location: /home/not-matthias/.rustup/toolchains/stable-x86_64-unknown-linux-gnu/lib/rustlib/src/rust/library/core/src/ptr/mod.rs:524 },
    DebugInfo { addr: 56990, size: ea, name: _ZN4core3ptr71drop_in_place$LT$alloc..boxed..Box$LT$regex_lite..pikevm..Cache$GT$$GT$17h091124115abc8593E.llvm.16041781890786194790, location: /home/not-matthias/.rustup/toolchains/stable-x86_64-unknown-linux-gnu/lib/rustlib/src/rust/library/core/src/ptr/mod.rs:524 },
    DebugInfo { addr: 56a80, size: 45, name: _ZN4core3ptr73drop_in_place$LT$clap_builder..builder..possible_value..PossibleValue$GT$17h190ea8a2f5c29c2aE, location: /home/not-matthias/.rustup/toolchains/stable-x86_64-unknown-linux-gnu/lib/rustlib/src/rust/library/core/src/ptr/mod.rs:524 },
    DebugInfo { addr: 56ad0, size: 1b0, name: _ZN4core3ptr75drop_in_place$LT$clap_builder..parser..matches..matched_arg..MatchedArg$GT$17he936e6531245f0e2E.llvm.16041781890786194790, location: /home/not-matthias/.rustup/toolchains/stable-x86_64-unknown-linux-gnu/lib/rustlib/src/rust/library/core/src/ptr/mod.rs:524 },
    DebugInfo { addr: 56c80, size: ef, name: _ZN4core3ptr75drop_in_place$LT$codspeed_divan_compat_walltime..entry..tree..EntryTree$GT$17he7d908ec405a2ec5E.llvm.16041781890786194790, location: /home/not-matthias/.rustup/toolchains/stable-x86_64-unknown-linux-gnu/lib/rustlib/src/rust/library/core/src/ptr/mod.rs:524 },
    DebugInfo { addr: 56d70, size: c5, name: _ZN4core3ptr83drop_in_place$LT$alloc..vec..Vec$LT$clap_builder..builder..command..Command$GT$$GT$17h7bc29f27f9eec6c1E, location: /home/not-matthias/.rustup/toolchains/stable-x86_64-unknown-linux-gnu/lib/rustlib/src/rust/library/core/src/ptr/mod.rs:524 },
    DebugInfo { addr: 56e40, size: 100, name: _ZN4core3ptr83drop_in_place$LT$alloc..vec..Vec$LT$clap_builder..util..any_value..AnyValue$GT$$GT$17hd0fbec59ad928c9bE.llvm.16041781890786194790, location: /home/not-matthias/.rustup/toolchains/stable-x86_64-unknown-linux-gnu/lib/rustlib/src/rust/library/core/src/ptr/mod.rs:524 },
    DebugInfo { addr: 56f40, size: bc, name: _ZN4core3ptr86drop_in_place$LT$alloc..vec..Vec$LT$clap_builder..builder..arg_group..ArgGroup$GT$$GT$17h053ebd16ecbac143E, location: /home/not-matthias/.rustup/toolchains/stable-x86_64-unknown-linux-gnu/lib/rustlib/src/rust/library/core/src/ptr/mod.rs:524 },
    DebugInfo { addr: 57000, size: f2, name: _ZN4core3ptr93drop_in_place$LT$alloc..vec..Vec$LT$alloc..vec..Vec$LT$std..ffi..os_str..OsString$GT$$GT$$GT$17h3854e94f7889223dE.llvm.16041781890786194790, location: /home/not-matthias/.rustup/toolchains/stable-x86_64-unknown-linux-gnu/lib/rustlib/src/rust/library/core/src/ptr/mod.rs:524 },
    DebugInfo { addr: 57100, size: 6a, name: _ZN4core3ptr97drop_in_place$LT$core..option..Option$LT$clap_builder..builder..value_parser..ValueParser$GT$$GT$17ha77b5ad38a135002E, location: /home/not-matthias/.rustup/toolchains/stable-x86_64-unknown-linux-gnu/lib/rustlib/src/rust/library/core/src/ptr/mod.rs:524 },
    DebugInfo { addr: 57170, size: 1eb, name: _ZN4core3str7pattern14TwoWaySearcher4next17haf80c2df0141fd9cE, location: /home/not-matthias/.rustup/toolchains/stable-x86_64-unknown-linux-gnu/lib/rustlib/src/rust/library/core/src/str/pattern.rs:1458 },
    DebugInfo { addr: 57360, size: 38, name: _ZN4core4iter6traits8iterator8Iterator3nth17h1cc4d669d093731fE.llvm.16041781890786194790, location: /home/not-matthias/.rustup/toolchains/stable-x86_64-unknown-linux-gnu/lib/rustlib/src/rust/library/core/src/iter/traits/iterator.rs:347 },
    DebugInfo { addr: 573a0, size: 189, name: _ZN5alloc3vec16Vec$LT$T$C$A$GT$10retain_mut17hca29a92eec694b6aE, location: /home/not-matthias/.rustup/toolchains/stable-x86_64-unknown-linux-gnu/lib/rustlib/src/rust/library/alloc/src/vec/mod.rs:2147 },
    DebugInfo { addr: 57530, size: 81, name: _ZN5alloc3vec16Vec$LT$T$C$A$GT$14extend_trusted17h337243b24fd63742E, location: /home/not-matthias/.rustup/toolchains/stable-x86_64-unknown-linux-gnu/lib/rustlib/src/rust/library/alloc/src/vec/mod.rs:3566 },
    DebugInfo { addr: 575c0, size: 1fb, name: _ZN5alloc3vec16Vec$LT$T$C$A$GT$16extend_desugared17hb4e1920558f2125eE, location: /home/not-matthias/.rustup/toolchains/stable-x86_64-unknown-linux-gnu/lib/rustlib/src/rust/library/alloc/src/vec/mod.rs:3538 },
    DebugInfo { addr: 577c0, size: 6c, name: _ZN5alloc3vec16Vec$LT$T$C$A$GT$6remove17had2e27557ac85138E, location: /home/not-matthias/.rustup/toolchains/stable-x86_64-unknown-linux-gnu/lib/rustlib/src/rust/library/alloc/src/vec/mod.rs:2065 },
    DebugInfo { addr: 57830, size: 114, name: _ZN70_$LT$alloc..vec..Vec$LT$T$C$A$GT$$u20$as$u20$core..ops..drop..Drop$GT$4drop17h4caec55174b0e067E, location: /home/not-matthias/.rustup/toolchains/stable-x86_64-unknown-linux-gnu/lib/rustlib/src/rust/library/alloc/src/vec/mod.rs:3799 },
    DebugInfo { addr: 57950, size: bb, name: _ZN70_$LT$alloc..vec..Vec$LT$T$C$A$GT$$u20$as$u20$core..ops..drop..Drop$GT$4drop17h8e47e4ed5d65fc43E, location: /home/not-matthias/.rustup/toolchains/stable-x86_64-unknown-linux-gnu/lib/rustlib/src/rust/library/alloc/src/vec/mod.rs:3799 },
    DebugInfo { addr: 57a10, size: c4, name: _ZN70_$LT$alloc..vec..Vec$LT$T$C$A$GT$$u20$as$u20$core..ops..drop..Drop$GT$4drop17hb010496ecbe7d8b2E, location: /home/not-matthias/.rustup/toolchains/stable-x86_64-unknown-linux-gnu/lib/rustlib/src/rust/library/alloc/src/vec/mod.rs:3799 },
    DebugInfo { addr: 57ae0, size: 263, name: _ZN90_$LT$core..str..iter..Split$LT$P$GT$$u20$as$u20$core..iter..traits..iterator..Iterator$GT$4next17h1b6e96535a82d38fE.llvm.16041781890786194790, location: /home/not-matthias/.rustup/toolchains/stable-x86_64-unknown-linux-gnu/lib/rustlib/src/rust/library/core/src/str/iter.rs:514 },
    DebugInfo { addr: 57d50, size: 307, name: _ZN98_$LT$alloc..vec..Vec$LT$T$GT$$u20$as$u20$alloc..vec..spec_from_iter..SpecFromIter$LT$T$C$I$GT$$GT$9from_iter17h40ec86fb7a1d51e5E, location: /home/not-matthias/.rustup/toolchains/stable-x86_64-unknown-linux-gnu/lib/rustlib/src/rust/library/alloc/src/vec/spec_from_iter.rs:33 },
    DebugInfo { addr: 58060, size: 307, name: _ZN98_$LT$alloc..vec..Vec$LT$T$GT$$u20$as$u20$alloc..vec..spec_from_iter..SpecFromIter$LT$T$C$I$GT$$GT$9from_iter17h7300f07429f98107E, location: /home/not-matthias/.rustup/toolchains/stable-x86_64-unknown-linux-gnu/lib/rustlib/src/rust/library/alloc/src/vec/spec_from_iter.rs:33 },
    DebugInfo { addr: 58370, size: 2ec, name: _ZN98_$LT$alloc..vec..Vec$LT$T$GT$$u20$as$u20$alloc..vec..spec_from_iter..SpecFromIter$LT$T$C$I$GT$$GT$9from_iter17h9a44327bc31bbf3fE, location: /home/not-matthias/.rustup/toolchains/stable-x86_64-unknown-linux-gnu/lib/rustlib/src/rust/library/alloc/src/vec/spec_from_iter.rs:33 },
    DebugInfo { addr: 58660, size: 1c5, name: _ZN98_$LT$alloc..vec..Vec$LT$T$GT$$u20$as$u20$alloc..vec..spec_from_iter..SpecFromIter$LT$T$C$I$GT$$GT$9from_iter17hb38b4d77decab838E, location: /home/not-matthias/.rustup/toolchains/stable-x86_64-unknown-linux-gnu/lib/rustlib/src/rust/library/alloc/src/vec/spec_from_iter.rs:33 },
    DebugInfo { addr: 58830, size: 307, name: _ZN98_$LT$alloc..vec..Vec$LT$T$GT$$u20$as$u20$alloc..vec..spec_from_iter..SpecFromIter$LT$T$C$I$GT$$GT$9from_iter17hb77594e09eeef91eE, location: /home/not-matthias/.rustup/toolchains/stable-x86_64-unknown-linux-gnu/lib/rustlib/src/rust/library/alloc/src/vec/spec_from_iter.rs:33 },
    DebugInfo { addr: 58b40, size: 30a, name: _ZN98_$LT$alloc..vec..Vec$LT$T$GT$$u20$as$u20$alloc..vec..spec_from_iter..SpecFromIter$LT$T$C$I$GT$$GT$9from_iter17hc905df829e9cfef6E, location: /home/not-matthias/.rustup/toolchains/stable-x86_64-unknown-linux-gnu/lib/rustlib/src/rust/library/alloc/src/vec/spec_from_iter.rs:33 },
    DebugInfo { addr: 58e50, size: 684, name: _ZN30codspeed_divan_compat_walltime5entry4tree9EntryTree6retain6retain28_$u7b$$u7b$closure$u7d$$u7d$17h3f665ccd2676cfbcE.llvm.16041781890786194790, location: /home/not-matthias/Documents/work/wgit/codspeed-rust/crates/divan_compat/divan_fork/src/entry/tree.rs:167 },
    DebugInfo { addr: 594e0, size: 180, name: _ZN12clap_builder6parser7matches11arg_matches10ArgMatches11try_get_one17h3ebbaac7ddbaf3ecE, location: /home/not-matthias/.cargo/registry/src/index.crates.io-1949cf8c6b5b557f/clap_builder-4.5.17/src/parser/matches/arg_matches.rs:1059 },
    DebugInfo { addr: 59660, size: 180, name: _ZN12clap_builder6parser7matches11arg_matches10ArgMatches11try_get_one17h4f7e68e19623a8aaE, location: /home/not-matthias/.cargo/registry/src/index.crates.io-1949cf8c6b5b557f/clap_builder-4.5.17/src/parser/matches/arg_matches.rs:1059 },
    DebugInfo { addr: 597e0, size: 180, name: _ZN12clap_builder6parser7matches11arg_matches10ArgMatches11try_get_one17h65d860163670f976E, location: /home/not-matthias/.cargo/registry/src/index.crates.io-1949cf8c6b5b557f/clap_builder-4.5.17/src/parser/matches/arg_matches.rs:1059 },
    DebugInfo { addr: 59960, size: 180, name: _ZN12clap_builder6parser7matches11arg_matches10ArgMatches11try_get_one17h7e63377671403b68E, location: /home/not-matthias/.cargo/registry/src/index.crates.io-1949cf8c6b5b557f/clap_builder-4.5.17/src/parser/matches/arg_matches.rs:1059 },
    DebugInfo { addr: 59ae0, size: 180, name: _ZN12clap_builder6parser7matches11arg_matches10ArgMatches11try_get_one17h9922791d9dd5016dE, location: /home/not-matthias/.cargo/registry/src/index.crates.io-1949cf8c6b5b557f/clap_builder-4.5.17/src/parser/matches/arg_matches.rs:1059 },
    DebugInfo { addr: 59c60, size: 180, name: _ZN12clap_builder6parser7matches11arg_matches10ArgMatches11try_get_one17h9e6e3fba4cc22bb0E, location: /home/not-matthias/.cargo/registry/src/index.crates.io-1949cf8c6b5b557f/clap_builder-4.5.17/src/parser/matches/arg_matches.rs:1059 },
    DebugInfo { addr: 59de0, size: 180, name: _ZN12clap_builder6parser7matches11arg_matches10ArgMatches11try_get_one17hb85c00e600f71aafE, location: /home/not-matthias/.cargo/registry/src/index.crates.io-1949cf8c6b5b557f/clap_builder-4.5.17/src/parser/matches/arg_matches.rs:1059 },
    DebugInfo { addr: 59f60, size: 62, name: _ZN12clap_builder6parser7matches11arg_matches49unwrap_downcast_ref$u7b$$u7b$reify.shim$u7d$$u7d$17h6057865a742eb7efE.llvm.595808209150774305, location: /home/not-matthias/.cargo/registry/src/index.crates.io-1949cf8c6b5b557f/clap_builder-4.5.17/src/parser/matches/arg_matches.rs:1907 },
    DebugInfo { addr: 59fd0, size: 62, name: _ZN12clap_builder6parser7matches11arg_matches49unwrap_downcast_ref$u7b$$u7b$reify.shim$u7d$$u7d$17ha27ccae122dea152E.llvm.595808209150774305, location: /home/not-matthias/.cargo/registry/src/index.crates.io-1949cf8c6b5b557f/clap_builder-4.5.17/src/parser/matches/arg_matches.rs:1907 },
    DebugInfo { addr: 5a040, size: 62, name: _ZN12clap_builder6parser7matches11arg_matches49unwrap_downcast_ref$u7b$$u7b$reify.shim$u7d$$u7d$17hd2d71169b33ca902E.llvm.595808209150774305, location: /home/not-matthias/.cargo/registry/src/index.crates.io-1949cf8c6b5b557f/clap_builder-4.5.17/src/parser/matches/arg_matches.rs:1907 },
    DebugInfo { addr: 5a0b0, size: 22, name: _ZN3std3sys9backtrace28__rust_begin_short_backtrace17h1783d98a38989584E, location: /home/not-matthias/.rustup/toolchains/stable-x86_64-unknown-linux-gnu/lib/rustlib/src/rust/library/std/src/sys/backtrace.rs:148 },
    DebugInfo { addr: 5a0e0, size: 18e, name: _ZN3std3sys9backtrace28__rust_begin_short_backtrace17h5ded6043d8e1c530E, location: /home/not-matthias/.rustup/toolchains/stable-x86_64-unknown-linux-gnu/lib/rustlib/src/rust/library/std/src/sys/backtrace.rs:148 },
    DebugInfo { addr: 5a270, size: 219, name: _ZN3std4sync4mpmc4list16Channel$LT$T$GT$18disconnect_senders17h9b522774ffaf0455E, location: /home/not-matthias/.rustup/toolchains/stable-x86_64-unknown-linux-gnu/lib/rustlib/src/rust/library/std/src/sync/mpmc/list.rs:512 },
    DebugInfo { addr: 5a490, size: 2f8, name: _ZN3std4sync4mpmc4list16Channel$LT$T$GT$20disconnect_receivers17h50461dff31fe4fbaE, location: /home/not-matthias/.rustup/toolchains/stable-x86_64-unknown-linux-gnu/lib/rustlib/src/rust/library/core/src/sync/atomic.rs:3997 },
    DebugInfo { addr: 5a790, size: 632, name: _ZN3std4sync4mpmc4list16Channel$LT$T$GT$4recv17hb6c3e4e46c470724E, location: /home/not-matthias/.rustup/toolchains/stable-x86_64-unknown-linux-gnu/lib/rustlib/src/rust/library/std/src/sync/mpmc/list.rs:426 },
    DebugInfo { addr: 5add0, size: 50a, name: _ZN3std4sync4mpmc4list16Channel$LT$T$GT$4recv28_$u7b$$u7b$closure$u7d$$u7d$17h63a76c98b01c9425E, location: /home/not-matthias/.rustup/toolchains/stable-x86_64-unknown-linux-gnu/lib/rustlib/src/rust/library/std/src/sync/mpmc/list.rs:442 },
    DebugInfo { addr: 5b2e0, size: 59c, name: _ZN3std4sync4mpmc4list16Channel$LT$T$GT$4send17h42bd2d0756b2869dE, location: /home/not-matthias/.rustup/toolchains/stable-x86_64-unknown-linux-gnu/lib/rustlib/src/rust/library/std/src/sync/mpmc/list.rs:404 },
    DebugInfo { addr: 5b880, size: 119, name: _ZN3std4sync4mpmc5waker5Waker6notify17h04b09af56c602e4aE, location: /home/not-matthias/.rustup/toolchains/stable-x86_64-unknown-linux-gnu/lib/rustlib/src/rust/library/std/src/sync/mpmc/waker.rs:98 },
    DebugInfo { addr: 5b9a0, size: 88, name: _ZN3std4sync4mpmc7context7Context4with28_$u7b$$u7b$closure$u7d$$u7d$17hfeb80fd4fe890b81E, location: /home/not-matthias/.rustup/toolchains/stable-x86_64-unknown-linux-gnu/lib/rustlib/src/rust/library/std/src/sync/mpmc/context.rs:62 },
    DebugInfo { addr: 5ba30, size: 5f, name: _ZN4core3ptr130drop_in_place$LT$core..result..Result$LT$$LP$$RP$$C$alloc..boxed..Box$LT$dyn$u20$core..any..Any$u2b$core..marker..Send$GT$$GT$$GT$17h4c79c0c46f9d7d8cE, location: /home/not-matthias/.rustup/toolchains/stable-x86_64-unknown-linux-gnu/lib/rustlib/src/rust/library/core/src/ptr/mod.rs:524 },
    DebugInfo { addr: 5ba90, size: 41, name: _ZN4core3ptr132drop_in_place$LT$std..sync..poison..PoisonError$LT$std..sync..poison..mutex..MutexGuard$LT$std..sync..mpmc..waker..Waker$GT$$GT$$GT$17h45b44a4fcb87b090E, location: /home/not-matthias/.rustup/toolchains/stable-x86_64-unknown-linux-gnu/lib/rustlib/src/rust/library/core/src/ptr/mod.rs:524 },
    DebugInfo { addr: 5bae0, size: 58, name: _ZN4core3ptr176drop_in_place$LT$$LT$alloc..vec..drain..Drain$LT$T$C$A$GT$$u20$as$u20$core..ops..drop..Drop$GT$..drop..DropGuard$LT$std..sync..mpmc..waker..Entry$C$alloc..alloc..Global$GT$$GT$17h0e0216ee644bf919E, location: /home/not-matthias/.rustup/toolchains/stable-x86_64-unknown-linux-gnu/lib/rustlib/src/rust/library/alloc/src/vec/drain.rs:181 },
    DebugInfo { addr: 5bb40, size: 67, name: _ZN4core3ptr188drop_in_place$LT$core..cell..UnsafeCell$LT$core..option..Option$LT$core..result..Result$LT$$LP$$RP$$C$alloc..boxed..Box$LT$dyn$u20$core..any..Any$u2b$core..marker..Send$GT$$GT$$GT$$GT$$GT$17h19a2cde317c99296E, location: /home/not-matthias/.rustup/toolchains/stable-x86_64-unknown-linux-gnu/lib/rustlib/src/rust/library/core/src/ptr/mod.rs:524 },
    DebugInfo { addr: 5bbb0, size: 41, name: _ZN4core3ptr94drop_in_place$LT$std..sync..poison..mutex..MutexGuard$LT$std..sync..mpmc..waker..Waker$GT$$GT$17h1c511e089a93b5feE, location: /home/not-matthias/.rustup/toolchains/stable-x86_64-unknown-linux-gnu/lib/rustlib/src/rust/library/core/src/ptr/mod.rs:524 },
    DebugInfo { addr: 5bc00, size: 75, name: _ZN5alloc4sync16Arc$LT$T$C$A$GT$9drop_slow17h384b84b20afc696cE, location: /home/not-matthias/.rustup/toolchains/stable-x86_64-unknown-linux-gnu/lib/rustlib/src/rust/library/alloc/src/sync.rs:1932 },
    DebugInfo { addr: 5bc80, size: 112, name: _ZN5alloc4sync16Arc$LT$T$C$A$GT$9drop_slow17h4530cdaef7699ab2E, location: /home/not-matthias/.rustup/toolchains/stable-x86_64-unknown-linux-gnu/lib/rustlib/src/rust/library/alloc/src/sync.rs:1932 },
    DebugInfo { addr: 5bda0, size: 160, name: _ZN79_$LT$alloc..vec..drain..Drain$LT$T$C$A$GT$$u20$as$u20$core..ops..drop..Drop$GT$4drop17hfbb1daa12f1e5b2cE, location: /home/not-matthias/.rustup/toolchains/stable-x86_64-unknown-linux-gnu/lib/rustlib/src/rust/library/alloc/src/vec/drain.rs:175 },
    DebugInfo { addr: 5bf00, size: bd, name: _ZN30codspeed_divan_compat_walltime4util17known_parallelism4slow17h8737b49fd10e8d37E, location: /home/not-matthias/Documents/work/wgit/codspeed-rust/crates/divan_compat/divan_fork/src/util/mod.rs:65 },
    DebugInfo { addr: 5bfc0, size: d4, name: _ZN4core3ptr116drop_in_place$LT$core..array..Guard$LT$codspeed_divan_compat_walltime..counter..collection..KnownCounterInfo$GT$$GT$17hf6f6d86fc48b3a77E.llvm.2933146488060740845, location: /home/not-matthias/.rustup/toolchains/stable-x86_64-unknown-linux-gnu/lib/rustlib/src/rust/library/core/src/ptr/mod.rs:524 },
    DebugInfo { addr: 5c0a0, size: 156, name: _ZN4core3ptr148drop_in_place$LT$core..option..Option$LT$codspeed_divan_compat_walltime..alloc..AllocTally$LT$$u5b$alloc..string..String$u3b$$u20$6$u5d$$GT$$GT$$GT$17had94a9c8d0c6a9f8E.llvm.2933146488060740845, location: /home/not-matthias/.rustup/toolchains/stable-x86_64-unknown-linux-gnu/lib/rustlib/src/rust/library/core/src/ptr/mod.rs:524 },
    DebugInfo { addr: 5c200, size: 45, name: _ZN4core3ptr68drop_in_place$LT$core..array..Guard$LT$alloc..string..String$GT$$GT$17h816cd86596a55f25E.llvm.2933146488060740845, location: /home/not-matthias/.rustup/toolchains/stable-x86_64-unknown-linux-gnu/lib/rustlib/src/rust/library/core/src/mem/maybe_uninit.rs:1503 },
    DebugInfo { addr: 5c250, size: cc, name: _ZN4core3ptr73drop_in_place$LT$$u5b$$u5b$alloc..string..String$u3b$$u20$6$u5d$$u5d$$GT$17h9831d540039a0e25E.llvm.2933146488060740845, location: /home/not-matthias/.rustup/toolchains/stable-x86_64-unknown-linux-gnu/lib/rustlib/src/rust/library/core/src/ptr/mod.rs:524 },
    DebugInfo { addr: 5c320, size: 4a, name: _ZN4core3ptr80drop_in_place$LT$$u5b$core..option..Option$LT$alloc..string..String$GT$$u5d$$GT$17h4a02580054791aabE, location: /home/not-matthias/.rustup/toolchains/stable-x86_64-unknown-linux-gnu/lib/rustlib/src/rust/library/core/src/ptr/mod.rs:524 },
    DebugInfo { addr: 5c370, size: 7f, name: _ZN4core3ptr90drop_in_place$LT$codspeed_divan_compat_walltime..counter..collection..KnownCounterInfo$GT$17hffffd24cc6ca159cE.llvm.2933146488060740845, location: /home/not-matthias/.rustup/toolchains/stable-x86_64-unknown-linux-gnu/lib/rustlib/src/rust/library/core/src/ptr/mod.rs:524 },
    DebugInfo { addr: 5c3f0, size: 1b7, name: _ZN4core5array5drain16drain_array_with17h01ba7e12503c5e10E, location: /home/not-matthias/.rustup/toolchains/stable-x86_64-unknown-linux-gnu/lib/rustlib/src/rust/library/core/src/array/drain.rs:19 },
    DebugInfo { addr: 5c5b0, size: 197, name: _ZN4core5array5drain16drain_array_with17h1abac056fa9c97e9E, location: /home/not-matthias/.rustup/toolchains/stable-x86_64-unknown-linux-gnu/lib/rustlib/src/rust/library/core/src/array/drain.rs:19 },
    DebugInfo { addr: 5c750, size: a2f, name: _ZN4core5array5drain16drain_array_with17h6d597d8508ee00a3E, location: /home/not-matthias/.rustup/toolchains/stable-x86_64-unknown-linux-gnu/lib/rustlib/src/rust/library/core/src/array/drain.rs:19 },
    DebugInfo { addr: 5d180, size: 1c5, name: _ZN4core5array5drain16drain_array_with17h7c24073f841cc78cE, location: /home/not-matthias/.rustup/toolchains/stable-x86_64-unknown-linux-gnu/lib/rustlib/src/rust/library/core/src/array/drain.rs:19 },
    DebugInfo { addr: 5d350, size: 1ab, name: _ZN4core5array5drain16drain_array_with17h7cfd98a40e385c0fE, location: /home/not-matthias/.rustup/toolchains/stable-x86_64-unknown-linux-gnu/lib/rustlib/src/rust/library/core/src/array/drain.rs:19 },
    DebugInfo { addr: 5d500, size: 19f, name: _ZN4core5array5drain16drain_array_with17h828a0250cfe45291E, location: /home/not-matthias/.rustup/toolchains/stable-x86_64-unknown-linux-gnu/lib/rustlib/src/rust/library/core/src/array/drain.rs:19 },
    DebugInfo { addr: 5d6a0, size: 1fb, name: _ZN4core5array5drain16drain_array_with17hd587e331cf7a9447E, location: /home/not-matthias/.rustup/toolchains/stable-x86_64-unknown-linux-gnu/lib/rustlib/src/rust/library/core/src/array/drain.rs:19 },
    DebugInfo { addr: 5d8a0, size: 22c, name: _ZN4core5array5drain16drain_array_with17hedde19976a85d690E, location: /home/not-matthias/.rustup/toolchains/stable-x86_64-unknown-linux-gnu/lib/rustlib/src/rust/library/core/src/array/drain.rs:19 },
    DebugInfo { addr: 5dad0, size: 43, name: _ZN30codspeed_divan_compat_walltime7counter10collection17CounterCollection12push_counter17h85d4a5a01f7e3d71E, location: /home/not-matthias/Documents/work/wgit/codspeed-rust/crates/divan_compat/divan_fork/src/counter/collection.rs:59 },
    DebugInfo { addr: 5db20, size: 23f, name: _ZN30codspeed_divan_compat_walltime7counter10collection10CounterSet13to_collection17h6c42802303f1a47cE, location: /home/not-matthias/Documents/work/wgit/codspeed-rust/crates/divan_compat/divan_fork/src/counter/collection.rs:138 },
    DebugInfo { addr: 5dd60, size: 15, name: _ZN36_$LT$T$u20$as$u20$core..any..Any$GT$7type_id17h6cc76958d9abb81cE, location: /home/not-matthias/.rustup/toolchains/stable-x86_64-unknown-linux-gnu/lib/rustlib/src/rust/library/core/src/any.rs:139 },
    DebugInfo { addr: 5dd80, size: 7e, name: _ZN4core3ops8function6FnOnce9call_once17hd95a898af54c390cE.llvm.6856625513723934651, location: /home/not-matthias/.rustup/toolchains/stable-x86_64-unknown-linux-gnu/lib/rustlib/src/rust/library/core/src/ops/function.rs:250 },
    DebugInfo { addr: 5de00, size: 51, name: _ZN4core3ptr84drop_in_place$LT$codspeed_divan_compat_walltime..stats..sample..SampleCollection$GT$17h1696bde70d5ccf23E.llvm.6856625513723934651, location: /home/not-matthias/.rustup/toolchains/stable-x86_64-unknown-linux-gnu/lib/rustlib/src/rust/library/core/src/ptr/mod.rs:524 },
    DebugInfo { addr: 5de60, size: cb, name: _ZN4core5slice4sort6shared5pivot11median3_rec17h61bcf794140440a0E.llvm.6856625513723934651, location: /home/not-matthias/.rustup/toolchains/stable-x86_64-unknown-linux-gnu/lib/rustlib/src/rust/library/core/src/slice/sort/shared/pivot.rs:49 },
    DebugInfo { addr: 5df30, size: 146, name: _ZN4core5slice4sort6shared5pivot11median3_rec17h6b7867628c4fb5caE.llvm.6856625513723934651, location: /home/not-matthias/.rustup/toolchains/stable-x86_64-unknown-linux-gnu/lib/rustlib/src/rust/library/core/src/slice/sort/shared/pivot.rs:49 },
    DebugInfo { addr: 5e080, size: a7, name: _ZN4core5slice4sort6shared5pivot11median3_rec17ha4ee19ce678abdc4E.llvm.6856625513723934651, location: /home/not-matthias/.rustup/toolchains/stable-x86_64-unknown-linux-gnu/lib/rustlib/src/rust/library/core/src/slice/sort/shared/pivot.rs:49 },
    DebugInfo { addr: 5e130, size: a7, name: _ZN4core5slice4sort6shared5pivot11median3_rec17hca69cfc5c1e7ccf9E.llvm.6856625513723934651, location: /home/not-matthias/.rustup/toolchains/stable-x86_64-unknown-linux-gnu/lib/rustlib/src/rust/library/core/src/slice/sort/shared/pivot.rs:49 },
    DebugInfo { addr: 5e1e0, size: 149, name: _ZN4core5slice4sort6shared5pivot11median3_rec17hd7be3dd8d2a5f760E.llvm.6856625513723934651, location: /home/not-matthias/.rustup/toolchains/stable-x86_64-unknown-linux-gnu/lib/rustlib/src/rust/library/core/src/slice/sort/shared/pivot.rs:49 },
    DebugInfo { addr: 5e330, size: 13b, name: _ZN4core5slice4sort6shared5pivot12choose_pivot17h613687ce8b903063E, location: /home/not-matthias/.rustup/toolchains/stable-x86_64-unknown-linux-gnu/lib/rustlib/src/rust/library/core/src/slice/sort/shared/pivot.rs:18 },
    DebugInfo { addr: 5e470, size: 133, name: _ZN4core5slice4sort6shared5pivot12choose_pivot17h8bde785837a94bc3E, location: /home/not-matthias/.rustup/toolchains/stable-x86_64-unknown-linux-gnu/lib/rustlib/src/rust/library/core/src/slice/sort/shared/pivot.rs:18 },
    DebugInfo { addr: 5e5b0, size: 6c, name: _ZN5alloc7raw_vec11finish_grow17h0129885b5b7615f9E.llvm.6856625513723934651, location: /home/not-matthias/.rustup/toolchains/stable-x86_64-unknown-linux-gnu/lib/rustlib/src/rust/library/alloc/src/raw_vec/mod.rs:766 },
    DebugInfo { addr: 5e620, size: b8, name: _ZN5alloc7raw_vec19RawVec$LT$T$C$A$GT$8grow_one17h53d96cc7a9c2847aE, location: /home/not-matthias/.rustup/toolchains/stable-x86_64-unknown-linux-gnu/lib/rustlib/src/rust/library/alloc/src/raw_vec/mod.rs:339 },
    DebugInfo { addr: 5e6e0, size: b8, name: _ZN5alloc7raw_vec19RawVec$LT$T$C$A$GT$8grow_one17h6a6b2bf9a73bde5cE, location: /home/not-matthias/.rustup/toolchains/stable-x86_64-unknown-linux-gnu/lib/rustlib/src/rust/library/alloc/src/raw_vec/mod.rs:339 },
    DebugInfo { addr: 5e7a0, size: b5, name: _ZN5alloc7raw_vec19RawVec$LT$T$C$A$GT$8grow_one17h8d82e5cadb5b774cE, location: /home/not-matthias/.rustup/toolchains/stable-x86_64-unknown-linux-gnu/lib/rustlib/src/rust/library/alloc/src/raw_vec/mod.rs:339 },
    DebugInfo { addr: 5e860, size: f5, name: _ZN5alloc7raw_vec20RawVecInner$LT$A$GT$7reserve21do_reserve_and_handle17h4baeb854569af5d6E, location: /home/not-matthias/.rustup/toolchains/stable-x86_64-unknown-linux-gnu/lib/rustlib/src/rust/library/alloc/src/raw_vec/mod.rs:551 },
    DebugInfo { addr: 5e960, size: 97, name: _ZN30codspeed_divan_compat_walltime5bench12BenchContext15sample_recorder28_$u7b$$u7b$closure$u7d$$u7d$28_$u7b$$u7b$closure$u7d$$u7d$9sync_impl17h425270c28c2a70a3E, location: /home/not-matthias/Documents/work/wgit/codspeed-rust/crates/divan_compat/divan_fork/src/bench/mod.rs:865 },
    DebugInfo { addr: 5ea00, size: 1e15, name: _ZN30codspeed_divan_compat_walltime5bench12BenchContext13compute_stats17h195e8ae3033c8da8E, location: /home/not-matthias/Documents/work/wgit/codspeed-rust/crates/divan_compat/divan_fork/src/bench/mod.rs:1072 },
    DebugInfo { addr: 60820, size: 45, name: _ZN30codspeed_divan_compat_walltime4time5timer5Timer9precision17ha5a302b46a38e775E, location: /home/not-matthias/Documents/work/wgit/codspeed-rust/crates/divan_compat/divan_fork/src/time/timer.rs:55 },
    DebugInfo { addr: 60870, size: 44c, name: _ZN30codspeed_divan_compat_walltime4time5timer5Timer17measure_precision17h76d63bfdc60c8e3cE, location: /home/not-matthias/Documents/work/wgit/codspeed-rust/crates/divan_compat/divan_fork/src/time/timer.rs:63 },
    DebugInfo { addr: 60cc0, size: 4c, name: _ZN30codspeed_divan_compat_walltime4time5timer5Timer15bench_overheads17h8e9847b9a394835bE, location: /home/not-matthias/Documents/work/wgit/codspeed-rust/crates/divan_compat/divan_fork/src/time/timer.rs:138 },
    DebugInfo { addr: 60d10, size: 1ee, name: _ZN30codspeed_divan_compat_walltime4time5timer5Timer28measure_sample_loop_overhead17h8e6399b0c8cef21eE, location: /home/not-matthias/Documents/work/wgit/codspeed-rust/crates/divan_compat/divan_fork/src/time/timer.rs:171 },
    DebugInfo { addr: 60f00, size: 371, name: _ZN30codspeed_divan_compat_walltime4time5timer5Timer28measure_tally_alloc_overhead17he07d6c045fcdc39cE, location: /home/not-matthias/Documents/work/wgit/codspeed-rust/crates/divan_compat/divan_fork/src/time/timer.rs:203 },
    DebugInfo { addr: 61280, size: 2b2, name: _ZN30codspeed_divan_compat_walltime4time5timer5Timer30measure_tally_dealloc_overhead17h043b29205ffed546E, location: /home/not-matthias/Documents/work/wgit/codspeed-rust/crates/divan_compat/divan_fork/src/time/timer.rs:208 },
    DebugInfo { addr: 61540, size: 4df, name: _ZN30codspeed_divan_compat_walltime4time5timer5Timer30measure_tally_realloc_overhead17h8a8290e75e2e4a5aE, location: /home/not-matthias/Documents/work/wgit/codspeed-rust/crates/divan_compat/divan_fork/src/time/timer.rs:213 },
    DebugInfo { addr: 61a20, size: 131, name: _ZN30codspeed_divan_compat_walltime4time5timer13TimedOverhead14total_overhead17h2e52adf076d94c7dE, location: /home/not-matthias/Documents/work/wgit/codspeed-rust/crates/divan_compat/divan_fork/src/time/timer.rs:312 },
    DebugInfo { addr: 61b60, size: 70, name: _ZN115_$LT$core..iter..adapters..filter_map..FilterMap$LT$I$C$F$GT$$u20$as$u20$core..iter..traits..iterator..Iterator$GT$4next17h17af71a838e48042E, location: /home/not-matthias/.rustup/toolchains/stable-x86_64-unknown-linux-gnu/lib/rustlib/src/rust/library/core/src/iter/adapters/filter_map.rs:63 },
    DebugInfo { addr: 61bd0, size: 65, name: _ZN115_$LT$core..iter..adapters..filter_map..FilterMap$LT$I$C$F$GT$$u20$as$u20$core..iter..traits..iterator..Iterator$GT$4next17h2487ffbe0f90e5bcE, location: /home/not-matthias/.rustup/toolchains/stable-x86_64-unknown-linux-gnu/lib/rustlib/src/rust/library/core/src/iter/adapters/filter_map.rs:63 },
    DebugInfo { addr: 61c40, size: 6d, name: _ZN115_$LT$core..iter..adapters..filter_map..FilterMap$LT$I$C$F$GT$$u20$as$u20$core..iter..traits..iterator..Iterator$GT$4next17hc1cf2ed98fa3d50dE, location: /home/not-matthias/.rustup/toolchains/stable-x86_64-unknown-linux-gnu/lib/rustlib/src/rust/library/core/src/iter/adapters/filter_map.rs:63 },
    DebugInfo { addr: 61cb0, size: 65, name: _ZN115_$LT$core..iter..adapters..filter_map..FilterMap$LT$I$C$F$GT$$u20$as$u20$core..iter..traits..iterator..Iterator$GT$4next17he46fc327a3bda651E, location: /home/not-matthias/.rustup/toolchains/stable-x86_64-unknown-linux-gnu/lib/rustlib/src/rust/library/core/src/iter/adapters/filter_map.rs:63 },
    DebugInfo { addr: 61d20, size: 1e, name: _ZN115_$LT$core..iter..adapters..filter_map..FilterMap$LT$I$C$F$GT$$u20$as$u20$core..iter..traits..iterator..Iterator$GT$9size_hint17h0728e4d1cdc7d2d8E, location: /home/not-matthias/.rustup/toolchains/stable-x86_64-unknown-linux-gnu/lib/rustlib/src/rust/library/core/src/iter/adapters/filter_map.rs:126 },
    DebugInfo { addr: 61d40, size: 857, name: _ZN135_$LT$clap_builder..builder..value_parser..EnumValueParser$LT$E$GT$$u20$as$u20$clap_builder..builder..value_parser..TypedValueParser$GT$9parse_ref17h0f8bc80cef0fe16dE, location: /home/not-matthias/.cargo/registry/src/index.crates.io-1949cf8c6b5b557f/clap_builder-4.5.17/src/builder/value_parser.rs:1094 },
    DebugInfo { addr: 625a0, size: 857, name: _ZN135_$LT$clap_builder..builder..value_parser..EnumValueParser$LT$E$GT$$u20$as$u20$clap_builder..builder..value_parser..TypedValueParser$GT$9parse_ref17h5b2678452707a13fE, location: /home/not-matthias/.cargo/registry/src/index.crates.io-1949cf8c6b5b557f/clap_builder-4.5.17/src/builder/value_parser.rs:1094 },
    DebugInfo { addr: 62e00, size: 7ce, name: _ZN135_$LT$clap_builder..builder..value_parser..EnumValueParser$LT$E$GT$$u20$as$u20$clap_builder..builder..value_parser..TypedValueParser$GT$9parse_ref17h981cdce4aca5777cE, location: /home/not-matthias/.cargo/registry/src/index.crates.io-1949cf8c6b5b557f/clap_builder-4.5.17/src/builder/value_parser.rs:1094 },
    DebugInfo { addr: 635d0, size: 7ce, name: _ZN135_$LT$clap_builder..builder..value_parser..EnumValueParser$LT$E$GT$$u20$as$u20$clap_builder..builder..value_parser..TypedValueParser$GT$9parse_ref17ha1dd5e58dac188daE, location: /home/not-matthias/.cargo/registry/src/index.crates.io-1949cf8c6b5b557f/clap_builder-4.5.17/src/builder/value_parser.rs:1094 },
    DebugInfo { addr: 63da0, size: f60, name: _ZN140_$LT$clap_builder..builder..value_parser..RangedI64ValueParser$LT$T$GT$$u20$as$u20$clap_builder..builder..value_parser..TypedValueParser$GT$9parse_ref17h274b20186de95ef1E, location: /home/not-matthias/.cargo/registry/src/index.crates.io-1949cf8c6b5b557f/clap_builder-4.5.17/src/builder/value_parser.rs:1402 },
    DebugInfo { addr: 64d00, size: cb9, name: _ZN140_$LT$clap_builder..builder..value_parser..RangedU64ValueParser$LT$T$GT$$u20$as$u20$clap_builder..builder..value_parser..TypedValueParser$GT$9parse_ref17hc3c67dd52d16f752E, location: /home/not-matthias/.cargo/registry/src/index.crates.io-1949cf8c6b5b557f/clap_builder-4.5.17/src/builder/value_parser.rs:1601 },
    DebugInfo { addr: 659c0, size: 5a, name: _ZN4core3ptr118drop_in_place$LT$alloc..boxed..Box$LT$dyn$u20$core..error..Error$u2b$core..marker..Send$u2b$core..marker..Sync$GT$$GT$17h3aca8f2d258b1d55E, location: /home/not-matthias/.rustup/toolchains/stable-x86_64-unknown-linux-gnu/lib/rustlib/src/rust/library/core/src/ptr/mod.rs:524 },
    DebugInfo { addr: 65a20, size: 18, name: _ZN4core3ptr238drop_in_place$LT$alloc..boxed..convert..$LT$impl$u20$core..convert..From$LT$alloc..string..String$GT$$u20$for$u20$alloc..boxed..Box$LT$dyn$u20$core..error..Error$u2b$core..marker..Send$u2b$core..marker..Sync$GT$$GT$..from..StringError$GT$17h533251327bc4eeaeE, location: /home/not-matthias/.rustup/toolchains/stable-x86_64-unknown-linux-gnu/lib/rustlib/src/rust/library/alloc/src/raw_vec/mod.rs:406 },
    DebugInfo { addr: 65a40, size: 82, name: _ZN4core3ptr65drop_in_place$LT$alloc..vec..Vec$LT$alloc..string..String$GT$$GT$17h9eaa0776f7d3c154E, location: /home/not-matthias/.rustup/toolchains/stable-x86_64-unknown-linux-gnu/lib/rustlib/src/rust/library/core/src/ptr/mod.rs:524 },
    DebugInfo { addr: 65ad0, size: 45, name: _ZN4core3ptr73drop_in_place$LT$clap_builder..builder..possible_value..PossibleValue$GT$17h190ea8a2f5c29c2aE, location: /home/not-matthias/.rustup/toolchains/stable-x86_64-unknown-linux-gnu/lib/rustlib/src/rust/library/core/src/ptr/mod.rs:524 },
    DebugInfo { addr: 65b20, size: 83, name: _ZN4core4iter6traits8iterator8Iterator10advance_by17h621d6606ae3f3cbeE, location: /home/not-matthias/.rustup/toolchains/stable-x86_64-unknown-linux-gnu/lib/rustlib/src/rust/library/core/src/cmp.rs:1849 },
    DebugInfo { addr: 65bb0, size: 98, name: _ZN4core4iter6traits8iterator8Iterator10advance_by17h9d33e83601a5eafeE, location: /home/not-matthias/.rustup/toolchains/stable-x86_64-unknown-linux-gnu/lib/rustlib/src/rust/library/core/src/cmp.rs:1849 },
    DebugInfo { addr: 65c50, size: e6, name: _ZN4core4iter6traits8iterator8Iterator3nth17h0889f8bd0571be3fE, location: /home/not-matthias/.rustup/toolchains/stable-x86_64-unknown-linux-gnu/lib/rustlib/src/rust/library/core/src/iter/traits/iterator.rs:347 },
    DebugInfo { addr: 65d40, size: ed, name: _ZN4core4iter6traits8iterator8Iterator3nth17ha0bba03d09018b26E, location: /home/not-matthias/.rustup/toolchains/stable-x86_64-unknown-linux-gnu/lib/rustlib/src/rust/library/core/src/iter/traits/iterator.rs:347 },
    DebugInfo { addr: 65e30, size: e6, name: _ZN4core4iter6traits8iterator8Iterator3nth17hcd36ad194cd8c8abE, location: /home/not-matthias/.rustup/toolchains/stable-x86_64-unknown-linux-gnu/lib/rustlib/src/rust/library/core/src/iter/traits/iterator.rs:347 },
    DebugInfo { addr: 65f20, size: ea, name: _ZN4core4iter6traits8iterator8Iterator3nth17hec665ca7fafc1ae5E, location: /home/not-matthias/.rustup/toolchains/stable-x86_64-unknown-linux-gnu/lib/rustlib/src/rust/library/core/src/iter/traits/iterator.rs:347 },
    DebugInfo { addr: 66010, size: 3, name: _ZN4core5error5Error6source17h990f11d2393dcb1bE, location: /home/not-matthias/.rustup/toolchains/stable-x86_64-unknown-linux-gnu/lib/rustlib/src/rust/library/core/src/error.rs:107 },
    DebugInfo { addr: 66020, size: 3, name: _ZN4core5error5Error6source17hc68ef40916c96267E, location: /home/not-matthias/.rustup/toolchains/stable-x86_64-unknown-linux-gnu/lib/rustlib/src/rust/library/core/src/error.rs:107 },
    DebugInfo { addr: 66030, size: 1, name: _ZN4core5error5Error7provide17h08bb0ec2d3ff0a89E, location: /home/not-matthias/.rustup/toolchains/stable-x86_64-unknown-linux-gnu/lib/rustlib/src/rust/library/core/src/error.rs:204 },
    DebugInfo { addr: 66040, size: 1, name: _ZN4core5error5Error7provide17h91b891dfef008767E, location: /home/not-matthias/.rustup/toolchains/stable-x86_64-unknown-linux-gnu/lib/rustlib/src/rust/library/core/src/error.rs:204 },
    DebugInfo { addr: 66050, size: 1, name: _ZN4core5error5Error7provide17hf7c1023bf770e7ceE, location: /home/not-matthias/.rustup/toolchains/stable-x86_64-unknown-linux-gnu/lib/rustlib/src/rust/library/core/src/error.rs:204 },
    DebugInfo { addr: 66060, size: 15, name: _ZN53_$LT$core..fmt..Error$u20$as$u20$core..fmt..Debug$GT$3fmt17h6736176c8e29474eE, location: /home/not-matthias/.rustup/toolchains/stable-x86_64-unknown-linux-gnu/lib/rustlib/src/rust/library/core/src/fmt/mod.rs:102 },
    DebugInfo { addr: 66080, size: 123, name: _ZN58_$LT$alloc..string..String$u20$as$u20$core..fmt..Write$GT$10write_char17h13db4e3872bba170E, location: /home/not-matthias/.rustup/toolchains/stable-x86_64-unknown-linux-gnu/lib/rustlib/src/rust/library/alloc/src/string.rs:3202 },
    DebugInfo { addr: 661b0, size: 67, name: _ZN58_$LT$alloc..string..String$u20$as$u20$core..fmt..Write$GT$9write_str17h3471f8bf4fd2c6acE, location: /home/not-matthias/.rustup/toolchains/stable-x86_64-unknown-linux-gnu/lib/rustlib/src/rust/library/alloc/src/string.rs:3196 },
    DebugInfo { addr: 66220, size: 14, name: _ZN60_$LT$alloc..string..String$u20$as$u20$core..fmt..Display$GT$3fmt17h253a895d4ea9e2d1E, location: /home/not-matthias/.rustup/toolchains/stable-x86_64-unknown-linux-gnu/lib/rustlib/src/rust/library/alloc/src/string.rs:2595 },
    DebugInfo { addr: 66240, size: 43, name: _ZN68_$LT$core..num..error..ParseIntError$u20$as$u20$core..fmt..Debug$GT$3fmt17h9d974530281c97f3E, location: /home/not-matthias/.rustup/toolchains/stable-x86_64-unknown-linux-gnu/lib/rustlib/src/rust/library/core/src/num/error.rs:64 },
    DebugInfo { addr: 66290, size: 1d, name: _ZN70_$LT$core..num..error..ParseIntError$u20$as$u20$core..error..Error$GT$11description17hf7118da03d3f31b7E, location: /home/not-matthias/.rustup/toolchains/stable-x86_64-unknown-linux-gnu/lib/rustlib/src/rust/library/core/src/num/error.rs:135 },
    DebugInfo { addr: 662b0, size: 29, name: _ZN70_$LT$core..num..error..TryFromIntError$u20$as$u20$core..fmt..Debug$GT$3fmt17h1ec19825d3f66aafE, location: /home/not-matthias/.rustup/toolchains/stable-x86_64-unknown-linux-gnu/lib/rustlib/src/rust/library/core/src/num/error.rs:9 },
    DebugInfo { addr: 662e0, size: d, name: _ZN72_$LT$core..num..error..TryFromIntError$u20$as$u20$core..error..Error$GT$11description17h5edb59429c92c0edE, location: /home/not-matthias/.rustup/toolchains/stable-x86_64-unknown-linux-gnu/lib/rustlib/src/rust/library/core/src/num/error.rs:25 },
    DebugInfo { addr: 662f0, size: b3, name: _ZN73_$LT$P$u20$as$u20$clap_builder..builder..value_parser..AnyValueParser$GT$10parse_ref_17h1499f4d280811e69E.llvm.3271458651181060904, location: /home/not-matthias/.cargo/registry/src/index.crates.io-1949cf8c6b5b557f/clap_builder-4.5.17/src/builder/value_parser.rs:634 },
    DebugInfo { addr: 663b0, size: b3, name: _ZN73_$LT$P$u20$as$u20$clap_builder..builder..value_parser..AnyValueParser$GT$10parse_ref_17h31a60a08473f171bE.llvm.3271458651181060904, location: /home/not-matthias/.cargo/registry/src/index.crates.io-1949cf8c6b5b557f/clap_builder-4.5.17/src/builder/value_parser.rs:634 },
    DebugInfo { addr: 66470, size: b2, name: _ZN73_$LT$P$u20$as$u20$clap_builder..builder..value_parser..AnyValueParser$GT$10parse_ref_17h5af5406387bdb26eE, location: /home/not-matthias/.cargo/registry/src/index.crates.io-1949cf8c6b5b557f/clap_builder-4.5.17/src/builder/value_parser.rs:634 },
    DebugInfo { addr: 66530, size: b3, name: _ZN73_$LT$P$u20$as$u20$clap_builder..builder..value_parser..AnyValueParser$GT$10parse_ref_17h731242ff3fbc40dfE.llvm.3271458651181060904, location: /home/not-matthias/.cargo/registry/src/index.crates.io-1949cf8c6b5b557f/clap_builder-4.5.17/src/builder/value_parser.rs:634 },
    DebugInfo { addr: 665f0, size: a6, name: _ZN73_$LT$P$u20$as$u20$clap_builder..builder..value_parser..AnyValueParser$GT$10parse_ref_17h8296f70a7d3f960aE.llvm.3271458651181060904, location: /home/not-matthias/.cargo/registry/src/index.crates.io-1949cf8c6b5b557f/clap_builder-4.5.17/src/builder/value_parser.rs:634 },
    DebugInfo { addr: 666a0, size: b3, name: _ZN73_$LT$P$u20$as$u20$clap_builder..builder..value_parser..AnyValueParser$GT$10parse_ref_17hbc24d0ae747b7186E.llvm.3271458651181060904, location: /home/not-matthias/.cargo/registry/src/index.crates.io-1949cf8c6b5b557f/clap_builder-4.5.17/src/builder/value_parser.rs:634 },
    DebugInfo { addr: 66760, size: a5, name: _ZN73_$LT$P$u20$as$u20$clap_builder..builder..value_parser..AnyValueParser$GT$10parse_ref_17hdf7cfef79d96aa6aE.llvm.3271458651181060904, location: /home/not-matthias/.cargo/registry/src/index.crates.io-1949cf8c6b5b557f/clap_builder-4.5.17/src/builder/value_parser.rs:634 },
    DebugInfo { addr: 66810, size: a6, name: _ZN73_$LT$P$u20$as$u20$clap_builder..builder..value_parser..AnyValueParser$GT$10parse_ref_17he285c6607c6a3068E, location: /home/not-matthias/.cargo/registry/src/index.crates.io-1949cf8c6b5b557f/clap_builder-4.5.17/src/builder/value_parser.rs:634 },
    DebugInfo { addr: 668c0, size: 3, name: _ZN73_$LT$P$u20$as$u20$clap_builder..builder..value_parser..AnyValueParser$GT$15possible_values17h06f1f0b31fc6b8dbE.llvm.3271458651181060904, location: /home/not-matthias/.cargo/registry/src/index.crates.io-1949cf8c6b5b557f/clap_builder-4.5.17/src/builder/value_parser.rs:653 },
    DebugInfo { addr: 668c0, size: 3, name: _ZN73_$LT$P$u20$as$u20$clap_builder..builder..value_parser..AnyValueParser$GT$15possible_values17h2759bc3b84008502E, location: /home/not-matthias/.cargo/registry/src/index.crates.io-1949cf8c6b5b557f/clap_builder-4.5.17/src/builder/value_parser.rs:653 },
    DebugInfo { addr: 668c0, size: 3, name: _ZN73_$LT$P$u20$as$u20$clap_builder..builder..value_parser..AnyValueParser$GT$15possible_values17hb6a9a952bfd0ade7E, location: /home/not-matthias/.cargo/registry/src/index.crates.io-1949cf8c6b5b557f/clap_builder-4.5.17/src/builder/value_parser.rs:653 },
    DebugInfo { addr: 668c0, size: 3, name: _ZN73_$LT$P$u20$as$u20$clap_builder..builder..value_parser..AnyValueParser$GT$15possible_values17hc5dc87165667c052E.llvm.3271458651181060904, location: /home/not-matthias/.cargo/registry/src/index.crates.io-1949cf8c6b5b557f/clap_builder-4.5.17/src/builder/value_parser.rs:653 },
    DebugInfo { addr: 668d0, size: 4e, name: _ZN73_$LT$P$u20$as$u20$clap_builder..builder..value_parser..AnyValueParser$GT$15possible_values17h733756b79afc81cdE.llvm.3271458651181060904, location: /home/not-matthias/.cargo/registry/src/index.crates.io-1949cf8c6b5b557f/clap_builder-4.5.17/src/builder/value_parser.rs:649 },
    DebugInfo { addr: 66920, size: 4e, name: _ZN73_$LT$P$u20$as$u20$clap_builder..builder..value_parser..AnyValueParser$GT$15possible_values17hb232277f37ee906aE.llvm.3271458651181060904, location: /home/not-matthias/.cargo/registry/src/index.crates.io-1949cf8c6b5b557f/clap_builder-4.5.17/src/builder/value_parser.rs:649 },
    DebugInfo { addr: 66970, size: 4e, name: _ZN73_$LT$P$u20$as$u20$clap_builder..builder..value_parser..AnyValueParser$GT$15possible_values17hd457da848441ccbbE.llvm.3271458651181060904, location: /home/not-matthias/.cargo/registry/src/index.crates.io-1949cf8c6b5b557f/clap_builder-4.5.17/src/builder/value_parser.rs:649 },
    DebugInfo { addr: 669c0, size: 4e, name: _ZN73_$LT$P$u20$as$u20$clap_builder..builder..value_parser..AnyValueParser$GT$15possible_values17hd99800c7fc6bf4b5E.llvm.3271458651181060904, location: /home/not-matthias/.cargo/registry/src/index.crates.io-1949cf8c6b5b557f/clap_builder-4.5.17/src/builder/value_parser.rs:649 },
    DebugInfo { addr: 66a10, size: 15, name: _ZN73_$LT$P$u20$as$u20$clap_builder..builder..value_parser..AnyValueParser$GT$7type_id17h043a48ec2c2aad84E.llvm.3271458651181060904, location: /home/not-matthias/.cargo/registry/src/index.crates.io-1949cf8c6b5b557f/clap_builder-4.5.17/src/builder/value_parser.rs:645 },
    DebugInfo { addr: 66a30, size: 15, name: _ZN73_$LT$P$u20$as$u20$clap_builder..builder..value_parser..AnyValueParser$GT$7type_id17h4305ac116ba6c28cE.llvm.3271458651181060904, location: /home/not-matthias/.cargo/registry/src/index.crates.io-1949cf8c6b5b557f/clap_builder-4.5.17/src/builder/value_parser.rs:645 },
    DebugInfo { addr: 66a50, size: 15, name: _ZN73_$LT$P$u20$as$u20$clap_builder..builder..value_parser..AnyValueParser$GT$7type_id17h6caaba847d64973cE.llvm.3271458651181060904, location: /home/not-matthias/.cargo/registry/src/index.crates.io-1949cf8c6b5b557f/clap_builder-4.5.17/src/builder/value_parser.rs:645 },
    DebugInfo { addr: 66a70, size: 15, name: _ZN73_$LT$P$u20$as$u20$clap_builder..builder..value_parser..AnyValueParser$GT$7type_id17h6e17434b97d2b1a9E.llvm.3271458651181060904, location: /home/not-matthias/.cargo/registry/src/index.crates.io-1949cf8c6b5b557f/clap_builder-4.5.17/src/builder/value_parser.rs:645 },
    DebugInfo { addr: 66a90, size: 15, name: _ZN73_$LT$P$u20$as$u20$clap_builder..builder..value_parser..AnyValueParser$GT$7type_id17h790acd5c8e693a52E, location: /home/not-matthias/.cargo/registry/src/index.crates.io-1949cf8c6b5b557f/clap_builder-4.5.17/src/builder/value_parser.rs:645 },
    DebugInfo { addr: 66ab0, size: 15, name: _ZN73_$LT$P$u20$as$u20$clap_builder..builder..value_parser..AnyValueParser$GT$7type_id17h8c27b42457c0227cE, location: /home/not-matthias/.cargo/registry/src/index.crates.io-1949cf8c6b5b557f/clap_builder-4.5.17/src/builder/value_parser.rs:645 },
    DebugInfo { addr: 66ad0, size: 15, name: _ZN73_$LT$P$u20$as$u20$clap_builder..builder..value_parser..AnyValueParser$GT$7type_id17hbd0a144f82e5ccbdE.llvm.3271458651181060904, location: /home/not-matthias/.cargo/registry/src/index.crates.io-1949cf8c6b5b557f/clap_builder-4.5.17/src/builder/value_parser.rs:645 },
    DebugInfo { addr: 66af0, size: 15, name: _ZN73_$LT$P$u20$as$u20$clap_builder..builder..value_parser..AnyValueParser$GT$7type_id17hee4f503dafd4f655E.llvm.3271458651181060904, location: /home/not-matthias/.cargo/registry/src/index.crates.io-1949cf8c6b5b557f/clap_builder-4.5.17/src/builder/value_parser.rs:645 },
    DebugInfo { addr: 66b10, size: d, name: _ZN73_$LT$P$u20$as$u20$clap_builder..builder..value_parser..AnyValueParser$GT$9clone_any17h0dbe8348a72cc6ecE.llvm.3271458651181060904, location: /home/not-matthias/.cargo/registry/src/index.crates.io-1949cf8c6b5b557f/clap_builder-4.5.17/src/builder/value_parser.rs:657 },
    DebugInfo { addr: 66b20, size: d, name: _ZN73_$LT$P$u20$as$u20$clap_builder..builder..value_parser..AnyValueParser$GT$9clone_any17h1c8ea7b090d1c9c6E.llvm.3271458651181060904, location: /home/not-matthias/.cargo/registry/src/index.crates.io-1949cf8c6b5b557f/clap_builder-4.5.17/src/builder/value_parser.rs:657 },
    DebugInfo { addr: 66b30, size: d, name: _ZN73_$LT$P$u20$as$u20$clap_builder..builder..value_parser..AnyValueParser$GT$9clone_any17h2bd8fa8d2dfdd57bE.llvm.3271458651181060904, location: /home/not-matthias/.cargo/registry/src/index.crates.io-1949cf8c6b5b557f/clap_builder-4.5.17/src/builder/value_parser.rs:657 },
    DebugInfo { addr: 66b40, size: 3f, name: _ZN73_$LT$P$u20$as$u20$clap_builder..builder..value_parser..AnyValueParser$GT$9clone_any17h5fde2f4c05d6726bE, location: /home/not-matthias/.cargo/registry/src/index.crates.io-1949cf8c6b5b557f/clap_builder-4.5.17/src/builder/value_parser.rs:655 },
    DebugInfo { addr: 66b80, size: 68, name: _ZN73_$LT$P$u20$as$u20$clap_builder..builder..value_parser..AnyValueParser$GT$9clone_any17h837297df9e7a35b6E.llvm.3271458651181060904, location: /home/not-matthias/.cargo/registry/src/index.crates.io-1949cf8c6b5b557f/clap_builder-4.5.17/src/builder/value_parser.rs:655 },
    DebugInfo { addr: 66bf0, size: d, name: _ZN73_$LT$P$u20$as$u20$clap_builder..builder..value_parser..AnyValueParser$GT$9clone_any17h88bccf592694721fE.llvm.3271458651181060904, location: /home/not-matthias/.cargo/registry/src/index.crates.io-1949cf8c6b5b557f/clap_builder-4.5.17/src/builder/value_parser.rs:657 },
    DebugInfo { addr: 66c00, size: 68, name: _ZN73_$LT$P$u20$as$u20$clap_builder..builder..value_parser..AnyValueParser$GT$9clone_any17he681fdb860eec5afE.llvm.3271458651181060904, location: /home/not-matthias/.cargo/registry/src/index.crates.io-1949cf8c6b5b557f/clap_builder-4.5.17/src/builder/value_parser.rs:655 },
    DebugInfo { addr: 66c70, size: 3f, name: _ZN73_$LT$P$u20$as$u20$clap_builder..builder..value_parser..AnyValueParser$GT$9clone_any17hf51538e8bf7c0889E, location: /home/not-matthias/.cargo/registry/src/index.crates.io-1949cf8c6b5b557f/clap_builder-4.5.17/src/builder/value_parser.rs:655 },
    DebugInfo { addr: 66cb0, size: a5, name: _ZN73_$LT$P$u20$as$u20$clap_builder..builder..value_parser..AnyValueParser$GT$9parse_ref17h28978640ebe98859E.llvm.3271458651181060904, location: /home/not-matthias/.cargo/registry/src/index.crates.io-1949cf8c6b5b557f/clap_builder-4.5.17/src/builder/value_parser.rs:624 },
    DebugInfo { addr: 66d60, size: a6, name: _ZN73_$LT$P$u20$as$u20$clap_builder..builder..value_parser..AnyValueParser$GT$9parse_ref17h53d27fb387ed7f77E, location: /home/not-matthias/.cargo/registry/src/index.crates.io-1949cf8c6b5b557f/clap_builder-4.5.17/src/builder/value_parser.rs:624 },
    DebugInfo { addr: 66e10, size: b3, name: _ZN73_$LT$P$u20$as$u20$clap_builder..builder..value_parser..AnyValueParser$GT$9parse_ref17h642845ba86b2b2b7E.llvm.3271458651181060904, location: /home/not-matthias/.cargo/registry/src/index.crates.io-1949cf8c6b5b557f/clap_builder-4.5.17/src/builder/value_parser.rs:624 },
    DebugInfo { addr: 66ed0, size: a6, name: _ZN73_$LT$P$u20$as$u20$clap_builder..builder..value_parser..AnyValueParser$GT$9parse_ref17h6abfa8c7e80d169eE.llvm.3271458651181060904, location: /home/not-matthias/.cargo/registry/src/index.crates.io-1949cf8c6b5b557f/clap_builder-4.5.17/src/builder/value_parser.rs:624 },
    DebugInfo { addr: 66f80, size: b3, name: _ZN73_$LT$P$u20$as$u20$clap_builder..builder..value_parser..AnyValueParser$GT$9parse_ref17h7564e4f02e9eb6f4E.llvm.3271458651181060904, location: /home/not-matthias/.cargo/registry/src/index.crates.io-1949cf8c6b5b557f/clap_builder-4.5.17/src/builder/value_parser.rs:624 },
    DebugInfo { addr: 67040, size: b3, name: _ZN73_$LT$P$u20$as$u20$clap_builder..builder..value_parser..AnyValueParser$GT$9parse_ref17h939203a052342196E.llvm.3271458651181060904, location: /home/not-matthias/.cargo/registry/src/index.crates.io-1949cf8c6b5b557f/clap_builder-4.5.17/src/builder/value_parser.rs:624 },
    DebugInfo { addr: 67100, size: b3, name: _ZN73_$LT$P$u20$as$u20$clap_builder..builder..value_parser..AnyValueParser$GT$9parse_ref17h98b163210653dfe2E.llvm.3271458651181060904, location: /home/not-matthias/.cargo/registry/src/index.crates.io-1949cf8c6b5b557f/clap_builder-4.5.17/src/builder/value_parser.rs:624 },
    DebugInfo { addr: 671c0, size: b2, name: _ZN73_$LT$P$u20$as$u20$clap_builder..builder..value_parser..AnyValueParser$GT$9parse_ref17he16a1f58f72799c7E, location: /home/not-matthias/.cargo/registry/src/index.crates.io-1949cf8c6b5b557f/clap_builder-4.5.17/src/builder/value_parser.rs:624 },
    DebugInfo { addr: 67280, size: 2c6, name: _ZN75_$LT$F$u20$as$u20$clap_builder..builder..value_parser..TypedValueParser$GT$9parse_ref17h61c939e0bfb6c267E, location: /home/not-matthias/.cargo/registry/src/index.crates.io-1949cf8c6b5b557f/clap_builder-4.5.17/src/builder/value_parser.rs:878 },
    DebugInfo { addr: 67550, size: 2d5, name: _ZN75_$LT$F$u20$as$u20$clap_builder..builder..value_parser..TypedValueParser$GT$9parse_ref17he2800eed84d63028E, location: /home/not-matthias/.cargo/registry/src/index.crates.io-1949cf8c6b5b557f/clap_builder-4.5.17/src/builder/value_parser.rs:878 },
    DebugInfo { addr: 67830, size: 10, name: _ZN4core3fmt5Write9write_fmt17h3006e65a4b7f9d93E, location: /home/not-matthias/.rustup/toolchains/stable-x86_64-unknown-linux-gnu/lib/rustlib/src/rust/library/core/src/fmt/mod.rs:205 },
    DebugInfo { addr: 67840, size: 18, name: _ZN4core3ptr42drop_in_place$LT$alloc..string..String$GT$17hbfe830c6b752c7bfE.llvm.7467506292163335994, location: /home/not-matthias/.rustup/toolchains/stable-x86_64-unknown-linux-gnu/lib/rustlib/src/rust/library/alloc/src/raw_vec/mod.rs:406 },
    DebugInfo { addr: 67860, size: 135, name: _ZN4core5slice4sort6stable14driftsort_main17h06ba8de16cbece83E, location: /home/not-matthias/.rustup/toolchains/stable-x86_64-unknown-linux-gnu/lib/rustlib/src/rust/library/core/src/slice/sort/stable/mod.rs:94 },
    DebugInfo { addr: 679a0, size: 14, name: _ZN52_$LT$$RF$mut$u20$T$u20$as$u20$core..fmt..Display$GT$3fmt17h1cbbc9d07241a38bE, location: /home/not-matthias/.rustup/toolchains/stable-x86_64-unknown-linux-gnu/lib/rustlib/src/rust/library/core/src/fmt/mod.rs:2640 },
    DebugInfo { addr: 679c0, size: 15, name: _ZN53_$LT$core..fmt..Error$u20$as$u20$core..fmt..Debug$GT$3fmt17h6736176c8e29474eE, location: /home/not-matthias/.rustup/toolchains/stable-x86_64-unknown-linux-gnu/lib/rustlib/src/rust/library/core/src/fmt/mod.rs:102 },
    DebugInfo { addr: 679e0, size: 123, name: _ZN58_$LT$alloc..string..String$u20$as$u20$core..fmt..Write$GT$10write_char17h13db4e3872bba170E, location: /home/not-matthias/.rustup/toolchains/stable-x86_64-unknown-linux-gnu/lib/rustlib/src/rust/library/alloc/src/string.rs:3202 },
    DebugInfo { addr: 67b10, size: 67, name: _ZN58_$LT$alloc..string..String$u20$as$u20$core..fmt..Write$GT$9write_str17h3471f8bf4fd2c6acE, location: /home/not-matthias/.rustup/toolchains/stable-x86_64-unknown-linux-gnu/lib/rustlib/src/rust/library/alloc/src/string.rs:3196 },
    DebugInfo { addr: 67b80, size: 14, name: _ZN60_$LT$alloc..string..String$u20$as$u20$core..fmt..Display$GT$3fmt17h253a895d4ea9e2d1E, location: /home/not-matthias/.rustup/toolchains/stable-x86_64-unknown-linux-gnu/lib/rustlib/src/rust/library/alloc/src/string.rs:2595 },
    DebugInfo { addr: 67ba0, size: 279, name: _ZN89_$LT$alloc..string..String$u20$as$u20$core..iter..traits..collect..Extend$LT$char$GT$$GT$6extend17h4d035cfb22dd3e98E, location: /home/not-matthias/.rustup/toolchains/stable-x86_64-unknown-linux-gnu/lib/rustlib/src/rust/library/alloc/src/string.rs:2379 },
    DebugInfo { addr: 67e20, size: ef9, name: _ZN30codspeed_divan_compat_walltime5divan8codspeed24collect_walltime_results17hb85954404986877aE, location: /home/not-matthias/Documents/work/wgit/codspeed-rust/crates/divan_compat/divan_fork/src/divan.rs:362 },
    DebugInfo { addr: 68d20, size: 53e, name: _ZN104_$LT$codspeed_divan_compat_walltime..time..fine_duration..FineDuration$u20$as$u20$core..fmt..Display$GT$3fmt17hbd7b27c7eb9c55f3E, location: /home/not-matthias/Documents/work/wgit/codspeed-rust/crates/divan_compat/divan_fork/src/time/fine_duration.rs:25 },
    DebugInfo { addr: 69260, size: c89, name: _ZN30codspeed_divan_compat_walltime4time9timestamp3tsc4arch9frequency17h4e8aa9311ec5650bE, location: /home/not-matthias/Documents/work/wgit/codspeed-rust/crates/divan_compat/divan_fork/src/time/timestamp/tsc/x86.rs:36 },
    DebugInfo { addr: 69ef0, size: d5, name: _ZN30codspeed_divan_compat_walltime4time9timestamp9Timestamp14duration_since17hbb3e33226567481bE, location: /home/not-matthias/Documents/work/wgit/codspeed-rust/crates/divan_compat/divan_fork/src/time/timestamp/mod.rs:31 },
    DebugInfo { addr: 69fd0, size: 230, name: _ZN30codspeed_divan_compat_walltime4util3fmt10format_f6417hac07c2217ca886aaE, location: /home/not-matthias/Documents/work/wgit/codspeed-rust/crates/divan_compat/divan_fork/src/util/fmt.rs:6 },
    DebugInfo { addr: 6a200, size: 1bf, name: _ZN30codspeed_divan_compat_walltime4util3fmt12format_bytes17h16bea4235690fb80E, location: /home/not-matthias/Documents/work/wgit/codspeed-rust/crates/divan_compat/divan_fork/src/util/fmt.rs:41 },
    DebugInfo { addr: 6a3c0, size: 305, name: _ZN99_$LT$codspeed_divan_compat_walltime..util..fmt..DisplayThroughput$u20$as$u20$core..fmt..Display$GT$3fmt17hfb2ec065c5fc24abE, location: /home/not-matthias/Documents/work/wgit/codspeed-rust/crates/divan_compat/divan_fork/src/util/fmt.rs:63 },
    DebugInfo { addr: 6a6d0, size: 35, name: _ZN3std4sync6poison4once4Once15call_once_force28_$u7b$$u7b$closure$u7d$$u7d$17h1c339c7c6b285c3dE.llvm.5514744732077103178, location: /home/not-matthias/.rustup/toolchains/stable-x86_64-unknown-linux-gnu/lib/rustlib/src/rust/library/std/src/sync/poison/once.rs:214 },
    DebugInfo { addr: 6a710, size: dc, name: _ZN3std4sync6poison4once4Once15call_once_force28_$u7b$$u7b$closure$u7d$$u7d$17h4fb93600553dd369E.llvm.5514744732077103178, location: /home/not-matthias/.rustup/toolchains/stable-x86_64-unknown-linux-gnu/lib/rustlib/src/rust/library/std/src/sync/poison/once.rs:214 },
    DebugInfo { addr: 6a7f0, size: c8, name: _ZN3std4sync6poison4once4Once15call_once_force28_$u7b$$u7b$closure$u7d$$u7d$17h723bf0a0d2197397E.llvm.5514744732077103178, location: /home/not-matthias/.rustup/toolchains/stable-x86_64-unknown-linux-gnu/lib/rustlib/src/rust/library/std/src/sync/poison/once.rs:214 },
    DebugInfo { addr: 6a8c0, size: 35, name: _ZN3std4sync6poison4once4Once15call_once_force28_$u7b$$u7b$closure$u7d$$u7d$17hfcd100f1e3d3eb5fE.llvm.5514744732077103178, location: /home/not-matthias/.rustup/toolchains/stable-x86_64-unknown-linux-gnu/lib/rustlib/src/rust/library/std/src/sync/poison/once.rs:214 },
    DebugInfo { addr: 6a8f5, size: 4a, name: _ZN3std4sync9once_lock17OnceLock$LT$T$GT$10initialize17h3e3653c23c98d2b9E, location: /home/not-matthias/.rustup/toolchains/stable-x86_64-unknown-linux-gnu/lib/rustlib/src/rust/library/core/src/sync/atomic.rs:3830 },
    DebugInfo { addr: 6a93f, size: 4a, name: _ZN3std4sync9once_lock17OnceLock$LT$T$GT$10initialize17h80ed97d2627127a6E, location: /home/not-matthias/.rustup/toolchains/stable-x86_64-unknown-linux-gnu/lib/rustlib/src/rust/library/core/src/sync/atomic.rs:3830 },
    DebugInfo { addr: 6a989, size: 4a, name: _ZN3std4sync9once_lock17OnceLock$LT$T$GT$10initialize17hcaaeb0fb72dbb26dE, location: /home/not-matthias/.rustup/toolchains/stable-x86_64-unknown-linux-gnu/lib/rustlib/src/rust/library/core/src/sync/atomic.rs:3830 },
    DebugInfo { addr: 6a9d3, size: 4a, name: _ZN3std4sync9once_lock17OnceLock$LT$T$GT$10initialize17hcf9057c84ef7ba07E, location: /home/not-matthias/.rustup/toolchains/stable-x86_64-unknown-linux-gnu/lib/rustlib/src/rust/library/core/src/sync/atomic.rs:3830 },
    DebugInfo { addr: 6aa20, size: 35, name: _ZN4core3ops8function6FnOnce40call_once$u7b$$u7b$vtable.shim$u7d$$u7d$17h097533e08c32bbbaE.llvm.5514744732077103178, location: /home/not-matthias/.rustup/toolchains/stable-x86_64-unknown-linux-gnu/lib/rustlib/src/rust/library/core/src/ops/function.rs:250 },
    DebugInfo { addr: 6aa60, size: dc, name: _ZN4core3ops8function6FnOnce40call_once$u7b$$u7b$vtable.shim$u7d$$u7d$17h1317fadcd0400c24E.llvm.5514744732077103178, location: /home/not-matthias/.rustup/toolchains/stable-x86_64-unknown-linux-gnu/lib/rustlib/src/rust/library/core/src/ops/function.rs:250 },
    DebugInfo { addr: 6ab40, size: c8, name: _ZN4core3ops8function6FnOnce40call_once$u7b$$u7b$vtable.shim$u7d$$u7d$17ha308e7181344fd7eE.llvm.5514744732077103178, location: /home/not-matthias/.rustup/toolchains/stable-x86_64-unknown-linux-gnu/lib/rustlib/src/rust/library/core/src/ops/function.rs:250 },
    DebugInfo { addr: 6ac10, size: 35, name: _ZN4core3ops8function6FnOnce40call_once$u7b$$u7b$vtable.shim$u7d$$u7d$17ha5813b97407917f5E.llvm.5514744732077103178, location: /home/not-matthias/.rustup/toolchains/stable-x86_64-unknown-linux-gnu/lib/rustlib/src/rust/library/core/src/ops/function.rs:250 },
    DebugInfo { addr: 6ac50, size: 634, name: _ZN4core5slice4sort6stable5drift4sort17h71e378392d7cccc9E, location: /home/not-matthias/.rustup/toolchains/stable-x86_64-unknown-linux-gnu/lib/rustlib/src/rust/library/core/src/slice/sort/stable/drift.rs:20 },
    DebugInfo { addr: 6b290, size: 1ae, name: _ZN4core5slice4sort8unstable7ipnsort17h073f393d73ab0f82E, location: /home/not-matthias/.rustup/toolchains/stable-x86_64-unknown-linux-gnu/lib/rustlib/src/rust/library/core/src/slice/sort/unstable/mod.rs:61 },
    DebugInfo { addr: 6b440, size: 13b, name: _ZN4core5slice4sort8unstable7ipnsort17h711436c6a7dfb9baE, location: /home/not-matthias/.rustup/toolchains/stable-x86_64-unknown-linux-gnu/lib/rustlib/src/rust/library/core/src/slice/sort/shared/mod.rs:25 },
    DebugInfo { addr: 6b580, size: 13b, name: _ZN4core5slice4sort8unstable7ipnsort17hab57575ade3495d1E, location: /home/not-matthias/.rustup/toolchains/stable-x86_64-unknown-linux-gnu/lib/rustlib/src/rust/library/core/src/slice/sort/shared/mod.rs:25 },
    DebugInfo { addr: 6b6c0, size: 1a0, name: _ZN4core5slice4sort8unstable7ipnsort17haeccb017b62d22a0E, location: /home/not-matthias/.rustup/toolchains/stable-x86_64-unknown-linux-gnu/lib/rustlib/src/rust/library/core/src/slice/sort/unstable/mod.rs:61 },
    DebugInfo { addr: 6b860, size: 97, name: _ZN4core5slice4sort8unstable8heapsort8heapsort17h1e06b9b2757b1168E, location: /home/not-matthias/.rustup/toolchains/stable-x86_64-unknown-linux-gnu/lib/rustlib/src/rust/library/core/src/slice/sort/unstable/heapsort.rs:16 },
    DebugInfo { addr: 6b900, size: 1f7, name: _ZN4core5slice4sort8unstable8heapsort8heapsort17ha99cef2194ed9c91E, location: /home/not-matthias/.rustup/toolchains/stable-x86_64-unknown-linux-gnu/lib/rustlib/src/rust/library/core/src/slice/sort/unstable/heapsort.rs:10 },
    DebugInfo { addr: 6bb00, size: b0, name: _ZN4core5slice4sort8unstable8heapsort8heapsort17he3c67b748589db28E, location: /home/not-matthias/.rustup/toolchains/stable-x86_64-unknown-linux-gnu/lib/rustlib/src/rust/library/core/src/slice/sort/unstable/heapsort.rs:16 },
    DebugInfo { addr: 6bbb0, size: 97, name: _ZN4core5slice4sort8unstable8heapsort8heapsort17hfd35c09a94cc74c3E, location: /home/not-matthias/.rustup/toolchains/stable-x86_64-unknown-linux-gnu/lib/rustlib/src/rust/library/core/src/slice/sort/unstable/heapsort.rs:16 },
    DebugInfo { addr: 6bc50, size: 77, name: _ZN129_$LT$$u5b$core..mem..maybe_uninit..MaybeUninit$LT$T$GT$$u3b$$u20$N$u5d$$u20$as$u20$core..array..iter..iter_inner..PartialDrop$GT$12partial_drop17h2fc88167d579521aE, location: /home/not-matthias/.rustup/toolchains/stable-x86_64-unknown-linux-gnu/lib/rustlib/src/rust/library/core/src/array/iter/iter_inner.rs:22 },
    DebugInfo { addr: 6bcd0, size: 99, name: _ZN4core3ptr110drop_in_place$LT$codspeed_divan_compat_walltime..tree_painter..TreeColumnData$LT$alloc..string..String$GT$$GT$17h22b3cfecff22d639E, location: /home/not-matthias/.rustup/toolchains/stable-x86_64-unknown-linux-gnu/lib/rustlib/src/rust/library/core/src/ptr/mod.rs:524 },
    DebugInfo { addr: 6bd70, size: 2b5, name: _ZN4core3ptr131drop_in_place$LT$$u5b$codspeed_divan_compat_walltime..tree_painter..TreeColumnData$LT$alloc..string..String$GT$$u3b$$u20$4$u5d$$GT$17hfe7cdb891798d85bE, location: /home/not-matthias/.rustup/toolchains/stable-x86_64-unknown-linux-gnu/lib/rustlib/src/rust/library/core/src/ptr/mod.rs:524 },
    DebugInfo { addr: 6c030, size: 156, name: _ZN4core3ptr148drop_in_place$LT$core..option..Option$LT$codspeed_divan_compat_walltime..alloc..AllocTally$LT$$u5b$alloc..string..String$u3b$$u20$6$u5d$$GT$$GT$$GT$17had94a9c8d0c6a9f8E, location: /home/not-matthias/.rustup/toolchains/stable-x86_64-unknown-linux-gnu/lib/rustlib/src/rust/library/core/src/ptr/mod.rs:524 },
    DebugInfo { addr: 6c190, size: 31, name: _ZN4core3ptr169drop_in_place$LT$$u5b$core..option..Option$LT$codspeed_divan_compat_walltime..alloc..AllocTally$LT$$u5b$alloc..string..String$u3b$$u20$6$u5d$$GT$$GT$$u3b$$u20$4$u5d$$GT$17hc5d6547f205ce704E, location: /home/not-matthias/.rustup/toolchains/stable-x86_64-unknown-linux-gnu/lib/rustlib/src/rust/library/core/src/ptr/mod.rs:524 },
    DebugInfo { addr: 6c1d0, size: 632, name: _ZN4core3ptr52drop_in_place$LT$clap_builder..builder..arg..Arg$GT$17haa45778277852ae3E.llvm.832087020919550629, location: /home/not-matthias/.rustup/toolchains/stable-x86_64-unknown-linux-gnu/lib/rustlib/src/rust/library/core/src/ptr/mod.rs:524 },
    DebugInfo { addr: 6c810, size: 120, name: _ZN4core3ptr59drop_in_place$LT$clap_builder..builder..ext..Extensions$GT$17h5ff9001bb2c6cc23E, location: /home/not-matthias/.rustup/toolchains/stable-x86_64-unknown-linux-gnu/lib/rustlib/src/rust/library/core/src/ptr/mod.rs:524 },
    DebugInfo { addr: 6c930, size: a2, name: _ZN4core3ptr91drop_in_place$LT$core..option..Option$LT$$u5b$alloc..string..String$u3b$$u20$6$u5d$$GT$$GT$17hd485fa7995d5f22dE, location: /home/not-matthias/.rustup/toolchains/stable-x86_64-unknown-linux-gnu/lib/rustlib/src/rust/library/core/src/ptr/mod.rs:524 },
    DebugInfo { addr: 6c9e0, size: 434, name: _ZN30codspeed_divan_compat_walltime12tree_painter11TreePainter12start_parent17hf494ce18d112516dE, location: /home/not-matthias/Documents/work/wgit/codspeed-rust/crates/divan_compat/divan_fork/src/tree_painter.rs:47 },
    DebugInfo { addr: 6ce20, size: 1c5, name: _ZN30codspeed_divan_compat_walltime12tree_painter11TreePainter13finish_parent17hac165f3ed29c888cE, location: /home/not-matthias/Documents/work/wgit/codspeed-rust/crates/divan_compat/divan_fork/src/tree_painter.rs:96 },
    DebugInfo { addr: 6cff0, size: 373, name: _ZN30codspeed_divan_compat_walltime12tree_painter11TreePainter11ignore_leaf17h18e2e3aa7dc5bf55E, location: /home/not-matthias/Documents/work/wgit/codspeed-rust/crates/divan_compat/divan_fork/src/tree_painter.rs:116 },
    DebugInfo { addr: 6d370, size: 315, name: _ZN30codspeed_divan_compat_walltime12tree_painter11TreePainter10start_leaf17hdd0081fd5e3f5753E, location: /home/not-matthias/Documents/work/wgit/codspeed-rust/crates/divan_compat/divan_fork/src/tree_painter.rs:137 },
    DebugInfo { addr: 6d690, size: 1dee, name: _ZN30codspeed_divan_compat_walltime12tree_painter11TreePainter11finish_leaf17hc88b2ef42f2876a6E, location: /home/not-matthias/Documents/work/wgit/codspeed-rust/crates/divan_compat/divan_fork/src/tree_painter.rs:168 },
    DebugInfo { addr: 6f480, size: 1e8, name: _ZN30codspeed_divan_compat_walltime12tree_painter29TreeColumnData$LT$$RF$str$GT$5write17h791fee5210736ed4E.llvm.832087020919550629, location: /home/not-matthias/Documents/work/wgit/codspeed-rust/crates/divan_compat/divan_fork/src/tree_painter.rs:466 },
    DebugInfo { addr: 6f670, size: 35a, name: _ZN30codspeed_divan_compat_walltime4util4sort11natural_cmp17h2bd11ed9588ca1ebE, location: /home/not-matthias/Documents/work/wgit/codspeed-rust/crates/divan_compat/divan_fork/src/util/sort.rs:4 },
    DebugInfo { addr: 6f9d0, size: 15a, name: _ZN3std4sync4mpmc5array16Channel$LT$T$GT$20disconnect_receivers17h2fd21e7ad98da48aE, location: /home/not-matthias/.rustup/toolchains/stable-x86_64-unknown-linux-gnu/lib/rustlib/src/rust/library/std/src/sync/mpmc/array.rs:470 },
    DebugInfo { addr: 6fb30, size: 432, name: _ZN3std4sync4mpmc5array16Channel$LT$T$GT$4recv17hd093e0cda894828bE, location: /home/not-matthias/.rustup/toolchains/stable-x86_64-unknown-linux-gnu/lib/rustlib/src/rust/library/std/src/sync/mpmc/array.rs:375 },
    DebugInfo { addr: 6ff70, size: 1af, name: _ZN3std4sync4mpmc5array16Channel$LT$T$GT$4recv28_$u7b$$u7b$closure$u7d$$u7d$17hbbf8b20f2160c939E, location: /home/not-matthias/.rustup/toolchains/stable-x86_64-unknown-linux-gnu/lib/rustlib/src/rust/library/std/src/sync/mpmc/array.rs:390 },
    DebugInfo { addr: 70120, size: 486, name: _ZN3std4sync4mpmc5array16Channel$LT$T$GT$4send17h05dfaa96525ad93aE, location: /home/not-matthias/.rustup/toolchains/stable-x86_64-unknown-linux-gnu/lib/rustlib/src/rust/library/std/src/sync/mpmc/array.rs:319 },
    DebugInfo { addr: 705b0, size: 1bf, name: _ZN3std4sync4mpmc5array16Channel$LT$T$GT$4send28_$u7b$$u7b$closure$u7d$$u7d$17hc67c22c595c2ab37E, location: /home/not-matthias/.rustup/toolchains/stable-x86_64-unknown-linux-gnu/lib/rustlib/src/rust/library/std/src/sync/mpmc/array.rs:338 },
    DebugInfo { addr: 70770, size: 119, name: _ZN3std4sync4mpmc5waker5Waker6notify17h04b09af56c602e4aE, location: /home/not-matthias/.rustup/toolchains/stable-x86_64-unknown-linux-gnu/lib/rustlib/src/rust/library/std/src/sync/mpmc/waker.rs:98 },
    DebugInfo { addr: 70890, size: 1cc, name: _ZN3std4sync4mpmc5waker9SyncWaker10disconnect17hc955f8edf38f9f84E.llvm.17077398685498481616, location: /home/not-matthias/.rustup/toolchains/stable-x86_64-unknown-linux-gnu/lib/rustlib/src/rust/library/std/src/sync/mpmc/waker.rs:187 },
    DebugInfo { addr: 70a60, size: 1f7, name: _ZN3std4sync4mpmc5waker9SyncWaker10unregister17h049f5b90545b1886E, location: /home/not-matthias/.rustup/toolchains/stable-x86_64-unknown-linux-gnu/lib/rustlib/src/rust/library/std/src/sync/mpmc/waker.rs:161 },
    DebugInfo { addr: 70c60, size: 26a, name: _ZN3std4sync4mpmc5waker9SyncWaker6notify17hccc9fe8637f23689E, location: /home/not-matthias/.rustup/toolchains/stable-x86_64-unknown-linux-gnu/lib/rustlib/src/rust/library/std/src/sync/mpmc/waker.rs:171 },
    DebugInfo { addr: 70ed0, size: 1c3, name: _ZN3std4sync4mpmc5waker9SyncWaker8register17ha2fec73c1258216eE, location: /home/not-matthias/.rustup/toolchains/stable-x86_64-unknown-linux-gnu/lib/rustlib/src/rust/library/std/src/sync/mpmc/waker.rs:152 },
    DebugInfo { addr: 710a0, size: 88, name: _ZN3std4sync4mpmc7context7Context4with28_$u7b$$u7b$closure$u7d$$u7d$17he4aa0553c048f332E, location: /home/not-matthias/.rustup/toolchains/stable-x86_64-unknown-linux-gnu/lib/rustlib/src/rust/library/std/src/sync/mpmc/context.rs:62 },
    DebugInfo { addr: 71130, size: 88, name: _ZN3std4sync4mpmc7context7Context4with28_$u7b$$u7b$closure$u7d$$u7d$17hed5abc09312ae020E, location: /home/not-matthias/.rustup/toolchains/stable-x86_64-unknown-linux-gnu/lib/rustlib/src/rust/library/std/src/sync/mpmc/context.rs:62 },
    DebugInfo { addr: 711c0, size: 547, name: _ZN3std6thread7Builder15spawn_unchecked17h5f007a69198ffda0E, location: /home/not-matthias/.rustup/toolchains/stable-x86_64-unknown-linux-gnu/lib/rustlib/src/rust/library/std/src/thread/mod.rs:461 },
    DebugInfo { addr: 71710, size: 285, name: _ZN4core3ops8function6FnOnce40call_once$u7b$$u7b$vtable.shim$u7d$$u7d$17hcd6baa63d357123cE, location: /home/not-matthias/.rustup/toolchains/stable-x86_64-unknown-linux-gnu/lib/rustlib/src/rust/library/core/src/ops/function.rs:250 },
    DebugInfo { addr: 719a0, size: 5c, name: _ZN4core3ptr128drop_in_place$LT$alloc..vec..Vec$LT$std..sync..mpsc..SyncSender$LT$codspeed_divan_compat_walltime..thread_pool..Task$GT$$GT$$GT$17hcee33aece4b62e00E.llvm.17077398685498481616, location: /home/not-matthias/.rustup/toolchains/stable-x86_64-unknown-linux-gnu/lib/rustlib/src/rust/library/core/src/ptr/mod.rs:524 },
    DebugInfo { addr: 71a00, size: 5f, name: _ZN4core3ptr130drop_in_place$LT$core..result..Result$LT$$LP$$RP$$C$alloc..boxed..Box$LT$dyn$u20$core..any..Any$u2b$core..marker..Send$GT$$GT$$GT$17h4c79c0c46f9d7d8cE.llvm.17077398685498481616, location: /home/not-matthias/.rustup/toolchains/stable-x86_64-unknown-linux-gnu/lib/rustlib/src/rust/library/core/src/ptr/mod.rs:524 },
    DebugInfo { addr: 71a60, size: 41, name: _ZN4core3ptr132drop_in_place$LT$std..sync..poison..PoisonError$LT$std..sync..poison..mutex..MutexGuard$LT$std..sync..mpmc..waker..Waker$GT$$GT$$GT$17h45b44a4fcb87b090E, location: /home/not-matthias/.rustup/toolchains/stable-x86_64-unknown-linux-gnu/lib/rustlib/src/rust/library/core/src/ptr/mod.rs:524 },
    DebugInfo { addr: 71ab0, size: 41, name: _ZN4core3ptr172drop_in_place$LT$std..sync..poison..mutex..MutexGuard$LT$alloc..vec..Vec$LT$std..sync..mpsc..SyncSender$LT$codspeed_divan_compat_walltime..thread_pool..Task$GT$$GT$$GT$$GT$17hfbbdbad71ddf0620E.llvm.17077398685498481616, location: /home/not-matthias/.rustup/toolchains/stable-x86_64-unknown-linux-gnu/lib/rustlib/src/rust/library/core/src/ptr/mod.rs:524 },
    DebugInfo { addr: 71b00, size: 5c, name: _ZN4core3ptr177drop_in_place$LT$alloc..vec..Vec$LT$alloc..boxed..Box$LT$dyn$u20$core..ops..function..FnOnce$LT$$LP$$RP$$GT$$u2b$Output$u20$$u3d$$u20$$LP$$RP$$u2b$core..marker..Send$GT$$GT$$GT$17h8d222ebfd666ac47E, location: /home/not-matthias/.rustup/toolchains/stable-x86_64-unknown-linux-gnu/lib/rustlib/src/rust/library/core/src/ptr/mod.rs:524 },
    DebugInfo { addr: 71b60, size: 67, name: _ZN4core3ptr188drop_in_place$LT$core..cell..UnsafeCell$LT$core..option..Option$LT$core..result..Result$LT$$LP$$RP$$C$alloc..boxed..Box$LT$dyn$u20$core..any..Any$u2b$core..marker..Send$GT$$GT$$GT$$GT$$GT$17h19a2cde317c99296E, location: /home/not-matthias/.rustup/toolchains/stable-x86_64-unknown-linux-gnu/lib/rustlib/src/rust/library/core/src/ptr/mod.rs:524 },
    DebugInfo { addr: 71bd0, size: b1, name: _ZN4core3ptr215drop_in_place$LT$std..thread..Builder..spawn_unchecked_$LT$codspeed_divan_compat_walltime..thread_pool..spawn..$u7b$$u7b$closure$u7d$$u7d$..$u7b$$u7b$closure$u7d$$u7d$$C$$LP$$RP$$GT$..$u7b$$u7b$closure$u7d$$u7d$$GT$17hd0e48b551896ac24E, location: /home/not-matthias/.rustup/toolchains/stable-x86_64-unknown-linux-gnu/lib/rustlib/src/rust/library/core/src/ptr/mod.rs:524 },
    DebugInfo { addr: 71c90, size: bb, name: _ZN4core3ptr60drop_in_place$LT$std..thread..spawnhook..ChildSpawnHooks$GT$17ha69f871817ecf8b0E, location: /home/not-matthias/.rustup/toolchains/stable-x86_64-unknown-linux-gnu/lib/rustlib/src/rust/library/core/src/ptr/mod.rs:524 },
    DebugInfo { addr: 71d50, size: a4, name: _ZN4core3ptr81drop_in_place$LT$core..result..Result$LT$$LP$$RP$$C$std..io..error..Error$GT$$GT$17h3648387e7a3e63e0E.llvm.17077398685498481616, location: /home/not-matthias/.rustup/toolchains/stable-x86_64-unknown-linux-gnu/lib/rustlib/src/rust/library/core/src/ptr/mod.rs:524 },
    DebugInfo { addr: 71e00, size: c7, name: _ZN4core3ptr85drop_in_place$LT$alloc..sync..ArcInner$LT$std..thread..Packet$LT$$LP$$RP$$GT$$GT$$GT$17hb4f48a2fcdf893dbE, location: /home/not-matthias/.rustup/toolchains/stable-x86_64-unknown-linux-gnu/lib/rustlib/src/rust/library/core/src/ptr/mod.rs:524 },
    DebugInfo { addr: 71ed0, size: 41, name: _ZN4core3ptr94drop_in_place$LT$std..sync..poison..mutex..MutexGuard$LT$std..sync..mpmc..waker..Waker$GT$$GT$17h1c511e089a93b5feE, location: /home/not-matthias/.rustup/toolchains/stable-x86_64-unknown-linux-gnu/lib/rustlib/src/rust/library/core/src/ptr/mod.rs:524 },
    DebugInfo { addr: 71f20, size: 126, name: _ZN70_$LT$std..thread..Packet$LT$T$GT$$u20$as$u20$core..ops..drop..Drop$GT$4drop17hcf582985b18b7787E, location: /home/not-matthias/.rustup/toolchains/stable-x86_64-unknown-linux-gnu/lib/rustlib/src/rust/library/std/src/thread/mod.rs:1702 },
    DebugInfo { addr: 72050, size: 245, name: _ZN30codspeed_divan_compat_walltime11thread_pool10ThreadPool14broadcast_task17h639827f269ee3c2fE, location: /home/not-matthias/Documents/work/wgit/codspeed-rust/crates/divan_compat/divan_fork/src/thread_pool.rs:95 },
    DebugInfo { addr: 722a0, size: 147, name: _ZN30codspeed_divan_compat_walltime11thread_pool10ThreadPool12drop_threads17h5d48d9245931d7b1E, location: /home/not-matthias/Documents/work/wgit/codspeed-rust/crates/divan_compat/divan_fork/src/thread_pool.rs:127 },
    DebugInfo { addr: 723f0, size: 3da, name: _ZN102_$LT$core..iter..adapters..map..Map$LT$I$C$F$GT$$u20$as$u20$core..iter..traits..iterator..Iterator$GT$4fold17h159708e74b5a6172E, location: /home/not-matthias/.rustup/toolchains/stable-x86_64-unknown-linux-gnu/lib/rustlib/src/rust/library/core/src/iter/adapters/map.rs:124 },
    DebugInfo { addr: 727d0, size: 1a7, name: _ZN102_$LT$core..iter..adapters..map..Map$LT$I$C$F$GT$$u20$as$u20$core..iter..traits..iterator..Iterator$GT$4fold17h95cee8ad8e566c9fE, location: /home/not-matthias/.rustup/toolchains/stable-x86_64-unknown-linux-gnu/lib/rustlib/src/rust/library/core/src/iter/adapters/map.rs:124 },
    DebugInfo { addr: 72980, size: 167, name: _ZN102_$LT$core..iter..adapters..map..Map$LT$I$C$F$GT$$u20$as$u20$core..iter..traits..iterator..Iterator$GT$4fold17hc5666491efcb2c16E, location: /home/not-matthias/.rustup/toolchains/stable-x86_64-unknown-linux-gnu/lib/rustlib/src/rust/library/core/src/iter/adapters/map.rs:124 },
    DebugInfo { addr: 72af0, size: 21e, name: _ZN102_$LT$core..iter..adapters..map..Map$LT$I$C$F$GT$$u20$as$u20$core..iter..traits..iterator..Iterator$GT$4fold17he3f0de492606e786E, location: /home/not-matthias/.rustup/toolchains/stable-x86_64-unknown-linux-gnu/lib/rustlib/src/rust/library/core/src/iter/adapters/map.rs:128 },
    DebugInfo { addr: 72d10, size: 12f, name: _ZN121_$LT$core..iter..adapters..map..Map$LT$I$C$F$GT$$u20$as$u20$core..iter..traits..unchecked_iterator..UncheckedIterator$GT$14next_unchecked17h17a0e76db0b646acE, location: /home/not-matthias/.rustup/toolchains/stable-x86_64-unknown-linux-gnu/lib/rustlib/src/rust/library/core/src/iter/adapters/map.rs:202 },
    DebugInfo { addr: 72e40, size: 128, name: _ZN121_$LT$core..iter..adapters..map..Map$LT$I$C$F$GT$$u20$as$u20$core..iter..traits..unchecked_iterator..UncheckedIterator$GT$14next_unchecked17h331f2e86251e45d9E, location: /home/not-matthias/.rustup/toolchains/stable-x86_64-unknown-linux-gnu/lib/rustlib/src/rust/library/core/src/iter/adapters/map.rs:202 },
    DebugInfo { addr: 72f70, size: 20f, name: _ZN121_$LT$core..iter..adapters..map..Map$LT$I$C$F$GT$$u20$as$u20$core..iter..traits..unchecked_iterator..UncheckedIterator$GT$14next_unchecked17h3f9e287a069fdda9E, location: /home/not-matthias/.rustup/toolchains/stable-x86_64-unknown-linux-gnu/lib/rustlib/src/rust/library/core/src/iter/adapters/map.rs:202 },
    DebugInfo { addr: 73180, size: 170, name: _ZN121_$LT$core..iter..adapters..map..Map$LT$I$C$F$GT$$u20$as$u20$core..iter..traits..unchecked_iterator..UncheckedIterator$GT$14next_unchecked17h46f12f776be233fbE, location: /home/not-matthias/.rustup/toolchains/stable-x86_64-unknown-linux-gnu/lib/rustlib/src/rust/library/core/src/iter/adapters/map.rs:202 },
    DebugInfo { addr: 732f0, size: 169, name: _ZN121_$LT$core..iter..adapters..map..Map$LT$I$C$F$GT$$u20$as$u20$core..iter..traits..unchecked_iterator..UncheckedIterator$GT$14next_unchecked17h62072a20ed429ee3E, location: /home/not-matthias/.rustup/toolchains/stable-x86_64-unknown-linux-gnu/lib/rustlib/src/rust/library/core/src/iter/adapters/map.rs:202 },
    DebugInfo { addr: 73460, size: 285, name: _ZN121_$LT$core..iter..adapters..map..Map$LT$I$C$F$GT$$u20$as$u20$core..iter..traits..unchecked_iterator..UncheckedIterator$GT$14next_unchecked17hb8cb5ff750386d2aE, location: /home/not-matthias/.rustup/toolchains/stable-x86_64-unknown-linux-gnu/lib/rustlib/src/rust/library/core/src/iter/adapters/map.rs:202 },
    DebugInfo { addr: 736f0, size: 999, name: _ZN121_$LT$core..iter..adapters..map..Map$LT$I$C$F$GT$$u20$as$u20$core..iter..traits..unchecked_iterator..UncheckedIterator$GT$14next_unchecked17hed21b373fb2dca7bE, location: /home/not-matthias/.rustup/toolchains/stable-x86_64-unknown-linux-gnu/lib/rustlib/src/rust/library/core/src/iter/adapters/map.rs:202 },
    DebugInfo { addr: 74090, size: 170, name: _ZN121_$LT$core..iter..adapters..map..Map$LT$I$C$F$GT$$u20$as$u20$core..iter..traits..unchecked_iterator..UncheckedIterator$GT$14next_unchecked17hfe5176cddb3802aaE, location: /home/not-matthias/.rustup/toolchains/stable-x86_64-unknown-linux-gnu/lib/rustlib/src/rust/library/core/src/iter/adapters/map.rs:202 },
    DebugInfo { addr: 74200, size: 15, name: _ZN36_$LT$T$u20$as$u20$core..any..Any$GT$7type_id17hed2cf5fda0364edcE, location: /home/not-matthias/.rustup/toolchains/stable-x86_64-unknown-linux-gnu/lib/rustlib/src/rust/library/core/src/any.rs:139 },
    DebugInfo { addr: 74220, size: be, name: _ZN45_$LT$T$u20$as$u20$alloc..string..ToString$GT$9to_string17h0c42487ddad85389E.llvm.165083765660163604, location: /home/not-matthias/.rustup/toolchains/stable-x86_64-unknown-linux-gnu/lib/rustlib/src/rust/library/alloc/src/string.rs:2777 },
    DebugInfo { addr: 742e0, size: be, name: _ZN45_$LT$T$u20$as$u20$alloc..string..ToString$GT$9to_string17h332a9c25c71b25b0E.llvm.165083765660163604, location: /home/not-matthias/.rustup/toolchains/stable-x86_64-unknown-linux-gnu/lib/rustlib/src/rust/library/alloc/src/string.rs:2777 },
    DebugInfo { addr: 743a0, size: be, name: _ZN45_$LT$T$u20$as$u20$alloc..string..ToString$GT$9to_string17he64e4319e8fa528cE.llvm.165083765660163604, location: /home/not-matthias/.rustup/toolchains/stable-x86_64-unknown-linux-gnu/lib/rustlib/src/rust/library/alloc/src/string.rs:2777 },
    DebugInfo { addr: 74460, size: 18, name: _ZN4core3ptr42drop_in_place$LT$alloc..string..String$GT$17hbfe830c6b752c7bfE.llvm.165083765660163604, location: /home/not-matthias/.rustup/toolchains/stable-x86_64-unknown-linux-gnu/lib/rustlib/src/rust/library/alloc/src/raw_vec/mod.rs:406 },
    DebugInfo { addr: 74480, size: a7, name: _ZN4core3ptr42drop_in_place$LT$std..io..error..Error$GT$17h046add9d4e21af6bE, location: /home/not-matthias/.rustup/toolchains/stable-x86_64-unknown-linux-gnu/lib/rustlib/src/rust/library/core/src/ptr/mod.rs:524 },
    DebugInfo { addr: 74530, size: 99, name: _ZN4core3ptr63drop_in_place$LT$$u5b$alloc..string..String$u3b$$u20$6$u5d$$GT$17h66738f1b98659cbaE.llvm.165083765660163604, location: /home/not-matthias/.rustup/toolchains/stable-x86_64-unknown-linux-gnu/lib/rustlib/src/rust/library/core/src/ptr/mod.rs:524 },
    DebugInfo { addr: 745d0, size: 3, name: _ZN4core5error5Error5cause17h5412d0c8eae9a6d3E, location: /home/not-matthias/.rustup/toolchains/stable-x86_64-unknown-linux-gnu/lib/rustlib/src/rust/library/core/src/error.rs:143 },
    DebugInfo { addr: 745e0, size: 15, name: _ZN4core5error5Error7type_id17h7d7facb699be9dccE, location: /home/not-matthias/.rustup/toolchains/stable-x86_64-unknown-linux-gnu/lib/rustlib/src/rust/library/core/src/error.rs:116 },
    DebugInfo { addr: 74600, size: 15, name: _ZN53_$LT$core..fmt..Error$u20$as$u20$core..fmt..Debug$GT$3fmt17h6736176c8e29474eE.llvm.165083765660163604, location: /home/not-matthias/.rustup/toolchains/stable-x86_64-unknown-linux-gnu/lib/rustlib/src/rust/library/core/src/fmt/mod.rs:102 },
    DebugInfo { addr: 74620, size: 123, name: _ZN58_$LT$alloc..string..String$u20$as$u20$core..fmt..Write$GT$10write_char17h13db4e3872bba170E.llvm.165083765660163604, location: /home/not-matthias/.rustup/toolchains/stable-x86_64-unknown-linux-gnu/lib/rustlib/src/rust/library/alloc/src/string.rs:3202 },
    DebugInfo { addr: 74750, size: 67, name: _ZN58_$LT$alloc..string..String$u20$as$u20$core..fmt..Write$GT$9write_str17h3471f8bf4fd2c6acE.llvm.165083765660163604, location: /home/not-matthias/.rustup/toolchains/stable-x86_64-unknown-linux-gnu/lib/rustlib/src/rust/library/alloc/src/string.rs:3196 },
    DebugInfo { addr: 747c0, size: 14, name: _ZN60_$LT$alloc..string..String$u20$as$u20$core..fmt..Display$GT$3fmt17h253a895d4ea9e2d1E.llvm.165083765660163604, location: /home/not-matthias/.rustup/toolchains/stable-x86_64-unknown-linux-gnu/lib/rustlib/src/rust/library/alloc/src/string.rs:2595 },
    DebugInfo { addr: 747e0, size: 1c4, name: _ZN4core5slice4sort6stable5merge5merge17h1d29a2b01cd82c27E, location: /home/not-matthias/.rustup/toolchains/stable-x86_64-unknown-linux-gnu/lib/rustlib/src/rust/library/core/src/slice/sort/stable/merge.rs:8 },
    DebugInfo { addr: 749b0, size: 8b8, name: _ZN4core5slice4sort6stable9quicksort9quicksort17h97c9e7913182d827E, location: /home/not-matthias/.rustup/toolchains/stable-x86_64-unknown-linux-gnu/lib/rustlib/src/rust/library/core/src/slice/sort/stable/quicksort.rs:16 },
    DebugInfo { addr: 75270, size: 31e, name: _ZN4core5slice4sort8unstable9quicksort9quicksort17h09daf04a83ddb542E, location: /home/not-matthias/.rustup/toolchains/stable-x86_64-unknown-linux-gnu/lib/rustlib/src/rust/library/core/src/slice/sort/unstable/quicksort.rs:21 },
    DebugInfo { addr: 75590, size: 3b4, name: _ZN4core5slice4sort8unstable9quicksort9quicksort17h47d0a47211f9943eE, location: /home/not-matthias/.rustup/toolchains/stable-x86_64-unknown-linux-gnu/lib/rustlib/src/rust/library/core/src/slice/sort/unstable/quicksort.rs:21 },
    DebugInfo { addr: 75950, size: 31e, name: _ZN4core5slice4sort8unstable9quicksort9quicksort17h6bec770f5096bc68E, location: /home/not-matthias/.rustup/toolchains/stable-x86_64-unknown-linux-gnu/lib/rustlib/src/rust/library/core/src/slice/sort/unstable/quicksort.rs:21 },
    DebugInfo { addr: 75c70, size: 7b5, name: _ZN4core5slice4sort8unstable9quicksort9quicksort17h90f73adb35775f4fE, location: /home/not-matthias/.rustup/toolchains/stable-x86_64-unknown-linux-gnu/lib/rustlib/src/rust/library/core/src/slice/sort/unstable/quicksort.rs:21 },
    DebugInfo { addr: 76430, size: 487, name: _ZN5alloc3str17join_generic_copy17hb3550377fabe50bbE, location: /home/not-matthias/.rustup/toolchains/stable-x86_64-unknown-linux-gnu/lib/rustlib/src/rust/library/alloc/src/str.rs:130 },
    DebugInfo { addr: 768c0, size: 2c, name: _ZN72_$LT$std..sync..mpsc..SendError$LT$T$GT$$u20$as$u20$core..fmt..Debug$GT$3fmt17hae5711f3d78bd825E, location: /home/not-matthias/.rustup/toolchains/stable-x86_64-unknown-linux-gnu/lib/rustlib/src/rust/library/std/src/sync/mpsc.rs:1094 },
    DebugInfo { addr: 768f0, size: 626, name: _ZN30codspeed_divan_compat_walltime4time9timestamp3tsc4arch7measure17measure_frequency17h8480feecd4a8a0aaE, location: /home/not-matthias/Documents/work/wgit/codspeed-rust/crates/divan_compat/divan_fork/src/time/timestamp/tsc/x86.rs:193 },
    DebugInfo { addr: 76f20, size: 15, name: _ZN36_$LT$T$u20$as$u20$core..any..Any$GT$7type_id17h17f494a0aee94446E.llvm.17381142787149778790, location: /home/not-matthias/.rustup/toolchains/stable-x86_64-unknown-linux-gnu/lib/rustlib/src/rust/library/core/src/any.rs:139 },
    DebugInfo { addr: 76f40, size: 15, name: _ZN36_$LT$T$u20$as$u20$core..any..Any$GT$7type_id17h5718588e73ba1a1fE.llvm.17381142787149778790, location: /home/not-matthias/.rustup/toolchains/stable-x86_64-unknown-linux-gnu/lib/rustlib/src/rust/library/core/src/any.rs:139 },
    DebugInfo { addr: 76f60, size: 15, name: _ZN36_$LT$T$u20$as$u20$core..any..Any$GT$7type_id17h64a7594affcd15feE.llvm.17381142787149778790, location: /home/not-matthias/.rustup/toolchains/stable-x86_64-unknown-linux-gnu/lib/rustlib/src/rust/library/core/src/any.rs:139 },
    DebugInfo { addr: 76f80, size: 626, name: _ZN3std4sync4mpmc15Sender$LT$T$GT$4send17h7393d5121cd4b880E, location: /home/not-matthias/.rustup/toolchains/stable-x86_64-unknown-linux-gnu/lib/rustlib/src/rust/library/std/src/sync/mpmc/mod.rs:392 },
    DebugInfo { addr: 775b0, size: 690, name: _ZN3std4sync4mpmc17Receiver$LT$T$GT$4recv17hbc30d93616892eb6E, location: /home/not-matthias/.rustup/toolchains/stable-x86_64-unknown-linux-gnu/lib/rustlib/src/rust/library/std/src/sync/mpmc/mod.rs:981 },
    DebugInfo { addr: 77c40, size: 20b, name: _ZN3std4sync4mpmc4zero16Channel$LT$T$GT$10disconnect17he9019c5ed24be10eE, location: /home/not-matthias/.rustup/toolchains/stable-x86_64-unknown-linux-gnu/lib/rustlib/src/rust/library/std/src/sync/mpmc/zero.rs:286 },
    DebugInfo { addr: 77e50, size: 6c4, name: _ZN3std4sync4mpmc4zero16Channel$LT$T$GT$4recv28_$u7b$$u7b$closure$u7d$$u7d$17h8cfa30cf70a263a9E, location: /home/not-matthias/.rustup/toolchains/stable-x86_64-unknown-linux-gnu/lib/rustlib/src/rust/library/std/src/sync/mpmc/zero.rs:252 },
    DebugInfo { addr: 78520, size: 6c1, name: _ZN3std4sync4mpmc4zero16Channel$LT$T$GT$4send28_$u7b$$u7b$closure$u7d$$u7d$17hf4d421897c62c242E, location: /home/not-matthias/.rustup/toolchains/stable-x86_64-unknown-linux-gnu/lib/rustlib/src/rust/library/std/src/sync/mpmc/zero.rs:184 },
    DebugInfo { addr: 78bf0, size: 119, name: _ZN3std4sync4mpmc5waker5Waker6notify17h04b09af56c602e4aE, location: /home/not-matthias/.rustup/toolchains/stable-x86_64-unknown-linux-gnu/lib/rustlib/src/rust/library/std/src/sync/mpmc/waker.rs:98 },
    DebugInfo { addr: 78d10, size: b2, name: _ZN3std4sync4mpmc7context7Context4with28_$u7b$$u7b$closure$u7d$$u7d$17h107815e772e92443E, location: /home/not-matthias/.rustup/toolchains/stable-x86_64-unknown-linux-gnu/lib/rustlib/src/rust/library/std/src/sync/mpmc/context.rs:62 },
    DebugInfo { addr: 78dd0, size: bb, name: _ZN3std4sync4mpmc7context7Context4with28_$u7b$$u7b$closure$u7d$$u7d$17haa02c1f27ad051a1E, location: /home/not-matthias/.rustup/toolchains/stable-x86_64-unknown-linux-gnu/lib/rustlib/src/rust/library/std/src/sync/mpmc/context.rs:62 },
    DebugInfo { addr: 78e90, size: 2e, name: _ZN42_$LT$$RF$T$u20$as$u20$core..fmt..Debug$GT$3fmt17h095145388cd37641E, location: /home/not-matthias/.rustup/toolchains/stable-x86_64-unknown-linux-gnu/lib/rustlib/src/rust/library/core/src/fmt/mod.rs:2636 },
    DebugInfo { addr: 78ec0, size: 2f, name: _ZN42_$LT$$RF$T$u20$as$u20$core..fmt..Debug$GT$3fmt17ha806b371ff65bf71E, location: /home/not-matthias/.rustup/toolchains/stable-x86_64-unknown-linux-gnu/lib/rustlib/src/rust/library/core/src/fmt/mod.rs:2636 },
    DebugInfo { addr: 78ef0, size: 41, name: _ZN4core3ptr131drop_in_place$LT$std..sync..poison..PoisonError$LT$std..sync..poison..mutex..MutexGuard$LT$std..sync..mpmc..zero..Inner$GT$$GT$$GT$17ha3ac65dcc132672cE, location: /home/not-matthias/.rustup/toolchains/stable-x86_64-unknown-linux-gnu/lib/rustlib/src/rust/library/core/src/ptr/mod.rs:524 },
    DebugInfo { addr: 78f40, size: 41, name: _ZN4core3ptr138drop_in_place$LT$std..sync..poison..mutex..MutexGuard$LT$alloc..vec..Vec$LT$alloc..boxed..Box$LT$regex_lite..pikevm..Cache$GT$$GT$$GT$$GT$17h9528b75a6d7b6a0eE, location: /home/not-matthias/.rustup/toolchains/stable-x86_64-unknown-linux-gnu/lib/rustlib/src/rust/library/core/src/ptr/mod.rs:524 },
    DebugInfo { addr: 78f90, size: 40, name: _ZN4core3ptr149drop_in_place$LT$std..sync..mpmc..counter..Counter$LT$std..sync..mpmc..zero..Channel$LT$codspeed_divan_compat_walltime..thread_pool..Task$GT$$GT$$GT$17he1324886c7af8898E.llvm.17381142787149778790, location: /home/not-matthias/.rustup/toolchains/stable-x86_64-unknown-linux-gnu/lib/rustlib/src/rust/library/core/src/ptr/mod.rs:524 },
    DebugInfo { addr: 78fd0, size: 47, name: _ZN4core3ptr171drop_in_place$LT$core..option..Option$LT$std..sync..mpmc..zero..Channel$LT$codspeed_divan_compat_walltime..thread_pool..Task$GT$..recv..$u7b$$u7b$closure$u7d$$u7d$$GT$$GT$17h32aeb2ac6b0ec27aE, location: /home/not-matthias/.rustup/toolchains/stable-x86_64-unknown-linux-gnu/lib/rustlib/src/rust/library/core/src/ptr/mod.rs:524 },
    DebugInfo { addr: 79020, size: 1f7, name: _ZN4core3ptr338drop_in_place$LT$regex_lite..pool..PoolGuard$LT$regex_lite..pikevm..Cache$C$alloc..boxed..Box$LT$dyn$u20$core..ops..function..Fn$LT$$LP$$RP$$GT$$u2b$Output$u20$$u3d$$u20$regex_lite..pikevm..Cache$u2b$core..panic..unwind_safe..RefUnwindSafe$u2b$core..panic..unwind_safe..UnwindSafe$u2b$core..marker..Send$u2b$core..marker..Sync$GT$$GT$$GT$17ha79085248c4aa535E, location: /home/not-matthias/.rustup/toolchains/stable-x86_64-unknown-linux-gnu/lib/rustlib/src/rust/library/core/src/ptr/mod.rs:524 },
    DebugInfo { addr: 79220, size: d9, name: _ZN4core3ptr46drop_in_place$LT$regex_lite..pikevm..Cache$GT$17h4d8521a4a1566f68E, location: /home/not-matthias/.rustup/toolchains/stable-x86_64-unknown-linux-gnu/lib/rustlib/src/rust/library/core/src/ptr/mod.rs:524 },
    DebugInfo { addr: 79300, size: 1e6, name: _ZN4core3ptr50drop_in_place$LT$std..sync..mpmc..waker..Waker$GT$17hc3a6872881000f9dE.llvm.17381142787149778790, location: /home/not-matthias/.rustup/toolchains/stable-x86_64-unknown-linux-gnu/lib/rustlib/src/rust/library/core/src/ptr/mod.rs:524 },
    DebugInfo { addr: 794f0, size: 1d, name: _ZN4core3ptr71drop_in_place$LT$alloc..boxed..Box$LT$regex_lite..pikevm..Cache$GT$$GT$17h091124115abc8593E, location: /home/not-matthias/.rustup/toolchains/stable-x86_64-unknown-linux-gnu/lib/rustlib/src/rust/library/core/src/ptr/mod.rs:524 },
    DebugInfo { addr: 79510, size: 100, name: _ZN4core3ptr73drop_in_place$LT$alloc..vec..Vec$LT$std..sync..mpmc..waker..Entry$GT$$GT$17hc399b47509cf4a36E.llvm.17381142787149778790, location: /home/not-matthias/.rustup/toolchains/stable-x86_64-unknown-linux-gnu/lib/rustlib/src/rust/library/core/src/ptr/mod.rs:524 },
    DebugInfo { addr: 79610, size: 24, name: _ZN4core3ptr99drop_in_place$LT$core..option..Option$LT$alloc..boxed..Box$LT$regex_lite..pikevm..Cache$GT$$GT$$GT$17ha3d42f72bf04d80cE, location: /home/not-matthias/.rustup/toolchains/stable-x86_64-unknown-linux-gnu/lib/rustlib/src/rust/library/core/src/ptr/mod.rs:524 },
    DebugInfo { addr: 79640, size: d, name: _ZN4core5error5Error11description17h78b56a21793bca74E, location: /home/not-matthias/.rustup/toolchains/stable-x86_64-unknown-linux-gnu/lib/rustlib/src/rust/library/core/src/error.rs:133 },
    DebugInfo { addr: 79650, size: 3, name: _ZN4core5error5Error5cause17h3575c262f0f73914E, location: /home/not-matthias/.rustup/toolchains/stable-x86_64-unknown-linux-gnu/lib/rustlib/src/rust/library/core/src/error.rs:143 },
    DebugInfo { addr: 79660, size: 1, name: _ZN4core5error5Error7provide17h020e47387b161d7cE, location: /home/not-matthias/.rustup/toolchains/stable-x86_64-unknown-linux-gnu/lib/rustlib/src/rust/library/core/src/error.rs:204 },
    DebugInfo { addr: 79670, size: 15, name: _ZN4core5error5Error7type_id17h2c9e73d480f78b1eE, location: /home/not-matthias/.rustup/toolchains/stable-x86_64-unknown-linux-gnu/lib/rustlib/src/rust/library/core/src/error.rs:116 },
    DebugInfo { addr: 79690, size: 15, name: _ZN4core5error5Error7type_id17hfe21f59630634623E, location: /home/not-matthias/.rustup/toolchains/stable-x86_64-unknown-linux-gnu/lib/rustlib/src/rust/library/core/src/error.rs:116 },
    DebugInfo { addr: 796b0, size: 43, name: _ZN70_$LT$core..time..TryFromFloatSecsError$u20$as$u20$core..fmt..Debug$GT$3fmt17ha1a90561ab0e0ebbE, location: /home/not-matthias/.rustup/toolchains/stable-x86_64-unknown-linux-gnu/lib/rustlib/src/rust/library/core/src/time.rs:1433 },
    DebugInfo { addr: 79700, size: 43, name: _ZN72_$LT$core..num..dec2flt..ParseFloatError$u20$as$u20$core..fmt..Debug$GT$3fmt17hb9db04c3835e5d43E, location: /home/not-matthias/.rustup/toolchains/stable-x86_64-unknown-linux-gnu/lib/rustlib/src/rust/library/core/src/num/dec2flt/mod.rs:191 },
    DebugInfo { addr: 79750, size: 24, name: _ZN74_$LT$core..num..dec2flt..ParseFloatError$u20$as$u20$core..error..Error$GT$11description17h9d28b17817bd37f0E, location: /home/not-matthias/.rustup/toolchains/stable-x86_64-unknown-linux-gnu/lib/rustlib/src/rust/library/core/src/num/dec2flt/mod.rs:0 },
    DebugInfo { addr: 79780, size: 8f, name: _ZN74_$LT$std..sync..mpmc..Sender$LT$T$GT$$u20$as$u20$core..ops..drop..Drop$GT$4drop17h3d78d17f685febb8E, location: /home/not-matthias/.rustup/toolchains/stable-x86_64-unknown-linux-gnu/lib/rustlib/src/rust/library/std/src/sync/mpmc/mod.rs:629 },
    DebugInfo { addr: 79810, size: 1e, name: _ZN76_$LT$std..sync..mpmc..Receiver$LT$T$GT$$u20$as$u20$core..ops..drop..Drop$GT$4drop17h16fdcf8afdd53b62E, location: /home/not-matthias/.rustup/toolchains/stable-x86_64-unknown-linux-gnu/lib/rustlib/src/rust/library/std/src/sync/mpmc/mod.rs:1357 },
    DebugInfo { addr: 79830, size: 21e, name: _ZN100_$LT$codspeed_divan_compat_walltime..config..ParsedSeconds$u20$as$u20$core..str..traits..FromStr$GT$8from_str17h4e1a17a1f24086f0E, location: /home/not-matthias/Documents/work/wgit/codspeed-rust/crates/divan_compat/divan_fork/src/config.rs:14 },
    DebugInfo { addr: 79a50, size: 292, name: _ZN30codspeed_divan_compat_walltime6config6Filter8is_match17hde850cfd12a8895bE, location: /home/not-matthias/Documents/work/wgit/codspeed-rust/crates/divan_compat/divan_fork/src/config.rs:59 },
    DebugInfo { addr: 79cf0, size: dfb, name: _ZN30codspeed_divan_compat_walltime6config11SortingAttr19cmp_bench_arg_names17h3e1d95b2d112a9f2E, location: /home/not-matthias/Documents/work/wgit/codspeed-rust/crates/divan_compat/divan_fork/src/config.rs:130 },
    DebugInfo { addr: 7aaf0, size: 1c5, name: _ZN12clap_builder5error14Error$LT$F$GT$12invalid_utf817hc4aeba74f3a16b33E, location: /home/not-matthias/.cargo/registry/src/index.crates.io-1949cf8c6b5b557f/clap_builder-4.5.17/src/error/mod.rs:588 },
    DebugInfo { addr: 7acc0, size: 1f7, name: _ZN12clap_builder5error14Error$LT$F$GT$13invalid_value17h6cb092e2c7075c91E, location: /home/not-matthias/.cargo/registry/src/index.crates.io-1949cf8c6b5b557f/clap_builder-4.5.17/src/error/mod.rs:442 },
    DebugInfo { addr: 7aec0, size: 293, name: _ZN12clap_builder5error14Error$LT$F$GT$16value_validation17h6eb03fe8be525d7cE, location: /home/not-matthias/.cargo/registry/src/index.crates.io-1949cf8c6b5b557f/clap_builder-4.5.17/src/error/mod.rs:656 },
    DebugInfo { addr: 7b160, size: 2a1, name: _ZN12clap_builder5error14Error$LT$F$GT$3raw17h2b0f76b1a06f5a18E, location: /home/not-matthias/.cargo/registry/src/index.crates.io-1949cf8c6b5b557f/clap_builder-4.5.17/src/error/mod.rs:88 },
    DebugInfo { addr: 7b410, size: 2d, name: _ZN12clap_builder5error14Error$LT$F$GT$4exit17h48517f2337b46c71E, location: /home/not-matthias/.cargo/registry/src/index.crates.io-1949cf8c6b5b557f/clap_builder-4.5.17/src/error/mod.rs:233 },
    DebugInfo { addr: 7b440, size: 114, name: _ZN12clap_builder5error14Error$LT$F$GT$5print17h6b58fad2e4b8a308E.llvm.5568910479768839234, location: /home/not-matthias/.cargo/registry/src/index.crates.io-1949cf8c6b5b557f/clap_builder-4.5.17/src/error/mod.rs:256 },
    DebugInfo { addr: 7b560, size: d7, name: _ZN12clap_builder5error14Error$LT$F$GT$6format17hc39f96eb7b6a870aE, location: /home/not-matthias/.cargo/registry/src/index.crates.io-1949cf8c6b5b557f/clap_builder-4.5.17/src/error/mod.rs:94 },
    DebugInfo { addr: 7b640, size: 1cc, name: _ZN12clap_builder5error14Error$LT$F$GT$8with_cmd17hfdae827d5e777a80E, location: /home/not-matthias/.cargo/registry/src/index.crates.io-1949cf8c6b5b557f/clap_builder-4.5.17/src/error/mod.rs:149 },
    DebugInfo { addr: 7b810, size: 1c0, name: _ZN12clap_builder7builder7command7Command3new17h93f5d99fe40743a7E, location: /home/not-matthias/.cargo/registry/src/index.crates.io-1949cf8c6b5b557f/clap_builder-4.5.17/src/builder/command.rs:130 },
    DebugInfo { addr: 7b9d0, size: 1f6, name: _ZN12clap_builder7builder7command7Command4args17hf354370d65b29d83E, location: /home/not-matthias/.cargo/registry/src/index.crates.io-1949cf8c6b5b557f/clap_builder-4.5.17/src/builder/command.rs:204 },
    DebugInfo { addr: 7bbd0, size: 1bd, name: _ZN3std2io5Write9write_all17h3d1a808713d4b4aeE, location: /home/not-matthias/.rustup/toolchains/stable-x86_64-unknown-linux-gnu/lib/rustlib/src/rust/library/std/src/io/mod.rs:1795 },
    DebugInfo { addr: 7bd90, size: 128, name: _ZN3std2io5Write9write_fmt17h03ac2489010d1d59E, location: /home/not-matthias/.rustup/toolchains/stable-x86_64-unknown-linux-gnu/lib/rustlib/src/rust/library/std/src/io/mod.rs:1910 },
    DebugInfo { addr: 7bec0, size: a9, name: _ZN3std3sys12thread_local6native4lazy20Storage$LT$T$C$D$GT$10initialize17h1a82f5d82a0a9910E, location: /home/not-matthias/.rustup/toolchains/stable-x86_64-unknown-linux-gnu/lib/rustlib/src/rust/library/std/src/sys/thread_local/native/lazy.rs:61 },
    DebugInfo { addr: 7bf70, size: 50, name: _ZN3std3sys12thread_local6native4lazy7destroy17h0b081e2477f9ca67E.llvm.5568910479768839234, location: /home/not-matthias/.rustup/toolchains/stable-x86_64-unknown-linux-gnu/lib/rustlib/src/rust/library/std/src/sys/thread_local/native/lazy.rs:91 },
    DebugInfo { addr: 7bfc0, size: e9, name: _ZN3std4sync4mpmc7counter15Sender$LT$C$GT$7release17he0050d072e3b1eb9E, location: /home/not-matthias/.rustup/toolchains/stable-x86_64-unknown-linux-gnu/lib/rustlib/src/rust/library/std/src/sync/mpmc/counter.rs:60 },
    DebugInfo { addr: 7c0b0, size: 88, name: _ZN3std4sync4mpmc7counter15Sender$LT$C$GT$7release17he515d22337a60065E, location: /home/not-matthias/.rustup/toolchains/stable-x86_64-unknown-linux-gnu/lib/rustlib/src/rust/library/std/src/sync/mpmc/counter.rs:60 },
    DebugInfo { addr: 7c140, size: e9, name: _ZN3std4sync4mpmc7counter17Receiver$LT$C$GT$7release17h0afdf54e684b168eE, location: /home/not-matthias/.rustup/toolchains/stable-x86_64-unknown-linux-gnu/lib/rustlib/src/rust/library/std/src/sync/mpmc/counter.rs:113 },
    DebugInfo { addr: 7c230, size: 88, name: _ZN3std4sync4mpmc7counter17Receiver$LT$C$GT$7release17h9a439cb68beafe03E, location: /home/not-matthias/.rustup/toolchains/stable-x86_64-unknown-linux-gnu/lib/rustlib/src/rust/library/std/src/sync/mpmc/counter.rs:113 },
    DebugInfo { addr: 7c2c0, size: 17f, name: _ZN3std4sync4mpmc7counter17Receiver$LT$C$GT$7release17hc5aab9062ce2874cE, location: /home/not-matthias/.rustup/toolchains/stable-x86_64-unknown-linux-gnu/lib/rustlib/src/rust/library/std/src/sync/mpmc/counter.rs:113 },
    DebugInfo { addr: 7c440, size: d5, name: _ZN4core3fmt5Write10write_char17h0ae3db24a77ed247E, location: /home/not-matthias/.rustup/toolchains/stable-x86_64-unknown-linux-gnu/lib/rustlib/src/rust/library/core/src/fmt/mod.rs:176 },
    DebugInfo { addr: 7c520, size: 10, name: _ZN4core3fmt5Write9write_fmt17hf4f327a2001cbcafE, location: /home/not-matthias/.rustup/toolchains/stable-x86_64-unknown-linux-gnu/lib/rustlib/src/rust/library/core/src/fmt/mod.rs:205 },
    DebugInfo { addr: 7c530, size: 5a, name: _ZN4core3ptr118drop_in_place$LT$alloc..boxed..Box$LT$dyn$u20$core..error..Error$u2b$core..marker..Send$u2b$core..marker..Sync$GT$$GT$17h3aca8f2d258b1d55E, location: /home/not-matthias/.rustup/toolchains/stable-x86_64-unknown-linux-gnu/lib/rustlib/src/rust/library/core/src/ptr/mod.rs:524 },
    DebugInfo { addr: 7c590, size: 1f, name: _ZN4core3ptr168drop_in_place$LT$std..sys..thread_local..native..lazy..State$LT$core..cell..Cell$LT$core..option..Option$LT$std..sync..mpmc..context..Context$GT$$GT$$C$$LP$$RP$$GT$$GT$17h461fa5527a641e17E.llvm.5568910479768839234, location: /home/not-matthias/.rustup/toolchains/stable-x86_64-unknown-linux-gnu/lib/rustlib/src/rust/library/core/src/ptr/mod.rs:524 },
    DebugInfo { addr: 7c5b0, size: 90, name: _ZN4core3ptr175drop_in_place$LT$alloc..boxed..Box$LT$std..sync..mpmc..counter..Counter$LT$std..sync..mpmc..array..Channel$LT$codspeed_divan_compat_walltime..thread_pool..Task$GT$$GT$$GT$$GT$17h8ce5bd77d72fe6dbE.llvm.5568910479768839234, location: /home/not-matthias/.rustup/toolchains/stable-x86_64-unknown-linux-gnu/lib/rustlib/src/rust/library/core/src/ptr/mod.rs:524 },
    DebugInfo { addr: 7c640, size: 18, name: _ZN4core3ptr42drop_in_place$LT$alloc..string..String$GT$17hbfe830c6b752c7bfE, location: /home/not-matthias/.rustup/toolchains/stable-x86_64-unknown-linux-gnu/lib/rustlib/src/rust/library/alloc/src/raw_vec/mod.rs:406 },
    DebugInfo { addr: 7c660, size: a4, name: _ZN4core3ptr42drop_in_place$LT$std..io..error..Error$GT$17h046add9d4e21af6bE, location: /home/not-matthias/.rustup/toolchains/stable-x86_64-unknown-linux-gnu/lib/rustlib/src/rust/library/core/src/ptr/mod.rs:524 },
    DebugInfo { addr: 7c710, size: 44, name: _ZN4core3ptr47drop_in_place$LT$clap_builder..error..Error$GT$17h93766796f6d582baE.llvm.5568910479768839234, location: /home/not-matthias/.rustup/toolchains/stable-x86_64-unknown-linux-gnu/lib/rustlib/src/rust/library/core/src/ptr/mod.rs:524 },
    DebugInfo { addr: 7c760, size: 1e6, name: _ZN4core3ptr50drop_in_place$LT$std..sync..mpmc..waker..Waker$GT$17hc3a6872881000f9dE.llvm.5568910479768839234, location: /home/not-matthias/.rustup/toolchains/stable-x86_64-unknown-linux-gnu/lib/rustlib/src/rust/library/core/src/ptr/mod.rs:524 },
    DebugInfo { addr: 7c950, size: e3, name: _ZN4core3ptr52drop_in_place$LT$clap_builder..error..ErrorInner$GT$17hd6d64cd11eb29200E.llvm.5568910479768839234, location: /home/not-matthias/.rustup/toolchains/stable-x86_64-unknown-linux-gnu/lib/rustlib/src/rust/library/core/src/ptr/mod.rs:524 },
    DebugInfo { addr: 7ca40, size: 120, name: _ZN4core3ptr59drop_in_place$LT$clap_builder..builder..ext..Extensions$GT$17h5ff9001bb2c6cc23E, location: /home/not-matthias/.rustup/toolchains/stable-x86_64-unknown-linux-gnu/lib/rustlib/src/rust/library/core/src/ptr/mod.rs:524 },
    DebugInfo { addr: 7cb60, size: 4fa, name: _ZN4core3ptr60drop_in_place$LT$clap_builder..builder..command..Command$GT$17he95b42ae013968b2E.llvm.5568910479768839234, location: /home/not-matthias/.rustup/toolchains/stable-x86_64-unknown-linux-gnu/lib/rustlib/src/rust/library/core/src/ptr/mod.rs:524 },
    DebugInfo { addr: 7d060, size: 100, name: _ZN4core3ptr73drop_in_place$LT$alloc..vec..Vec$LT$std..sync..mpmc..waker..Entry$GT$$GT$17hc399b47509cf4a36E.llvm.5568910479768839234, location: /home/not-matthias/.rustup/toolchains/stable-x86_64-unknown-linux-gnu/lib/rustlib/src/rust/library/core/src/ptr/mod.rs:524 },
    DebugInfo { addr: 7d160, size: a4, name: _ZN4core3ptr81drop_in_place$LT$core..result..Result$LT$$LP$$RP$$C$std..io..error..Error$GT$$GT$17h3648387e7a3e63e0E.llvm.5568910479768839234, location: /home/not-matthias/.rustup/toolchains/stable-x86_64-unknown-linux-gnu/lib/rustlib/src/rust/library/core/src/ptr/mod.rs:524 },
    DebugInfo { addr: 7d210, size: 41, name: _ZN4core3ptr82drop_in_place$LT$std..sys..thread_local..abort_on_dtor_unwind..DtorUnwindGuard$GT$17hd00b80000de82796E, location: /home/not-matthias/.rustup/toolchains/stable-x86_64-unknown-linux-gnu/lib/rustlib/src/rust/library/core/src/ptr/mod.rs:524 },
    DebugInfo { addr: 7d260, size: c5, name: _ZN4core3ptr83drop_in_place$LT$alloc..vec..Vec$LT$clap_builder..builder..command..Command$GT$$GT$17h7bc29f27f9eec6c1E, location: /home/not-matthias/.rustup/toolchains/stable-x86_64-unknown-linux-gnu/lib/rustlib/src/rust/library/core/src/ptr/mod.rs:524 },
    DebugInfo { addr: 7d330, size: bc, name: _ZN4core3ptr86drop_in_place$LT$alloc..vec..Vec$LT$clap_builder..builder..arg_group..ArgGroup$GT$$GT$17h053ebd16ecbac143E, location: /home/not-matthias/.rustup/toolchains/stable-x86_64-unknown-linux-gnu/lib/rustlib/src/rust/library/core/src/ptr/mod.rs:524 },
    DebugInfo { addr: 7d3f0, size: a8, name: _ZN4core3ptr93drop_in_place$LT$std..io..default_write_fmt..Adapter$LT$std..sys..stdio..unix..Stderr$GT$$GT$17h650f79733e8c1bffE, location: /home/not-matthias/.rustup/toolchains/stable-x86_64-unknown-linux-gnu/lib/rustlib/src/rust/library/core/src/ptr/mod.rs:524 },
    DebugInfo { addr: 7d4a0, size: 6a, name: _ZN4core3ptr97drop_in_place$LT$core..option..Option$LT$clap_builder..builder..value_parser..ValueParser$GT$$GT$17ha77b5ad38a135002E, location: /home/not-matthias/.rustup/toolchains/stable-x86_64-unknown-linux-gnu/lib/rustlib/src/rust/library/core/src/ptr/mod.rs:524 },
    DebugInfo { addr: 7d510, size: 3, name: _ZN4core5error5Error6source17hc68ef40916c96267E.llvm.5568910479768839234, location: /home/not-matthias/.rustup/toolchains/stable-x86_64-unknown-linux-gnu/lib/rustlib/src/rust/library/core/src/error.rs:107 },
    DebugInfo { addr: 7d520, size: 1, name: _ZN4core5error5Error7provide17hf7c1023bf770e7ceE.llvm.5568910479768839234, location: /home/not-matthias/.rustup/toolchains/stable-x86_64-unknown-linux-gnu/lib/rustlib/src/rust/library/core/src/error.rs:204 },
    DebugInfo { addr: 7d530, size: 15, name: _ZN53_$LT$core..fmt..Error$u20$as$u20$core..fmt..Debug$GT$3fmt17h6736176c8e29474eE, location: /home/not-matthias/.rustup/toolchains/stable-x86_64-unknown-linux-gnu/lib/rustlib/src/rust/library/core/src/fmt/mod.rs:102 },
    DebugInfo { addr: 7d550, size: 123, name: _ZN58_$LT$alloc..string..String$u20$as$u20$core..fmt..Write$GT$10write_char17h13db4e3872bba170E, location: /home/not-matthias/.rustup/toolchains/stable-x86_64-unknown-linux-gnu/lib/rustlib/src/rust/library/alloc/src/string.rs:3202 },
    DebugInfo { addr: 7d680, size: 67, name: _ZN58_$LT$alloc..string..String$u20$as$u20$core..fmt..Write$GT$9write_str17h3471f8bf4fd2c6acE, location: /home/not-matthias/.rustup/toolchains/stable-x86_64-unknown-linux-gnu/lib/rustlib/src/rust/library/alloc/src/string.rs:3196 },
    DebugInfo { addr: 7d6f0, size: 43, name: _ZN68_$LT$core..num..error..ParseIntError$u20$as$u20$core..fmt..Debug$GT$3fmt17h9d974530281c97f3E.llvm.5568910479768839234, location: /home/not-matthias/.rustup/toolchains/stable-x86_64-unknown-linux-gnu/lib/rustlib/src/rust/library/core/src/num/error.rs:64 },
    DebugInfo { addr: 7d740, size: 1d, name: _ZN70_$LT$core..num..error..ParseIntError$u20$as$u20$core..error..Error$GT$11description17hf7118da03d3f31b7E.llvm.5568910479768839234, location: /home/not-matthias/.rustup/toolchains/stable-x86_64-unknown-linux-gnu/lib/rustlib/src/rust/library/core/src/num/error.rs:135 },
    DebugInfo { addr: 7d760, size: c2, name: _ZN81_$LT$std..io..default_write_fmt..Adapter$LT$T$GT$$u20$as$u20$core..fmt..Write$GT$9write_str17habcc706a62876493E, location: /home/not-matthias/.rustup/toolchains/stable-x86_64-unknown-linux-gnu/lib/rustlib/src/rust/library/std/src/io/mod.rs:627 },
    DebugInfo { addr: 7d830, size: 4c0, name: _ZN30codspeed_divan_compat_walltime5entry7generic9EntryType12display_name17hf3013e58662492a6E.llvm.5568910479768839234, location: /home/not-matthias/Documents/work/wgit/codspeed-rust/crates/divan_compat/divan_fork/src/entry/generic.rs:96 },
    DebugInfo { addr: 7dcf0, size: c6, name: _ZN106_$LT$core..iter..adapters..chain..Chain$LT$A$C$B$GT$$u20$as$u20$core..iter..traits..iterator..Iterator$GT$10advance_by17hfb8ea6cf8ba64a79E, location: /home/not-matthias/.rustup/toolchains/stable-x86_64-unknown-linux-gnu/lib/rustlib/src/rust/library/core/src/iter/adapters/chain.rs:132 },
    DebugInfo { addr: 7ddc0, size: 13d, name: _ZN106_$LT$core..iter..adapters..chain..Chain$LT$A$C$B$GT$$u20$as$u20$core..iter..traits..iterator..Iterator$GT$3nth17hd6d99c839084ec2dE, location: /home/not-matthias/.rustup/toolchains/stable-x86_64-unknown-linux-gnu/lib/rustlib/src/rust/library/core/src/iter/adapters/chain.rs:150 },
    DebugInfo { addr: 7df00, size: 6f, name: _ZN106_$LT$core..iter..adapters..chain..Chain$LT$A$C$B$GT$$u20$as$u20$core..iter..traits..iterator..Iterator$GT$4next17hbfd9e14937f690e4E, location: /home/not-matthias/.rustup/toolchains/stable-x86_64-unknown-linux-gnu/lib/rustlib/src/rust/library/core/src/iter/adapters/chain.rs:83 },
    DebugInfo { addr: 7df70, size: b0, name: _ZN106_$LT$core..iter..adapters..chain..Chain$LT$A$C$B$GT$$u20$as$u20$core..iter..traits..iterator..Iterator$GT$9size_hint17hfeb03f64d99bceeaE, location: /home/not-matthias/.rustup/toolchains/stable-x86_64-unknown-linux-gnu/lib/rustlib/src/rust/library/core/src/iter/adapters/chain.rs:184 },
    DebugInfo { addr: 7e020, size: 4f, name: _ZN3std4sync6poison4once4Once9call_once28_$u7b$$u7b$closure$u7d$$u7d$17hc2f407b5c6ed2f1bE.llvm.12847672943834922989, location: /home/not-matthias/.rustup/toolchains/stable-x86_64-unknown-linux-gnu/lib/rustlib/src/rust/library/std/src/sync/poison/once.rs:155 },
    DebugInfo { addr: 7e070, size: 134, name: _ZN4core3ops8function5FnMut8call_mut17h864ef6242fbbe8d7E.llvm.12847672943834922989, location: /home/not-matthias/.rustup/toolchains/stable-x86_64-unknown-linux-gnu/lib/rustlib/src/rust/library/core/src/ops/function.rs:166 },
    DebugInfo { addr: 7e1b0, size: 4f, name: _ZN4core3ops8function6FnOnce40call_once$u7b$$u7b$vtable.shim$u7d$$u7d$17h4f450ded1bd12d9aE.llvm.12847672943834922989, location: /home/not-matthias/.rustup/toolchains/stable-x86_64-unknown-linux-gnu/lib/rustlib/src/rust/library/core/src/ops/function.rs:250 },
    DebugInfo { addr: 7e200, size: ef, name: _ZN4core3ptr75drop_in_place$LT$codspeed_divan_compat_walltime..entry..tree..EntryTree$GT$17he7d908ec405a2ec5E, location: /home/not-matthias/.rustup/toolchains/stable-x86_64-unknown-linux-gnu/lib/rustlib/src/rust/library/core/src/ptr/mod.rs:524 },
    DebugInfo { addr: 7e2f0, size: c3, name: _ZN4core3ptr98drop_in_place$LT$alloc..vec..Vec$LT$codspeed_divan_compat_walltime..entry..tree..EntryTree$GT$$GT$17hfdc547ec3820dae5E, location: /home/not-matthias/.rustup/toolchains/stable-x86_64-unknown-linux-gnu/lib/rustlib/src/rust/library/core/src/ptr/mod.rs:524 },
    DebugInfo { addr: 7e3c0, size: 263, name: _ZN4core3str4iter22SplitInternal$LT$P$GT$4next17h006ffe24e71b0dedE.llvm.12847672943834922989, location: /home/not-matthias/.rustup/toolchains/stable-x86_64-unknown-linux-gnu/lib/rustlib/src/rust/library/core/src/str/iter.rs:660 },
    DebugInfo { addr: 7e630, size: 1eb, name: _ZN4core3str7pattern14TwoWaySearcher4next17haf80c2df0141fd9cE, location: /home/not-matthias/.rustup/toolchains/stable-x86_64-unknown-linux-gnu/lib/rustlib/src/rust/library/core/src/str/pattern.rs:1458 },
    DebugInfo { addr: 7e820, size: 2f, name: _ZN4core4iter6traits8iterator8Iterator10advance_by17h5f3e9176e5213c96E, location: /home/not-matthias/.rustup/toolchains/stable-x86_64-unknown-linux-gnu/lib/rustlib/src/rust/library/core/src/iter/traits/iterator.rs:296 },
    DebugInfo { addr: 7e850, size: 3c, name: _ZN4core4iter6traits8iterator8Iterator3nth17h1cc4d669d093731fE, location: /home/not-matthias/.rustup/toolchains/stable-x86_64-unknown-linux-gnu/lib/rustlib/src/rust/library/core/src/iter/traits/iterator.rs:347 },
    DebugInfo { addr: 7e890, size: a, name: _ZN4core4iter6traits8iterator8Iterator9size_hint17heaa2dbd210ef1e94E, location: /home/not-matthias/.rustup/toolchains/stable-x86_64-unknown-linux-gnu/lib/rustlib/src/rust/library/core/src/iter/traits/iterator.rs:186 },
    DebugInfo { addr: 7e8a0, size: 5, name: _ZN90_$LT$core..str..iter..Split$LT$P$GT$$u20$as$u20$core..iter..traits..iterator..Iterator$GT$4next17h1b6e96535a82d38fE, location: /home/not-matthias/.rustup/toolchains/stable-x86_64-unknown-linux-gnu/lib/rustlib/src/rust/library/core/src/str/iter.rs:515 },
    DebugInfo { addr: 7e8b0, size: 7c3, name: _ZN30codspeed_divan_compat_walltime5entry4tree9EntryTree12from_benches17h6b77e1c96bdf69c6E, location: /home/not-matthias/Documents/work/wgit/codspeed-rust/crates/divan_compat/divan_fork/src/entry/tree.rs:30 },
    DebugInfo { addr: 7f080, size: 281, name: _ZN30codspeed_divan_compat_walltime5entry4tree9EntryTree13max_name_span17h0639993ac7541c04E, location: /home/not-matthias/Documents/work/wgit/codspeed-rust/crates/divan_compat/divan_fork/src/entry/tree.rs:58 },
    DebugInfo { addr: 7f310, size: 188, name: _ZN30codspeed_divan_compat_walltime5entry4tree9EntryTree19common_column_width17h14b6d85cf5e8c1eaE, location: /home/not-matthias/Documents/work/wgit/codspeed-rust/crates/divan_compat/divan_fork/src/entry/tree.rs:94 },
    DebugInfo { addr: 7f4a0, size: 167, name: _ZN30codspeed_divan_compat_walltime5entry4tree9EntryTree12insert_group17h131290a1b7d6d9aeE, location: /home/not-matthias/Documents/work/wgit/codspeed-rust/crates/divan_compat/divan_fork/src/entry/tree.rs:128 },
    DebugInfo { addr: 7f610, size: 132, name: _ZN30codspeed_divan_compat_walltime5entry4tree9EntryTree12sort_by_attr17hd2aad0c5d67879d2E, location: /home/not-matthias/Documents/work/wgit/codspeed-rust/crates/divan_compat/divan_fork/src/entry/tree.rs:199 },
    DebugInfo { addr: 7f750, size: 6b1, name: _ZN30codspeed_divan_compat_walltime5entry4tree9EntryTree11cmp_by_attr17h4b72084ff34ea109E, location: /home/not-matthias/Documents/work/wgit/codspeed-rust/crates/divan_compat/divan_fork/src/entry/tree.rs:222 },
    DebugInfo { addr: 7fe10, size: 30b, name: _ZN30codspeed_divan_compat_walltime5entry4tree9EntryTree12insert_entry17he312fd278fa7ea11E, location: /home/not-matthias/Documents/work/wgit/codspeed-rust/crates/divan_compat/divan_fork/src/entry/tree.rs:266 },
    DebugInfo { addr: 80120, size: 24c, name: _ZN30codspeed_divan_compat_walltime5entry4tree9EntryTree9from_path17heea037c406c96d77E, location: /home/not-matthias/Documents/work/wgit/codspeed-rust/crates/divan_compat/divan_fork/src/entry/tree.rs:288 },
    DebugInfo { addr: 80370, size: b5, name: _ZN30codspeed_divan_compat_walltime5entry4tree9EntryTree12display_name17h2dc7770d9a56fddaE, location: /home/not-matthias/Documents/work/wgit/codspeed-rust/crates/divan_compat/divan_fork/src/entry/tree.rs:350 },
    DebugInfo { addr: 80430, size: 93, name: _ZN30codspeed_divan_compat_walltime5entry4tree9EntryTree8location17hb28022400644ad34E, location: /home/not-matthias/Documents/work/wgit/codspeed-rust/crates/divan_compat/divan_fork/src/entry/tree.rs:363 },
    DebugInfo { addr: 804d0, size: 28, name: _ZN107_$LT$codspeed_divan_compat_walltime..time..timestamp..tsc..TscUnavailable$u20$as$u20$core..fmt..Display$GT$3fmt17h3af0fba37e1363c6E, location: /home/not-matthias/Documents/work/wgit/codspeed-rust/crates/divan_compat/divan_fork/src/time/timestamp/tsc/mod.rs:98 },
    DebugInfo { addr: 80500, size: 15, name: _ZN42_$LT$$RF$T$u20$as$u20$core..fmt..Debug$GT$3fmt17hc4ca47ff9c3397ccE, location: /home/not-matthias/.rustup/toolchains/stable-x86_64-unknown-linux-gnu/lib/rustlib/src/rust/library/core/src/fmt/mod.rs:2636 },
    DebugInfo { addr: 80520, size: 2b, name: _ZN42_$LT$$RF$T$u20$as$u20$core..fmt..Debug$GT$3fmt17hd0a5762a0453fbe5E, location: /home/not-matthias/.rustup/toolchains/stable-x86_64-unknown-linux-gnu/lib/rustlib/src/rust/library/core/src/fmt/mod.rs:2636 },
    DebugInfo { addr: 80550, size: 13, name: _ZN44_$LT$$RF$T$u20$as$u20$core..fmt..Display$GT$3fmt17ha078289972e30ce7E, location: /home/not-matthias/.rustup/toolchains/stable-x86_64-unknown-linux-gnu/lib/rustlib/src/rust/library/core/src/fmt/mod.rs:2636 },
    DebugInfo { addr: 80570, size: 16, name: _ZN44_$LT$$RF$T$u20$as$u20$core..fmt..Display$GT$3fmt17hd6c843e9bf2fd8ffE, location: /home/not-matthias/.rustup/toolchains/stable-x86_64-unknown-linux-gnu/lib/rustlib/src/rust/library/core/src/fmt/mod.rs:2636 },
    DebugInfo { addr: 80590, size: 3, name: _ZN4core5error5Error5cause17h90cf732343a1eaecE, location: /home/not-matthias/.rustup/toolchains/stable-x86_64-unknown-linux-gnu/lib/rustlib/src/rust/library/core/src/error.rs:143 },
    DebugInfo { addr: 805a0, size: 3, name: _ZN4core5error5Error5cause17hfec468d8f4741559E, location: /home/not-matthias/.rustup/toolchains/stable-x86_64-unknown-linux-gnu/lib/rustlib/src/rust/library/core/src/error.rs:143 },
    DebugInfo { addr: 805b0, size: 15, name: _ZN4core5error5Error7type_id17h091f9d556f35c8daE, location: /home/not-matthias/.rustup/toolchains/stable-x86_64-unknown-linux-gnu/lib/rustlib/src/rust/library/core/src/error.rs:116 },
    DebugInfo { addr: 805d0, size: 15, name: _ZN4core5error5Error7type_id17hf2f50094232bfc73E, location: /home/not-matthias/.rustup/toolchains/stable-x86_64-unknown-linux-gnu/lib/rustlib/src/rust/library/core/src/error.rs:116 },
    DebugInfo { addr: 805f0, size: 1ef, name: _ZN4core5slice4sort6shared9smallsort12sort4_stable17h2e5bcf0eb9f4245aE, location: /home/not-matthias/.rustup/toolchains/stable-x86_64-unknown-linux-gnu/lib/rustlib/src/rust/library/core/src/slice/sort/shared/smallsort.rs:612 },
    DebugInfo { addr: 807e0, size: 17d, name: _ZN4core5slice4sort6shared9smallsort12sort4_stable17h50011437ff5714a2E, location: /home/not-matthias/.rustup/toolchains/stable-x86_64-unknown-linux-gnu/lib/rustlib/src/rust/library/core/src/slice/sort/shared/smallsort.rs:612 },
    DebugInfo { addr: 80960, size: 720, name: _ZN4core5slice4sort6shared9smallsort18small_sort_general17ha4ac5e66096479eaE, location: /home/not-matthias/.rustup/toolchains/stable-x86_64-unknown-linux-gnu/lib/rustlib/src/rust/library/core/src/slice/sort/shared/smallsort.rs:205 },
    DebugInfo { addr: 81080, size: e21, name: _ZN4core5slice4sort6shared9smallsort18small_sort_network17h5ea62bb0e316636dE, location: /home/not-matthias/.rustup/toolchains/stable-x86_64-unknown-linux-gnu/lib/rustlib/src/rust/library/core/src/slice/sort/shared/smallsort.rs:311 },
    DebugInfo { addr: 81eb0, size: 6ff, name: _ZN4core5slice4sort6shared9smallsort18small_sort_network17hba325c357800f1d6E, location: /home/not-matthias/.rustup/toolchains/stable-x86_64-unknown-linux-gnu/lib/rustlib/src/rust/library/core/src/slice/sort/shared/smallsort.rs:311 },
    DebugInfo { addr: 825b0, size: 6ff, name: _ZN4core5slice4sort6shared9smallsort18small_sort_network17hf2a31c3acb5aa92aE, location: /home/not-matthias/.rustup/toolchains/stable-x86_64-unknown-linux-gnu/lib/rustlib/src/rust/library/core/src/slice/sort/shared/smallsort.rs:311 },
    DebugInfo { addr: 82cb0, size: 188, name: _ZN4core5slice4sort6shared9smallsort19bidirectional_merge17h26375dd079038fb1E, location: /home/not-matthias/.rustup/toolchains/stable-x86_64-unknown-linux-gnu/lib/rustlib/src/rust/library/core/src/slice/sort/shared/smallsort.rs:760 },
    DebugInfo { addr: 82e40, size: 1c3, name: _ZN4core5slice4sort6shared9smallsort25insertion_sort_shift_left17h237d330d41f594b5E, location: /home/not-matthias/.rustup/toolchains/stable-x86_64-unknown-linux-gnu/lib/rustlib/src/rust/library/core/src/slice/sort/shared/smallsort.rs:580 },
    DebugInfo { addr: 83010, size: 116, name: _ZN4core5slice4sort6shared9smallsort25insertion_sort_shift_left17h2e99b11442ad9237E, location: /home/not-matthias/.rustup/toolchains/stable-x86_64-unknown-linux-gnu/lib/rustlib/src/rust/library/core/src/slice/sort/shared/smallsort.rs:580 },
    DebugInfo { addr: 83130, size: 7a, name: _ZN4core5slice4sort6shared9smallsort25insertion_sort_shift_left17h61113c5facbe4e01E, location: /home/not-matthias/.rustup/toolchains/stable-x86_64-unknown-linux-gnu/lib/rustlib/src/rust/library/core/src/slice/sort/shared/smallsort.rs:586 },
    DebugInfo { addr: 831b0, size: 331, name: _ZN4core5slice4sort6shared9smallsort31small_sort_general_with_scratch17hb101742de22455bcE, location: /home/not-matthias/.rustup/toolchains/stable-x86_64-unknown-linux-gnu/lib/rustlib/src/rust/library/core/src/slice/sort/shared/smallsort.rs:220 },
    DebugInfo { addr: 834f0, size: 2c, name: _ZN76_$LT$std..sync..poison..PoisonError$LT$T$GT$$u20$as$u20$core..fmt..Debug$GT$3fmt17h2b11ad618ed5c665E, location: /home/not-matthias/.rustup/toolchains/stable-x86_64-unknown-linux-gnu/lib/rustlib/src/rust/library/std/src/sync/poison.rs:251 },
    DebugInfo { addr: 834f0, size: 2c, name: _ZN76_$LT$std..sync..poison..PoisonError$LT$T$GT$$u20$as$u20$core..fmt..Debug$GT$3fmt17h7761a33ed6b270fdE, location: /home/not-matthias/.rustup/toolchains/stable-x86_64-unknown-linux-gnu/lib/rustlib/src/rust/library/std/src/sync/poison.rs:251 },
    DebugInfo { addr: 834f0, size: 2c, name: _ZN76_$LT$std..sync..poison..PoisonError$LT$T$GT$$u20$as$u20$core..fmt..Debug$GT$3fmt17ha99e4c601815a9f3E, location: /home/not-matthias/.rustup/toolchains/stable-x86_64-unknown-linux-gnu/lib/rustlib/src/rust/library/std/src/sync/poison.rs:251 },
    DebugInfo { addr: 83520, size: 113, name: _ZN12clap_builder7builder3arg3Arg12value_parser17ha6d2ff9b3332f677E, location: /home/not-matthias/.cargo/registry/src/index.crates.io-1949cf8c6b5b557f/clap_builder-4.5.17/src/builder/arg.rs:980 },
    DebugInfo { addr: 83640, size: ce, name: _ZN12clap_builder7builder3arg3Arg12value_parser17hbf89e4a9ce588d31E, location: /home/not-matthias/.cargo/registry/src/index.crates.io-1949cf8c6b5b557f/clap_builder-4.5.17/src/builder/arg.rs:980 },
    DebugInfo { addr: 83710, size: d2, name: _ZN12clap_builder7builder3arg3Arg12value_parser17hc220a2bec69173d1E, location: /home/not-matthias/.cargo/registry/src/index.crates.io-1949cf8c6b5b557f/clap_builder-4.5.17/src/builder/arg.rs:980 },
    DebugInfo { addr: 837f0, size: 113, name: _ZN12clap_builder7builder3arg3Arg12value_parser17hfd2273ddabd9d31cE, location: /home/not-matthias/.cargo/registry/src/index.crates.io-1949cf8c6b5b557f/clap_builder-4.5.17/src/builder/arg.rs:980 },
    DebugInfo { addr: 83910, size: 15, name: _ZN36_$LT$T$u20$as$u20$core..any..Any$GT$7type_id17h44d50dc87b4d75f0E, location: /home/not-matthias/.rustup/toolchains/stable-x86_64-unknown-linux-gnu/lib/rustlib/src/rust/library/core/src/any.rs:139 },
    DebugInfo { addr: 83930, size: 15, name: _ZN36_$LT$T$u20$as$u20$core..any..Any$GT$7type_id17hb9a50b78a972846fE, location: /home/not-matthias/.rustup/toolchains/stable-x86_64-unknown-linux-gnu/lib/rustlib/src/rust/library/core/src/any.rs:139 },
    DebugInfo { addr: 83950, size: 15, name: _ZN36_$LT$T$u20$as$u20$core..any..Any$GT$7type_id17hc77910becb0921bfE, location: /home/not-matthias/.rustup/toolchains/stable-x86_64-unknown-linux-gnu/lib/rustlib/src/rust/library/core/src/any.rs:139 },
    DebugInfo { addr: 83970, size: d2, name: _ZN4core3num62_$LT$impl$u20$core..str..traits..FromStr$u20$for$u20$usize$GT$8from_str17h0dda7ca11035f384E, location: /home/not-matthias/.rustup/toolchains/stable-x86_64-unknown-linux-gnu/lib/rustlib/src/rust/library/core/src/num/mod.rs:1528 },
    DebugInfo { addr: 83a50, size: 8, name: _ZN4core3ops8function2Fn4call17hc67aa3ebb6960024E, location: /home/not-matthias/.rustup/toolchains/stable-x86_64-unknown-linux-gnu/lib/rustlib/src/rust/library/core/src/ops/function.rs:79 },
    DebugInfo { addr: 83a60, size: c4, name: _ZN4core3ops8function5impls79_$LT$impl$u20$core..ops..function..FnMut$LT$A$GT$$u20$for$u20$$RF$mut$u20$F$GT$8call_mut17h0fa24fcb5185d20eE, location: /home/not-matthias/.rustup/toolchains/stable-x86_64-unknown-linux-gnu/lib/rustlib/src/rust/library/core/src/ops/function.rs:293 },
    DebugInfo { addr: 83b30, size: 5f, name: _ZN4core3ptr100drop_in_place$LT$alloc..boxed..Box$LT$clap_builder..parser..matches..arg_matches..SubCommand$GT$$GT$17hf6b9ea87d0be32a7E, location: /home/not-matthias/.rustup/toolchains/stable-x86_64-unknown-linux-gnu/lib/rustlib/src/rust/library/core/src/ptr/mod.rs:524 },
    DebugInfo { addr: 83b90, size: 37, name: _ZN4core3ptr105drop_in_place$LT$core..cell..RefCell$LT$codspeed_divan_compat_walltime..tree_painter..TreePainter$GT$$GT$17h3d2edbecb9ddd8eaE, location: /home/not-matthias/.rustup/toolchains/stable-x86_64-unknown-linux-gnu/lib/rustlib/src/rust/library/core/src/ptr/mod.rs:524 },
    DebugInfo { addr: 83bd0, size: fd, name: _ZN4core3ptr47drop_in_place$LT$clap_builder..error..Error$GT$17h93766796f6d582baE.llvm.7273371273850678743, location: /home/not-matthias/.rustup/toolchains/stable-x86_64-unknown-linux-gnu/lib/rustlib/src/rust/library/core/src/ptr/mod.rs:524 },
    DebugInfo { addr: 83cd0, size: 632, name: _ZN4core3ptr52drop_in_place$LT$clap_builder..builder..arg..Arg$GT$17haa45778277852ae3E, location: /home/not-matthias/.rustup/toolchains/stable-x86_64-unknown-linux-gnu/lib/rustlib/src/rust/library/core/src/ptr/mod.rs:524 },
    DebugInfo { addr: 84310, size: 120, name: _ZN4core3ptr59drop_in_place$LT$clap_builder..builder..ext..Extensions$GT$17h5ff9001bb2c6cc23E, location: /home/not-matthias/.rustup/toolchains/stable-x86_64-unknown-linux-gnu/lib/rustlib/src/rust/library/core/src/ptr/mod.rs:524 },
    DebugInfo { addr: 84430, size: 4fa, name: _ZN4core3ptr60drop_in_place$LT$clap_builder..builder..command..Command$GT$17he95b42ae013968b2E, location: /home/not-matthias/.rustup/toolchains/stable-x86_64-unknown-linux-gnu/lib/rustlib/src/rust/library/core/src/ptr/mod.rs:524 },
    DebugInfo { addr: 84930, size: 103, name: _ZN4core3ptr65drop_in_place$LT$codspeed_divan_compat_walltime..divan..Divan$GT$17hd7413d4e90c5b866E, location: /home/not-matthias/.rustup/toolchains/stable-x86_64-unknown-linux-gnu/lib/rustlib/src/rust/library/core/src/ptr/mod.rs:524 },
    DebugInfo { addr: 84a40, size: 238, name: _ZN4core3ptr72drop_in_place$LT$codspeed_divan_compat_walltime..bench..BenchContext$GT$17hf2366536cfc8c129E, location: /home/not-matthias/.rustup/toolchains/stable-x86_64-unknown-linux-gnu/lib/rustlib/src/rust/library/core/src/ptr/mod.rs:524 },
    DebugInfo { addr: 84c80, size: 149, name: _ZN4core3ptr75drop_in_place$LT$clap_builder..parser..matches..arg_matches..ArgMatches$GT$17hade5e23d6db11731E, location: /home/not-matthias/.rustup/toolchains/stable-x86_64-unknown-linux-gnu/lib/rustlib/src/rust/library/core/src/ptr/mod.rs:524 },
    DebugInfo { addr: 84dd0, size: 2d, name: _ZN4core3ptr81drop_in_place$LT$codspeed_divan_compat_walltime..bench..options..BenchOptions$GT$17hd3160fc517ac57ecE, location: /home/not-matthias/.rustup/toolchains/stable-x86_64-unknown-linux-gnu/lib/rustlib/src/rust/library/core/src/ptr/mod.rs:524 },
    DebugInfo { addr: 84e00, size: c5, name: _ZN4core3ptr83drop_in_place$LT$alloc..vec..Vec$LT$clap_builder..builder..command..Command$GT$$GT$17h7bc29f27f9eec6c1E, location: /home/not-matthias/.rustup/toolchains/stable-x86_64-unknown-linux-gnu/lib/rustlib/src/rust/library/core/src/ptr/mod.rs:524 },
    DebugInfo { addr: 84ed0, size: bc, name: _ZN4core3ptr86drop_in_place$LT$alloc..vec..Vec$LT$clap_builder..builder..arg_group..ArgGroup$GT$$GT$17h053ebd16ecbac143E, location: /home/not-matthias/.rustup/toolchains/stable-x86_64-unknown-linux-gnu/lib/rustlib/src/rust/library/core/src/ptr/mod.rs:524 },
    DebugInfo { addr: 84f90, size: 5c, name: _ZN4core3ptr90drop_in_place$LT$alloc..vec..Vec$LT$codspeed_divan_compat_walltime..config..Filter$GT$$GT$17haaf309f11de5cd1eE, location: /home/not-matthias/.rustup/toolchains/stable-x86_64-unknown-linux-gnu/lib/rustlib/src/rust/library/core/src/ptr/mod.rs:524 },
    DebugInfo { addr: 84ff0, size: 7f, name: _ZN4core3ptr90drop_in_place$LT$codspeed_divan_compat_walltime..counter..collection..KnownCounterInfo$GT$17hffffd24cc6ca159cE, location: /home/not-matthias/.rustup/toolchains/stable-x86_64-unknown-linux-gnu/lib/rustlib/src/rust/library/core/src/ptr/mod.rs:524 },
    DebugInfo { addr: 85070, size: 6a, name: _ZN4core3ptr97drop_in_place$LT$core..option..Option$LT$clap_builder..builder..value_parser..ValueParser$GT$$GT$17ha77b5ad38a135002E, location: /home/not-matthias/.rustup/toolchains/stable-x86_64-unknown-linux-gnu/lib/rustlib/src/rust/library/core/src/ptr/mod.rs:524 },
    DebugInfo { addr: 850e0, size: c3, name: _ZN4core3ptr98drop_in_place$LT$alloc..vec..Vec$LT$codspeed_divan_compat_walltime..entry..tree..EntryTree$GT$$GT$17hfdc547ec3820dae5E, location: /home/not-matthias/.rustup/toolchains/stable-x86_64-unknown-linux-gnu/lib/rustlib/src/rust/library/core/src/ptr/mod.rs:524 },
    DebugInfo { addr: 851b0, size: 13, name: _ZN75_$LT$core..num..nonzero..NonZero$LT$T$GT$$u20$as$u20$core..fmt..Display$GT$3fmt17h7325606e80fa23b1E, location: /home/not-matthias/.rustup/toolchains/stable-x86_64-unknown-linux-gnu/lib/rustlib/src/rust/library/core/src/num/nonzero.rs:128 },
    DebugInfo { addr: 851d0, size: 236, name: _ZN30codspeed_divan_compat_walltime5bench7options12BenchOptions9overwrite17hf212e91736326edcE, location: /home/not-matthias/Documents/work/wgit/codspeed-rust/crates/divan_compat/divan_fork/src/bench/options.rs:51 },
    DebugInfo { addr: 85410, size: 65c6, name: _ZN30codspeed_divan_compat_walltime3cli7command17h0e56279f251d0668E, location: /home/not-matthias/Documents/work/wgit/codspeed-rust/crates/divan_compat/divan_fork/src/cli.rs:9 },
    DebugInfo { addr: 8b9e0, size: 4e6, name: _ZN30codspeed_divan_compat_walltime5divan5Divan10run_action17h8cd71fbdfcc1d0e5E, location: /home/not-matthias/Documents/work/wgit/codspeed-rust/crates/divan_compat/divan_fork/src/divan.rs:98 },
    DebugInfo { addr: 8bed0, size: b3f, name: _ZN30codspeed_divan_compat_walltime5divan5Divan8run_tree17h96dc169ffdef877cE, location: /home/not-matthias/Documents/work/wgit/codspeed-rust/crates/divan_compat/divan_fork/src/divan.rs:176 },
    DebugInfo { addr: 8ca10, size: 5b1, name: _ZN30codspeed_divan_compat_walltime5divan5Divan15run_bench_entry28_$u7b$$u7b$closure$u7d$$u7d$17h5dfe669715cf2baaE, location: /home/not-matthias/Documents/work/wgit/codspeed-rust/crates/divan_compat/divan_fork/src/divan.rs:280 },
    DebugInfo { addr: 8cfd0, size: 19, name: _ZN30codspeed_divan_compat_walltime5divan5Divan15run_bench_entry28_$u7b$$u7b$closure$u7d$$u7d$17h76451f8c713b5e2aE, location: /home/not-matthias/Documents/work/wgit/codspeed-rust/crates/divan_compat/divan_fork/src/divan.rs:347 },
    DebugInfo { addr: 8cff0, size: e02, name: _ZN30codspeed_divan_compat_walltime5divan5Divan16config_with_args17h820b01bffc705450E, location: /home/not-matthias/Documents/work/wgit/codspeed-rust/crates/divan_compat/divan_fork/src/divan.rs:496 },
    DebugInfo { addr: 8de00, size: 117, name: _ZN30codspeed_divan_compat_walltime4main17hdb6160d7ee780833E, location: /home/not-matthias/Documents/work/wgit/codspeed-rust/crates/divan_compat/divan_fork/src/lib.rs:148 },
    DebugInfo { addr: 8df20, size: 18, name: _ZN4core3ptr42drop_in_place$LT$alloc..string..String$GT$17hc9b2847e0c20520cE, location: /home/not-matthias/.rustup/toolchains/stable-x86_64-unknown-linux-gnu/lib/rustlib/src/rust/library/alloc/src/raw_vec/mod.rs:406 },
    DebugInfo { addr: 8df40, size: a7, name: _ZN4core3ptr42drop_in_place$LT$std..io..error..Error$GT$17hc044a258f1880348E, location: /home/not-matthias/.rustup/toolchains/stable-x86_64-unknown-linux-gnu/lib/rustlib/src/rust/library/core/src/ptr/mod.rs:524 },
    DebugInfo { addr: 8dff0, size: 70, name: _ZN4core3ptr45drop_in_place$LT$serde_json..error..Error$GT$17h0cbcbe08241f1b47E, location: /home/not-matthias/.rustup/toolchains/stable-x86_64-unknown-linux-gnu/lib/rustlib/src/rust/library/core/src/ptr/mod.rs:524 },
    DebugInfo { addr: 8e060, size: 37, name: _ZN4core3ptr66drop_in_place$LT$codspeed..walltime_results..WalltimeBenchmark$GT$17h915d398e34f7cdc0E, location: /home/not-matthias/.rustup/toolchains/stable-x86_64-unknown-linux-gnu/lib/rustlib/src/rust/library/core/src/ptr/mod.rs:524 },
    DebugInfo { addr: 8e0a0, size: 15, name: _ZN53_$LT$core..fmt..Error$u20$as$u20$core..fmt..Debug$GT$3fmt17h6736176c8e29474eE, location: /home/not-matthias/.rustup/toolchains/stable-x86_64-unknown-linux-gnu/lib/rustlib/src/rust/library/core/src/fmt/mod.rs:102 },
    DebugInfo { addr: 8e0c0, size: 123, name: _ZN58_$LT$alloc..string..String$u20$as$u20$core..fmt..Write$GT$10write_char17h13db4e3872bba170E, location: /home/not-matthias/.rustup/toolchains/stable-x86_64-unknown-linux-gnu/lib/rustlib/src/rust/library/alloc/src/string.rs:3202 },
    DebugInfo { addr: 8e1f0, size: 67, name: _ZN58_$LT$alloc..string..String$u20$as$u20$core..fmt..Write$GT$9write_str17h3471f8bf4fd2c6acE, location: /home/not-matthias/.rustup/toolchains/stable-x86_64-unknown-linux-gnu/lib/rustlib/src/rust/library/alloc/src/string.rs:3196 },
    DebugInfo { addr: 8e260, size: 14, name: _ZN60_$LT$alloc..string..String$u20$as$u20$core..fmt..Display$GT$3fmt17h253a895d4ea9e2d1E, location: /home/not-matthias/.rustup/toolchains/stable-x86_64-unknown-linux-gnu/lib/rustlib/src/rust/library/alloc/src/string.rs:2595 },
    DebugInfo { addr: 8e280, size: a3, name: _ZN86_$LT$serde_json..ser..Compound$LT$W$C$F$GT$$u20$as$u20$serde..ser..SerializeStruct$GT$3end17h53833ff4e8826a13E.llvm.18226004862069263307, location: /home/not-matthias/.cargo/registry/src/index.crates.io-1949cf8c6b5b557f/serde_json-1.0.138/src/ser.rs:716 },
    DebugInfo { addr: 8e330, size: 956, name: _ZN8codspeed16walltime_results17WalltimeBenchmark28collect_raw_walltime_results17hc4f2b279051add5eE, location: /home/not-matthias/Documents/work/wgit/codspeed-rust/crates/codspeed/src/walltime_results.rs:83 },
    DebugInfo { addr: 8ec90, size: b73, name: _ZN8codspeed16walltime_results17WalltimeBenchmark17from_runtime_data17hde3a58778ce41a1fE, location: /home/not-matthias/Documents/work/wgit/codspeed-rust/crates/codspeed/src/walltime_results.rs:109 },
    DebugInfo { addr: 8f810, size: 14c, name: _ZN8codspeed16walltime_results30result_dir_from_workspace_root17h06eadc746e53dc49E, location: /home/not-matthias/Documents/work/wgit/codspeed-rust/crates/codspeed/src/walltime_results.rs:274 },
    DebugInfo { addr: 8f960, size: 223, name: _ZN8codspeed16walltime_results1_94_$LT$impl$u20$serde..ser..Serialize$u20$for$u20$codspeed..walltime_results..BenchmarkStats$GT$9serialize17h2e98d7fde2c4dd0cE, location: /home/not-matthias/Documents/work/wgit/codspeed-rust/crates/codspeed/src/walltime_results.rs:19 },
    DebugInfo { addr: 8fb90, size: e8, name: _ZN8codspeed16walltime_results1_95_$LT$impl$u20$serde..ser..Serialize$u20$for$u20$codspeed..walltime_results..BenchmarkConfig$GT$9serialize17h4b23ac74437663bdE, location: /home/not-matthias/Documents/work/wgit/codspeed-rust/crates/codspeed/src/walltime_results.rs:38 },
    DebugInfo { addr: 8fc80, size: a7, name: _ZN4core3ptr42drop_in_place$LT$std..io..error..Error$GT$17hc044a258f1880348E, location: /home/not-matthias/.rustup/toolchains/stable-x86_64-unknown-linux-gnu/lib/rustlib/src/rust/library/core/src/ptr/mod.rs:524 },
    DebugInfo { addr: 8fd30, size: 8c, name: _ZN4core3ptr71drop_in_place$LT$alloc..boxed..Box$LT$bincode..error..ErrorKind$GT$$GT$17hdf28aafd929c09a4E, location: /home/not-matthias/.rustup/toolchains/stable-x86_64-unknown-linux-gnu/lib/rustlib/src/rust/library/core/src/ptr/mod.rs:524 },
    DebugInfo { addr: 8fdc0, size: e, name: _ZN4core5error5Error5cause17h2c333daa864e9116E, location: /home/not-matthias/.rustup/toolchains/stable-x86_64-unknown-linux-gnu/lib/rustlib/src/rust/library/core/src/error.rs:141 },
    DebugInfo { addr: 8fdc0, size: e, name: _ZN4core5error5Error5cause17h3814a990149d8b5cE, location: /home/not-matthias/.rustup/toolchains/stable-x86_64-unknown-linux-gnu/lib/rustlib/src/rust/library/core/src/error.rs:141 },
    DebugInfo { addr: 8fdc0, size: e, name: _ZN4core5error5Error5cause17h5a4c565d27b82342E, location: /home/not-matthias/.rustup/toolchains/stable-x86_64-unknown-linux-gnu/lib/rustlib/src/rust/library/core/src/error.rs:141 },
    DebugInfo { addr: 8fdc0, size: e, name: _ZN4core5error5Error5cause17h5a68961ffc94a7c8E, location: /home/not-matthias/.rustup/toolchains/stable-x86_64-unknown-linux-gnu/lib/rustlib/src/rust/library/core/src/error.rs:141 },
    DebugInfo { addr: 8fdc0, size: e, name: _ZN4core5error5Error5cause17h71825a550f4f47cbE, location: /home/not-matthias/.rustup/toolchains/stable-x86_64-unknown-linux-gnu/lib/rustlib/src/rust/library/core/src/error.rs:141 },
    DebugInfo { addr: 8fdc0, size: e, name: _ZN4core5error5Error5cause17hace3dd010f6599e5E, location: /home/not-matthias/.rustup/toolchains/stable-x86_64-unknown-linux-gnu/lib/rustlib/src/rust/library/core/src/error.rs:141 },
    DebugInfo { addr: 8fdc0, size: e, name: _ZN4core5error5Error5cause17hc80e5b8afb776b3aE, location: /home/not-matthias/.rustup/toolchains/stable-x86_64-unknown-linux-gnu/lib/rustlib/src/rust/library/core/src/error.rs:141 },
    DebugInfo { addr: 8fdd0, size: 15, name: _ZN4core5error5Error7type_id17h03009e483f60851fE, location: /home/not-matthias/.rustup/toolchains/stable-x86_64-unknown-linux-gnu/lib/rustlib/src/rust/library/core/src/error.rs:116 },
    DebugInfo { addr: 8fdf0, size: 15, name: _ZN4core5error5Error7type_id17h64394d5da42291e2E, location: /home/not-matthias/.rustup/toolchains/stable-x86_64-unknown-linux-gnu/lib/rustlib/src/rust/library/core/src/error.rs:116 },
    DebugInfo { addr: 8fe10, size: 15, name: _ZN4core5error5Error7type_id17h954041921dab2484E, location: /home/not-matthias/.rustup/toolchains/stable-x86_64-unknown-linux-gnu/lib/rustlib/src/rust/library/core/src/error.rs:116 },
    DebugInfo { addr: 8fe30, size: 7e, name: _ZN6anyhow5error11object_drop17h3834b488f9aaa93bE, location: /home/not-matthias/.cargo/registry/src/index.crates.io-1949cf8c6b5b557f/anyhow-1.0.97/src/error.rs:690 },
    DebugInfo { addr: 8feb0, size: 6b, name: _ZN6anyhow5error11object_drop17h45464fa2bda18614E, location: /home/not-matthias/.cargo/registry/src/index.crates.io-1949cf8c6b5b557f/anyhow-1.0.97/src/error.rs:690 },
    DebugInfo { addr: 8ff20, size: db, name: _ZN6anyhow5error11object_drop17h5217222965c1b700E, location: /home/not-matthias/.cargo/registry/src/index.crates.io-1949cf8c6b5b557f/anyhow-1.0.97/src/error.rs:690 },
    DebugInfo { addr: 90000, size: 28, name: _ZN6anyhow5error15object_downcast17h358380651c152522E, location: /home/not-matthias/.cargo/registry/src/index.crates.io-1949cf8c6b5b557f/anyhow-1.0.97/src/error.rs:748 },
    DebugInfo { addr: 90030, size: 28, name: _ZN6anyhow5error15object_downcast17h88270d71a1c14606E, location: /home/not-matthias/.cargo/registry/src/index.crates.io-1949cf8c6b5b557f/anyhow-1.0.97/src/error.rs:748 },
    DebugInfo { addr: 90060, size: 28, name: _ZN6anyhow5error15object_downcast17hd1938bc02f19631bE, location: /home/not-matthias/.cargo/registry/src/index.crates.io-1949cf8c6b5b557f/anyhow-1.0.97/src/error.rs:748 },
    DebugInfo { addr: 90090, size: 4e, name: _ZN6anyhow5error17object_drop_front17h0997e63597097cedE, location: /home/not-matthias/.cargo/registry/src/index.crates.io-1949cf8c6b5b557f/anyhow-1.0.97/src/error.rs:698 },
    DebugInfo { addr: 90090, size: 4e, name: _ZN6anyhow5error17object_drop_front17h95d3e5dff06143f0E, location: /home/not-matthias/.cargo/registry/src/index.crates.io-1949cf8c6b5b557f/anyhow-1.0.97/src/error.rs:698 },
    DebugInfo { addr: 900e0, size: 4e, name: _ZN6anyhow5error17object_drop_front17h1bb9fd0248f72456E, location: /home/not-matthias/.cargo/registry/src/index.crates.io-1949cf8c6b5b557f/anyhow-1.0.97/src/error.rs:698 },
    DebugInfo { addr: 900e0, size: 4e, name: _ZN6anyhow5error17object_drop_front17h7979b1927e5665f9E, location: /home/not-matthias/.cargo/registry/src/index.crates.io-1949cf8c6b5b557f/anyhow-1.0.97/src/error.rs:698 },
    DebugInfo { addr: 90130, size: 6, name: _ZN70_$LT$anyhow..error..ErrorImpl$LT$E$GT$$u20$as$u20$core..fmt..Debug$GT$3fmt17h20477cf45d0e4443E, location: /home/not-matthias/.cargo/registry/src/index.crates.io-1949cf8c6b5b557f/anyhow-1.0.97/src/error.rs:1038 },
    DebugInfo { addr: 90130, size: 6, name: _ZN70_$LT$anyhow..error..ErrorImpl$LT$E$GT$$u20$as$u20$core..fmt..Debug$GT$3fmt17h211ad49832ffddb0E, location: /home/not-matthias/.cargo/registry/src/index.crates.io-1949cf8c6b5b557f/anyhow-1.0.97/src/error.rs:1038 },
    DebugInfo { addr: 90130, size: 6, name: _ZN70_$LT$anyhow..error..ErrorImpl$LT$E$GT$$u20$as$u20$core..fmt..Debug$GT$3fmt17h239b7e237497186cE, location: /home/not-matthias/.cargo/registry/src/index.crates.io-1949cf8c6b5b557f/anyhow-1.0.97/src/error.rs:1038 },
    DebugInfo { addr: 90130, size: 6, name: _ZN70_$LT$anyhow..error..ErrorImpl$LT$E$GT$$u20$as$u20$core..fmt..Debug$GT$3fmt17h670f0a32e46aa9ecE, location: /home/not-matthias/.cargo/registry/src/index.crates.io-1949cf8c6b5b557f/anyhow-1.0.97/src/error.rs:1038 },
    DebugInfo { addr: 90130, size: 6, name: _ZN70_$LT$anyhow..error..ErrorImpl$LT$E$GT$$u20$as$u20$core..fmt..Debug$GT$3fmt17h80496b66bb8479d4E, location: /home/not-matthias/.cargo/registry/src/index.crates.io-1949cf8c6b5b557f/anyhow-1.0.97/src/error.rs:1038 },
    DebugInfo { addr: 90130, size: 6, name: _ZN70_$LT$anyhow..error..ErrorImpl$LT$E$GT$$u20$as$u20$core..fmt..Debug$GT$3fmt17h85dce41d00a98ad6E, location: /home/not-matthias/.cargo/registry/src/index.crates.io-1949cf8c6b5b557f/anyhow-1.0.97/src/error.rs:1038 },
    DebugInfo { addr: 90130, size: 6, name: _ZN70_$LT$anyhow..error..ErrorImpl$LT$E$GT$$u20$as$u20$core..fmt..Debug$GT$3fmt17hd897ff0004d74269E, location: /home/not-matthias/.cargo/registry/src/index.crates.io-1949cf8c6b5b557f/anyhow-1.0.97/src/error.rs:1038 },
    DebugInfo { addr: 90140, size: e, name: _ZN72_$LT$anyhow..error..ErrorImpl$LT$E$GT$$u20$as$u20$core..error..Error$GT$6source17h0b459c03e4760df0E, location: /home/not-matthias/.cargo/registry/src/index.crates.io-1949cf8c6b5b557f/anyhow-1.0.97/src/error.rs:1023 },
    DebugInfo { addr: 90140, size: e, name: _ZN72_$LT$anyhow..error..ErrorImpl$LT$E$GT$$u20$as$u20$core..error..Error$GT$6source17h2963fab924fd6934E, location: /home/not-matthias/.cargo/registry/src/index.crates.io-1949cf8c6b5b557f/anyhow-1.0.97/src/error.rs:1023 },
    DebugInfo { addr: 90140, size: e, name: _ZN72_$LT$anyhow..error..ErrorImpl$LT$E$GT$$u20$as$u20$core..error..Error$GT$6source17h3aa7e9ad42a41dcdE, location: /home/not-matthias/.cargo/registry/src/index.crates.io-1949cf8c6b5b557f/anyhow-1.0.97/src/error.rs:1023 },
    DebugInfo { addr: 90140, size: e, name: _ZN72_$LT$anyhow..error..ErrorImpl$LT$E$GT$$u20$as$u20$core..error..Error$GT$6source17h44a5701572c33e68E, location: /home/not-matthias/.cargo/registry/src/index.crates.io-1949cf8c6b5b557f/anyhow-1.0.97/src/error.rs:1023 },
    DebugInfo { addr: 90140, size: e, name: _ZN72_$LT$anyhow..error..ErrorImpl$LT$E$GT$$u20$as$u20$core..error..Error$GT$6source17h9806e29cffbcd577E, location: /home/not-matthias/.cargo/registry/src/index.crates.io-1949cf8c6b5b557f/anyhow-1.0.97/src/error.rs:1023 },
    DebugInfo { addr: 90140, size: e, name: _ZN72_$LT$anyhow..error..ErrorImpl$LT$E$GT$$u20$as$u20$core..error..Error$GT$6source17ha887fc5762fe1686E, location: /home/not-matthias/.cargo/registry/src/index.crates.io-1949cf8c6b5b557f/anyhow-1.0.97/src/error.rs:1023 },
    DebugInfo { addr: 90140, size: e, name: _ZN72_$LT$anyhow..error..ErrorImpl$LT$E$GT$$u20$as$u20$core..error..Error$GT$6source17hab7b23bdbaa8ef0eE, location: /home/not-matthias/.cargo/registry/src/index.crates.io-1949cf8c6b5b557f/anyhow-1.0.97/src/error.rs:1023 },
    DebugInfo { addr: 90150, size: 17, name: _ZN72_$LT$anyhow..error..ErrorImpl$LT$E$GT$$u20$as$u20$core..fmt..Display$GT$3fmt17h0631b108c61f916cE, location: /home/not-matthias/.cargo/registry/src/index.crates.io-1949cf8c6b5b557f/anyhow-1.0.97/src/error.rs:1046 },
    DebugInfo { addr: 90150, size: 17, name: _ZN72_$LT$anyhow..error..ErrorImpl$LT$E$GT$$u20$as$u20$core..fmt..Display$GT$3fmt17h1aa09593f035c965E, location: /home/not-matthias/.cargo/registry/src/index.crates.io-1949cf8c6b5b557f/anyhow-1.0.97/src/error.rs:1046 },
    DebugInfo { addr: 90150, size: 17, name: _ZN72_$LT$anyhow..error..ErrorImpl$LT$E$GT$$u20$as$u20$core..fmt..Display$GT$3fmt17h2599e8ceda901fdcE, location: /home/not-matthias/.cargo/registry/src/index.crates.io-1949cf8c6b5b557f/anyhow-1.0.97/src/error.rs:1046 },
    DebugInfo { addr: 90150, size: 17, name: _ZN72_$LT$anyhow..error..ErrorImpl$LT$E$GT$$u20$as$u20$core..fmt..Display$GT$3fmt17h9b3d51cb871cec2aE, location: /home/not-matthias/.cargo/registry/src/index.crates.io-1949cf8c6b5b557f/anyhow-1.0.97/src/error.rs:1046 },
    DebugInfo { addr: 90150, size: 17, name: _ZN72_$LT$anyhow..error..ErrorImpl$LT$E$GT$$u20$as$u20$core..fmt..Display$GT$3fmt17haae46a7a9034566eE, location: /home/not-matthias/.cargo/registry/src/index.crates.io-1949cf8c6b5b557f/anyhow-1.0.97/src/error.rs:1046 },
    DebugInfo { addr: 90150, size: 17, name: _ZN72_$LT$anyhow..error..ErrorImpl$LT$E$GT$$u20$as$u20$core..fmt..Display$GT$3fmt17hc868fb5709b068faE, location: /home/not-matthias/.cargo/registry/src/index.crates.io-1949cf8c6b5b557f/anyhow-1.0.97/src/error.rs:1046 },
    DebugInfo { addr: 90150, size: 17, name: _ZN72_$LT$anyhow..error..ErrorImpl$LT$E$GT$$u20$as$u20$core..fmt..Display$GT$3fmt17hfa13f8b37f85b814E, location: /home/not-matthias/.cargo/registry/src/index.crates.io-1949cf8c6b5b557f/anyhow-1.0.97/src/error.rs:1046 },
    DebugInfo { addr: 90170, size: 1e0, name: _ZN3std2io5Write9write_all17h46949525ce679472E, location: /home/not-matthias/.rustup/toolchains/stable-x86_64-unknown-linux-gnu/lib/rustlib/src/rust/library/std/src/io/mod.rs:1795 },
    DebugInfo { addr: 90350, size: 6, name: _ZN4core3ptr34drop_in_place$LT$anyhow..Error$GT$17h95a1ca91eab96928E, location: /home/not-matthias/.rustup/toolchains/stable-x86_64-unknown-linux-gnu/lib/rustlib/src/rust/library/core/src/ptr/mod.rs:524 },
    DebugInfo { addr: 90360, size: a4, name: _ZN4core3ptr42drop_in_place$LT$std..io..error..Error$GT$17hc044a258f1880348E, location: /home/not-matthias/.rustup/toolchains/stable-x86_64-unknown-linux-gnu/lib/rustlib/src/rust/library/core/src/ptr/mod.rs:524 },
    DebugInfo { addr: 90410, size: 3a, name: _ZN4core3ptr44drop_in_place$LT$codspeed..fifo..FifoIpc$GT$17hd88b899dd7e851bfE, location: /home/not-matthias/.rustup/toolchains/stable-x86_64-unknown-linux-gnu/lib/rustlib/src/rust/library/core/src/ptr/mod.rs:524 },
    DebugInfo { addr: 90450, size: 7d, name: _ZN4core3ptr46drop_in_place$LT$codspeed..shared..Command$GT$17h0478d79fd601c884E, location: /home/not-matthias/.rustup/toolchains/stable-x86_64-unknown-linux-gnu/lib/rustlib/src/rust/library/core/src/ptr/mod.rs:524 },
    DebugInfo { addr: 904d0, size: 9e, name: _ZN4core3ptr47drop_in_place$LT$codspeed..fifo..BenchGuard$GT$17h288c0dd7b995201bE, location: /home/not-matthias/.rustup/toolchains/stable-x86_64-unknown-linux-gnu/lib/rustlib/src/rust/library/core/src/ptr/mod.rs:524 },
    DebugInfo { addr: 90570, size: 530, name: _ZN8codspeed4fifo10BenchGuard3new17h6a9ae86096997950E, location: /home/not-matthias/Documents/work/wgit/codspeed-rust/crates/codspeed/src/fifo.rs:17 },
    DebugInfo { addr: 90aa0, size: 28, name: _ZN8codspeed4fifo10BenchGuard20new_with_runner_fifo17hc1c7dedda0a92e4fE, location: /home/not-matthias/Documents/work/wgit/codspeed-rust/crates/codspeed/src/fifo.rs:32 },
    DebugInfo { addr: 90ad0, size: 141, name: _ZN68_$LT$codspeed..fifo..BenchGuard$u20$as$u20$core..ops..drop..Drop$GT$4drop17h847fd0228ba90fe7E, location: /home/not-matthias/Documents/work/wgit/codspeed-rust/crates/codspeed/src/fifo.rs:45 },
    DebugInfo { addr: 90c20, size: 3aa, name: _ZN8codspeed4fifo8send_cmd17hb06761a9b7e19211E, location: /home/not-matthias/Documents/work/wgit/codspeed-rust/crates/codspeed/src/fifo.rs:51 },
    DebugInfo { addr: 90fd0, size: 1ef, name: _ZN8codspeed4fifo7FifoIpc7connect17h4e8d0eb4b295680aE, location: /home/not-matthias/Documents/work/wgit/codspeed-rust/crates/codspeed/src/fifo.rs:94 },
    DebugInfo { addr: 911c0, size: fd, name: _ZN8codspeed4fifo7FifoIpc11with_reader17hb693a87cc557c392E, location: /home/not-matthias/Documents/work/wgit/codspeed-rust/crates/codspeed/src/fifo.rs:108 },
    DebugInfo { addr: 912c0, size: fb, name: _ZN8codspeed4fifo7FifoIpc11with_writer17h377ac224527723e8E, location: /home/not-matthias/Documents/work/wgit/codspeed-rust/crates/codspeed/src/fifo.rs:120 },
    DebugInfo { addr: 913c0, size: 275, name: _ZN8codspeed4fifo7FifoIpc8recv_cmd17h42e5cee966c52e20E, location: /home/not-matthias/Documents/work/wgit/codspeed-rust/crates/codspeed/src/fifo.rs:130 },
    DebugInfo { addr: 91640, size: 160, name: _ZN8codspeed4fifo7FifoIpc8send_cmd17hcd321410191ade5fE, location: /home/not-matthias/Documents/work/wgit/codspeed-rust/crates/codspeed/src/fifo.rs:148 },
    DebugInfo { addr: 917a0, size: e2, name: _ZN4core3ptr46drop_in_place$LT$bincode..error..ErrorKind$GT$17hdd73cf9d2fc4f67fE, location: /home/not-matthias/.rustup/toolchains/stable-x86_64-unknown-linux-gnu/lib/rustlib/src/rust/library/core/src/ptr/mod.rs:524 },
    DebugInfo { addr: 91890, size: 7f, name: _ZN94_$LT$$RF$mut$u20$bincode..de..Deserializer$LT$R$C$O$GT$$u20$as$u20$serde..de..Deserializer$GT$16deserialize_enum102_$LT$impl$u20$serde..de..EnumAccess$u20$for$u20$$RF$mut$u20$bincode..de..Deserializer$LT$R$C$O$GT$$GT$12variant_seed17h27fb6a17eba5f169E, location: /home/not-matthias/.cargo/registry/src/index.crates.io-1949cf8c6b5b557f/bincode-1.3.3/src/de/mod.rs:280 },
    DebugInfo { addr: 91910, size: 275, name: _ZN94_$LT$$RF$mut$u20$bincode..de..Deserializer$LT$R$C$O$GT$$u20$as$u20$serde..de..Deserializer$GT$18deserialize_string17ha7393b8da4a068beE, location: /home/not-matthias/.cargo/registry/src/index.crates.io-1949cf8c6b5b557f/bincode-1.3.3/src/de/mod.rs:240 },
    DebugInfo { addr: 91b90, size: c3, name: _ZN95_$LT$$RF$mut$u20$bincode..de..Deserializer$LT$R$C$O$GT$$u20$as$u20$serde..de..VariantAccess$GT$14struct_variant17h2baab85e2c1159f3E, location: /home/not-matthias/.cargo/registry/src/index.crates.io-1949cf8c6b5b557f/bincode-1.3.3/src/de/mod.rs:486 },
    DebugInfo { addr: 91c60, size: 11a, name: _ZN95_$LT$$RF$mut$u20$bincode..de..Deserializer$LT$R$C$O$GT$$u20$as$u20$serde..de..VariantAccess$GT$14struct_variant17hc189d7159e99eedfE, location: /home/not-matthias/.cargo/registry/src/index.crates.io-1949cf8c6b5b557f/bincode-1.3.3/src/de/mod.rs:486 },
    DebugInfo { addr: 91d80, size: c8, name: _ZN4core3ptr51drop_in_place$LT$std..backtrace..BacktraceFrame$GT$17h8388b0e198428af3E.llvm.5874213486224038663, location: /home/not-matthias/.rustup/toolchains/stable-x86_64-unknown-linux-gnu/lib/rustlib/src/rust/library/core/src/ptr/mod.rs:524 },
    DebugInfo { addr: 91e50, size: 1ba, name: _ZN5alloc3vec16in_place_collect108_$LT$impl$u20$alloc..vec..spec_from_iter..SpecFromIter$LT$T$C$I$GT$$u20$for$u20$alloc..vec..Vec$LT$T$GT$$GT$9from_iter17h161c83eb93055c95E, location: /home/not-matthias/.rustup/toolchains/stable-x86_64-unknown-linux-gnu/lib/rustlib/src/rust/library/alloc/src/vec/in_place_collect.rs:233 },
    DebugInfo { addr: 92010, size: 34d, name: _ZN136_$LT$statrs..statistics..slice_statistics..Data$LT$D$GT$$u20$as$u20$statrs..statistics..order_statistics..OrderStatistics$LT$f64$GT$$GT$8quantile17he6cfdeb94f90da28E, location: /home/not-matthias/.cargo/registry/src/index.crates.io-1949cf8c6b5b557f/statrs-0.18.0/src/statistics/slice_statistics.rs:164 },
    DebugInfo { addr: 92360, size: 41c, name: _ZN6statrs10statistics16slice_statistics13Data$LT$D$GT$14select_inplace17h7f072b0e08d0156cE.llvm.18035060270478968779, location: /home/not-matthias/.cargo/registry/src/index.crates.io-1949cf8c6b5b557f/statrs-0.18.0/src/statistics/slice_statistics.rs:69 },
    DebugInfo { addr: 92780, size: 14, name: _ZN42_$LT$$RF$T$u20$as$u20$core..fmt..Debug$GT$3fmt17h84a739a045113c49E, location: /home/not-matthias/.rustup/toolchains/stable-x86_64-unknown-linux-gnu/lib/rustlib/src/rust/library/core/src/fmt/mod.rs:2636 },
    DebugInfo { addr: 927a0, size: 10, name: _ZN4core3fmt5Write9write_fmt17h869c8dd9ed07df5fE, location: /home/not-matthias/.rustup/toolchains/stable-x86_64-unknown-linux-gnu/lib/rustlib/src/rust/library/core/src/fmt/mod.rs:205 },
    DebugInfo { addr: 927b0, size: 18, name: _ZN4core3ptr42drop_in_place$LT$alloc..string..String$GT$17hc9b2847e0c20520cE, location: /home/not-matthias/.rustup/toolchains/stable-x86_64-unknown-linux-gnu/lib/rustlib/src/rust/library/alloc/src/raw_vec/mod.rs:406 },
    DebugInfo { addr: 927d0, size: 123, name: _ZN58_$LT$alloc..string..String$u20$as$u20$core..fmt..Write$GT$10write_char17h13db4e3872bba170E, location: /home/not-matthias/.rustup/toolchains/stable-x86_64-unknown-linux-gnu/lib/rustlib/src/rust/library/alloc/src/string.rs:3202 },
    DebugInfo { addr: 92900, size: 67, name: _ZN58_$LT$alloc..string..String$u20$as$u20$core..fmt..Write$GT$9write_str17h3471f8bf4fd2c6acE, location: /home/not-matthias/.rustup/toolchains/stable-x86_64-unknown-linux-gnu/lib/rustlib/src/rust/library/alloc/src/string.rs:3196 },
    DebugInfo { addr: 92970, size: 20b, name: _ZN5serde3ser12SerializeMap15serialize_entry17h231f95108727a8aeE, location: /home/not-matthias/.cargo/registry/src/index.crates.io-1949cf8c6b5b557f/serde-1.0.217/src/ser/mod.rs:1811 },
    DebugInfo { addr: 92b80, size: 11a, name: _ZN5serde3ser12SerializeMap15serialize_entry17h40fd93ccd2fb5d52E, location: /home/not-matthias/.cargo/registry/src/index.crates.io-1949cf8c6b5b557f/serde-1.0.217/src/ser/mod.rs:1811 },
    DebugInfo { addr: 92ca0, size: 236, name: _ZN5serde3ser12SerializeMap15serialize_entry17h49b0016f4488ce4eE, location: /home/not-matthias/.cargo/registry/src/index.crates.io-1949cf8c6b5b557f/serde-1.0.217/src/ser/mod.rs:1811 },
    DebugInfo { addr: 92ee0, size: 10a, name: _ZN5serde3ser12SerializeMap15serialize_entry17h4a0a417625270da6E, location: /home/not-matthias/.cargo/registry/src/index.crates.io-1949cf8c6b5b557f/serde-1.0.217/src/ser/mod.rs:1811 },
    DebugInfo { addr: 92ff0, size: 182, name: _ZN5serde3ser12SerializeMap15serialize_entry17h6b3c6262df403f67E, location: /home/not-matthias/.cargo/registry/src/index.crates.io-1949cf8c6b5b557f/serde-1.0.217/src/ser/mod.rs:1811 },
    DebugInfo { addr: 93180, size: 18b, name: _ZN5serde3ser12SerializeMap15serialize_entry17h81a582754ca2dd62E, location: /home/not-matthias/.cargo/registry/src/index.crates.io-1949cf8c6b5b557f/serde-1.0.217/src/ser/mod.rs:1811 },
    DebugInfo { addr: 93310, size: 10a, name: _ZN5serde3ser12SerializeMap15serialize_entry17ha1c2ce4a0b20115dE, location: /home/not-matthias/.cargo/registry/src/index.crates.io-1949cf8c6b5b557f/serde-1.0.217/src/ser/mod.rs:1811 },
    DebugInfo { addr: 93420, size: 26a, name: _ZN95_$LT$$RF$mut$u20$serde_json..ser..Serializer$LT$W$C$F$GT$$u20$as$u20$serde..ser..Serializer$GT$13serialize_str17h4e2d2ef7d50f0054E.llvm.15032468455968781876, location: /home/not-matthias/.cargo/registry/src/index.crates.io-1949cf8c6b5b557f/serde_json-1.0.138/src/ser.rs:188 },
    DebugInfo { addr: 93690, size: 49, name: _ZN42_$LT$$RF$T$u20$as$u20$core..fmt..Debug$GT$3fmt17h9386fa3faf35875eE, location: /home/not-matthias/.rustup/toolchains/stable-x86_64-unknown-linux-gnu/lib/rustlib/src/rust/library/core/src/fmt/mod.rs:2636 },
    DebugInfo { addr: 936e0, size: 6c, name: _ZN5alloc7raw_vec11finish_grow17h578bfdebb9742009E.llvm.11703729905145466696, location: /home/not-matthias/.rustup/toolchains/stable-x86_64-unknown-linux-gnu/lib/rustlib/src/rust/library/alloc/src/raw_vec/mod.rs:766 },
    DebugInfo { addr: 93750, size: f5, name: _ZN5alloc7raw_vec20RawVecInner$LT$A$GT$7reserve21do_reserve_and_handle17h8d390fe5f47ff6dfE, location: /home/not-matthias/.rustup/toolchains/stable-x86_64-unknown-linux-gnu/lib/rustlib/src/rust/library/alloc/src/raw_vec/mod.rs:551 },
    DebugInfo { addr: 93850, size: a7, name: _ZN4core3ptr42drop_in_place$LT$std..io..error..Error$GT$17hc044a258f1880348E, location: /home/not-matthias/.rustup/toolchains/stable-x86_64-unknown-linux-gnu/lib/rustlib/src/rust/library/core/src/ptr/mod.rs:524 },
    DebugInfo { addr: 93900, size: 4a, name: _ZN4core3ptr46drop_in_place$LT$bincode..error..ErrorKind$GT$17hdd73cf9d2fc4f67fE, location: /home/not-matthias/.rustup/toolchains/stable-x86_64-unknown-linux-gnu/lib/rustlib/src/rust/library/core/src/ptr/mod.rs:524 },
    DebugInfo { addr: 93950, size: 1, name: _ZN4core5error5Error7provide17h901f3128c2b36346E, location: /home/not-matthias/.rustup/toolchains/stable-x86_64-unknown-linux-gnu/lib/rustlib/src/rust/library/core/src/error.rs:204 },
    DebugInfo { addr: 93960, size: 15, name: _ZN4core5error5Error7type_id17he63dd112f97567c1E, location: /home/not-matthias/.rustup/toolchains/stable-x86_64-unknown-linux-gnu/lib/rustlib/src/rust/library/core/src/error.rs:116 },
    DebugInfo { addr: 93980, size: 75, name: _ZN5serde2de5Error13invalid_value17h5b8eeff60f33967aE, location: /home/not-matthias/.cargo/registry/src/index.crates.io-1949cf8c6b5b557f/serde-1.0.217/src/de/mod.rs:227 },
    DebugInfo { addr: 93a00, size: 7c, name: _ZN5serde2de5Error14invalid_length17h610bb32b1d7e06d5E, location: /home/not-matthias/.cargo/registry/src/index.crates.io-1949cf8c6b5b557f/serde-1.0.217/src/de/mod.rs:241 },
    DebugInfo { addr: 93a80, size: 9, name: _ZN65_$LT$alloc..boxed..Box$LT$E$GT$$u20$as$u20$core..error..Error$GT$11description17h6664c5b7b5947aedE, location: /home/not-matthias/.rustup/toolchains/stable-x86_64-unknown-linux-gnu/lib/rustlib/src/rust/library/alloc/src/boxed.rs:2114 },
    DebugInfo { addr: 93a90, size: 18, name: _ZN65_$LT$alloc..boxed..Box$LT$E$GT$$u20$as$u20$core..error..Error$GT$5cause17hdaf7267bbfc3e597E, location: /home/not-matthias/.rustup/toolchains/stable-x86_64-unknown-linux-gnu/lib/rustlib/src/rust/library/alloc/src/boxed.rs:2119 },
    DebugInfo { addr: 93ab0, size: 3, name: _ZN65_$LT$alloc..boxed..Box$LT$E$GT$$u20$as$u20$core..error..Error$GT$6source17h4d147c8140f677c2E, location: /home/not-matthias/.rustup/toolchains/stable-x86_64-unknown-linux-gnu/lib/rustlib/src/rust/library/alloc/src/boxed.rs:2124 },
    DebugInfo { addr: 93ac0, size: 1, name: _ZN65_$LT$alloc..boxed..Box$LT$E$GT$$u20$as$u20$core..error..Error$GT$7provide17h757327b5f3d0e29eE, location: /home/not-matthias/.rustup/toolchains/stable-x86_64-unknown-linux-gnu/lib/rustlib/src/rust/library/alloc/src/boxed.rs:2128 },
    DebugInfo { addr: 93ad0, size: 129, name: _ZN67_$LT$alloc..boxed..Box$LT$T$C$A$GT$$u20$as$u20$core..fmt..Debug$GT$3fmt17h26a97d19f8c0b49eE, location: /home/not-matthias/.rustup/toolchains/stable-x86_64-unknown-linux-gnu/lib/rustlib/src/rust/library/alloc/src/boxed.rs:1924 },
    DebugInfo { addr: 93c00, size: 9, name: _ZN69_$LT$alloc..boxed..Box$LT$T$C$A$GT$$u20$as$u20$core..fmt..Display$GT$3fmt17h4681d9f68413314bE, location: /home/not-matthias/.rustup/toolchains/stable-x86_64-unknown-linux-gnu/lib/rustlib/src/rust/library/alloc/src/boxed.rs:1918 },
    DebugInfo { addr: 93c10, size: 126, name: _ZN7bincode5error97_$LT$impl$u20$serde..de..Error$u20$for$u20$alloc..boxed..Box$LT$bincode..error..ErrorKind$GT$$GT$6custom17h611a39cc0c80e4c9E.llvm.15376861282697741803, location: /home/not-matthias/.cargo/registry/src/index.crates.io-1949cf8c6b5b557f/bincode-1.3.3/src/error.rs:106 },
    DebugInfo { addr: 93d40, size: 148, name: _ZN7bincode8internal9serialize17he75cdc03180d3022E, location: /home/not-matthias/.cargo/registry/src/index.crates.io-1949cf8c6b5b557f/bincode-1.3.3/src/internal.rs:25 },
    DebugInfo { addr: 93e90, size: 1bd, name: _ZN3std2io5Write9write_all17hfe2c950c6f366ba1E, location: /home/not-matthias/.rustup/toolchains/stable-x86_64-unknown-linux-gnu/lib/rustlib/src/rust/library/std/src/io/mod.rs:1795 },
    DebugInfo { addr: 94050, size: a4, name: _ZN4core3ptr42drop_in_place$LT$std..io..error..Error$GT$17hc044a258f1880348E.llvm.6692438752788788640, location: /home/not-matthias/.rustup/toolchains/stable-x86_64-unknown-linux-gnu/lib/rustlib/src/rust/library/core/src/ptr/mod.rs:524 },
    DebugInfo { addr: 94100, size: 51, name: _ZN8codspeed5utils28running_with_codspeed_runner17hfaf433ae43b30b60E, location: /home/not-matthias/Documents/work/wgit/codspeed-rust/crates/codspeed/src/utils.rs:41 },
    DebugInfo { addr: 94160, size: 51, name: _ZN8codspeed5utils15is_perf_enabled17h0f882ca869b752c2E, location: /home/not-matthias/Documents/work/wgit/codspeed-rust/crates/codspeed/src/utils.rs:45 },
    DebugInfo { addr: 941c0, size: 26, name: _ZN42_$LT$$RF$T$u20$as$u20$core..fmt..Debug$GT$3fmt17h0cd69880a36c387bE, location: /home/not-matthias/.rustup/toolchains/stable-x86_64-unknown-linux-gnu/lib/rustlib/src/rust/library/core/src/fmt/mod.rs:2636 },
    DebugInfo { addr: 941f0, size: 26, name: _ZN42_$LT$$RF$T$u20$as$u20$core..fmt..Debug$GT$3fmt17h9f48fac1be404c3aE, location: /home/not-matthias/.rustup/toolchains/stable-x86_64-unknown-linux-gnu/lib/rustlib/src/rust/library/core/src/fmt/mod.rs:2636 },
    DebugInfo { addr: 94220, size: 9, name: _ZN42_$LT$$RF$T$u20$as$u20$core..fmt..Debug$GT$3fmt17hc5e0d3239e4af5c8E, location: /home/not-matthias/.rustup/toolchains/stable-x86_64-unknown-linux-gnu/lib/rustlib/src/rust/library/core/src/fmt/mod.rs:2636 },
    DebugInfo { addr: 94230, size: 63, name: _ZN42_$LT$$RF$T$u20$as$u20$core..fmt..Debug$GT$3fmt17he9585a88ac111d61E, location: /home/not-matthias/.rustup/toolchains/stable-x86_64-unknown-linux-gnu/lib/rustlib/src/rust/library/core/src/fmt/mod.rs:2636 },
    DebugInfo { addr: 942a0, size: 13, name: _ZN44_$LT$$RF$T$u20$as$u20$core..fmt..Display$GT$3fmt17h85228e23fa4197c3E, location: /home/not-matthias/.rustup/toolchains/stable-x86_64-unknown-linux-gnu/lib/rustlib/src/rust/library/core/src/fmt/mod.rs:2636 },
    DebugInfo { addr: 942c0, size: 23, name: _ZN4core3fmt3num52_$LT$impl$u20$core..fmt..Debug$u20$for$u20$usize$GT$3fmt17h7abaade222174992E, location: /home/not-matthias/.rustup/toolchains/stable-x86_64-unknown-linux-gnu/lib/rustlib/src/rust/library/core/src/fmt/mod.rs:2169 },
    DebugInfo { addr: 942f0, size: 15, name: _ZN4core5error5Error7type_id17hddf72967614177d4E, location: /home/not-matthias/.rustup/toolchains/stable-x86_64-unknown-linux-gnu/lib/rustlib/src/rust/library/core/src/error.rs:116 },
    DebugInfo { addr: 94310, size: bc, name: _ZN4core3ptr103drop_in_place$LT$anyhow..error..ErrorImpl$LT$alloc..boxed..Box$LT$bincode..error..ErrorKind$GT$$GT$$GT$17h3ea1949fee618aa1E.llvm.8647758565097695058, location: /home/not-matthias/.rustup/toolchains/stable-x86_64-unknown-linux-gnu/lib/rustlib/src/rust/library/core/src/ptr/mod.rs:524 },
    DebugInfo { addr: 943d0, size: 60, name: _ZN4core3ptr111drop_in_place$LT$anyhow..error..ErrorImpl$LT$anyhow..wrapper..MessageError$LT$alloc..string..String$GT$$GT$$GT$17he4b9d561c1b3d7d4E.llvm.8647758565097695058, location: /home/not-matthias/.rustup/toolchains/stable-x86_64-unknown-linux-gnu/lib/rustlib/src/rust/library/core/src/ptr/mod.rs:524 },
    DebugInfo { addr: 94430, size: a7, name: _ZN4core3ptr42drop_in_place$LT$std..io..error..Error$GT$17hc044a258f1880348E.llvm.8647758565097695058, location: /home/not-matthias/.rustup/toolchains/stable-x86_64-unknown-linux-gnu/lib/rustlib/src/rust/library/core/src/ptr/mod.rs:524 },
    DebugInfo { addr: 944e0, size: 8c, name: _ZN4core3ptr71drop_in_place$LT$alloc..boxed..Box$LT$bincode..error..ErrorKind$GT$$GT$17hdf28aafd929c09a4E.llvm.8647758565097695058, location: /home/not-matthias/.rustup/toolchains/stable-x86_64-unknown-linux-gnu/lib/rustlib/src/rust/library/core/src/ptr/mod.rs:524 },
    DebugInfo { addr: 94570, size: 46, name: _ZN4core3ptr74drop_in_place$LT$anyhow..error..ErrorImpl$LT$std..io..error..Error$GT$$GT$17h4e5acf755189b843E.llvm.8647758565097695058, location: /home/not-matthias/.rustup/toolchains/stable-x86_64-unknown-linux-gnu/lib/rustlib/src/rust/library/core/src/ptr/mod.rs:524 },
    DebugInfo { addr: 945c0, size: 18, name: _ZN4core3ptr79drop_in_place$LT$anyhow..wrapper..MessageError$LT$alloc..string..String$GT$$GT$17h114661f438f0ab12E.llvm.8647758565097695058, location: /home/not-matthias/.rustup/toolchains/stable-x86_64-unknown-linux-gnu/lib/rustlib/src/rust/library/alloc/src/raw_vec/mod.rs:406 },
    DebugInfo { addr: 945e0, size: d, name: _ZN4core5error5Error11description17h29029d37611a28c8E, location: /home/not-matthias/.rustup/toolchains/stable-x86_64-unknown-linux-gnu/lib/rustlib/src/rust/library/core/src/error.rs:133 },
    DebugInfo { addr: 945f0, size: d, name: _ZN4core5error5Error11description17h72ad920f73f77c3cE, location: /home/not-matthias/.rustup/toolchains/stable-x86_64-unknown-linux-gnu/lib/rustlib/src/rust/library/core/src/error.rs:133 },
    DebugInfo { addr: 94600, size: 3, name: _ZN4core5error5Error5cause17h6f1f0a87c526c8b6E, location: /home/not-matthias/.rustup/toolchains/stable-x86_64-unknown-linux-gnu/lib/rustlib/src/rust/library/core/src/error.rs:143 },
    DebugInfo { addr: 94610, size: 1, name: _ZN4core5error5Error7provide17h0914f6ddef5c0fb0E, location: /home/not-matthias/.rustup/toolchains/stable-x86_64-unknown-linux-gnu/lib/rustlib/src/rust/library/core/src/error.rs:204 },
    DebugInfo { addr: 94620, size: 1, name: _ZN4core5error5Error7provide17h290e05c323c0e4f8E, location: /home/not-matthias/.rustup/toolchains/stable-x86_64-unknown-linux-gnu/lib/rustlib/src/rust/library/core/src/error.rs:204 },
    DebugInfo { addr: 94630, size: 15, name: _ZN4core5error5Error7type_id17h43b037fbf26d2cd3E, location: /home/not-matthias/.rustup/toolchains/stable-x86_64-unknown-linux-gnu/lib/rustlib/src/rust/library/core/src/error.rs:116 },
    DebugInfo { addr: 94650, size: c, name: _ZN6anyhow5error10object_ref17hfbc80f04625bce97E.llvm.8647758565097695058, location: /home/not-matthias/.cargo/registry/src/index.crates.io-1949cf8c6b5b557f/anyhow-1.0.97/src/error.rs:718 },
    DebugInfo { addr: 94660, size: c, name: _ZN6anyhow5error10object_ref17hfc7d275ac4723df3E.llvm.8647758565097695058, location: /home/not-matthias/.cargo/registry/src/index.crates.io-1949cf8c6b5b557f/anyhow-1.0.97/src/error.rs:718 },
    DebugInfo { addr: 94670, size: c, name: _ZN6anyhow5error10object_ref17hfd222469c03925edE.llvm.8647758565097695058, location: /home/not-matthias/.cargo/registry/src/index.crates.io-1949cf8c6b5b557f/anyhow-1.0.97/src/error.rs:718 },
    DebugInfo { addr: 94680, size: 3, name: _ZN6anyhow5error12no_backtrace17h1bdf72efcba67b04E.llvm.8647758565097695058, location: /home/not-matthias/.cargo/registry/src/index.crates.io-1949cf8c6b5b557f/anyhow-1.0.97/src/error.rs:797 },
    DebugInfo { addr: 94690, size: b, name: _ZN6anyhow5error12object_boxed17h3a362b991b698622E.llvm.8647758565097695058, location: /home/not-matthias/.cargo/registry/src/index.crates.io-1949cf8c6b5b557f/anyhow-1.0.97/src/error.rs:738 },
    DebugInfo { addr: 946a0, size: b, name: _ZN6anyhow5error12object_boxed17h6c806162ef58ee55E.llvm.8647758565097695058, location: /home/not-matthias/.cargo/registry/src/index.crates.io-1949cf8c6b5b557f/anyhow-1.0.97/src/error.rs:738 },
    DebugInfo { addr: 946b0, size: b, name: _ZN6anyhow5error12object_boxed17h77a81126c98ffa5dE.llvm.8647758565097695058, location: /home/not-matthias/.cargo/registry/src/index.crates.io-1949cf8c6b5b557f/anyhow-1.0.97/src/error.rs:738 },
    DebugInfo { addr: 946c0, size: 71, name: _ZN6anyhow5error31_$LT$impl$u20$anyhow..Error$GT$3msg17he5bbb8a1b5c5d3aeE, location: /home/not-matthias/.cargo/registry/src/index.crates.io-1949cf8c6b5b557f/anyhow-1.0.97/src/error.rs:81 },
    DebugInfo { addr: 94740, size: a1, name: _ZN6anyhow5error31_$LT$impl$u20$anyhow..Error$GT$9construct17h2ee4bb797b73b111E.llvm.8647758565097695058, location: /home/not-matthias/.cargo/registry/src/index.crates.io-1949cf8c6b5b557f/anyhow-1.0.97/src/error.rs:304 },
    DebugInfo { addr: 947f0, size: b6, name: _ZN6anyhow5error31_$LT$impl$u20$anyhow..Error$GT$9construct17h3276808d9534d3b4E.llvm.8647758565097695058, location: /home/not-matthias/.cargo/registry/src/index.crates.io-1949cf8c6b5b557f/anyhow-1.0.97/src/error.rs:304 },
    DebugInfo { addr: 948b0, size: a1, name: _ZN6anyhow5error31_$LT$impl$u20$anyhow..Error$GT$9construct17hbc1d173925f5b836E.llvm.8647758565097695058, location: /home/not-matthias/.cargo/registry/src/index.crates.io-1949cf8c6b5b557f/anyhow-1.0.97/src/error.rs:304 },
    DebugInfo { addr: 94960, size: 64, name: _ZN6anyhow5error72_$LT$impl$u20$core..convert..From$LT$E$GT$$u20$for$u20$anyhow..Error$GT$4from17h355e588386e07fe9E, location: /home/not-matthias/.cargo/registry/src/index.crates.io-1949cf8c6b5b557f/anyhow-1.0.97/src/error.rs:629 },
    DebugInfo { addr: 949d0, size: 64, name: _ZN6anyhow5error72_$LT$impl$u20$core..convert..From$LT$E$GT$$u20$for$u20$anyhow..Error$GT$4from17hc6db9976b6b20c8aE, location: /home/not-matthias/.cargo/registry/src/index.crates.io-1949cf8c6b5b557f/anyhow-1.0.97/src/error.rs:629 },
    DebugInfo { addr: 94a40, size: 14, name: _ZN75_$LT$anyhow..wrapper..MessageError$LT$M$GT$$u20$as$u20$core..fmt..Debug$GT$3fmt17h912e004577d6e268E, location: /home/not-matthias/.cargo/registry/src/index.crates.io-1949cf8c6b5b557f/anyhow-1.0.97/src/wrapper.rs:17 },
    DebugInfo { addr: 94a60, size: 14, name: _ZN77_$LT$anyhow..wrapper..MessageError$LT$M$GT$$u20$as$u20$core..fmt..Display$GT$3fmt17ha664adcfa16c2ab3E, location: /home/not-matthias/.cargo/registry/src/index.crates.io-1949cf8c6b5b557f/anyhow-1.0.97/src/wrapper.rs:26 },
    DebugInfo { addr: 94a80, size: 15f, name: _ZN85_$LT$std..sync..lazy_lock..LazyLock$LT$T$C$F$GT$$u20$as$u20$core..ops..drop..Drop$GT$4drop17h7828cf5f064e4a98E, location: /home/not-matthias/.rustup/toolchains/stable-x86_64-unknown-linux-gnu/lib/rustlib/src/rust/library/std/src/sync/lazy_lock.rs:290 },
    DebugInfo { addr: 94be0, size: 1e0, name: _ZN3std2io18default_read_exact17h8338643c4a3f76abE, location: /home/not-matthias/.rustup/toolchains/stable-x86_64-unknown-linux-gnu/lib/rustlib/src/rust/library/std/src/io/mod.rs:572 },
    DebugInfo { addr: 94dc0, size: a4, name: _ZN4core3ptr42drop_in_place$LT$std..io..error..Error$GT$17hc044a258f1880348E.llvm.1733884297564245001, location: /home/not-matthias/.rustup/toolchains/stable-x86_64-unknown-linux-gnu/lib/rustlib/src/rust/library/core/src/ptr/mod.rs:524 },
    DebugInfo { addr: 94e70, size: 493, name: _ZN8codspeed6shared1_77_$LT$impl$u20$serde..ser..Serialize$u20$for$u20$codspeed..shared..Command$GT$9serialize17h01af5e355bea2175E, location: /home/not-matthias/Documents/work/wgit/codspeed-rust/crates/codspeed/src/shared.rs:8 },
    DebugInfo { addr: 95310, size: 18, name: _ZN4core3ptr42drop_in_place$LT$alloc..string..String$GT$17h7e5438ff300d1878E, location: /home/not-matthias/.rustup/toolchains/stable-x86_64-unknown-linux-gnu/lib/rustlib/src/rust/library/alloc/src/raw_vec/mod.rs:406 },
    DebugInfo { addr: 95330, size: ca, name: _ZN4core3ptr49drop_in_place$LT$serde_json..error..ErrorImpl$GT$17hf11163c8d1b1d60aE.llvm.13558583389649769270, location: /home/not-matthias/.rustup/toolchains/stable-x86_64-unknown-linux-gnu/lib/rustlib/src/rust/library/core/src/ptr/mod.rs:524 },
    DebugInfo { addr: 95400, size: 15, name: _ZN53_$LT$core..fmt..Error$u20$as$u20$core..fmt..Debug$GT$3fmt17h6736176c8e29474eE, location: /home/not-matthias/.rustup/toolchains/stable-x86_64-unknown-linux-gnu/lib/rustlib/src/rust/library/core/src/fmt/mod.rs:102 },
    DebugInfo { addr: 95420, size: 14, name: _ZN58_$LT$alloc..string..String$u20$as$u20$core..fmt..Debug$GT$3fmt17h3dbd93d1431a8f2aE, location: /home/not-matthias/.rustup/toolchains/stable-x86_64-unknown-linux-gnu/lib/rustlib/src/rust/library/alloc/src/string.rs:2603 },
    DebugInfo { addr: 95440, size: 123, name: _ZN58_$LT$alloc..string..String$u20$as$u20$core..fmt..Write$GT$10write_char17h13db4e3872bba170E, location: /home/not-matthias/.rustup/toolchains/stable-x86_64-unknown-linux-gnu/lib/rustlib/src/rust/library/alloc/src/string.rs:3202 },
    DebugInfo { addr: 95570, size: 67, name: _ZN58_$LT$alloc..string..String$u20$as$u20$core..fmt..Write$GT$9write_str17h3471f8bf4fd2c6acE, location: /home/not-matthias/.rustup/toolchains/stable-x86_64-unknown-linux-gnu/lib/rustlib/src/rust/library/alloc/src/string.rs:3196 },
    DebugInfo { addr: 955e0, size: 87, name: _ZN10serde_json5error5Error2io17h0a2f0c449eeda65cE, location: /home/not-matthias/.cargo/registry/src/index.crates.io-1949cf8c6b5b557f/serde_json-1.0.138/src/error.rs:326 },
    DebugInfo { addr: 95670, size: 259, name: _ZN67_$LT$serde_json..error..ErrorCode$u20$as$u20$core..fmt..Display$GT$3fmt17h911d3ca2e13fe59aE, location: /home/not-matthias/.cargo/registry/src/index.crates.io-1949cf8c6b5b557f/serde_json-1.0.138/src/error.rs:351 },
    DebugInfo { addr: 958d0, size: 175, name: _ZN61_$LT$serde_json..error..Error$u20$as$u20$core..fmt..Debug$GT$3fmt17h8ad490303d52ea8aE, location: /home/not-matthias/.cargo/registry/src/index.crates.io-1949cf8c6b5b557f/serde_json-1.0.138/src/error.rs:422 },
    DebugInfo { addr: 95a50, size: 10, name: _ZN4core3fmt5Write9write_fmt17hf6c679b9d72b5743E, location: /home/not-matthias/.rustup/toolchains/stable-x86_64-unknown-linux-gnu/lib/rustlib/src/rust/library/core/src/fmt/mod.rs:205 },
    DebugInfo { addr: 95a60, size: 18, name: _ZN4core3ptr42drop_in_place$LT$alloc..string..String$GT$17h7e5438ff300d1878E, location: /home/not-matthias/.rustup/toolchains/stable-x86_64-unknown-linux-gnu/lib/rustlib/src/rust/library/alloc/src/raw_vec/mod.rs:406 },
    DebugInfo { addr: 95a80, size: 123, name: _ZN58_$LT$alloc..string..String$u20$as$u20$core..fmt..Write$GT$10write_char17h13db4e3872bba170E, location: /home/not-matthias/.rustup/toolchains/stable-x86_64-unknown-linux-gnu/lib/rustlib/src/rust/library/alloc/src/string.rs:3202 },
    DebugInfo { addr: 95bb0, size: 67, name: _ZN58_$LT$alloc..string..String$u20$as$u20$core..fmt..Write$GT$9write_str17h3471f8bf4fd2c6acE, location: /home/not-matthias/.rustup/toolchains/stable-x86_64-unknown-linux-gnu/lib/rustlib/src/rust/library/alloc/src/string.rs:3196 },
    DebugInfo { addr: 95c20, size: 6c, name: _ZN5alloc7raw_vec11finish_grow17h19ebe9d2ae1b76cfE.llvm.893471791226256664, location: /home/not-matthias/.rustup/toolchains/stable-x86_64-unknown-linux-gnu/lib/rustlib/src/rust/library/alloc/src/raw_vec/mod.rs:766 },
    DebugInfo { addr: 95c90, size: f5, name: _ZN5alloc7raw_vec20RawVecInner$LT$A$GT$7reserve21do_reserve_and_handle17ha5a5af79688575d0E, location: /home/not-matthias/.rustup/toolchains/stable-x86_64-unknown-linux-gnu/lib/rustlib/src/rust/library/alloc/src/raw_vec/mod.rs:551 },
    DebugInfo { addr: 95d90, size: 16f, name: _ZN3ryu6pretty8mantissa19write_mantissa_long17h5613d16a45eb5aecE, location: /home/not-matthias/.cargo/registry/src/index.crates.io-1949cf8c6b5b557f/ryu-1.0.18/src/pretty/mantissa.rs:6 },
    DebugInfo { addr: 95f00, size: 935, name: _ZN3ryu6pretty8format6417h80ea87c27bc0bfb2E, location: /home/not-matthias/.cargo/registry/src/index.crates.io-1949cf8c6b5b557f/ryu-1.0.18/src/pretty/mod.rs:52 },
    DebugInfo { addr: 96840, size: 1c3, name: _ZN4uuid3fmt17format_hyphenated17h3d990eb9916ba968E.llvm.2697741598065222841, location: /home/not-matthias/.cargo/registry/src/index.crates.io-1949cf8c6b5b557f/uuid-1.12.1/src/fmt.rs:167 },
    DebugInfo { addr: 96a10, size: 35, name: _ZN4uuid3fmt59_$LT$impl$u20$core..fmt..Display$u20$for$u20$uuid..Uuid$GT$3fmt17h77c3e341eed3f1c7E, location: /home/not-matthias/.cargo/registry/src/index.crates.io-1949cf8c6b5b557f/uuid-1.12.1/src/fmt.rs:30 },
    DebugInfo { addr: 96a10, size: 35, name: _ZN4uuid3fmt60_$LT$impl$u20$core..fmt..LowerHex$u20$for$u20$uuid..Uuid$GT$3fmt17h9ad8e5df8155aad9E, location: /home/not-matthias/.cargo/registry/src/index.crates.io-1949cf8c6b5b557f/uuid-1.12.1/src/fmt.rs:30 },
    DebugInfo { addr: 96a50, size: c5, name: _ZN4uuid2v428_$LT$impl$u20$uuid..Uuid$GT$6new_v417hea1629e85a3a3918E, location: /home/not-matthias/.cargo/registry/src/index.crates.io-1949cf8c6b5b557f/uuid-1.12.1/src/v4.rs:33 },
    DebugInfo { addr: 96b20, size: 1fc, name: _ZN62_$LT$getrandom..error..Error$u20$as$u20$core..fmt..Display$GT$3fmt17hf8e910f2f7f69869E, location: /home/not-matthias/.cargo/registry/src/index.crates.io-1949cf8c6b5b557f/getrandom-0.2.15/src/error.rs:139 },
    DebugInfo { addr: 96d20, size: 2ec, name: _ZN9getrandom3imp15getrandom_inner17he64b4b34a3d4ca30E, location: /home/not-matthias/.cargo/registry/src/index.crates.io-1949cf8c6b5b557f/getrandom-0.2.15/src/linux_android_with_fallback.rs:9 },
    DebugInfo { addr: 97010, size: 13, name: _ZN44_$LT$$RF$T$u20$as$u20$core..fmt..Display$GT$3fmt17h961447257585970aE, location: /home/not-matthias/.rustup/toolchains/stable-x86_64-unknown-linux-gnu/lib/rustlib/src/rust/library/core/src/fmt/mod.rs:2636 },
    DebugInfo { addr: 97030, size: 9, name: _ZN44_$LT$$RF$T$u20$as$u20$core..fmt..Display$GT$3fmt17hb637168ef41a7ac2E, location: /home/not-matthias/.rustup/toolchains/stable-x86_64-unknown-linux-gnu/lib/rustlib/src/rust/library/core/src/fmt/mod.rs:2636 },
    DebugInfo { addr: 97040, size: 9, name: _ZN44_$LT$$RF$T$u20$as$u20$core..fmt..Display$GT$3fmt17hebbfdf20836a3634E, location: /home/not-matthias/.rustup/toolchains/stable-x86_64-unknown-linux-gnu/lib/rustlib/src/rust/library/core/src/fmt/mod.rs:2636 },
    DebugInfo { addr: 97050, size: e2, name: _ZN4core3ptr46drop_in_place$LT$bincode..error..ErrorKind$GT$17h11c9f285f905e0deE, location: /home/not-matthias/.rustup/toolchains/stable-x86_64-unknown-linux-gnu/lib/rustlib/src/rust/library/core/src/ptr/mod.rs:524 },
    DebugInfo { addr: 97140, size: 6, name: _ZN7bincode6config3int17cast_u64_to_usize17hb07a71105e3ff168E, location: /home/not-matthias/.cargo/registry/src/index.crates.io-1949cf8c6b5b557f/bincode-1.3.3/src/config/int.rs:603 },
    DebugInfo { addr: 97150, size: 9e, name: _ZN64_$LT$bincode..error..ErrorKind$u20$as$u20$core..error..Error$GT$11description17hef2dbd2678d4d870E, location: /home/not-matthias/.cargo/registry/src/index.crates.io-1949cf8c6b5b557f/bincode-1.3.3/src/error.rs:43 },
    DebugInfo { addr: 971f0, size: 74, name: _ZN7bincode5error129_$LT$impl$u20$core..convert..From$LT$std..io..error..Error$GT$$u20$for$u20$alloc..boxed..Box$LT$bincode..error..ErrorKind$GT$$GT$4from17h6f38e7d1c87d3841E, location: /home/not-matthias/.cargo/registry/src/index.crates.io-1949cf8c6b5b557f/bincode-1.3.3/src/error.rs:77 },
    DebugInfo { addr: 97270, size: 26a, name: _ZN64_$LT$bincode..error..ErrorKind$u20$as$u20$core..fmt..Display$GT$3fmt17hbadc6d850e637f7cE, location: /home/not-matthias/.cargo/registry/src/index.crates.io-1949cf8c6b5b557f/bincode-1.3.3/src/error.rs:83 },
    DebugInfo { addr: 974e0, size: 13, name: _ZN42_$LT$$RF$T$u20$as$u20$core..fmt..Debug$GT$3fmt17h6a8041201329b9ecE, location: /home/not-matthias/.rustup/toolchains/stable-x86_64-unknown-linux-gnu/lib/rustlib/src/rust/library/core/src/fmt/mod.rs:2636 },
    DebugInfo { addr: 97500, size: 10, name: _ZN4core3fmt5Write9write_fmt17h41c9d07511fd124cE, location: /home/not-matthias/.rustup/toolchains/stable-x86_64-unknown-linux-gnu/lib/rustlib/src/rust/library/core/src/fmt/mod.rs:205 },
    DebugInfo { addr: 97510, size: 269, name: _ZN60_$LT$serde..de..Unexpected$u20$as$u20$core..fmt..Display$GT$3fmt17h052c38c49401caa1E, location: /home/not-matthias/.cargo/registry/src/index.crates.io-1949cf8c6b5b557f/serde-1.0.217/src/de/mod.rs:398 },
    DebugInfo { addr: 97780, size: 13, name: _ZN47_$LT$$RF$str$u20$as$u20$serde..de..Expected$GT$3fmt17h99a2f100d6935992E, location: /home/not-matthias/.cargo/registry/src/index.crates.io-1949cf8c6b5b557f/serde-1.0.217/src/de/mod.rs:490 },
    DebugInfo { addr: 97780, size: 13, name: _ZN62_$LT$serde..de..value..Error$u20$as$u20$core..fmt..Display$GT$3fmt17hbca3bba33babcc1fE, location: /home/not-matthias/.cargo/registry/src/index.crates.io-1949cf8c6b5b557f/serde-1.0.217/src/de/mod.rs:490 },
    DebugInfo { addr: 977a0, size: 9, name: _ZN66_$LT$dyn$u20$serde..de..Expected$u20$as$u20$core..fmt..Display$GT$3fmt17h0ba93dc673d26169E, location: /home/not-matthias/.cargo/registry/src/index.crates.io-1949cf8c6b5b557f/serde-1.0.217/src/de/mod.rs:497 },
    DebugInfo { addr: 977b0, size: 10f, name: _ZN66_$LT$serde..de..WithDecimalPoint$u20$as$u20$core..fmt..Display$GT$3fmt17hed204bcf79a841feE, location: /home/not-matthias/.cargo/registry/src/index.crates.io-1949cf8c6b5b557f/serde-1.0.217/src/de/mod.rs:2303 },
    DebugInfo { addr: 978c0, size: 6a, name: _ZN128_$LT$$LT$serde..de..WithDecimalPoint$u20$as$u20$core..fmt..Display$GT$..fmt..LookForDecimalPoint$u20$as$u20$core..fmt..Write$GT$9write_str17h566eb2555fb30fe7E, location: /home/not-matthias/.cargo/registry/src/index.crates.io-1949cf8c6b5b557f/serde-1.0.217/src/de/mod.rs:2310 },
    DebugInfo { addr: 97930, size: 12, name: _ZN128_$LT$$LT$serde..de..WithDecimalPoint$u20$as$u20$core..fmt..Display$GT$..fmt..LookForDecimalPoint$u20$as$u20$core..fmt..Write$GT$10write_char17hb2752ba385b92621E, location: /home/not-matthias/.cargo/registry/src/index.crates.io-1949cf8c6b5b557f/serde-1.0.217/src/de/mod.rs:2316 },
    DebugInfo { addr: 97950, size: 6c, name: _ZN5alloc7raw_vec11finish_grow17h5d0c9f81dad82d08E.llvm.17896638903930920052, location: /home/not-matthias/.rustup/toolchains/stable-x86_64-unknown-linux-gnu/lib/rustlib/src/rust/library/alloc/src/raw_vec/mod.rs:766 },
    DebugInfo { addr: 979c0, size: f5, name: _ZN5alloc7raw_vec20RawVecInner$LT$A$GT$7reserve21do_reserve_and_handle17hb744a2794358302aE, location: /home/not-matthias/.rustup/toolchains/stable-x86_64-unknown-linux-gnu/lib/rustlib/src/rust/library/alloc/src/raw_vec/mod.rs:551 },
    DebugInfo { addr: 97ac0, size: 9, name: _ZN6anyhow5error60_$LT$impl$u20$core..fmt..Debug$u20$for$u20$anyhow..Error$GT$3fmt17hc584c4e1e744f151E, location: /home/not-matthias/.cargo/registry/src/index.crates.io-1949cf8c6b5b557f/anyhow-1.0.97/src/ptr.rs:50 },
    DebugInfo { addr: 97ad0, size: 8, name: _ZN6anyhow5error65_$LT$impl$u20$core..ops..drop..Drop$u20$for$u20$anyhow..Error$GT$4drop17h4857d91980a8e05eE, location: /home/not-matthias/.cargo/registry/src/index.crates.io-1949cf8c6b5b557f/anyhow-1.0.97/src/error.rs:667 },
    DebugInfo { addr: 97ae0, size: 10, name: _ZN44_$LT$$RF$T$u20$as$u20$core..fmt..Display$GT$3fmt17h03260201d0fa6b1aE, location: /home/not-matthias/.rustup/toolchains/stable-x86_64-unknown-linux-gnu/lib/rustlib/src/rust/library/core/src/fmt/mod.rs:2636 },
    DebugInfo { addr: 97ae0, size: 10, name: _ZN44_$LT$$RF$T$u20$as$u20$core..fmt..Display$GT$3fmt17h54b6ff59799a8023E, location: /home/not-matthias/.rustup/toolchains/stable-x86_64-unknown-linux-gnu/lib/rustlib/src/rust/library/core/src/fmt/mod.rs:2636 },
    DebugInfo { addr: 97af0, size: 10, name: _ZN4core3fmt5Write9write_fmt17hae9dc57633361070E, location: /home/not-matthias/.rustup/toolchains/stable-x86_64-unknown-linux-gnu/lib/rustlib/src/rust/library/core/src/fmt/mod.rs:205 },
    DebugInfo { addr: 97b00, size: 18, name: _ZN4core3ptr42drop_in_place$LT$alloc..string..String$GT$17hf1d409e13a647a25E, location: /home/not-matthias/.rustup/toolchains/stable-x86_64-unknown-linux-gnu/lib/rustlib/src/rust/library/alloc/src/raw_vec/mod.rs:406 },
    DebugInfo { addr: 97b20, size: 130, name: _ZN4core3str21_$LT$impl$u20$str$GT$16trim_end_matches17h2543a5adbb9260deE, location: /home/not-matthias/.rustup/toolchains/stable-x86_64-unknown-linux-gnu/lib/rustlib/src/rust/library/core/src/str/mod.rs:2462 },
    DebugInfo { addr: 97c50, size: 123, name: _ZN58_$LT$alloc..string..String$u20$as$u20$core..fmt..Write$GT$10write_char17h13db4e3872bba170E, location: /home/not-matthias/.rustup/toolchains/stable-x86_64-unknown-linux-gnu/lib/rustlib/src/rust/library/alloc/src/string.rs:3202 },
    DebugInfo { addr: 97d80, size: 67, name: _ZN58_$LT$alloc..string..String$u20$as$u20$core..fmt..Write$GT$9write_str17h3471f8bf4fd2c6acE, location: /home/not-matthias/.rustup/toolchains/stable-x86_64-unknown-linux-gnu/lib/rustlib/src/rust/library/alloc/src/string.rs:3196 },
    DebugInfo { addr: 97df0, size: 14b, name: _ZN5alloc6string6String13replace_range17h76469a04ceb2b95eE, location: /home/not-matthias/.rustup/toolchains/stable-x86_64-unknown-linux-gnu/lib/rustlib/src/rust/library/alloc/src/string.rs:2048 },
    DebugInfo { addr: 97f40, size: 6, name: _ZN4core3fmt9Formatter9write_fmt17hdac197d06fcfd859E, location: /home/not-matthias/.rustup/toolchains/stable-x86_64-unknown-linux-gnu/lib/rustlib/src/rust/library/core/src/fmt/mod.rs:1896 },
    DebugInfo { addr: 97f50, size: 18, name: _ZN4core3ptr42drop_in_place$LT$alloc..string..String$GT$17hf1d409e13a647a25E, location: /home/not-matthias/.rustup/toolchains/stable-x86_64-unknown-linux-gnu/lib/rustlib/src/rust/library/alloc/src/raw_vec/mod.rs:406 },
    DebugInfo { addr: 97f70, size: 15, name: _ZN53_$LT$core..fmt..Error$u20$as$u20$core..fmt..Debug$GT$3fmt17h6736176c8e29474eE, location: /home/not-matthias/.rustup/toolchains/stable-x86_64-unknown-linux-gnu/lib/rustlib/src/rust/library/core/src/fmt/mod.rs:102 },
    DebugInfo { addr: 97f90, size: 123, name: _ZN58_$LT$alloc..string..String$u20$as$u20$core..fmt..Write$GT$10write_char17h13db4e3872bba170E, location: /home/not-matthias/.rustup/toolchains/stable-x86_64-unknown-linux-gnu/lib/rustlib/src/rust/library/alloc/src/string.rs:3202 },
    DebugInfo { addr: 980c0, size: 67, name: _ZN58_$LT$alloc..string..String$u20$as$u20$core..fmt..Write$GT$9write_str17h3471f8bf4fd2c6acE, location: /home/not-matthias/.rustup/toolchains/stable-x86_64-unknown-linux-gnu/lib/rustlib/src/rust/library/alloc/src/string.rs:3196 },
    DebugInfo { addr: 98130, size: 42, name: _ZN5alloc6string6String8truncate17haef83b3a5d9c3c2bE, location: /home/not-matthias/.rustup/toolchains/stable-x86_64-unknown-linux-gnu/lib/rustlib/src/rust/library/alloc/src/vec/mod.rs:2706 },
    DebugInfo { addr: 98180, size: 14, name: _ZN60_$LT$alloc..string..String$u20$as$u20$core..fmt..Display$GT$3fmt17h253a895d4ea9e2d1E, location: /home/not-matthias/.rustup/toolchains/stable-x86_64-unknown-linux-gnu/lib/rustlib/src/rust/library/alloc/src/string.rs:2595 },
    DebugInfo { addr: 981a0, size: 10, name: _ZN75_$LT$$RF$mut$u20$W$u20$as$u20$core..fmt..Write..write_fmt..SpecWriteFmt$GT$14spec_write_fmt17hbf6df248088bf7bcE, location: /home/not-matthias/.rustup/toolchains/stable-x86_64-unknown-linux-gnu/lib/rustlib/src/rust/library/core/src/fmt/mod.rs:225 },
    DebugInfo { addr: 981b0, size: 6, name: _ZN6anyhow5error9ErrorImpl5error17h24c8a0bb7c5f92bdE, location: /home/not-matthias/.cargo/registry/src/index.crates.io-1949cf8c6b5b557f/anyhow-1.0.97/src/error.rs:945 },
    DebugInfo { addr: 981b0, size: 6, name: _ZN6anyhow5error9ErrorImpl9error_mut17h47e1574cd0f48a93E, location: /home/not-matthias/.cargo/registry/src/index.crates.io-1949cf8c6b5b557f/anyhow-1.0.97/src/error.rs:945 },
    DebugInfo { addr: 981c0, size: 481, name: _ZN6anyhow3fmt42_$LT$impl$u20$anyhow..error..ErrorImpl$GT$5debug17hfd005b11f217b677E, location: /home/not-matthias/.cargo/registry/src/index.crates.io-1949cf8c6b5b557f/anyhow-1.0.97/src/fmt.rs:20 },
    DebugInfo { addr: 98650, size: d5, name: _ZN4core3fmt5Write10write_char17h0a62921b501c1617E, location: /home/not-matthias/.rustup/toolchains/stable-x86_64-unknown-linux-gnu/lib/rustlib/src/rust/library/core/src/fmt/mod.rs:176 },
    DebugInfo { addr: 98730, size: 10, name: _ZN4core3fmt5Write9write_fmt17hea7ce23fd5135110E, location: /home/not-matthias/.rustup/toolchains/stable-x86_64-unknown-linux-gnu/lib/rustlib/src/rust/library/core/src/fmt/mod.rs:205 },
    DebugInfo { addr: 98740, size: 299, name: _ZN67_$LT$anyhow..fmt..Indented$LT$T$GT$$u20$as$u20$core..fmt..Write$GT$9write_str17h0ed97b6c8e50876aE, location: /home/not-matthias/.cargo/registry/src/index.crates.io-1949cf8c6b5b557f/anyhow-1.0.97/src/fmt.rs:79 },
    DebugInfo { addr: 989e0, size: 55, name: _ZN79_$LT$alloc..vec..drain..Drain$LT$T$C$A$GT$$u20$as$u20$core..ops..drop..Drop$GT$4drop17hcd33cfd9cfc01c31E, location: /home/not-matthias/.rustup/toolchains/stable-x86_64-unknown-linux-gnu/lib/rustlib/src/rust/library/alloc/src/vec/drain.rs:175 },
    DebugInfo { addr: 98a40, size: 4e0, name: _ZN81_$LT$alloc..vec..splice..Splice$LT$I$C$A$GT$$u20$as$u20$core..ops..drop..Drop$GT$4drop17hf2d5ad9d695988aaE, location: /home/not-matthias/.rustup/toolchains/stable-x86_64-unknown-linux-gnu/lib/rustlib/src/rust/library/alloc/src/vec/splice.rs:56 },
    DebugInfo { addr: 98f20, size: 1a0, name: _ZN4core3ptr41drop_in_place$LT$regex_lite..hir..Hir$GT$17h0b43cea035afe368E.llvm.7058583731029587686, location: /home/not-matthias/.rustup/toolchains/stable-x86_64-unknown-linux-gnu/lib/rustlib/src/rust/library/core/src/ptr/mod.rs:524 },
    DebugInfo { addr: 990c0, size: 1a0, name: _ZN4core3ptr45drop_in_place$LT$regex_lite..hir..HirKind$GT$17h2a534849ff3b45eeE, location: /home/not-matthias/.rustup/toolchains/stable-x86_64-unknown-linux-gnu/lib/rustlib/src/rust/library/core/src/ptr/mod.rs:524 },
    DebugInfo { addr: 99260, size: bf, name: _ZN4core3ptr64drop_in_place$LT$alloc..vec..Vec$LT$regex_lite..hir..Hir$GT$$GT$17ha392081244742e12E, location: /home/not-matthias/.rustup/toolchains/stable-x86_64-unknown-linux-gnu/lib/rustlib/src/rust/library/core/src/ptr/mod.rs:524 },
    DebugInfo { addr: 99320, size: 44, name: _ZN4core3ptr66drop_in_place$LT$alloc..boxed..Box$LT$regex_lite..hir..Hir$GT$$GT$17h209f7a4e3b54d1bbE, location: /home/not-matthias/.rustup/toolchains/stable-x86_64-unknown-linux-gnu/lib/rustlib/src/rust/library/core/src/ptr/mod.rs:524 },
    DebugInfo { addr: 99370, size: 109, name: _ZN10regex_lite3hir5parse6Parser4bump17ha439f187ef988476E, location: /home/not-matthias/.cargo/registry/src/index.crates.io-1949cf8c6b5b557f/regex-lite-0.1.6/src/hir/parse.rs:232 },
    DebugInfo { addr: 99480, size: 14c, name: _ZN10regex_lite3hir5parse6Parser10bump_space17h4f924e60866f78c8E, location: /home/not-matthias/.cargo/registry/src/index.crates.io-1949cf8c6b5b557f/regex-lite-0.1.6/src/hir/parse.rs:275 },
    DebugInfo { addr: 995d0, size: ee, name: _ZN10regex_lite3hir5parse6Parser4peek17ha505e10d7ebb71dfE, location: /home/not-matthias/.cargo/registry/src/index.crates.io-1949cf8c6b5b557f/regex-lite-0.1.6/src/hir/parse.rs:300 },
    DebugInfo { addr: 996c0, size: 30e, name: _ZN10regex_lite3hir5parse6Parser10peek_space17hd6b239b35ccc0268E, location: /home/not-matthias/.cargo/registry/src/index.crates.io-1949cf8c6b5b557f/regex-lite-0.1.6/src/hir/parse.rs:309 },
    DebugInfo { addr: 999d0, size: 34bb, name: _ZN10regex_lite3hir5parse6Parser11parse_inner17hc8699eee2e329aceE.llvm.7058583731029587686, location: /home/not-matthias/.cargo/registry/src/index.crates.io-1949cf8c6b5b557f/regex-lite-0.1.6/src/hir/parse.rs:397 },
    DebugInfo { addr: 9ce90, size: 127c, name: _ZN10regex_lite3hir5parse6Parser12parse_escape17h72a6c2f9235fa7b6E, location: /home/not-matthias/.cargo/registry/src/index.crates.io-1949cf8c6b5b557f/regex-lite-0.1.6/src/hir/parse.rs:473 },
    DebugInfo { addr: 9e110, size: 35c, name: _ZN10regex_lite3hir5parse6Parser33maybe_parse_special_word_boundary17hdf7098015a35414fE, location: /home/not-matthias/.cargo/registry/src/index.crates.io-1949cf8c6b5b557f/regex-lite-0.1.6/src/hir/parse.rs:543 },
    DebugInfo { addr: 9e470, size: 37c, name: _ZN10regex_lite3hir5parse6Parser13parse_decimal17h4a3c28849b527f14E, location: /home/not-matthias/.cargo/registry/src/index.crates.io-1949cf8c6b5b557f/regex-lite-0.1.6/src/hir/parse.rs:672 },
    DebugInfo { addr: 9e7f0, size: 6d, name: _ZN10regex_lite3hir5parse6Parser16parse_class_item17hce187505d358377bE, location: /home/not-matthias/.cargo/registry/src/index.crates.io-1949cf8c6b5b557f/regex-lite-0.1.6/src/hir/parse.rs:1122 },
    DebugInfo { addr: 9e860, size: 98, name: _ZN10regex_lite3hir5parse17check_hir_nesting7recurse17h837ee1f51659a3c7E.llvm.7058583731029587686, location: /home/not-matthias/.cargo/registry/src/index.crates.io-1949cf8c6b5b557f/regex-lite-0.1.6/src/hir/parse.rs:1287 },
    DebugInfo { addr: 9e900, size: 226, name: _ZN10regex_lite3hir5parse11posix_class17h3421f792c098e908E, location: /home/not-matthias/.rustup/toolchains/stable-x86_64-unknown-linux-gnu/lib/rustlib/src/rust/library/core/src/slice/cmp.rs:136 },
    DebugInfo { addr: 9eb30, size: 51, name: _ZN10regex_lite3hir23is_escapeable_character17h6bb33f1e8dc55242E, location: /home/not-matthias/.cargo/registry/src/index.crates.io-1949cf8c6b5b557f/regex-lite-0.1.6/src/hir/mod.rs:46 },
    DebugInfo { addr: 9eb90, size: 43, name: _ZN61_$LT$regex_lite..error..Error$u20$as$u20$core..fmt..Debug$GT$3fmt17h535e80bc455e121aE, location: /home/not-matthias/.cargo/registry/src/index.crates.io-1949cf8c6b5b557f/regex-lite-0.1.6/src/error.rs:10 },
    DebugInfo { addr: 9ebe0, size: 46, name: _ZN4core3ptr43drop_in_place$LT$regex_lite..nfa..State$GT$17hddf3af76c6552dbaE, location: /home/not-matthias/.rustup/toolchains/stable-x86_64-unknown-linux-gnu/lib/rustlib/src/rust/library/core/src/ptr/mod.rs:524 },
    DebugInfo { addr: 9ec30, size: b1, name: _ZN4core3ptr66drop_in_place$LT$alloc..vec..Vec$LT$regex_lite..nfa..State$GT$$GT$17h439d4ce5ee498820E, location: /home/not-matthias/.rustup/toolchains/stable-x86_64-unknown-linux-gnu/lib/rustlib/src/rust/library/core/src/ptr/mod.rs:524 },
    DebugInfo { addr: 9ecf0, size: 284, name: _ZN4core3ptr68drop_in_place$LT$core..cell..RefCell$LT$regex_lite..nfa..NFA$GT$$GT$17hbce5653d891a2a42E, location: /home/not-matthias/.rustup/toolchains/stable-x86_64-unknown-linux-gnu/lib/rustlib/src/rust/library/core/src/ptr/mod.rs:524 },
    DebugInfo { addr: 9ef80, size: 105, name: _ZN4core3ptr99drop_in_place$LT$alloc..vec..Vec$LT$core..option..Option$LT$alloc..sync..Arc$LT$str$GT$$GT$$GT$$GT$17h09c1a54134dc389eE, location: /home/not-matthias/.rustup/toolchains/stable-x86_64-unknown-linux-gnu/lib/rustlib/src/rust/library/core/src/ptr/mod.rs:524 },
    DebugInfo { addr: 9f090, size: 2cb, name: _ZN10regex_lite3nfa3NFA3new17h628b93f35973cfaaE, location: /home/not-matthias/.cargo/registry/src/index.crates.io-1949cf8c6b5b557f/regex-lite-0.1.6/src/nfa.rs:55 },
    DebugInfo { addr: 9f360, size: ad2, name: _ZN10regex_lite3nfa8Compiler1c17h71b7aabd52f7d767E, location: /home/not-matthias/.cargo/registry/src/index.crates.io-1949cf8c6b5b557f/regex-lite-0.1.6/src/nfa.rs:293 },
    DebugInfo { addr: 9fe40, size: 21a, name: _ZN10regex_lite3nfa8Compiler9c_bounded17h9c0dcfa7c79b67adE, location: /home/not-matthias/.cargo/registry/src/index.crates.io-1949cf8c6b5b557f/regex-lite-0.1.6/src/nfa.rs:380 },
    DebugInfo { addr: a0060, size: 471, name: _ZN10regex_lite3nfa8Compiler9c_capture17h9af9ceaae7d58b5aE, location: /home/not-matthias/.cargo/registry/src/index.crates.io-1949cf8c6b5b557f/regex-lite-0.1.6/src/nfa.rs:534 },
    DebugInfo { addr: a04e0, size: 145, name: _ZN10regex_lite3nfa8Compiler8c_concat17h7687fd49686f30d3E, location: /home/not-matthias/.cargo/registry/src/index.crates.io-1949cf8c6b5b557f/regex-lite-0.1.6/src/nfa.rs:579 },
    DebugInfo { addr: a0630, size: 1e4, name: _ZN10regex_lite3nfa8Compiler3add17h531a737fe656df3bE, location: /home/not-matthias/.cargo/registry/src/index.crates.io-1949cf8c6b5b557f/regex-lite-0.1.6/src/nfa.rs:643 },
    DebugInfo { addr: a0820, size: 16e, name: _ZN10regex_lite3nfa8Compiler5patch17ha7608f21f43147a2E, location: /home/not-matthias/.cargo/registry/src/index.crates.io-1949cf8c6b5b557f/regex-lite-0.1.6/src/nfa.rs:665 },
    DebugInfo { addr: a0990, size: 1c0, name: _ZN4core3ptr41drop_in_place$LT$regex_lite..hir..Hir$GT$17h0b43cea035afe368E.llvm.15098126386816892269, location: /home/not-matthias/.rustup/toolchains/stable-x86_64-unknown-linux-gnu/lib/rustlib/src/rust/library/core/src/ptr/mod.rs:524 },
    DebugInfo { addr: a0b50, size: 1a0, name: _ZN4core3ptr45drop_in_place$LT$regex_lite..hir..HirKind$GT$17h2a534849ff3b45eeE, location: /home/not-matthias/.rustup/toolchains/stable-x86_64-unknown-linux-gnu/lib/rustlib/src/rust/library/core/src/ptr/mod.rs:524 },
    DebugInfo { addr: a0cf0, size: 83, name: _ZN4core3ptr51drop_in_place$LT$regex_lite..hir..parse..Parser$GT$17h7412cd341d3ba3b7E.llvm.15098126386816892269, location: /home/not-matthias/.rustup/toolchains/stable-x86_64-unknown-linux-gnu/lib/rustlib/src/rust/library/core/src/ptr/mod.rs:524 },
    DebugInfo { addr: a0d80, size: bf, name: _ZN4core3ptr64drop_in_place$LT$alloc..vec..Vec$LT$regex_lite..hir..Hir$GT$$GT$17ha392081244742e12E, location: /home/not-matthias/.rustup/toolchains/stable-x86_64-unknown-linux-gnu/lib/rustlib/src/rust/library/core/src/ptr/mod.rs:524 },
    DebugInfo { addr: a0e40, size: 259, name: _ZN10regex_lite3hir3Hir5parse17h82d85c3871d83bd4E, location: /home/not-matthias/.cargo/registry/src/index.crates.io-1949cf8c6b5b557f/regex-lite-0.1.6/src/hir/mod.rs:177 },
    DebugInfo { addr: a10a0, size: 1bc, name: _ZN10regex_lite3hir3Hir11alternation17h981b397e84b5831cE, location: /home/not-matthias/.cargo/registry/src/index.crates.io-1949cf8c6b5b557f/regex-lite-0.1.6/src/hir/mod.rs:337 },
    DebugInfo { addr: a1260, size: 87, name: _ZN10regex_lite3hir5Class3new17h1131390f26727466E, location: /home/not-matthias/.cargo/registry/src/index.crates.io-1949cf8c6b5b557f/regex-lite-0.1.6/src/hir/mod.rs:396 },
    DebugInfo { addr: a12f0, size: 93, name: _ZN10regex_lite3hir5Class3new17h2c6e21dcba6d6222E, location: /home/not-matthias/.cargo/registry/src/index.crates.io-1949cf8c6b5b557f/regex-lite-0.1.6/src/hir/mod.rs:396 },
    DebugInfo { addr: a1390, size: 1e3, name: _ZN10regex_lite3hir5Class3new17h3db5c20d8c0caa27E, location: /home/not-matthias/.cargo/registry/src/index.crates.io-1949cf8c6b5b557f/regex-lite-0.1.6/src/hir/mod.rs:396 },
    DebugInfo { addr: a1580, size: 86, name: _ZN10regex_lite3hir5Class3new17hc148ff699c91a305E, location: /home/not-matthias/.cargo/registry/src/index.crates.io-1949cf8c6b5b557f/regex-lite-0.1.6/src/hir/mod.rs:396 },
    DebugInfo { addr: a1610, size: 2b4, name: _ZN10regex_lite3hir5Class6negate17h1818ad02f7f3f200E, location: /home/not-matthias/.cargo/registry/src/index.crates.io-1949cf8c6b5b557f/regex-lite-0.1.6/src/hir/mod.rs:418 },
    DebugInfo { addr: a18d0, size: 21b, name: _ZN10regex_lite3hir5Class12canonicalize17ha778a58711141c2bE.llvm.15098126386816892269, location: /home/not-matthias/.cargo/registry/src/index.crates.io-1949cf8c6b5b557f/regex-lite-0.1.6/src/hir/mod.rs:476 },
    DebugInfo { addr: a1af0, size: 315, name: _ZN10regex_lite3hir4Look8is_match17h6a83135b1c2c2a74E, location: /home/not-matthias/.cargo/registry/src/index.crates.io-1949cf8c6b5b557f/regex-lite-0.1.6/src/hir/mod.rs:636 },
    DebugInfo { addr: a1e10, size: 501, name: _ZN62_$LT$regex_lite..hir..Hir$u20$as$u20$core..ops..drop..Drop$GT$4drop17h171601323e8b5080E, location: /home/not-matthias/.cargo/registry/src/index.crates.io-1949cf8c6b5b557f/regex-lite-0.1.6/src/hir/mod.rs:770 },
    DebugInfo { addr: a2320, size: 16d, name: _ZN137_$LT$alloc..vec..Vec$LT$T$GT$$u20$as$u20$alloc..vec..spec_from_iter..SpecFromIter$LT$T$C$alloc..vec..into_iter..IntoIter$LT$T$GT$$GT$$GT$9from_iter17h309cd66b47e7dbd1E, location: /home/not-matthias/.rustup/toolchains/stable-x86_64-unknown-linux-gnu/lib/rustlib/src/rust/library/alloc/src/vec/spec_from_iter.rs:40 },
    DebugInfo { addr: a2490, size: 1a0, name: _ZN4core3ptr41drop_in_place$LT$regex_lite..hir..Hir$GT$17h0b43cea035afe368E.llvm.8375798135717281501, location: /home/not-matthias/.rustup/toolchains/stable-x86_64-unknown-linux-gnu/lib/rustlib/src/rust/library/core/src/ptr/mod.rs:524 },
    DebugInfo { addr: a2630, size: 1a0, name: _ZN4core3ptr45drop_in_place$LT$regex_lite..hir..HirKind$GT$17h2a534849ff3b45eeE, location: /home/not-matthias/.rustup/toolchains/stable-x86_64-unknown-linux-gnu/lib/rustlib/src/rust/library/core/src/ptr/mod.rs:524 },
    DebugInfo { addr: a27d0, size: 133, name: _ZN5alloc3vec16Vec$LT$T$C$A$GT$14extend_trusted17h537424e99a0f6510E, location: /home/not-matthias/.rustup/toolchains/stable-x86_64-unknown-linux-gnu/lib/rustlib/src/rust/library/alloc/src/vec/mod.rs:3566 },
    DebugInfo { addr: a2910, size: 74, name: _ZN70_$LT$alloc..vec..Vec$LT$T$C$A$GT$$u20$as$u20$core..ops..drop..Drop$GT$4drop17h6bb4581fae174495E, location: /home/not-matthias/.rustup/toolchains/stable-x86_64-unknown-linux-gnu/lib/rustlib/src/rust/library/alloc/src/vec/mod.rs:3799 },
    DebugInfo { addr: a2990, size: 111, name: _ZN98_$LT$alloc..vec..Vec$LT$T$GT$$u20$as$u20$alloc..vec..spec_from_iter..SpecFromIter$LT$T$C$I$GT$$GT$9from_iter17h7e9a8fd3cb156f0fE, location: /home/not-matthias/.rustup/toolchains/stable-x86_64-unknown-linux-gnu/lib/rustlib/src/rust/library/alloc/src/vec/spec_from_iter.rs:33 },
    DebugInfo { addr: a2ab0, size: 111, name: _ZN98_$LT$alloc..vec..Vec$LT$T$GT$$u20$as$u20$alloc..vec..spec_from_iter..SpecFromIter$LT$T$C$I$GT$$GT$9from_iter17h99bbea7f453fd438E, location: /home/not-matthias/.rustup/toolchains/stable-x86_64-unknown-linux-gnu/lib/rustlib/src/rust/library/alloc/src/vec/spec_from_iter.rs:33 },
    DebugInfo { addr: a2bd0, size: b8, name: _ZN98_$LT$alloc..vec..Vec$LT$T$GT$$u20$as$u20$alloc..vec..spec_from_iter..SpecFromIter$LT$T$C$I$GT$$GT$9from_iter17hdecb5e8c6d65c6adE, location: /home/not-matthias/.rustup/toolchains/stable-x86_64-unknown-linux-gnu/lib/rustlib/src/rust/library/alloc/src/vec/spec_from_iter.rs:33 },
    DebugInfo { addr: a2c90, size: 218, name: _ZN5alloc4sync16Arc$LT$T$C$A$GT$9drop_slow17h454046a6aeffce0dE, location: /home/not-matthias/.rustup/toolchains/stable-x86_64-unknown-linux-gnu/lib/rustlib/src/rust/library/alloc/src/sync.rs:1932 },
    DebugInfo { addr: a2eb0, size: 2d, name: _ZN5alloc4sync16Arc$LT$T$C$A$GT$9drop_slow17h495bf934a72d7715E, location: /home/not-matthias/.rustup/toolchains/stable-x86_64-unknown-linux-gnu/lib/rustlib/src/rust/library/alloc/src/sync.rs:1932 },
    DebugInfo { addr: a2ee0, size: 15, name: _ZN69_$LT$core..alloc..layout..LayoutError$u20$as$u20$core..fmt..Debug$GT$3fmt17hbaa65eea7f1a89d3E.llvm.3647134840619886961, location: /home/not-matthias/.rustup/toolchains/stable-x86_64-unknown-linux-gnu/lib/rustlib/src/rust/library/core/src/alloc/layout.rs:547 },
    DebugInfo { addr: a2f00, size: 1d7, name: _ZN71_$LT$core..hash..sip..Hasher$LT$S$GT$$u20$as$u20$core..hash..Hasher$GT$5write17hdeb740d8a9c973b0E.llvm.3647134840619886961, location: /home/not-matthias/.rustup/toolchains/stable-x86_64-unknown-linux-gnu/lib/rustlib/src/rust/library/core/src/hash/sip.rs:255 },
    DebugInfo { addr: a30e0, size: 297, name: _ZN9hashbrown3map28HashMap$LT$K$C$V$C$S$C$A$GT$6insert17hf1d054724e2fcb5fE, location: /rust/deps/hashbrown-0.15.3/src/map.rs:1790 },
    DebugInfo { addr: a3380, size: 10, name: _ZN4core3ops8function6FnOnce9call_once17h9cb86e9ee8da658cE, location: /home/not-matthias/.rustup/toolchains/stable-x86_64-unknown-linux-gnu/lib/rustlib/src/rust/library/core/src/ptr/non_null.rs:428 },
    DebugInfo { addr: a3390, size: b6, name: _ZN4core3ptr181drop_in_place$LT$hashbrown..scopeguard..ScopeGuard$LT$$RF$mut$u20$hashbrown..raw..RawTableInner$C$hashbrown..raw..RawTableInner..rehash_in_place..$u7b$$u7b$closure$u7d$$u7d$$GT$$GT$17h515c627afd6b9584E, location: /home/not-matthias/.rustup/toolchains/stable-x86_64-unknown-linux-gnu/lib/rustlib/src/rust/library/core/src/ptr/mod.rs:524 },
    DebugInfo { addr: a3450, size: 3d, name: _ZN4core3ptr196drop_in_place$LT$hashbrown..scopeguard..ScopeGuard$LT$hashbrown..raw..RawTableInner$C$hashbrown..raw..RawTableInner..prepare_resize$LT$alloc..alloc..Global$GT$..$u7b$$u7b$closure$u7d$$u7d$$GT$$GT$17ha76be6a548eb2badE, location: /rust/deps/hashbrown-0.15.3/src/scopeguard.rs:70 },
    DebugInfo { addr: a3490, size: 6cc, name: _ZN9hashbrown3raw21RawTable$LT$T$C$A$GT$14reserve_rehash17h23d908ebdcda078eE, location: /rust/deps/hashbrown-0.15.3/src/raw/mod.rs:977 },
    DebugInfo { addr: a3b60, size: 138, name: _ZN4core3ops8function6FnOnce40call_once$u7b$$u7b$vtable.shim$u7d$$u7d$17h144a71c02e812426E, location: /home/not-matthias/.rustup/toolchains/stable-x86_64-unknown-linux-gnu/lib/rustlib/src/rust/library/core/src/ops/function.rs:250 },
    DebugInfo { addr: a3ca0, size: 10, name: _ZN4core3ptr120drop_in_place$LT$$LT$regex_lite..string..Regex$u20$as$u20$core..clone..Clone$GT$..clone..$u7b$$u7b$closure$u7d$$u7d$$GT$17h2f9aeb8f8c685efbE, location: /home/not-matthias/.rustup/toolchains/stable-x86_64-unknown-linux-gnu/lib/rustlib/src/rust/library/core/src/ptr/non_null.rs:428 },
    DebugInfo { addr: a3cb0, size: 1a0, name: _ZN4core3ptr41drop_in_place$LT$regex_lite..hir..Hir$GT$17h0b43cea035afe368E, location: /home/not-matthias/.rustup/toolchains/stable-x86_64-unknown-linux-gnu/lib/rustlib/src/rust/library/core/src/ptr/mod.rs:524 },
    DebugInfo { addr: a3e50, size: 1a0, name: _ZN4core3ptr45drop_in_place$LT$regex_lite..hir..HirKind$GT$17h2a534849ff3b45eeE, location: /home/not-matthias/.rustup/toolchains/stable-x86_64-unknown-linux-gnu/lib/rustlib/src/rust/library/core/src/ptr/mod.rs:524 },
    DebugInfo { addr: a3ff0, size: 284, name: _ZN4core3ptr76drop_in_place$LT$alloc..sync..ArcInner$LT$regex_lite..pikevm..PikeVM$GT$$GT$17ha9e3074e2dacee4fE, location: /home/not-matthias/.rustup/toolchains/stable-x86_64-unknown-linux-gnu/lib/rustlib/src/rust/library/core/src/ptr/mod.rs:524 },
    DebugInfo { addr: a4280, size: 105, name: _ZN4core3ptr99drop_in_place$LT$alloc..vec..Vec$LT$core..option..Option$LT$alloc..sync..Arc$LT$str$GT$$GT$$GT$$GT$17h09c1a54134dc389eE, location: /home/not-matthias/.rustup/toolchains/stable-x86_64-unknown-linux-gnu/lib/rustlib/src/rust/library/core/src/ptr/mod.rs:524 },
    DebugInfo { addr: a4390, size: ff, name: _ZN10regex_lite6string5Regex3new17hf87747b4f27b6680E, location: /home/not-matthias/.cargo/registry/src/index.crates.io-1949cf8c6b5b557f/regex-lite-0.1.6/src/string.rs:168 },
    DebugInfo { addr: a4490, size: 2ba, name: _ZN10regex_lite6string12RegexBuilder5build17h86fdb90b44d9c74eE, location: /home/not-matthias/.cargo/registry/src/index.crates.io-1949cf8c6b5b557f/regex-lite-0.1.6/src/string.rs:2653 },
    DebugInfo { addr: a4750, size: fe, name: _ZN10regex_lite6string12RegexBuilder5build28_$u7b$$u7b$closure$u7d$$u7d$17he8bf207c928fb7c5E, location: /home/not-matthias/.cargo/registry/src/index.crates.io-1949cf8c6b5b557f/regex-lite-0.1.6/src/string.rs:2659 },
    DebugInfo { addr: a4850, size: 23, name: _ZN4core3fmt3num50_$LT$impl$u20$core..fmt..Debug$u20$for$u20$u32$GT$3fmt17hc1ecbfcf2e19d62dE, location: /home/not-matthias/.rustup/toolchains/stable-x86_64-unknown-linux-gnu/lib/rustlib/src/rust/library/core/src/fmt/mod.rs:2169 },
    DebugInfo { addr: a4880, size: 23, name: _ZN4core3fmt3num52_$LT$impl$u20$core..fmt..Debug$u20$for$u20$usize$GT$3fmt17h7abaade222174992E, location: /home/not-matthias/.rustup/toolchains/stable-x86_64-unknown-linux-gnu/lib/rustlib/src/rust/library/core/src/fmt/mod.rs:2169 },
    DebugInfo { addr: a48b0, size: 5a, name: _ZN4core3ptr53drop_in_place$LT$regex_lite..pikevm..ActiveStates$GT$17h9969aca44f1b9fdaE.llvm.4847484110524873654, location: /home/not-matthias/.rustup/toolchains/stable-x86_64-unknown-linux-gnu/lib/rustlib/src/rust/library/core/src/ptr/mod.rs:524 },
    DebugInfo { addr: a4910, size: 29, name: _ZN70_$LT$core..num..error..TryFromIntError$u20$as$u20$core..fmt..Debug$GT$3fmt17h1ec19825d3f66aafE, location: /home/not-matthias/.rustup/toolchains/stable-x86_64-unknown-linux-gnu/lib/rustlib/src/rust/library/core/src/num/error.rs:9 },
    DebugInfo { addr: a4940, size: 7f2, name: _ZN10regex_lite6pikevm6PikeVM6search17h9cfea1aa32ed8b8cE, location: /home/not-matthias/.cargo/registry/src/index.crates.io-1949cf8c6b5b557f/regex-lite-0.1.6/src/pikevm.rs:72 },
    DebugInfo { addr: a5140, size: 7ca, name: _ZN10regex_lite6pikevm6PikeVM15epsilon_closure17hb333ac847752dbe4E, location: /home/not-matthias/.cargo/registry/src/index.crates.io-1949cf8c6b5b557f/regex-lite-0.1.6/src/pikevm.rs:307 },
    DebugInfo { addr: a5910, size: 352, name: _ZN10regex_lite6pikevm12ActiveStates3new17he7053f8072fc5de0E.llvm.4847484110524873654, location: /home/not-matthias/.cargo/registry/src/index.crates.io-1949cf8c6b5b557f/regex-lite-0.1.6/src/pikevm.rs:621 },
    DebugInfo { addr: a5c70, size: 737, name: _ZN4core5slice4sort6stable5drift4sort17h857ad5c19c8da18eE, location: /home/not-matthias/.rustup/toolchains/stable-x86_64-unknown-linux-gnu/lib/rustlib/src/rust/library/core/src/slice/sort/stable/drift.rs:20 },
    DebugInfo { addr: a63b0, size: 4cf, name: _ZN4core5slice4sort6shared9smallsort12sort8_stable17h1a353414a65c42a3E, location: /home/not-matthias/.rustup/toolchains/stable-x86_64-unknown-linux-gnu/lib/rustlib/src/rust/library/core/src/slice/sort/shared/smallsort.rs:663 },
    DebugInfo { addr: a6880, size: be, name: _ZN4core5slice4sort6shared9smallsort25insertion_sort_shift_left17h03d962504840de47E, location: /home/not-matthias/.rustup/toolchains/stable-x86_64-unknown-linux-gnu/lib/rustlib/src/rust/library/core/src/slice/sort/shared/smallsort.rs:586 },
    DebugInfo { addr: a6940, size: 56e, name: _ZN4core5slice4sort6shared9smallsort31small_sort_general_with_scratch17h489ab49e053d8c9dE, location: /home/not-matthias/.rustup/toolchains/stable-x86_64-unknown-linux-gnu/lib/rustlib/src/rust/library/core/src/slice/sort/shared/smallsort.rs:220 },
    DebugInfo { addr: a6eb0, size: 5d, name: _ZN63_$LT$regex_lite..error..Error$u20$as$u20$core..fmt..Display$GT$3fmt17hcc39f7c89aa5e16dE, location: /home/not-matthias/.cargo/registry/src/index.crates.io-1949cf8c6b5b557f/regex-lite-0.1.6/src/error.rs:25 },
    DebugInfo { addr: a6f10, size: 15, name: _ZN42_$LT$$RF$T$u20$as$u20$core..fmt..Debug$GT$3fmt17h39ec908cb63b693dE, location: /home/not-matthias/.rustup/toolchains/stable-x86_64-unknown-linux-gnu/lib/rustlib/src/rust/library/core/src/fmt/mod.rs:2636 },
    DebugInfo { addr: a6f30, size: 9, name: _ZN42_$LT$$RF$T$u20$as$u20$core..fmt..Debug$GT$3fmt17h7d4efbb55d3da8aaE, location: /home/not-matthias/.rustup/toolchains/stable-x86_64-unknown-linux-gnu/lib/rustlib/src/rust/library/core/src/fmt/mod.rs:2636 },
    DebugInfo { addr: a6f40, size: 13, name: _ZN42_$LT$$RF$T$u20$as$u20$core..fmt..Debug$GT$3fmt17he26aa9b9a30f523dE, location: /home/not-matthias/.rustup/toolchains/stable-x86_64-unknown-linux-gnu/lib/rustlib/src/rust/library/core/src/fmt/mod.rs:2636 },
    DebugInfo { addr: a6f60, size: 13, name: _ZN44_$LT$$RF$T$u20$as$u20$core..fmt..Display$GT$3fmt17h3a5663a17ea6d228E, location: /home/not-matthias/.rustup/toolchains/stable-x86_64-unknown-linux-gnu/lib/rustlib/src/rust/library/core/src/fmt/mod.rs:2636 },
    DebugInfo { addr: a6f80, size: 16e, name: _ZN4core4hash11BuildHasher8hash_one17hb82b6638ad9d6607E, location: /home/not-matthias/.rustup/toolchains/stable-x86_64-unknown-linux-gnu/lib/rustlib/src/rust/library/core/src/hash/mod.rs:694 },
    DebugInfo { addr: a70f0, size: 135, name: _ZN4core5slice4sort6stable14driftsort_main17h9dae56fe281b135bE, location: /home/not-matthias/.rustup/toolchains/stable-x86_64-unknown-linux-gnu/lib/rustlib/src/rust/library/core/src/slice/sort/stable/mod.rs:94 },
    DebugInfo { addr: a7230, size: 6c, name: _ZN5alloc7raw_vec11finish_grow17h22749841c4040bcbE.llvm.16565886190478399418, location: /home/not-matthias/.rustup/toolchains/stable-x86_64-unknown-linux-gnu/lib/rustlib/src/rust/library/alloc/src/raw_vec/mod.rs:766 },
    DebugInfo { addr: a72a0, size: b4, name: _ZN5alloc7raw_vec19RawVec$LT$T$C$A$GT$8grow_one17h021c2c0c58d6d71fE, location: /home/not-matthias/.rustup/toolchains/stable-x86_64-unknown-linux-gnu/lib/rustlib/src/rust/library/alloc/src/raw_vec/mod.rs:339 },
    DebugInfo { addr: a72a0, size: b4, name: _ZN5alloc7raw_vec19RawVec$LT$T$C$A$GT$8grow_one17h789467cebe6f01c3E, location: /home/not-matthias/.rustup/toolchains/stable-x86_64-unknown-linux-gnu/lib/rustlib/src/rust/library/alloc/src/raw_vec/mod.rs:339 },
    DebugInfo { addr: a7360, size: b5, name: _ZN5alloc7raw_vec19RawVec$LT$T$C$A$GT$8grow_one17h1d3b491d55606a98E, location: /home/not-matthias/.rustup/toolchains/stable-x86_64-unknown-linux-gnu/lib/rustlib/src/rust/library/alloc/src/raw_vec/mod.rs:339 },
    DebugInfo { addr: a7420, size: b5, name: _ZN5alloc7raw_vec19RawVec$LT$T$C$A$GT$8grow_one17h40ac7f7ae9228ba3E, location: /home/not-matthias/.rustup/toolchains/stable-x86_64-unknown-linux-gnu/lib/rustlib/src/rust/library/alloc/src/raw_vec/mod.rs:339 },
    DebugInfo { addr: a74e0, size: b4, name: _ZN5alloc7raw_vec19RawVec$LT$T$C$A$GT$8grow_one17h4baf385f6d9b015bE, location: /home/not-matthias/.rustup/toolchains/stable-x86_64-unknown-linux-gnu/lib/rustlib/src/rust/library/alloc/src/raw_vec/mod.rs:339 },
    DebugInfo { addr: a75a0, size: b4, name: _ZN5alloc7raw_vec19RawVec$LT$T$C$A$GT$8grow_one17h5a6a84edc4d6f7b0E, location: /home/not-matthias/.rustup/toolchains/stable-x86_64-unknown-linux-gnu/lib/rustlib/src/rust/library/alloc/src/raw_vec/mod.rs:339 },
    DebugInfo { addr: a7660, size: b5, name: _ZN5alloc7raw_vec19RawVec$LT$T$C$A$GT$8grow_one17hd85c58fdc6b87b9bE, location: /home/not-matthias/.rustup/toolchains/stable-x86_64-unknown-linux-gnu/lib/rustlib/src/rust/library/alloc/src/raw_vec/mod.rs:339 },
    DebugInfo { addr: a7720, size: f5, name: _ZN5alloc7raw_vec20RawVecInner$LT$A$GT$7reserve21do_reserve_and_handle17ha2daf49c779c5eafE, location: /home/not-matthias/.rustup/toolchains/stable-x86_64-unknown-linux-gnu/lib/rustlib/src/rust/library/alloc/src/raw_vec/mod.rs:551 },
    DebugInfo { addr: a7820, size: df, name: _ZN4core5slice4sort6shared5pivot11median3_rec17h49ebf3e9cb98ab95E, location: /home/not-matthias/.rustup/toolchains/stable-x86_64-unknown-linux-gnu/lib/rustlib/src/rust/library/core/src/slice/sort/shared/pivot.rs:49 },
    DebugInfo { addr: a7900, size: 754, name: _ZN4core5slice4sort6stable9quicksort9quicksort17hc9f6de8129e6e14aE, location: /home/not-matthias/.rustup/toolchains/stable-x86_64-unknown-linux-gnu/lib/rustlib/src/rust/library/core/src/slice/sort/stable/quicksort.rs:16 },
    DebugInfo { addr: a8054, size: 2e, name: _ZN4core9panicking13assert_failed17h140a33c804e0816aE, location: /home/not-matthias/.rustup/toolchains/stable-x86_64-unknown-linux-gnu/lib/rustlib/src/rust/library/core/src/panicking.rs:378 },
    DebugInfo { addr: a8090, size: 55, name: _ZN4core3ptr167drop_in_place$LT$$LT$alloc..vec..drain..Drain$LT$T$C$A$GT$$u20$as$u20$core..ops..drop..Drop$GT$..drop..DropGuard$LT$regex_lite..hir..Hir$C$alloc..alloc..Global$GT$$GT$17hadf0eea4c360272eE.llvm.4045347955167671866, location: /home/not-matthias/.rustup/toolchains/stable-x86_64-unknown-linux-gnu/lib/rustlib/src/rust/library/alloc/src/vec/drain.rs:181 },
    DebugInfo { addr: a80f0, size: 1a0, name: _ZN4core3ptr41drop_in_place$LT$regex_lite..hir..Hir$GT$17h0b43cea035afe368E.llvm.4045347955167671866, location: /home/not-matthias/.rustup/toolchains/stable-x86_64-unknown-linux-gnu/lib/rustlib/src/rust/library/core/src/ptr/mod.rs:524 },
    DebugInfo { addr: a8290, size: 1a0, name: _ZN4core3ptr45drop_in_place$LT$regex_lite..hir..HirKind$GT$17h2a534849ff3b45eeE, location: /home/not-matthias/.rustup/toolchains/stable-x86_64-unknown-linux-gnu/lib/rustlib/src/rust/library/core/src/ptr/mod.rs:524 },
    DebugInfo { addr: a8430, size: dc, name: _ZN79_$LT$alloc..vec..drain..Drain$LT$T$C$A$GT$$u20$as$u20$core..ops..drop..Drop$GT$4drop17hd4ba310ff36e7b14E, location: /home/not-matthias/.rustup/toolchains/stable-x86_64-unknown-linux-gnu/lib/rustlib/src/rust/library/alloc/src/vec/drain.rs:175 },
    DebugInfo { addr: a8510, size: 1d5, name: _ZN102_$LT$core..iter..adapters..map..Map$LT$I$C$F$GT$$u20$as$u20$core..iter..traits..iterator..Iterator$GT$4next17hf735045db9572ff8E.llvm.9287781225886421394, location: /home/not-matthias/.rustup/toolchains/stable-x86_64-unknown-linux-gnu/lib/rustlib/src/rust/library/core/src/iter/adapters/map.rs:106 },
    DebugInfo { addr: a86f0, size: 18f, name: _ZN104_$LT$core..iter..sources..from_fn..FromFn$LT$F$GT$$u20$as$u20$core..iter..traits..iterator..Iterator$GT$4next17h2e0924c69edb95c7E.llvm.9287781225886421394, location: /home/not-matthias/.rustup/toolchains/stable-x86_64-unknown-linux-gnu/lib/rustlib/src/rust/library/core/src/iter/sources/from_fn.rs:70 },
    DebugInfo { addr: a8880, size: 1d6, name: _ZN115_$LT$core..iter..adapters..filter_map..FilterMap$LT$I$C$F$GT$$u20$as$u20$core..iter..traits..iterator..Iterator$GT$4next17h5c5f7aadb252a6f8E, location: /home/not-matthias/.rustup/toolchains/stable-x86_64-unknown-linux-gnu/lib/rustlib/src/rust/library/core/src/iter/adapters/filter_map.rs:63 },
    DebugInfo { addr: a8a60, size: 68, name: _ZN132_$LT$alloc..vec..Vec$LT$T$C$A$GT$$u20$as$u20$alloc..vec..spec_extend..SpecExtend$LT$$RF$T$C$core..slice..iter..Iter$LT$T$GT$$GT$$GT$11spec_extend17hb48620575a70ee94E, location: /home/not-matthias/.rustup/toolchains/stable-x86_64-unknown-linux-gnu/lib/rustlib/src/rust/library/alloc/src/vec/spec_extend.rs:59 },
    DebugInfo { addr: a8ad0, size: 174, name: _ZN137_$LT$alloc..vec..Vec$LT$T$GT$$u20$as$u20$alloc..vec..spec_from_iter..SpecFromIter$LT$T$C$alloc..vec..into_iter..IntoIter$LT$T$GT$$GT$$GT$9from_iter17hcf97cb17769785ebE, location: /home/not-matthias/.rustup/toolchains/stable-x86_64-unknown-linux-gnu/lib/rustlib/src/rust/library/alloc/src/vec/spec_from_iter.rs:40 },
    DebugInfo { addr: a8c50, size: c3, name: _ZN4core3ptr106drop_in_place$LT$alloc..vec..Vec$LT$alloc..vec..Vec$LT$clap_builder..util..any_value..AnyValue$GT$$GT$$GT$17h3ed8dbed13fd4322E.llvm.9287781225886421394, location: /home/not-matthias/.rustup/toolchains/stable-x86_64-unknown-linux-gnu/lib/rustlib/src/rust/library/core/src/ptr/mod.rs:524 },
    DebugInfo { addr: a8d20, size: 5a, name: _ZN4core3ptr168drop_in_place$LT$alloc..boxed..Box$LT$dyn$u20$core..iter..traits..iterator..Iterator$u2b$Item$u20$$u3d$$u20$clap_builder..builder..possible_value..PossibleValue$GT$$GT$17hf6c1d259cdc10a20E, location: /home/not-matthias/.rustup/toolchains/stable-x86_64-unknown-linux-gnu/lib/rustlib/src/rust/library/core/src/ptr/mod.rs:524 },
    DebugInfo { addr: a8d80, size: 49, name: _ZN4core3ptr415drop_in_place$LT$core..iter..adapters..filter_map..FilterMap$LT$core..iter..adapters..flatten..FlatMap$LT$core..slice..iter..Iter$LT$clap_builder..util..id..Id$GT$$C$alloc..vec..Vec$LT$clap_builder..util..id..Id$GT$$C$clap_builder..parser..validator..Validator..build_conflict_err..$u7b$$u7b$closure$u7d$$u7d$$GT$$C$clap_builder..parser..validator..Validator..build_conflict_err..$u7b$$u7b$closure$u7d$$u7d$$GT$$GT$17h9aad23cfce9a0fddE, location: /home/not-matthias/.rustup/toolchains/stable-x86_64-unknown-linux-gnu/lib/rustlib/src/rust/library/core/src/ptr/mod.rs:524 },
    DebugInfo { addr: a8dd0, size: 18, name: _ZN4core3ptr42drop_in_place$LT$alloc..string..String$GT$17hd6d205257de6c30dE, location: /home/not-matthias/.rustup/toolchains/stable-x86_64-unknown-linux-gnu/lib/rustlib/src/rust/library/alloc/src/raw_vec/mod.rs:406 },
    DebugInfo { addr: a8df0, size: 113, name: _ZN4core3ptr51drop_in_place$LT$clap_builder..mkeymap..MKeyMap$GT$17h8cdf7013464c0061E, location: /home/not-matthias/.rustup/toolchains/stable-x86_64-unknown-linux-gnu/lib/rustlib/src/rust/library/core/src/ptr/mod.rs:524 },
    DebugInfo { addr: a8f10, size: 643, name: _ZN4core3ptr52drop_in_place$LT$clap_builder..builder..arg..Arg$GT$17he9c0a80b4a99c6b8E.llvm.9287781225886421394, location: /home/not-matthias/.rustup/toolchains/stable-x86_64-unknown-linux-gnu/lib/rustlib/src/rust/library/core/src/ptr/mod.rs:524 },
    DebugInfo { addr: a9560, size: 2f, name: _ZN4core3ptr59drop_in_place$LT$clap_builder..builder..ext..Extensions$GT$17h6250317f4a1980b8E, location: /home/not-matthias/.rustup/toolchains/stable-x86_64-unknown-linux-gnu/lib/rustlib/src/rust/library/alloc/src/raw_vec/mod.rs:406 },
    DebugInfo { addr: a9590, size: 43d, name: _ZN4core3ptr60drop_in_place$LT$clap_builder..builder..command..Command$GT$17h085a707d824bb3aeE.llvm.9287781225886421394, location: /home/not-matthias/.rustup/toolchains/stable-x86_64-unknown-linux-gnu/lib/rustlib/src/rust/library/core/src/ptr/mod.rs:524 },
    DebugInfo { addr: a99d0, size: 82, name: _ZN4core3ptr65drop_in_place$LT$alloc..vec..Vec$LT$alloc..string..String$GT$$GT$17he3fc526f4bc110e4E.llvm.9287781225886421394, location: /home/not-matthias/.rustup/toolchains/stable-x86_64-unknown-linux-gnu/lib/rustlib/src/rust/library/core/src/ptr/mod.rs:524 },
    DebugInfo { addr: a9a60, size: 82, name: _ZN4core3ptr70drop_in_place$LT$alloc..vec..Vec$LT$std..ffi..os_str..OsString$GT$$GT$17h1d058bcecc253de2E.llvm.9287781225886421394, location: /home/not-matthias/.rustup/toolchains/stable-x86_64-unknown-linux-gnu/lib/rustlib/src/rust/library/core/src/ptr/mod.rs:524 },
    DebugInfo { addr: a9af0, size: 87, name: _ZN4core3ptr73drop_in_place$LT$alloc..vec..Vec$LT$alloc..borrow..Cow$LT$str$GT$$GT$$GT$17ha20b34a2bd4c5b64E.llvm.9287781225886421394, location: /home/not-matthias/.rustup/toolchains/stable-x86_64-unknown-linux-gnu/lib/rustlib/src/rust/library/core/src/ptr/mod.rs:524 },
    DebugInfo { addr: a9b80, size: 45, name: _ZN4core3ptr73drop_in_place$LT$clap_builder..builder..possible_value..PossibleValue$GT$17hf849e3b8c7416193E.llvm.9287781225886421394, location: /home/not-matthias/.rustup/toolchains/stable-x86_64-unknown-linux-gnu/lib/rustlib/src/rust/library/core/src/ptr/mod.rs:524 },
    DebugInfo { addr: a9bd0, size: c6, name: _ZN4core3ptr75drop_in_place$LT$alloc..vec..Vec$LT$clap_builder..builder..arg..Arg$GT$$GT$17hce0657f7eb2bad80E, location: /home/not-matthias/.rustup/toolchains/stable-x86_64-unknown-linux-gnu/lib/rustlib/src/rust/library/core/src/ptr/mod.rs:524 },
    DebugInfo { addr: a9ca0, size: 1b0, name: _ZN4core3ptr75drop_in_place$LT$clap_builder..parser..matches..matched_arg..MatchedArg$GT$17h446a62dc874f2d0cE.llvm.9287781225886421394, location: /home/not-matthias/.rustup/toolchains/stable-x86_64-unknown-linux-gnu/lib/rustlib/src/rust/library/core/src/ptr/mod.rs:524 },
    DebugInfo { addr: a9e50, size: c5, name: _ZN4core3ptr83drop_in_place$LT$alloc..vec..Vec$LT$clap_builder..builder..command..Command$GT$$GT$17hbcc6be51da7f59c0E, location: /home/not-matthias/.rustup/toolchains/stable-x86_64-unknown-linux-gnu/lib/rustlib/src/rust/library/core/src/ptr/mod.rs:524 },
    DebugInfo { addr: a9f20, size: 100, name: _ZN4core3ptr83drop_in_place$LT$alloc..vec..Vec$LT$clap_builder..util..any_value..AnyValue$GT$$GT$17h15a57a300a5d8834E.llvm.9287781225886421394, location: /home/not-matthias/.rustup/toolchains/stable-x86_64-unknown-linux-gnu/lib/rustlib/src/rust/library/core/src/ptr/mod.rs:524 },
    DebugInfo { addr: aa020, size: bc, name: _ZN4core3ptr86drop_in_place$LT$alloc..vec..Vec$LT$clap_builder..builder..arg_group..ArgGroup$GT$$GT$17h73eac3c678916fccE, location: /home/not-matthias/.rustup/toolchains/stable-x86_64-unknown-linux-gnu/lib/rustlib/src/rust/library/core/src/ptr/mod.rs:524 },
    DebugInfo { addr: aa0e0, size: f2, name: _ZN4core3ptr93drop_in_place$LT$alloc..vec..Vec$LT$alloc..vec..Vec$LT$std..ffi..os_str..OsString$GT$$GT$$GT$17h84d91d98f61ee896E.llvm.9287781225886421394, location: /home/not-matthias/.rustup/toolchains/stable-x86_64-unknown-linux-gnu/lib/rustlib/src/rust/library/core/src/ptr/mod.rs:524 },
    DebugInfo { addr: aa1e0, size: a2, name: _ZN4core3ptr96drop_in_place$LT$alloc..vec..Vec$LT$clap_builder..builder..possible_value..PossibleValue$GT$$GT$17h2da977e3cad7124cE, location: /home/not-matthias/.rustup/toolchains/stable-x86_64-unknown-linux-gnu/lib/rustlib/src/rust/library/core/src/ptr/mod.rs:524 },
    DebugInfo { addr: aa290, size: 6a, name: _ZN4core3ptr97drop_in_place$LT$core..option..Option$LT$clap_builder..builder..value_parser..ValueParser$GT$$GT$17h896cf89adc29d282E, location: /home/not-matthias/.rustup/toolchains/stable-x86_64-unknown-linux-gnu/lib/rustlib/src/rust/library/core/src/ptr/mod.rs:524 },
    DebugInfo { addr: aa300, size: 15, name: _ZN53_$LT$core..fmt..Error$u20$as$u20$core..fmt..Debug$GT$3fmt17h6736176c8e29474eE, location: /home/not-matthias/.rustup/toolchains/stable-x86_64-unknown-linux-gnu/lib/rustlib/src/rust/library/core/src/fmt/mod.rs:102 },
    DebugInfo { addr: aa320, size: 123, name: _ZN58_$LT$alloc..string..String$u20$as$u20$core..fmt..Write$GT$10write_char17h13db4e3872bba170E, location: /home/not-matthias/.rustup/toolchains/stable-x86_64-unknown-linux-gnu/lib/rustlib/src/rust/library/alloc/src/string.rs:3202 },
    DebugInfo { addr: aa450, size: 67, name: _ZN58_$LT$alloc..string..String$u20$as$u20$core..fmt..Write$GT$9write_str17h3471f8bf4fd2c6acE, location: /home/not-matthias/.rustup/toolchains/stable-x86_64-unknown-linux-gnu/lib/rustlib/src/rust/library/alloc/src/string.rs:3196 },
    DebugInfo { addr: aa4c0, size: 16e, name: _ZN5alloc3vec16Vec$LT$T$C$A$GT$14extend_trusted17hc6a15569e79ee6fcE, location: /home/not-matthias/.rustup/toolchains/stable-x86_64-unknown-linux-gnu/lib/rustlib/src/rust/library/alloc/src/vec/mod.rs:3566 },
    DebugInfo { addr: aa630, size: 144, name: _ZN5alloc3vec16Vec$LT$T$C$A$GT$16extend_desugared17he72627cf9d68a71bE, location: /home/not-matthias/.rustup/toolchains/stable-x86_64-unknown-linux-gnu/lib/rustlib/src/rust/library/alloc/src/vec/mod.rs:3538 },
    DebugInfo { addr: aa780, size: 171, name: _ZN5alloc3vec16Vec$LT$T$C$A$GT$16extend_desugared17hebbf35f4d57c3687E, location: /home/not-matthias/.rustup/toolchains/stable-x86_64-unknown-linux-gnu/lib/rustlib/src/rust/library/alloc/src/vec/mod.rs:3538 },
    DebugInfo { addr: aa900, size: 1456, name: _ZN67_$LT$alloc..vec..Vec$LT$T$C$A$GT$$u20$as$u20$core..clone..Clone$GT$5clone17h23c69ca4f1038e31E, location: /home/not-matthias/.rustup/toolchains/stable-x86_64-unknown-linux-gnu/lib/rustlib/src/rust/library/alloc/src/vec/mod.rs:3318 },
    DebugInfo { addr: abd60, size: 3d3, name: _ZN67_$LT$alloc..vec..Vec$LT$T$C$A$GT$$u20$as$u20$core..clone..Clone$GT$5clone17h51fb627fabe15380E, location: /home/not-matthias/.rustup/toolchains/stable-x86_64-unknown-linux-gnu/lib/rustlib/src/rust/library/alloc/src/vec/mod.rs:3318 },
    DebugInfo { addr: ac140, size: 50f, name: _ZN67_$LT$alloc..vec..Vec$LT$T$C$A$GT$$u20$as$u20$core..clone..Clone$GT$5clone17h5e17004e0548f8ebE, location: /home/not-matthias/.rustup/toolchains/stable-x86_64-unknown-linux-gnu/lib/rustlib/src/rust/library/alloc/src/vec/mod.rs:3318 },
    DebugInfo { addr: ac650, size: 256, name: _ZN67_$LT$alloc..vec..Vec$LT$T$C$A$GT$$u20$as$u20$core..clone..Clone$GT$5clone17h8868c5f161859bd1E, location: /home/not-matthias/.rustup/toolchains/stable-x86_64-unknown-linux-gnu/lib/rustlib/src/rust/library/alloc/src/vec/mod.rs:3318 },
    DebugInfo { addr: ac8b0, size: 1b62, name: _ZN67_$LT$alloc..vec..Vec$LT$T$C$A$GT$$u20$as$u20$core..clone..Clone$GT$5clone17ha43286c94b5cab7fE, location: /home/not-matthias/.rustup/toolchains/stable-x86_64-unknown-linux-gnu/lib/rustlib/src/rust/library/alloc/src/vec/mod.rs:3318 },
    DebugInfo { addr: ae420, size: 45, name: _ZN70_$LT$alloc..vec..Vec$LT$T$C$A$GT$$u20$as$u20$core..ops..drop..Drop$GT$4drop17h1f851433c7e22dccE, location: /home/not-matthias/.rustup/toolchains/stable-x86_64-unknown-linux-gnu/lib/rustlib/src/rust/library/alloc/src/vec/mod.rs:3799 },
    DebugInfo { addr: ae470, size: 45, name: _ZN70_$LT$alloc..vec..Vec$LT$T$C$A$GT$$u20$as$u20$core..ops..drop..Drop$GT$4drop17h8b71898ced585431E, location: /home/not-matthias/.rustup/toolchains/stable-x86_64-unknown-linux-gnu/lib/rustlib/src/rust/library/alloc/src/vec/mod.rs:3799 },
    DebugInfo { addr: ae4c0, size: 152, name: _ZN97_$LT$alloc..vec..Vec$LT$T$C$A$GT$$u20$as$u20$alloc..vec..spec_extend..SpecExtend$LT$T$C$I$GT$$GT$11spec_extend17hfe72fda6d1cd0c1eE, location: /home/not-matthias/.rustup/toolchains/stable-x86_64-unknown-linux-gnu/lib/rustlib/src/rust/library/alloc/src/vec/spec_extend.rs:28 },
    DebugInfo { addr: ae620, size: 36c, name: _ZN98_$LT$alloc..vec..Vec$LT$T$GT$$u20$as$u20$alloc..vec..spec_from_iter..SpecFromIter$LT$T$C$I$GT$$GT$9from_iter17h07e1f115e629c201E, location: /home/not-matthias/.rustup/toolchains/stable-x86_64-unknown-linux-gnu/lib/rustlib/src/rust/library/alloc/src/vec/spec_from_iter.rs:33 },
    DebugInfo { addr: ae990, size: 16b, name: _ZN98_$LT$alloc..vec..Vec$LT$T$GT$$u20$as$u20$alloc..vec..spec_from_iter..SpecFromIter$LT$T$C$I$GT$$GT$9from_iter17h0bccfd6a24cc4aafE, location: /home/not-matthias/.rustup/toolchains/stable-x86_64-unknown-linux-gnu/lib/rustlib/src/rust/library/alloc/src/vec/spec_from_iter.rs:33 },
    DebugInfo { addr: aeb00, size: 281, name: _ZN98_$LT$alloc..vec..Vec$LT$T$GT$$u20$as$u20$alloc..vec..spec_from_iter..SpecFromIter$LT$T$C$I$GT$$GT$9from_iter17h1ce18dc3bf54f946E, location: /home/not-matthias/.rustup/toolchains/stable-x86_64-unknown-linux-gnu/lib/rustlib/src/rust/library/alloc/src/vec/spec_from_iter.rs:33 },
    DebugInfo { addr: aed90, size: 197, name: _ZN98_$LT$alloc..vec..Vec$LT$T$GT$$u20$as$u20$alloc..vec..spec_from_iter..SpecFromIter$LT$T$C$I$GT$$GT$9from_iter17h1fb5819f8c52aa1aE, location: /home/not-matthias/.rustup/toolchains/stable-x86_64-unknown-linux-gnu/lib/rustlib/src/rust/library/alloc/src/vec/spec_from_iter.rs:33 },
    DebugInfo { addr: aef30, size: 2cb, name: _ZN98_$LT$alloc..vec..Vec$LT$T$GT$$u20$as$u20$alloc..vec..spec_from_iter..SpecFromIter$LT$T$C$I$GT$$GT$9from_iter17h279ceaba4d72b8edE, location: /home/not-matthias/.rustup/toolchains/stable-x86_64-unknown-linux-gnu/lib/rustlib/src/rust/library/alloc/src/vec/spec_from_iter.rs:33 },
    DebugInfo { addr: af200, size: 280, name: _ZN98_$LT$alloc..vec..Vec$LT$T$GT$$u20$as$u20$alloc..vec..spec_from_iter..SpecFromIter$LT$T$C$I$GT$$GT$9from_iter17h27efbc7335f02e65E, location: /home/not-matthias/.rustup/toolchains/stable-x86_64-unknown-linux-gnu/lib/rustlib/src/rust/library/alloc/src/vec/spec_from_iter.rs:33 },
    DebugInfo { addr: af200, size: 280, name: _ZN98_$LT$alloc..vec..Vec$LT$T$GT$$u20$as$u20$alloc..vec..spec_from_iter..SpecFromIter$LT$T$C$I$GT$$GT$9from_iter17h67ba1e2f566ad6edE, location: /home/not-matthias/.rustup/toolchains/stable-x86_64-unknown-linux-gnu/lib/rustlib/src/rust/library/alloc/src/vec/spec_from_iter.rs:33 },
    DebugInfo { addr: af200, size: 280, name: _ZN98_$LT$alloc..vec..Vec$LT$T$GT$$u20$as$u20$alloc..vec..spec_from_iter..SpecFromIter$LT$T$C$I$GT$$GT$9from_iter17h81b22bb0c1b98643E, location: /home/not-matthias/.rustup/toolchains/stable-x86_64-unknown-linux-gnu/lib/rustlib/src/rust/library/alloc/src/vec/spec_from_iter.rs:33 },
    DebugInfo { addr: af480, size: 17c, name: _ZN98_$LT$alloc..vec..Vec$LT$T$GT$$u20$as$u20$alloc..vec..spec_from_iter..SpecFromIter$LT$T$C$I$GT$$GT$9from_iter17h2a152cdbce88b1d6E, location: /home/not-matthias/.rustup/toolchains/stable-x86_64-unknown-linux-gnu/lib/rustlib/src/rust/library/alloc/src/vec/spec_from_iter.rs:33 },
    DebugInfo { addr: af600, size: 356, name: _ZN98_$LT$alloc..vec..Vec$LT$T$GT$$u20$as$u20$alloc..vec..spec_from_iter..SpecFromIter$LT$T$C$I$GT$$GT$9from_iter17h2b1cb7b5fd902d58E, location: /home/not-matthias/.rustup/toolchains/stable-x86_64-unknown-linux-gnu/lib/rustlib/src/rust/library/alloc/src/vec/spec_from_iter.rs:33 },
    DebugInfo { addr: af960, size: 19d, name: _ZN98_$LT$alloc..vec..Vec$LT$T$GT$$u20$as$u20$alloc..vec..spec_from_iter..SpecFromIter$LT$T$C$I$GT$$GT$9from_iter17h3311ca6d51374a22E, location: /home/not-matthias/.rustup/toolchains/stable-x86_64-unknown-linux-gnu/lib/rustlib/src/rust/library/alloc/src/vec/spec_from_iter.rs:33 },
    DebugInfo { addr: afb00, size: 10d, name: _ZN98_$LT$alloc..vec..Vec$LT$T$GT$$u20$as$u20$alloc..vec..spec_from_iter..SpecFromIter$LT$T$C$I$GT$$GT$9from_iter17h33416e5463343089E, location: /home/not-matthias/.rustup/toolchains/stable-x86_64-unknown-linux-gnu/lib/rustlib/src/rust/library/alloc/src/vec/spec_from_iter.rs:33 },
    DebugInfo { addr: afc10, size: d7, name: _ZN98_$LT$alloc..vec..Vec$LT$T$GT$$u20$as$u20$alloc..vec..spec_from_iter..SpecFromIter$LT$T$C$I$GT$$GT$9from_iter17h3c5d5b0a2a27d3e7E, location: /home/not-matthias/.rustup/toolchains/stable-x86_64-unknown-linux-gnu/lib/rustlib/src/rust/library/alloc/src/vec/spec_from_iter.rs:33 },
    DebugInfo { addr: afcf0, size: 22b, name: _ZN98_$LT$alloc..vec..Vec$LT$T$GT$$u20$as$u20$alloc..vec..spec_from_iter..SpecFromIter$LT$T$C$I$GT$$GT$9from_iter17h42eb036bda0aab19E, location: /home/not-matthias/.rustup/toolchains/stable-x86_64-unknown-linux-gnu/lib/rustlib/src/rust/library/alloc/src/vec/spec_from_iter.rs:33 },
    DebugInfo { addr: aff20, size: 173, name: _ZN98_$LT$alloc..vec..Vec$LT$T$GT$$u20$as$u20$alloc..vec..spec_from_iter..SpecFromIter$LT$T$C$I$GT$$GT$9from_iter17h48ce9644027056fdE, location: /home/not-matthias/.rustup/toolchains/stable-x86_64-unknown-linux-gnu/lib/rustlib/src/rust/library/alloc/src/vec/spec_from_iter.rs:33 },
    DebugInfo { addr: b00a0, size: 3b6, name: _ZN98_$LT$alloc..vec..Vec$LT$T$GT$$u20$as$u20$alloc..vec..spec_from_iter..SpecFromIter$LT$T$C$I$GT$$GT$9from_iter17h54826a4400ceecacE, location: /home/not-matthias/.rustup/toolchains/stable-x86_64-unknown-linux-gnu/lib/rustlib/src/rust/library/alloc/src/vec/spec_from_iter.rs:33 },
    DebugInfo { addr: b0460, size: 23b, name: _ZN98_$LT$alloc..vec..Vec$LT$T$GT$$u20$as$u20$alloc..vec..spec_from_iter..SpecFromIter$LT$T$C$I$GT$$GT$9from_iter17h648bc0c9e3b18a1bE, location: /home/not-matthias/.rustup/toolchains/stable-x86_64-unknown-linux-gnu/lib/rustlib/src/rust/library/alloc/src/vec/spec_from_iter.rs:33 },
    DebugInfo { addr: b06a0, size: 17c, name: _ZN98_$LT$alloc..vec..Vec$LT$T$GT$$u20$as$u20$alloc..vec..spec_from_iter..SpecFromIter$LT$T$C$I$GT$$GT$9from_iter17h715a16c9ff28436cE, location: /home/not-matthias/.rustup/toolchains/stable-x86_64-unknown-linux-gnu/lib/rustlib/src/rust/library/alloc/src/vec/spec_from_iter.rs:33 },
    DebugInfo { addr: b0820, size: 3b1, name: _ZN98_$LT$alloc..vec..Vec$LT$T$GT$$u20$as$u20$alloc..vec..spec_from_iter..SpecFromIter$LT$T$C$I$GT$$GT$9from_iter17h8fbf57817cd0a728E, location: /home/not-matthias/.rustup/toolchains/stable-x86_64-unknown-linux-gnu/lib/rustlib/src/rust/library/alloc/src/vec/spec_from_iter.rs:33 },
    DebugInfo { addr: b0be0, size: f8, name: _ZN98_$LT$alloc..vec..Vec$LT$T$GT$$u20$as$u20$alloc..vec..spec_from_iter..SpecFromIter$LT$T$C$I$GT$$GT$9from_iter17h9453f07f3a04c1a1E, location: /home/not-matthias/.rustup/toolchains/stable-x86_64-unknown-linux-gnu/lib/rustlib/src/rust/library/alloc/src/vec/spec_from_iter.rs:33 },
    DebugInfo { addr: b0ce0, size: 324, name: _ZN98_$LT$alloc..vec..Vec$LT$T$GT$$u20$as$u20$alloc..vec..spec_from_iter..SpecFromIter$LT$T$C$I$GT$$GT$9from_iter17h950026fd0643c9f7E, location: /home/not-matthias/.rustup/toolchains/stable-x86_64-unknown-linux-gnu/lib/rustlib/src/rust/library/alloc/src/vec/spec_from_iter.rs:33 },
    DebugInfo { addr: b1010, size: 173, name: _ZN98_$LT$alloc..vec..Vec$LT$T$GT$$u20$as$u20$alloc..vec..spec_from_iter..SpecFromIter$LT$T$C$I$GT$$GT$9from_iter17h9b0167aa93defc05E, location: /home/not-matthias/.rustup/toolchains/stable-x86_64-unknown-linux-gnu/lib/rustlib/src/rust/library/alloc/src/vec/spec_from_iter.rs:33 },
    DebugInfo { addr: b1190, size: f8, name: _ZN98_$LT$alloc..vec..Vec$LT$T$GT$$u20$as$u20$alloc..vec..spec_from_iter..SpecFromIter$LT$T$C$I$GT$$GT$9from_iter17h9e1ae96353454dbfE, location: /home/not-matthias/.rustup/toolchains/stable-x86_64-unknown-linux-gnu/lib/rustlib/src/rust/library/alloc/src/vec/spec_from_iter.rs:33 },
    DebugInfo { addr: b1290, size: 297, name: _ZN98_$LT$alloc..vec..Vec$LT$T$GT$$u20$as$u20$alloc..vec..spec_from_iter..SpecFromIter$LT$T$C$I$GT$$GT$9from_iter17ha13ad37d9c2c8832E, location: /home/not-matthias/.rustup/toolchains/stable-x86_64-unknown-linux-gnu/lib/rustlib/src/rust/library/alloc/src/vec/spec_from_iter.rs:33 },
    DebugInfo { addr: b1530, size: 22b, name: _ZN98_$LT$alloc..vec..Vec$LT$T$GT$$u20$as$u20$alloc..vec..spec_from_iter..SpecFromIter$LT$T$C$I$GT$$GT$9from_iter17ha6e8e1ea49606146E, location: /home/not-matthias/.rustup/toolchains/stable-x86_64-unknown-linux-gnu/lib/rustlib/src/rust/library/alloc/src/vec/spec_from_iter.rs:33 },
    DebugInfo { addr: b1760, size: 289, name: _ZN98_$LT$alloc..vec..Vec$LT$T$GT$$u20$as$u20$alloc..vec..spec_from_iter..SpecFromIter$LT$T$C$I$GT$$GT$9from_iter17hae0a9647a75c4a21E, location: /home/not-matthias/.rustup/toolchains/stable-x86_64-unknown-linux-gnu/lib/rustlib/src/rust/library/alloc/src/vec/spec_from_iter.rs:33 },
    DebugInfo { addr: b19f0, size: 28d, name: _ZN98_$LT$alloc..vec..Vec$LT$T$GT$$u20$as$u20$alloc..vec..spec_from_iter..SpecFromIter$LT$T$C$I$GT$$GT$9from_iter17hcac362a1e5cd1d44E, location: /home/not-matthias/.rustup/toolchains/stable-x86_64-unknown-linux-gnu/lib/rustlib/src/rust/library/alloc/src/vec/spec_from_iter.rs:33 },
    DebugInfo { addr: b1c80, size: 244, name: _ZN98_$LT$alloc..vec..Vec$LT$T$GT$$u20$as$u20$alloc..vec..spec_from_iter..SpecFromIter$LT$T$C$I$GT$$GT$9from_iter17hcaca5065ca85595bE, location: /home/not-matthias/.rustup/toolchains/stable-x86_64-unknown-linux-gnu/lib/rustlib/src/rust/library/alloc/src/vec/spec_from_iter.rs:33 },
    DebugInfo { addr: b1ed0, size: 590, name: _ZN98_$LT$alloc..vec..Vec$LT$T$GT$$u20$as$u20$alloc..vec..spec_from_iter..SpecFromIter$LT$T$C$I$GT$$GT$9from_iter17hd4d8cd16893aff2bE, location: /home/not-matthias/.rustup/toolchains/stable-x86_64-unknown-linux-gnu/lib/rustlib/src/rust/library/alloc/src/vec/spec_from_iter.rs:33 },
    DebugInfo { addr: b2460, size: 1bb, name: _ZN98_$LT$alloc..vec..Vec$LT$T$GT$$u20$as$u20$alloc..vec..spec_from_iter..SpecFromIter$LT$T$C$I$GT$$GT$9from_iter17hd738df835cbfcf60E, location: /home/not-matthias/.rustup/toolchains/stable-x86_64-unknown-linux-gnu/lib/rustlib/src/rust/library/alloc/src/vec/spec_from_iter.rs:33 },
    DebugInfo { addr: b2620, size: 1c7, name: _ZN98_$LT$alloc..vec..Vec$LT$T$GT$$u20$as$u20$alloc..vec..spec_from_iter..SpecFromIter$LT$T$C$I$GT$$GT$9from_iter17hdefa445535e7be71E, location: /home/not-matthias/.rustup/toolchains/stable-x86_64-unknown-linux-gnu/lib/rustlib/src/rust/library/alloc/src/vec/spec_from_iter.rs:33 },
    DebugInfo { addr: b27f0, size: 866, name: _ZN98_$LT$alloc..vec..Vec$LT$T$GT$$u20$as$u20$alloc..vec..spec_from_iter..SpecFromIter$LT$T$C$I$GT$$GT$9from_iter17hfb74e2cb6cf4ed61E, location: /home/not-matthias/.rustup/toolchains/stable-x86_64-unknown-linux-gnu/lib/rustlib/src/rust/library/alloc/src/vec/spec_from_iter.rs:33 },
    DebugInfo { addr: b3060, size: 1d5, name: _ZN89_$LT$clap_builder..util..flat_map..FlatMap$LT$K$C$V$GT$$u20$as$u20$core..clone..Clone$GT$5clone17hedcefa6131602adbE, location: /home/not-matthias/.cargo/registry/src/index.crates.io-1949cf8c6b5b557f/clap_builder-4.5.17/src/util/flat_map.rs:8 },
    DebugInfo { addr: b3240, size: 82, name: _ZN4core3ptr127drop_in_place$LT$alloc..vec..Vec$LT$$LP$$LP$usize$C$alloc..string..String$RP$$C$$RF$clap_builder..builder..arg..Arg$RP$$GT$$GT$17hc7535cddb307d0cbE, location: /home/not-matthias/.rustup/toolchains/stable-x86_64-unknown-linux-gnu/lib/rustlib/src/rust/library/core/src/ptr/mod.rs:524 },
    DebugInfo { addr: b32d0, size: 82, name: _ZN4core3ptr150drop_in_place$LT$alloc..vec..Vec$LT$$LP$usize$C$clap_builder..builder..styled_str..StyledStr$C$$RF$clap_builder..builder..command..Command$RP$$GT$$GT$17h38509fed98cbb4fcE, location: /home/not-matthias/.rustup/toolchains/stable-x86_64-unknown-linux-gnu/lib/rustlib/src/rust/library/core/src/ptr/mod.rs:524 },
    DebugInfo { addr: b3360, size: 18, name: _ZN4core3ptr42drop_in_place$LT$alloc..string..String$GT$17hd6d205257de6c30dE, location: /home/not-matthias/.rustup/toolchains/stable-x86_64-unknown-linux-gnu/lib/rustlib/src/rust/library/alloc/src/raw_vec/mod.rs:406 },
    DebugInfo { addr: b3380, size: 113, name: _ZN4core3ptr51drop_in_place$LT$clap_builder..mkeymap..MKeyMap$GT$17h8cdf7013464c0061E, location: /home/not-matthias/.rustup/toolchains/stable-x86_64-unknown-linux-gnu/lib/rustlib/src/rust/library/core/src/ptr/mod.rs:524 },
    DebugInfo { addr: b34a0, size: 120, name: _ZN4core3ptr59drop_in_place$LT$clap_builder..builder..ext..Extensions$GT$17h6250317f4a1980b8E, location: /home/not-matthias/.rustup/toolchains/stable-x86_64-unknown-linux-gnu/lib/rustlib/src/rust/library/core/src/ptr/mod.rs:524 },
    DebugInfo { addr: b35c0, size: 41b, name: _ZN4core3ptr60drop_in_place$LT$clap_builder..builder..command..Command$GT$17h085a707d824bb3aeE, location: /home/not-matthias/.rustup/toolchains/stable-x86_64-unknown-linux-gnu/lib/rustlib/src/rust/library/core/src/ptr/mod.rs:524 },
    DebugInfo { addr: b39e0, size: 82, name: _ZN4core3ptr65drop_in_place$LT$alloc..vec..Vec$LT$alloc..string..String$GT$$GT$17he3fc526f4bc110e4E, location: /home/not-matthias/.rustup/toolchains/stable-x86_64-unknown-linux-gnu/lib/rustlib/src/rust/library/core/src/ptr/mod.rs:524 },
    DebugInfo { addr: b3a70, size: 87, name: _ZN4core3ptr73drop_in_place$LT$alloc..vec..Vec$LT$alloc..borrow..Cow$LT$str$GT$$GT$$GT$17ha20b34a2bd4c5b64E, location: /home/not-matthias/.rustup/toolchains/stable-x86_64-unknown-linux-gnu/lib/rustlib/src/rust/library/core/src/ptr/mod.rs:524 },
    DebugInfo { addr: b3b00, size: c6, name: _ZN4core3ptr75drop_in_place$LT$alloc..vec..Vec$LT$clap_builder..builder..arg..Arg$GT$$GT$17hce0657f7eb2bad80E, location: /home/not-matthias/.rustup/toolchains/stable-x86_64-unknown-linux-gnu/lib/rustlib/src/rust/library/core/src/ptr/mod.rs:524 },
    DebugInfo { addr: b3bd0, size: c5, name: _ZN4core3ptr83drop_in_place$LT$alloc..vec..Vec$LT$clap_builder..builder..command..Command$GT$$GT$17hbcc6be51da7f59c0E, location: /home/not-matthias/.rustup/toolchains/stable-x86_64-unknown-linux-gnu/lib/rustlib/src/rust/library/core/src/ptr/mod.rs:524 },
    DebugInfo { addr: b3ca0, size: bc, name: _ZN4core3ptr86drop_in_place$LT$alloc..vec..Vec$LT$clap_builder..builder..arg_group..ArgGroup$GT$$GT$17h73eac3c678916fccE, location: /home/not-matthias/.rustup/toolchains/stable-x86_64-unknown-linux-gnu/lib/rustlib/src/rust/library/core/src/ptr/mod.rs:524 },
    DebugInfo { addr: b3d60, size: a2, name: _ZN4core3ptr96drop_in_place$LT$alloc..vec..Vec$LT$clap_builder..builder..possible_value..PossibleValue$GT$$GT$17h2da977e3cad7124cE, location: /home/not-matthias/.rustup/toolchains/stable-x86_64-unknown-linux-gnu/lib/rustlib/src/rust/library/core/src/ptr/mod.rs:524 },
    DebugInfo { addr: b3e10, size: 6a, name: _ZN4core3ptr97drop_in_place$LT$core..option..Option$LT$clap_builder..builder..value_parser..ValueParser$GT$$GT$17h896cf89adc29d282E, location: /home/not-matthias/.rustup/toolchains/stable-x86_64-unknown-linux-gnu/lib/rustlib/src/rust/library/core/src/ptr/mod.rs:524 },
    DebugInfo { addr: b3e80, size: 15, name: _ZN53_$LT$core..fmt..Error$u20$as$u20$core..fmt..Debug$GT$3fmt17h6736176c8e29474eE, location: /home/not-matthias/.rustup/toolchains/stable-x86_64-unknown-linux-gnu/lib/rustlib/src/rust/library/core/src/fmt/mod.rs:102 },
    DebugInfo { addr: b3ea0, size: 123, name: _ZN58_$LT$alloc..string..String$u20$as$u20$core..fmt..Write$GT$10write_char17h13db4e3872bba170E, location: /home/not-matthias/.rustup/toolchains/stable-x86_64-unknown-linux-gnu/lib/rustlib/src/rust/library/alloc/src/string.rs:3202 },
    DebugInfo { addr: b3fd0, size: 67, name: _ZN58_$LT$alloc..string..String$u20$as$u20$core..fmt..Write$GT$9write_str17h3471f8bf4fd2c6acE, location: /home/not-matthias/.rustup/toolchains/stable-x86_64-unknown-linux-gnu/lib/rustlib/src/rust/library/alloc/src/string.rs:3196 },
    DebugInfo { addr: b4040, size: 74f, name: _ZN5alloc3str21_$LT$impl$u20$str$GT$7replace17h157b3cc8d8fe3cbeE, location: /home/not-matthias/.rustup/toolchains/stable-x86_64-unknown-linux-gnu/lib/rustlib/src/rust/library/alloc/src/str.rs:270 },
    DebugInfo { addr: b4790, size: 14, name: _ZN60_$LT$alloc..string..String$u20$as$u20$core..fmt..Display$GT$3fmt17h253a895d4ea9e2d1E, location: /home/not-matthias/.rustup/toolchains/stable-x86_64-unknown-linux-gnu/lib/rustlib/src/rust/library/alloc/src/string.rs:2595 },
    DebugInfo { addr: b47b0, size: 147, name: _ZN62_$LT$anstyle..style..Style$u20$as$u20$core..cmp..PartialEq$GT$2eq17hb5d51874be968b0cE, location: /home/not-matthias/.rustup/toolchains/stable-x86_64-unknown-linux-gnu/lib/rustlib/src/rust/library/core/src/option.rs:2217 },
    DebugInfo { addr: b4900, size: 10, name: _ZN75_$LT$$RF$mut$u20$W$u20$as$u20$core..fmt..Write..write_fmt..SpecWriteFmt$GT$14spec_write_fmt17h39cb919f9ef5719bE, location: /home/not-matthias/.rustup/toolchains/stable-x86_64-unknown-linux-gnu/lib/rustlib/src/rust/library/core/src/fmt/mod.rs:225 },
    DebugInfo { addr: b4910, size: 1d5, name: _ZN81_$LT$core..str..pattern..CharSearcher$u20$as$u20$core..str..pattern..Searcher$GT$10next_match17h06e5f2dd80a2a38eE, location: /home/not-matthias/.rustup/toolchains/stable-x86_64-unknown-linux-gnu/lib/rustlib/src/rust/library/core/src/str/pattern.rs:433 },
    DebugInfo { addr: b4af0, size: 309, name: _ZN12clap_builder6output13help_template8AutoHelp10write_help17h717b0038194cd7bbE, location: /home/not-matthias/.cargo/registry/src/index.crates.io-1949cf8c6b5b557f/clap_builder-4.5.17/src/output/help_template.rs:43 },
    DebugInfo { addr: b4e00, size: 331, name: _ZN12clap_builder6output13help_template12HelpTemplate3new17h3c9d59496b1cc98aE, location: /home/not-matthias/.cargo/registry/src/index.crates.io-1949cf8c6b5b557f/clap_builder-4.5.17/src/output/help_template.rs:92 },
    DebugInfo { addr: b5140, size: 1120, name: _ZN12clap_builder6output13help_template12HelpTemplate20write_templated_help17h01fabdc306235d41E, location: /home/not-matthias/.cargo/registry/src/index.crates.io-1949cf8c6b5b557f/clap_builder-4.5.17/src/output/help_template.rs:159 },
    DebugInfo { addr: b6260, size: 1d3, name: _ZN12clap_builder6output13help_template12HelpTemplate11write_about17h7892c249829bbe13E, location: /home/not-matthias/.cargo/registry/src/index.crates.io-1949cf8c6b5b557f/clap_builder-4.5.17/src/output/help_template.rs:309 },
    DebugInfo { addr: b6440, size: 16f, name: _ZN12clap_builder6output13help_template12HelpTemplate17write_before_help17ha2e332b189bd2792E, location: /home/not-matthias/.cargo/registry/src/index.crates.io-1949cf8c6b5b557f/clap_builder-4.5.17/src/output/help_template.rs:329 },
    DebugInfo { addr: b65b0, size: 182, name: _ZN12clap_builder6output13help_template12HelpTemplate16write_after_help17h32b0abb6e417d564E, location: /home/not-matthias/.cargo/registry/src/index.crates.io-1949cf8c6b5b557f/clap_builder-4.5.17/src/output/help_template.rs:347 },
    DebugInfo { addr: b6740, size: 1e63, name: _ZN12clap_builder6output13help_template12HelpTemplate14write_all_args17h9702788f6e2a160cE, location: /home/not-matthias/.cargo/registry/src/index.crates.io-1949cf8c6b5b557f/clap_builder-4.5.17/src/output/help_template.rs:370 },
    DebugInfo { addr: b85b0, size: 1039, name: _ZN12clap_builder6output13help_template12HelpTemplate10write_args17h59bb7adca82eac97E, location: /home/not-matthias/.cargo/registry/src/index.crates.io-1949cf8c6b5b557f/clap_builder-4.5.17/src/output/help_template.rs:466 },
    DebugInfo { addr: b95f0, size: d55, name: _ZN12clap_builder6output13help_template12HelpTemplate4help17hf93e88225d03a8d8E, location: /home/not-matthias/.cargo/registry/src/index.crates.io-1949cf8c6b5b557f/clap_builder-4.5.17/src/output/help_template.rs:601 },
    DebugInfo { addr: ba350, size: ef9, name: _ZN12clap_builder6output13help_template12HelpTemplate9spec_vals17hbe3b82ee164f6350E, location: /home/not-matthias/.cargo/registry/src/index.crates.io-1949cf8c6b5b557f/clap_builder-4.5.17/src/output/help_template.rs:738 },
    DebugInfo { addr: bb250, size: 520, name: _ZN12clap_builder6output13help_template12HelpTemplate22write_flat_subcommands17h63ce2a271d27d3f1E, location: /home/not-matthias/.cargo/registry/src/index.crates.io-1949cf8c6b5b557f/clap_builder-4.5.17/src/output/help_template.rs:852 },
    DebugInfo { addr: bb770, size: 1047, name: _ZN12clap_builder6output13help_template12HelpTemplate17write_subcommands17h0c98860bacb53c41E, location: /home/not-matthias/.cargo/registry/src/index.crates.io-1949cf8c6b5b557f/clap_builder-4.5.17/src/output/help_template.rs:911 },
    DebugInfo { addr: bc7c0, size: 2ce, name: _ZN12clap_builder6output13help_template12HelpTemplate12sc_spec_vals17h2c99d64dacfde763E, location: /home/not-matthias/.cargo/registry/src/index.crates.io-1949cf8c6b5b557f/clap_builder-4.5.17/src/output/help_template.rs:984 },
    DebugInfo { addr: bca90, size: 2d, name: _ZN12clap_builder6output13help_template19positional_sort_key17hf7d00a981fbcb297E, location: /home/not-matthias/.cargo/registry/src/index.crates.io-1949cf8c6b5b557f/clap_builder-4.5.17/src/output/help_template.rs:1045 },
    DebugInfo { addr: bcac0, size: 342, name: _ZN12clap_builder6output13help_template15option_sort_key17h066425bbffe895d6E, location: /home/not-matthias/.cargo/registry/src/index.crates.io-1949cf8c6b5b557f/clap_builder-4.5.17/src/output/help_template.rs:1049 },
    DebugInfo { addr: bce10, size: 16e, name: _ZN12clap_builder6output13help_template9parse_env17hbfc24dfd04889cadE.llvm.9246867484639433851, location: /home/not-matthias/.cargo/registry/src/index.crates.io-1949cf8c6b5b557f/clap_builder-4.5.17/src/output/help_template.rs:1083 },
    DebugInfo { addr: bcf80, size: bb, name: _ZN49_$LT$T$u20$as$u20$alloc..string..SpecToString$GT$14spec_to_string17h0d40481fe5d332c6E, location: /home/not-matthias/.rustup/toolchains/stable-x86_64-unknown-linux-gnu/lib/rustlib/src/rust/library/alloc/src/string.rs:2794 },
    DebugInfo { addr: bd040, size: 147, name: _ZN4core3ops8function5impls79_$LT$impl$u20$core..ops..function..FnMut$LT$A$GT$$u20$for$u20$$RF$mut$u20$F$GT$8call_mut17hba21555b2bda6010E, location: /home/not-matthias/.rustup/toolchains/stable-x86_64-unknown-linux-gnu/lib/rustlib/src/rust/library/core/src/ops/function.rs:293 },
    DebugInfo { addr: bd190, size: 5f, name: _ZN4core3ptr100drop_in_place$LT$alloc..boxed..Box$LT$clap_builder..parser..matches..arg_matches..SubCommand$GT$$GT$17hb5564219b0f6b0b1E, location: /home/not-matthias/.rustup/toolchains/stable-x86_64-unknown-linux-gnu/lib/rustlib/src/rust/library/core/src/ptr/mod.rs:524 },
    DebugInfo { addr: bd1f0, size: 5f, name: _ZN4core3ptr130drop_in_place$LT$core..option..Option$LT$$LP$alloc..string..String$C$core..option..Option$LT$alloc..string..String$GT$$RP$$GT$$GT$17h34adca02ae595b5aE, location: /home/not-matthias/.rustup/toolchains/stable-x86_64-unknown-linux-gnu/lib/rustlib/src/rust/library/core/src/ptr/mod.rs:524 },
    DebugInfo { addr: bd250, size: 18, name: _ZN4core3ptr42drop_in_place$LT$alloc..string..String$GT$17hd6d205257de6c30dE.llvm.1496091775482650854, location: /home/not-matthias/.rustup/toolchains/stable-x86_64-unknown-linux-gnu/lib/rustlib/src/rust/library/alloc/src/raw_vec/mod.rs:406 },
    DebugInfo { addr: bd270, size: fd, name: _ZN4core3ptr47drop_in_place$LT$clap_builder..error..Error$GT$17h446c1ada455939ceE, location: /home/not-matthias/.rustup/toolchains/stable-x86_64-unknown-linux-gnu/lib/rustlib/src/rust/library/core/src/ptr/mod.rs:524 },
    DebugInfo { addr: bd370, size: 113, name: _ZN4core3ptr51drop_in_place$LT$clap_builder..mkeymap..MKeyMap$GT$17h8cdf7013464c0061E, location: /home/not-matthias/.rustup/toolchains/stable-x86_64-unknown-linux-gnu/lib/rustlib/src/rust/library/core/src/ptr/mod.rs:524 },
    DebugInfo { addr: bd490, size: 120, name: _ZN4core3ptr59drop_in_place$LT$clap_builder..builder..ext..Extensions$GT$17h6250317f4a1980b8E, location: /home/not-matthias/.rustup/toolchains/stable-x86_64-unknown-linux-gnu/lib/rustlib/src/rust/library/core/src/ptr/mod.rs:524 },
    DebugInfo { addr: bd5b0, size: 41b, name: _ZN4core3ptr60drop_in_place$LT$clap_builder..builder..command..Command$GT$17h085a707d824bb3aeE, location: /home/not-matthias/.rustup/toolchains/stable-x86_64-unknown-linux-gnu/lib/rustlib/src/rust/library/core/src/ptr/mod.rs:524 },
    DebugInfo { addr: bd9d0, size: ac, name: _ZN4core3ptr62drop_in_place$LT$clap_builder..parser..parser..ParseResult$GT$17hb6f2c975d7c371b2E, location: /home/not-matthias/.rustup/toolchains/stable-x86_64-unknown-linux-gnu/lib/rustlib/src/rust/library/core/src/ptr/mod.rs:524 },
    DebugInfo { addr: bda80, size: 86, name: _ZN4core3ptr63drop_in_place$LT$clap_builder..parser..validator..Validator$GT$17h997bffff087539beE, location: /home/not-matthias/.rustup/toolchains/stable-x86_64-unknown-linux-gnu/lib/rustlib/src/rust/library/core/src/ptr/mod.rs:524 },
    DebugInfo { addr: bdb10, size: 82, name: _ZN4core3ptr65drop_in_place$LT$alloc..vec..Vec$LT$alloc..string..String$GT$$GT$17he3fc526f4bc110e4E, location: /home/not-matthias/.rustup/toolchains/stable-x86_64-unknown-linux-gnu/lib/rustlib/src/rust/library/core/src/ptr/mod.rs:524 },
    DebugInfo { addr: bdba0, size: a6, name: _ZN4core3ptr66drop_in_place$LT$clap_builder..parser..arg_matcher..ArgMatcher$GT$17h5f3f5a181657582cE, location: /home/not-matthias/.rustup/toolchains/stable-x86_64-unknown-linux-gnu/lib/rustlib/src/rust/library/core/src/ptr/mod.rs:524 },
    DebugInfo { addr: bdc50, size: 61, name: _ZN4core3ptr69drop_in_place$LT$clap_builder..builder..value_parser..ValueParser$GT$17h13633bd068aa22d1E, location: /home/not-matthias/.rustup/toolchains/stable-x86_64-unknown-linux-gnu/lib/rustlib/src/rust/library/core/src/ptr/mod.rs:524 },
    DebugInfo { addr: bdcc0, size: 82, name: _ZN4core3ptr70drop_in_place$LT$alloc..vec..Vec$LT$std..ffi..os_str..OsString$GT$$GT$17h1d058bcecc253de2E, location: /home/not-matthias/.rustup/toolchains/stable-x86_64-unknown-linux-gnu/lib/rustlib/src/rust/library/core/src/ptr/mod.rs:524 },
    DebugInfo { addr: bdd50, size: c6, name: _ZN4core3ptr75drop_in_place$LT$alloc..vec..Vec$LT$clap_builder..builder..arg..Arg$GT$$GT$17hce0657f7eb2bad80E, location: /home/not-matthias/.rustup/toolchains/stable-x86_64-unknown-linux-gnu/lib/rustlib/src/rust/library/core/src/ptr/mod.rs:524 },
    DebugInfo { addr: bde20, size: 149, name: _ZN4core3ptr75drop_in_place$LT$clap_builder..parser..matches..arg_matches..ArgMatches$GT$17h2c968ea20157ab57E, location: /home/not-matthias/.rustup/toolchains/stable-x86_64-unknown-linux-gnu/lib/rustlib/src/rust/library/core/src/ptr/mod.rs:524 },
    DebugInfo { addr: bdf70, size: c5, name: _ZN4core3ptr83drop_in_place$LT$alloc..vec..Vec$LT$clap_builder..builder..command..Command$GT$$GT$17hbcc6be51da7f59c0E, location: /home/not-matthias/.rustup/toolchains/stable-x86_64-unknown-linux-gnu/lib/rustlib/src/rust/library/core/src/ptr/mod.rs:524 },
    DebugInfo { addr: be040, size: bc, name: _ZN4core3ptr86drop_in_place$LT$alloc..vec..Vec$LT$clap_builder..builder..arg_group..ArgGroup$GT$$GT$17h73eac3c678916fccE, location: /home/not-matthias/.rustup/toolchains/stable-x86_64-unknown-linux-gnu/lib/rustlib/src/rust/library/core/src/ptr/mod.rs:524 },
    DebugInfo { addr: be100, size: 83, name: _ZN4core3ptr89drop_in_place$LT$core..option..Option$LT$clap_builder..parser..parser..PendingArg$GT$$GT$17hcdb996485852528aE, location: /home/not-matthias/.rustup/toolchains/stable-x86_64-unknown-linux-gnu/lib/rustlib/src/rust/library/core/src/ptr/mod.rs:524 },
    DebugInfo { addr: be190, size: 86, name: _ZN4core3ptr92drop_in_place$LT$clap_builder..util..graph..ChildGraph$LT$clap_builder..util..id..Id$GT$$GT$17haac2a21f7fa86a74E, location: /home/not-matthias/.rustup/toolchains/stable-x86_64-unknown-linux-gnu/lib/rustlib/src/rust/library/core/src/ptr/mod.rs:524 },
    DebugInfo { addr: be220, size: a2, name: _ZN4core3ptr96drop_in_place$LT$alloc..vec..Vec$LT$clap_builder..builder..possible_value..PossibleValue$GT$$GT$17h2da977e3cad7124cE, location: /home/not-matthias/.rustup/toolchains/stable-x86_64-unknown-linux-gnu/lib/rustlib/src/rust/library/core/src/ptr/mod.rs:524 },
    DebugInfo { addr: be2d0, size: 6a, name: _ZN4core3ptr97drop_in_place$LT$core..option..Option$LT$clap_builder..builder..value_parser..ValueParser$GT$$GT$17h896cf89adc29d282E, location: /home/not-matthias/.rustup/toolchains/stable-x86_64-unknown-linux-gnu/lib/rustlib/src/rust/library/core/src/ptr/mod.rs:524 },
    DebugInfo { addr: be340, size: bf, name: _ZN50_$LT$u8$u20$as$u20$alloc..string..SpecToString$GT$14spec_to_string17h8aec06541802d0b2E, location: /home/not-matthias/.rustup/toolchains/stable-x86_64-unknown-linux-gnu/lib/rustlib/src/rust/library/alloc/src/string.rs:2832 },
    DebugInfo { addr: be400, size: 15, name: _ZN53_$LT$core..fmt..Error$u20$as$u20$core..fmt..Debug$GT$3fmt17h6736176c8e29474eE.llvm.1496091775482650854, location: /home/not-matthias/.rustup/toolchains/stable-x86_64-unknown-linux-gnu/lib/rustlib/src/rust/library/core/src/fmt/mod.rs:102 },
    DebugInfo { addr: be420, size: 123, name: _ZN58_$LT$alloc..string..String$u20$as$u20$core..fmt..Write$GT$10write_char17h13db4e3872bba170E.llvm.1496091775482650854, location: /home/not-matthias/.rustup/toolchains/stable-x86_64-unknown-linux-gnu/lib/rustlib/src/rust/library/alloc/src/string.rs:3202 },
    DebugInfo { addr: be550, size: 67, name: _ZN58_$LT$alloc..string..String$u20$as$u20$core..fmt..Write$GT$9write_str17h3471f8bf4fd2c6acE.llvm.1496091775482650854, location: /home/not-matthias/.rustup/toolchains/stable-x86_64-unknown-linux-gnu/lib/rustlib/src/rust/library/alloc/src/string.rs:3196 },
    DebugInfo { addr: be5c0, size: 81, name: _ZN87_$LT$T$u20$as$u20$alloc..slice..$LT$impl$u20$$u5b$T$u5d$$GT$..to_vec_in..ConvertVec$GT$6to_vec17hc75bfb0cb94321b9E, location: /home/not-matthias/.rustup/toolchains/stable-x86_64-unknown-linux-gnu/lib/rustlib/src/rust/library/alloc/src/slice.rs:445 },
    DebugInfo { addr: be650, size: 599a, name: _ZN12clap_builder6parser6parser6Parser16get_matches_with17h88a32d59bec855aaE, location: /home/not-matthias/.cargo/registry/src/index.crates.io-1949cf8c6b5b557f/clap_builder-4.5.17/src/parser/parser.rs:49 },
    DebugInfo { addr: c3ff0, size: 2cf, name: _ZN12clap_builder6parser6parser6Parser19possible_subcommand17h8ae1cee5ed5fb513E, location: /home/not-matthias/.cargo/registry/src/index.crates.io-1949cf8c6b5b557f/clap_builder-4.5.17/src/parser/parser.rs:559 },
    DebugInfo { addr: c42c0, size: 189a, name: _ZN12clap_builder6parser6parser6Parser21parse_help_subcommand17hf88274c86424eb75E, location: /home/not-matthias/.cargo/registry/src/index.crates.io-1949cf8c6b5b557f/clap_builder-4.5.17/src/parser/parser.rs:628 },
    DebugInfo { addr: c5b60, size: 562, name: _ZN12clap_builder6parser6parser6Parser15parse_opt_value17h622b07afafceaee3E, location: /home/not-matthias/.cargo/registry/src/index.crates.io-1949cf8c6b5b557f/clap_builder-4.5.17/src/parser/parser.rs:991 },
    DebugInfo { addr: c60d0, size: 2c8, name: _ZN12clap_builder6parser6parser6Parser15push_arg_values17h44f5f3849af7e34eE, location: /home/not-matthias/.cargo/registry/src/index.crates.io-1949cf8c6b5b557f/clap_builder-4.5.17/src/parser/parser.rs:1066 },
    DebugInfo { addr: c63a0, size: 282, name: _ZN12clap_builder6parser6parser6Parser15resolve_pending17h8a0089b4876b3ed4E, location: /home/not-matthias/.cargo/registry/src/index.crates.io-1949cf8c6b5b557f/clap_builder-4.5.17/src/parser/parser.rs:1092 },
    DebugInfo { addr: c6630, size: 1a06, name: _ZN12clap_builder6parser6parser6Parser5react17hcd7d810db49a86f9E, location: /home/not-matthias/.cargo/registry/src/index.crates.io-1949cf8c6b5b557f/clap_builder-4.5.17/src/parser/parser.rs:1114 },
    DebugInfo { addr: c8040, size: 333, name: _ZN12clap_builder6parser6parser6Parser7add_env17hca5353507dec6e66E, location: /home/not-matthias/.cargo/registry/src/index.crates.io-1949cf8c6b5b557f/clap_builder-4.5.17/src/parser/parser.rs:1387 },
    DebugInfo { addr: c8380, size: 5d9, name: _ZN12clap_builder6parser6parser6Parser12add_defaults17h2152d0f7b689d836E, location: /home/not-matthias/.cargo/registry/src/index.crates.io-1949cf8c6b5b557f/clap_builder-4.5.17/src/parser/parser.rs:1417 },
    DebugInfo { addr: c8960, size: 5b4, name: _ZN12clap_builder6parser6parser6Parser16start_custom_arg17hde52aed8d2243bbbE, location: /home/not-matthias/.cargo/registry/src/index.crates.io-1949cf8c6b5b557f/clap_builder-4.5.17/src/parser/parser.rs:1505 },
    DebugInfo { addr: c8f20, size: 5f, name: _ZN4core3ptr100drop_in_place$LT$alloc..boxed..Box$LT$clap_builder..parser..matches..arg_matches..SubCommand$GT$$GT$17hb5564219b0f6b0b1E, location: /home/not-matthias/.rustup/toolchains/stable-x86_64-unknown-linux-gnu/lib/rustlib/src/rust/library/core/src/ptr/mod.rs:524 },
    DebugInfo { addr: c8f80, size: 82, name: _ZN4core3ptr38drop_in_place$LT$clap_lex..RawArgs$GT$17h229ab5d5cfa62f65E, location: /home/not-matthias/.rustup/toolchains/stable-x86_64-unknown-linux-gnu/lib/rustlib/src/rust/library/core/src/ptr/mod.rs:524 },
    DebugInfo { addr: c9010, size: fd, name: _ZN4core3ptr47drop_in_place$LT$clap_builder..error..Error$GT$17h446c1ada455939ceE, location: /home/not-matthias/.rustup/toolchains/stable-x86_64-unknown-linux-gnu/lib/rustlib/src/rust/library/core/src/ptr/mod.rs:524 },
    DebugInfo { addr: c9110, size: 113, name: _ZN4core3ptr51drop_in_place$LT$clap_builder..mkeymap..MKeyMap$GT$17h8cdf7013464c0061E, location: /home/not-matthias/.rustup/toolchains/stable-x86_64-unknown-linux-gnu/lib/rustlib/src/rust/library/core/src/ptr/mod.rs:524 },
    DebugInfo { addr: c9230, size: 632, name: _ZN4core3ptr52drop_in_place$LT$clap_builder..builder..arg..Arg$GT$17he9c0a80b4a99c6b8E, location: /home/not-matthias/.rustup/toolchains/stable-x86_64-unknown-linux-gnu/lib/rustlib/src/rust/library/core/src/ptr/mod.rs:524 },
    DebugInfo { addr: c9870, size: 120, name: _ZN4core3ptr59drop_in_place$LT$clap_builder..builder..ext..Extensions$GT$17h6250317f4a1980b8E, location: /home/not-matthias/.rustup/toolchains/stable-x86_64-unknown-linux-gnu/lib/rustlib/src/rust/library/core/src/ptr/mod.rs:524 },
    DebugInfo { addr: c9990, size: 41b, name: _ZN4core3ptr60drop_in_place$LT$clap_builder..builder..command..Command$GT$17h085a707d824bb3aeE, location: /home/not-matthias/.rustup/toolchains/stable-x86_64-unknown-linux-gnu/lib/rustlib/src/rust/library/core/src/ptr/mod.rs:524 },
    DebugInfo { addr: c9db0, size: 5a, name: _ZN4core3ptr63drop_in_place$LT$clap_builder..builder..arg_group..ArgGroup$GT$17he8d80217f2cf512cE, location: /home/not-matthias/.rustup/toolchains/stable-x86_64-unknown-linux-gnu/lib/rustlib/src/rust/library/core/src/ptr/mod.rs:524 },
    DebugInfo { addr: c9e10, size: 82, name: _ZN4core3ptr65drop_in_place$LT$alloc..vec..Vec$LT$alloc..string..String$GT$$GT$17he3fc526f4bc110e4E, location: /home/not-matthias/.rustup/toolchains/stable-x86_64-unknown-linux-gnu/lib/rustlib/src/rust/library/core/src/ptr/mod.rs:524 },
    DebugInfo { addr: c9ea0, size: 18, name: _ZN4core3ptr65drop_in_place$LT$clap_builder..builder..styled_str..StyledStr$GT$17hdf2180b6513b2eb7E.llvm.8997612217501246831, location: /home/not-matthias/.rustup/toolchains/stable-x86_64-unknown-linux-gnu/lib/rustlib/src/rust/library/alloc/src/raw_vec/mod.rs:406 },
    DebugInfo { addr: c9ec0, size: a6, name: _ZN4core3ptr66drop_in_place$LT$clap_builder..parser..arg_matcher..ArgMatcher$GT$17h5f3f5a181657582cE, location: /home/not-matthias/.rustup/toolchains/stable-x86_64-unknown-linux-gnu/lib/rustlib/src/rust/library/core/src/ptr/mod.rs:524 },
    DebugInfo { addr: c9f70, size: 149, name: _ZN4core3ptr75drop_in_place$LT$clap_builder..parser..matches..arg_matches..ArgMatches$GT$17h2c968ea20157ab57E, location: /home/not-matthias/.rustup/toolchains/stable-x86_64-unknown-linux-gnu/lib/rustlib/src/rust/library/core/src/ptr/mod.rs:524 },
    DebugInfo { addr: ca0c0, size: c5, name: _ZN4core3ptr83drop_in_place$LT$alloc..vec..Vec$LT$clap_builder..builder..command..Command$GT$$GT$17hbcc6be51da7f59c0E, location: /home/not-matthias/.rustup/toolchains/stable-x86_64-unknown-linux-gnu/lib/rustlib/src/rust/library/core/src/ptr/mod.rs:524 },
    DebugInfo { addr: ca190, size: bc, name: _ZN4core3ptr86drop_in_place$LT$alloc..vec..Vec$LT$clap_builder..builder..arg_group..ArgGroup$GT$$GT$17h73eac3c678916fccE, location: /home/not-matthias/.rustup/toolchains/stable-x86_64-unknown-linux-gnu/lib/rustlib/src/rust/library/core/src/ptr/mod.rs:524 },
    DebugInfo { addr: ca250, size: 83, name: _ZN4core3ptr89drop_in_place$LT$core..option..Option$LT$clap_builder..parser..parser..PendingArg$GT$$GT$17hcdb996485852528aE, location: /home/not-matthias/.rustup/toolchains/stable-x86_64-unknown-linux-gnu/lib/rustlib/src/rust/library/core/src/ptr/mod.rs:524 },
    DebugInfo { addr: ca2e0, size: 86, name: _ZN4core3ptr92drop_in_place$LT$clap_builder..util..graph..ChildGraph$LT$clap_builder..util..id..Id$GT$$GT$17haac2a21f7fa86a74E.llvm.8997612217501246831, location: /home/not-matthias/.rustup/toolchains/stable-x86_64-unknown-linux-gnu/lib/rustlib/src/rust/library/core/src/ptr/mod.rs:524 },
    DebugInfo { addr: ca370, size: 6a, name: _ZN4core3ptr97drop_in_place$LT$core..option..Option$LT$clap_builder..builder..value_parser..ValueParser$GT$$GT$17h896cf89adc29d282E, location: /home/not-matthias/.rustup/toolchains/stable-x86_64-unknown-linux-gnu/lib/rustlib/src/rust/library/core/src/ptr/mod.rs:524 },
    DebugInfo { addr: ca3e0, size: 15, name: _ZN53_$LT$core..fmt..Error$u20$as$u20$core..fmt..Debug$GT$3fmt17h6736176c8e29474eE, location: /home/not-matthias/.rustup/toolchains/stable-x86_64-unknown-linux-gnu/lib/rustlib/src/rust/library/core/src/fmt/mod.rs:102 },
    DebugInfo { addr: ca400, size: 123, name: _ZN58_$LT$alloc..string..String$u20$as$u20$core..fmt..Write$GT$10write_char17h13db4e3872bba170E, location: /home/not-matthias/.rustup/toolchains/stable-x86_64-unknown-linux-gnu/lib/rustlib/src/rust/library/alloc/src/string.rs:3202 },
    DebugInfo { addr: ca530, size: 67, name: _ZN58_$LT$alloc..string..String$u20$as$u20$core..fmt..Write$GT$9write_str17h3471f8bf4fd2c6acE, location: /home/not-matthias/.rustup/toolchains/stable-x86_64-unknown-linux-gnu/lib/rustlib/src/rust/library/alloc/src/string.rs:3196 },
    DebugInfo { addr: ca5a0, size: 14, name: _ZN60_$LT$alloc..string..String$u20$as$u20$core..fmt..Display$GT$3fmt17h253a895d4ea9e2d1E, location: /home/not-matthias/.rustup/toolchains/stable-x86_64-unknown-linux-gnu/lib/rustlib/src/rust/library/alloc/src/string.rs:2595 },
    DebugInfo { addr: ca5c0, size: e8, name: _ZN12clap_builder7builder7command7Command12arg_internal17h512cc4d4d4a423faE, location: /home/not-matthias/.cargo/registry/src/index.crates.io-1949cf8c6b5b557f/clap_builder-4.5.17/src/builder/command.rs:174 },
    DebugInfo { addr: ca6b0, size: 503, name: _ZN12clap_builder7builder7command7Command11subcommands17hc800ef26c0ec95d6E, location: /home/not-matthias/.cargo/registry/src/index.crates.io-1949cf8c6b5b557f/clap_builder-4.5.17/src/builder/command.rs:510 },
    DebugInfo { addr: cabc0, size: 449, name: _ZN12clap_builder7builder7command7Command15get_matches_mut17ha4fe3c5a9066014aE, location: /home/not-matthias/.cargo/registry/src/index.crates.io-1949cf8c6b5b557f/clap_builder-4.5.17/src/builder/command.rs:633 },
    DebugInfo { addr: cb010, size: 124, name: _ZN12clap_builder7builder7command7Command13render_usage_17h9100cf0608d2f9baE, location: /home/not-matthias/.cargo/registry/src/index.crates.io-1949cf8c6b5b557f/clap_builder-4.5.17/src/builder/command.rs:1035 },
    DebugInfo { addr: cb140, size: 132, name: _ZN12clap_builder7builder7command7Command5about17h803b57315e799497E, location: /home/not-matthias/.cargo/registry/src/index.crates.io-1949cf8c6b5b557f/clap_builder-4.5.17/src/builder/command.rs:1738 },
    DebugInfo { addr: cb280, size: 4fb, name: _ZN12clap_builder7builder7command7Command9_do_parse17hc3ae357edb16da8bE, location: /home/not-matthias/.cargo/registry/src/index.crates.io-1949cf8c6b5b557f/clap_builder-4.5.17/src/builder/command.rs:4006 },
    DebugInfo { addr: cb780, size: 50, name: _ZN12clap_builder7builder7command7Command16_build_recursive17h11c40d53843a685fE.llvm.8997612217501246831, location: /home/not-matthias/.cargo/registry/src/index.crates.io-1949cf8c6b5b557f/clap_builder-4.5.17/src/builder/command.rs:4046 },
    DebugInfo { addr: cb7d0, size: 4d7b, name: _ZN12clap_builder7builder7command7Command11_build_self17h4e8b67606fdcc2d3E, location: /home/not-matthias/.cargo/registry/src/index.crates.io-1949cf8c6b5b557f/clap_builder-4.5.17/src/builder/command.rs:4053 },
    DebugInfo { addr: d0550, size: 832, name: _ZN12clap_builder7builder7command7Command17_build_subcommand17h1141e76dc641b0d9E, location: /home/not-matthias/.cargo/registry/src/index.crates.io-1949cf8c6b5b557f/clap_builder-4.5.17/src/builder/command.rs:4151 },
    DebugInfo { addr: d0d90, size: 8f2, name: _ZN12clap_builder7builder7command7Command25_build_bin_names_internal17h50c335b6aa750a7fE.llvm.8997612217501246831, location: /home/not-matthias/.cargo/registry/src/index.crates.io-1949cf8c6b5b557f/clap_builder-4.5.17/src/builder/command.rs:4236 },
    DebugInfo { addr: d1690, size: 376, name: _ZN12clap_builder7builder7command7Command12format_group17hdef175c54285ef87E, location: /home/not-matthias/.cargo/registry/src/index.crates.io-1949cf8c6b5b557f/clap_builder-4.5.17/src/builder/command.rs:4563 },
    DebugInfo { addr: d1a10, size: 7e, name: _ZN12clap_builder7builder7command7Command4find17hcf73902a2814c027E, location: /home/not-matthias/.cargo/registry/src/index.crates.io-1949cf8c6b5b557f/clap_builder-4.5.17/src/builder/command.rs:4601 },
    DebugInfo { addr: d1a90, size: 3e8, name: _ZN12clap_builder7builder7command7Command14required_graph17h4318e3dda4373ddfE, location: /home/not-matthias/.cargo/registry/src/index.crates.io-1949cf8c6b5b557f/clap_builder-4.5.17/src/builder/command.rs:4689 },
    DebugInfo { addr: d1e80, size: 37c, name: _ZN12clap_builder7builder7command7Command20unroll_args_in_group17he61d925b15974e13E, location: /home/not-matthias/.cargo/registry/src/index.crates.io-1949cf8c6b5b557f/clap_builder-4.5.17/src/builder/command.rs:4706 },
    DebugInfo { addr: d2200, size: 5d5, name: _ZN12clap_builder7builder7command7Command19unroll_arg_requires17h5c373a35215ac5a8E, location: /home/not-matthias/.cargo/registry/src/index.crates.io-1949cf8c6b5b557f/clap_builder-4.5.17/src/builder/command.rs:4736 },
    DebugInfo { addr: d27e0, size: 7c, name: _ZN12clap_builder7builder7command7Command17find_short_subcmd17h25b0c38e61df339cE, location: /home/not-matthias/.rustup/toolchains/stable-x86_64-unknown-linux-gnu/lib/rustlib/src/rust/library/alloc/src/vec/mod.rs:1600 },
    DebugInfo { addr: d2860, size: 13e, name: _ZN12clap_builder7builder7command7Command16find_long_subcmd17h76503875e0213f26E, location: /home/not-matthias/.rustup/toolchains/stable-x86_64-unknown-linux-gnu/lib/rustlib/src/rust/library/alloc/src/vec/mod.rs:1600 },
    DebugInfo { addr: d29a0, size: 182, name: _ZN12clap_builder7builder7command7Command14write_help_err17he34d8f3ff6a88d97E, location: /home/not-matthias/.cargo/registry/src/index.crates.io-1949cf8c6b5b557f/clap_builder-4.5.17/src/builder/command.rs:4785 },
    DebugInfo { addr: d2b30, size: 93, name: _ZN121_$LT$clap_builder..builder..command..Command$u20$as$u20$core..ops..index..Index$LT$$RF$clap_builder..util..id..Id$GT$$GT$5index17h47065d51b04e99b2E, location: /home/not-matthias/.cargo/registry/src/index.crates.io-1949cf8c6b5b557f/clap_builder-4.5.17/src/builder/command.rs:4893 },
    DebugInfo { addr: d2bd0, size: 1fe, name: _ZN102_$LT$core..iter..adapters..map..Map$LT$I$C$F$GT$$u20$as$u20$core..iter..traits..iterator..Iterator$GT$4fold17h5ffb06cb1b58cb93E, location: /home/not-matthias/.rustup/toolchains/stable-x86_64-unknown-linux-gnu/lib/rustlib/src/rust/library/core/src/iter/adapters/map.rs:124 },
    DebugInfo { addr: d2dd0, size: 30b, name: _ZN102_$LT$core..iter..adapters..map..Map$LT$I$C$F$GT$$u20$as$u20$core..iter..traits..iterator..Iterator$GT$4fold17ha8313adb2652adafE, location: /home/not-matthias/.rustup/toolchains/stable-x86_64-unknown-linux-gnu/lib/rustlib/src/rust/library/core/src/iter/adapters/map.rs:124 },
    DebugInfo { addr: d30e0, size: 1cb, name: _ZN102_$LT$core..iter..adapters..map..Map$LT$I$C$F$GT$$u20$as$u20$core..iter..traits..iterator..Iterator$GT$8try_fold17h4a77fb9b79fea9c1E, location: /home/not-matthias/.rustup/toolchains/stable-x86_64-unknown-linux-gnu/lib/rustlib/src/rust/library/core/src/iter/adapters/map.rs:115 },
    DebugInfo { addr: d32b0, size: 302, name: _ZN102_$LT$core..iter..adapters..map..Map$LT$I$C$F$GT$$u20$as$u20$core..iter..traits..iterator..Iterator$GT$8try_fold17h8e3e1943768dfe4dE, location: /home/not-matthias/.rustup/toolchains/stable-x86_64-unknown-linux-gnu/lib/rustlib/src/rust/library/core/src/iter/adapters/map.rs:115 },
    DebugInfo { addr: d35c0, size: 23e, name: _ZN102_$LT$core..iter..adapters..map..Map$LT$I$C$F$GT$$u20$as$u20$core..iter..traits..iterator..Iterator$GT$8try_fold17hb1ebef5a1e940c4aE, location: /home/not-matthias/.rustup/toolchains/stable-x86_64-unknown-linux-gnu/lib/rustlib/src/rust/library/core/src/iter/adapters/map.rs:115 },
    DebugInfo { addr: d3800, size: 266, name: _ZN102_$LT$core..iter..adapters..map..Map$LT$I$C$F$GT$$u20$as$u20$core..iter..traits..iterator..Iterator$GT$8try_fold17hc12e0ef9cf781412E, location: /home/not-matthias/.rustup/toolchains/stable-x86_64-unknown-linux-gnu/lib/rustlib/src/rust/library/core/src/iter/adapters/map.rs:115 },
    DebugInfo { addr: d3a70, size: 18, name: _ZN4core3ptr42drop_in_place$LT$alloc..string..String$GT$17hd6d205257de6c30dE.llvm.8824339095754753228, location: /home/not-matthias/.rustup/toolchains/stable-x86_64-unknown-linux-gnu/lib/rustlib/src/rust/library/alloc/src/raw_vec/mod.rs:406 },
    DebugInfo { addr: d3a90, size: 15, name: _ZN53_$LT$core..fmt..Error$u20$as$u20$core..fmt..Debug$GT$3fmt17h6736176c8e29474eE.llvm.8824339095754753228, location: /home/not-matthias/.rustup/toolchains/stable-x86_64-unknown-linux-gnu/lib/rustlib/src/rust/library/core/src/fmt/mod.rs:102 },
    DebugInfo { addr: d3ab0, size: 123, name: _ZN58_$LT$alloc..string..String$u20$as$u20$core..fmt..Write$GT$10write_char17h13db4e3872bba170E.llvm.8824339095754753228, location: /home/not-matthias/.rustup/toolchains/stable-x86_64-unknown-linux-gnu/lib/rustlib/src/rust/library/alloc/src/string.rs:3202 },
    DebugInfo { addr: d3be0, size: 67, name: _ZN58_$LT$alloc..string..String$u20$as$u20$core..fmt..Write$GT$9write_str17h3471f8bf4fd2c6acE.llvm.8824339095754753228, location: /home/not-matthias/.rustup/toolchains/stable-x86_64-unknown-linux-gnu/lib/rustlib/src/rust/library/alloc/src/string.rs:3196 },
    DebugInfo { addr: d3c50, size: 50, name: _ZN102_$LT$core..iter..adapters..map..Map$LT$I$C$F$GT$$u20$as$u20$core..iter..traits..iterator..Iterator$GT$4next17hc99e45eb4aa0dd10E, location: /home/not-matthias/.rustup/toolchains/stable-x86_64-unknown-linux-gnu/lib/rustlib/src/rust/library/core/src/iter/adapters/map.rs:106 },
    DebugInfo { addr: d3ca0, size: 1e, name: _ZN102_$LT$core..iter..adapters..map..Map$LT$I$C$F$GT$$u20$as$u20$core..iter..traits..iterator..Iterator$GT$9size_hint17hbe23d1b7801e1121E, location: /home/not-matthias/.rustup/toolchains/stable-x86_64-unknown-linux-gnu/lib/rustlib/src/rust/library/core/src/iter/adapters/map.rs:111 },
    DebugInfo { addr: d3cc0, size: 18, name: _ZN4core3ptr238drop_in_place$LT$alloc..boxed..convert..$LT$impl$u20$core..convert..From$LT$alloc..string..String$GT$$u20$for$u20$alloc..boxed..Box$LT$dyn$u20$core..error..Error$u2b$core..marker..Send$u2b$core..marker..Sync$GT$$GT$..from..StringError$GT$17ha567625391c429f5E, location: /home/not-matthias/.rustup/toolchains/stable-x86_64-unknown-linux-gnu/lib/rustlib/src/rust/library/alloc/src/raw_vec/mod.rs:406 },
    DebugInfo { addr: d3ce0, size: 82, name: _ZN4core3ptr65drop_in_place$LT$alloc..vec..Vec$LT$alloc..string..String$GT$$GT$17he3fc526f4bc110e4E, location: /home/not-matthias/.rustup/toolchains/stable-x86_64-unknown-linux-gnu/lib/rustlib/src/rust/library/core/src/ptr/mod.rs:524 },
    DebugInfo { addr: d3d70, size: 92, name: _ZN4core4iter6traits8iterator8Iterator10advance_by17hb0c1f25ad55d3b9fE, location: /home/not-matthias/.rustup/toolchains/stable-x86_64-unknown-linux-gnu/lib/rustlib/src/rust/library/core/src/cmp.rs:1849 },
    DebugInfo { addr: d3e10, size: d5, name: _ZN4core4iter6traits8iterator8Iterator3nth17h35033fe758dd8e6eE, location: /home/not-matthias/.rustup/toolchains/stable-x86_64-unknown-linux-gnu/lib/rustlib/src/rust/library/core/src/iter/traits/iterator.rs:347 },
    DebugInfo { addr: d3ef0, size: 3, name: _ZN4core5error5Error6source17h5cc713e931a4caa3E, location: /home/not-matthias/.rustup/toolchains/stable-x86_64-unknown-linux-gnu/lib/rustlib/src/rust/library/core/src/error.rs:107 },
    DebugInfo { addr: d3f00, size: 1, name: _ZN4core5error5Error7provide17h381e4025c15a20e3E, location: /home/not-matthias/.rustup/toolchains/stable-x86_64-unknown-linux-gnu/lib/rustlib/src/rust/library/core/src/error.rs:204 },
    DebugInfo { addr: d3f10, size: 1, name: _ZN4core5error5Error7provide17hd8c682db8e9516dbE, location: /home/not-matthias/.rustup/toolchains/stable-x86_64-unknown-linux-gnu/lib/rustlib/src/rust/library/core/src/error.rs:204 },
    DebugInfo { addr: d3f20, size: 1, name: _ZN4core5error5Error7provide17hfc8cfc8cf2813c30E, location: /home/not-matthias/.rustup/toolchains/stable-x86_64-unknown-linux-gnu/lib/rustlib/src/rust/library/core/src/error.rs:204 },
    DebugInfo { addr: d3f30, size: 15, name: _ZN53_$LT$core..fmt..Error$u20$as$u20$core..fmt..Debug$GT$3fmt17h6736176c8e29474eE, location: /home/not-matthias/.rustup/toolchains/stable-x86_64-unknown-linux-gnu/lib/rustlib/src/rust/library/core/src/fmt/mod.rs:102 },
    DebugInfo { addr: d3f50, size: 123, name: _ZN58_$LT$alloc..string..String$u20$as$u20$core..fmt..Write$GT$10write_char17h13db4e3872bba170E, location: /home/not-matthias/.rustup/toolchains/stable-x86_64-unknown-linux-gnu/lib/rustlib/src/rust/library/alloc/src/string.rs:3202 },
    DebugInfo { addr: d4080, size: 67, name: _ZN58_$LT$alloc..string..String$u20$as$u20$core..fmt..Write$GT$9write_str17h3471f8bf4fd2c6acE, location: /home/not-matthias/.rustup/toolchains/stable-x86_64-unknown-linux-gnu/lib/rustlib/src/rust/library/alloc/src/string.rs:3196 },
    DebugInfo { addr: d40f0, size: 14, name: _ZN60_$LT$alloc..string..String$u20$as$u20$core..fmt..Display$GT$3fmt17h253a895d4ea9e2d1E, location: /home/not-matthias/.rustup/toolchains/stable-x86_64-unknown-linux-gnu/lib/rustlib/src/rust/library/alloc/src/string.rs:2595 },
    DebugInfo { addr: d4110, size: 43, name: _ZN68_$LT$core..num..error..ParseIntError$u20$as$u20$core..fmt..Debug$GT$3fmt17h9d974530281c97f3E, location: /home/not-matthias/.rustup/toolchains/stable-x86_64-unknown-linux-gnu/lib/rustlib/src/rust/library/core/src/num/error.rs:64 },
    DebugInfo { addr: d4160, size: 1d, name: _ZN70_$LT$core..num..error..ParseIntError$u20$as$u20$core..error..Error$GT$11description17hf7118da03d3f31b7E, location: /home/not-matthias/.rustup/toolchains/stable-x86_64-unknown-linux-gnu/lib/rustlib/src/rust/library/core/src/num/error.rs:135 },
    DebugInfo { addr: d4180, size: 29, name: _ZN70_$LT$core..num..error..TryFromIntError$u20$as$u20$core..fmt..Debug$GT$3fmt17h1ec19825d3f66aafE, location: /home/not-matthias/.rustup/toolchains/stable-x86_64-unknown-linux-gnu/lib/rustlib/src/rust/library/core/src/num/error.rs:9 },
    DebugInfo { addr: d41b0, size: d, name: _ZN72_$LT$core..num..error..TryFromIntError$u20$as$u20$core..error..Error$GT$11description17h5edb59429c92c0edE, location: /home/not-matthias/.rustup/toolchains/stable-x86_64-unknown-linux-gnu/lib/rustlib/src/rust/library/core/src/num/error.rs:25 },
    DebugInfo { addr: d41c0, size: a7, name: _ZN73_$LT$P$u20$as$u20$clap_builder..builder..value_parser..AnyValueParser$GT$9parse_ref17h35f50404d56ca88dE, location: /home/not-matthias/.cargo/registry/src/index.crates.io-1949cf8c6b5b557f/clap_builder-4.5.17/src/builder/value_parser.rs:624 },
    DebugInfo { addr: d4270, size: 118, name: _ZN73_$LT$P$u20$as$u20$clap_builder..builder..value_parser..AnyValueParser$GT$9parse_ref17h45226ca48e12692eE.llvm.3860672434725087571, location: /home/not-matthias/.cargo/registry/src/index.crates.io-1949cf8c6b5b557f/clap_builder-4.5.17/src/builder/value_parser.rs:624 },
    DebugInfo { addr: d4390, size: a8, name: _ZN73_$LT$P$u20$as$u20$clap_builder..builder..value_parser..AnyValueParser$GT$9parse_ref17h6463531968b99362E.llvm.3860672434725087571, location: /home/not-matthias/.cargo/registry/src/index.crates.io-1949cf8c6b5b557f/clap_builder-4.5.17/src/builder/value_parser.rs:624 },
    DebugInfo { addr: d4440, size: 179, name: _ZN73_$LT$P$u20$as$u20$clap_builder..builder..value_parser..AnyValueParser$GT$9parse_ref17h7040f0340fe78278E.llvm.3860672434725087571, location: /home/not-matthias/.cargo/registry/src/index.crates.io-1949cf8c6b5b557f/clap_builder-4.5.17/src/builder/value_parser.rs:624 },
    DebugInfo { addr: d45c0, size: 169, name: _ZN73_$LT$P$u20$as$u20$clap_builder..builder..value_parser..AnyValueParser$GT$9parse_ref17h9072230b8a3e0248E.llvm.3860672434725087571, location: /home/not-matthias/.cargo/registry/src/index.crates.io-1949cf8c6b5b557f/clap_builder-4.5.17/src/builder/value_parser.rs:624 },
    DebugInfo { addr: d4730, size: a7, name: _ZN73_$LT$P$u20$as$u20$clap_builder..builder..value_parser..AnyValueParser$GT$10parse_ref_17h0b9b1adc96407152E, location: /home/not-matthias/.cargo/registry/src/index.crates.io-1949cf8c6b5b557f/clap_builder-4.5.17/src/builder/value_parser.rs:634 },
    DebugInfo { addr: d47e0, size: 169, name: _ZN73_$LT$P$u20$as$u20$clap_builder..builder..value_parser..AnyValueParser$GT$10parse_ref_17h246cc61f5872e629E.llvm.3860672434725087571, location: /home/not-matthias/.cargo/registry/src/index.crates.io-1949cf8c6b5b557f/clap_builder-4.5.17/src/builder/value_parser.rs:634 },
    DebugInfo { addr: d4950, size: a8, name: _ZN73_$LT$P$u20$as$u20$clap_builder..builder..value_parser..AnyValueParser$GT$10parse_ref_17h65ab26747534e6cbE.llvm.3860672434725087571, location: /home/not-matthias/.cargo/registry/src/index.crates.io-1949cf8c6b5b557f/clap_builder-4.5.17/src/builder/value_parser.rs:634 },
    DebugInfo { addr: d4a00, size: 179, name: _ZN73_$LT$P$u20$as$u20$clap_builder..builder..value_parser..AnyValueParser$GT$10parse_ref_17hc32b94fe54c27f98E.llvm.3860672434725087571, location: /home/not-matthias/.cargo/registry/src/index.crates.io-1949cf8c6b5b557f/clap_builder-4.5.17/src/builder/value_parser.rs:634 },
    DebugInfo { addr: d4b80, size: 118, name: _ZN73_$LT$P$u20$as$u20$clap_builder..builder..value_parser..AnyValueParser$GT$10parse_ref_17hccb1eb6f1dd59adaE.llvm.3860672434725087571, location: /home/not-matthias/.cargo/registry/src/index.crates.io-1949cf8c6b5b557f/clap_builder-4.5.17/src/builder/value_parser.rs:634 },
    DebugInfo { addr: d4ca0, size: 15, name: _ZN73_$LT$P$u20$as$u20$clap_builder..builder..value_parser..AnyValueParser$GT$7type_id17h17b0e0dc96d38102E.llvm.3860672434725087571, location: /home/not-matthias/.cargo/registry/src/index.crates.io-1949cf8c6b5b557f/clap_builder-4.5.17/src/builder/value_parser.rs:645 },
    DebugInfo { addr: d4cc0, size: 15, name: _ZN73_$LT$P$u20$as$u20$clap_builder..builder..value_parser..AnyValueParser$GT$7type_id17h79c2cc42be266903E, location: /home/not-matthias/.cargo/registry/src/index.crates.io-1949cf8c6b5b557f/clap_builder-4.5.17/src/builder/value_parser.rs:645 },
    DebugInfo { addr: d4ce0, size: 15, name: _ZN73_$LT$P$u20$as$u20$clap_builder..builder..value_parser..AnyValueParser$GT$7type_id17h9408602b24de66ceE.llvm.3860672434725087571, location: /home/not-matthias/.cargo/registry/src/index.crates.io-1949cf8c6b5b557f/clap_builder-4.5.17/src/builder/value_parser.rs:645 },
    DebugInfo { addr: d4d00, size: 15, name: _ZN73_$LT$P$u20$as$u20$clap_builder..builder..value_parser..AnyValueParser$GT$7type_id17hb4991b9aab119030E.llvm.3860672434725087571, location: /home/not-matthias/.cargo/registry/src/index.crates.io-1949cf8c6b5b557f/clap_builder-4.5.17/src/builder/value_parser.rs:645 },
    DebugInfo { addr: d4d20, size: 15, name: _ZN73_$LT$P$u20$as$u20$clap_builder..builder..value_parser..AnyValueParser$GT$7type_id17hf6cc3da8e03e2680E.llvm.3860672434725087571, location: /home/not-matthias/.cargo/registry/src/index.crates.io-1949cf8c6b5b557f/clap_builder-4.5.17/src/builder/value_parser.rs:645 },
    DebugInfo { addr: d4d40, size: 3, name: _ZN73_$LT$P$u20$as$u20$clap_builder..builder..value_parser..AnyValueParser$GT$15possible_values17h24a098b9524efd42E, location: /home/not-matthias/.cargo/registry/src/index.crates.io-1949cf8c6b5b557f/clap_builder-4.5.17/src/builder/value_parser.rs:653 },
    DebugInfo { addr: d4d50, size: 4e, name: _ZN73_$LT$P$u20$as$u20$clap_builder..builder..value_parser..AnyValueParser$GT$15possible_values17h5665835672602a5cE.llvm.3860672434725087571, location: /home/not-matthias/.cargo/registry/src/index.crates.io-1949cf8c6b5b557f/clap_builder-4.5.17/src/builder/value_parser.rs:649 },
    DebugInfo { addr: d4da0, size: 3, name: _ZN73_$LT$P$u20$as$u20$clap_builder..builder..value_parser..AnyValueParser$GT$15possible_values17h982756c9dab6d9a8E.llvm.3860672434725087571, location: /home/not-matthias/.cargo/registry/src/index.crates.io-1949cf8c6b5b557f/clap_builder-4.5.17/src/builder/value_parser.rs:653 },
    DebugInfo { addr: d4da0, size: 3, name: _ZN73_$LT$P$u20$as$u20$clap_builder..builder..value_parser..AnyValueParser$GT$15possible_values17hcf634c793fe196deE.llvm.3860672434725087571, location: /home/not-matthias/.cargo/registry/src/index.crates.io-1949cf8c6b5b557f/clap_builder-4.5.17/src/builder/value_parser.rs:653 },
    DebugInfo { addr: d4da0, size: 3, name: _ZN73_$LT$P$u20$as$u20$clap_builder..builder..value_parser..AnyValueParser$GT$15possible_values17hfe8d43dc3f155bc9E.llvm.3860672434725087571, location: /home/not-matthias/.cargo/registry/src/index.crates.io-1949cf8c6b5b557f/clap_builder-4.5.17/src/builder/value_parser.rs:653 },
    DebugInfo { addr: d4db0, size: d, name: _ZN73_$LT$P$u20$as$u20$clap_builder..builder..value_parser..AnyValueParser$GT$9clone_any17h3bf977ec071da821E.llvm.3860672434725087571, location: /home/not-matthias/.cargo/registry/src/index.crates.io-1949cf8c6b5b557f/clap_builder-4.5.17/src/builder/value_parser.rs:657 },
    DebugInfo { addr: d4dc0, size: d, name: _ZN73_$LT$P$u20$as$u20$clap_builder..builder..value_parser..AnyValueParser$GT$9clone_any17h489bb4e835c20452E.llvm.3860672434725087571, location: /home/not-matthias/.cargo/registry/src/index.crates.io-1949cf8c6b5b557f/clap_builder-4.5.17/src/builder/value_parser.rs:657 },
    DebugInfo { addr: d4dd0, size: 68, name: _ZN73_$LT$P$u20$as$u20$clap_builder..builder..value_parser..AnyValueParser$GT$9clone_any17h502bc8ca80683b33E, location: /home/not-matthias/.cargo/registry/src/index.crates.io-1949cf8c6b5b557f/clap_builder-4.5.17/src/builder/value_parser.rs:655 },
    DebugInfo { addr: d4e40, size: d, name: _ZN73_$LT$P$u20$as$u20$clap_builder..builder..value_parser..AnyValueParser$GT$9clone_any17h8d9b6a624e68bfe5E.llvm.3860672434725087571, location: /home/not-matthias/.cargo/registry/src/index.crates.io-1949cf8c6b5b557f/clap_builder-4.5.17/src/builder/value_parser.rs:657 },
    DebugInfo { addr: d4e50, size: d, name: _ZN73_$LT$P$u20$as$u20$clap_builder..builder..value_parser..AnyValueParser$GT$9clone_any17he56caad3180703f0E.llvm.3860672434725087571, location: /home/not-matthias/.cargo/registry/src/index.crates.io-1949cf8c6b5b557f/clap_builder-4.5.17/src/builder/value_parser.rs:657 },
    DebugInfo { addr: d4e60, size: 1fa, name: _ZN128_$LT$clap_builder..builder..value_parser..StringValueParser$u20$as$u20$clap_builder..builder..value_parser..TypedValueParser$GT$5parse17h98c3882d7fdf9593E, location: /home/not-matthias/.cargo/registry/src/index.crates.io-1949cf8c6b5b557f/clap_builder-4.5.17/src/builder/value_parser.rs:926 },
    DebugInfo { addr: d5060, size: 1dc, name: _ZN129_$LT$clap_builder..builder..value_parser..PathBufValueParser$u20$as$u20$clap_builder..builder..value_parser..TypedValueParser$GT$5parse17h36a8e204ef9f45cfE, location: /home/not-matthias/.cargo/registry/src/index.crates.io-1949cf8c6b5b557f/clap_builder-4.5.17/src/builder/value_parser.rs:1016 },
    DebugInfo { addr: d5240, size: 104c, name: _ZN140_$LT$clap_builder..builder..value_parser..RangedI64ValueParser$LT$T$GT$$u20$as$u20$clap_builder..builder..value_parser..TypedValueParser$GT$9parse_ref17hd23fe48c878ff011E, location: /home/not-matthias/.cargo/registry/src/index.crates.io-1949cf8c6b5b557f/clap_builder-4.5.17/src/builder/value_parser.rs:1402 },
    DebugInfo { addr: d6290, size: 36f, name: _ZN126_$LT$clap_builder..builder..value_parser..BoolValueParser$u20$as$u20$clap_builder..builder..value_parser..TypedValueParser$GT$9parse_ref17h0709f1972ad3f84cE, location: /home/not-matthias/.cargo/registry/src/index.crates.io-1949cf8c6b5b557f/clap_builder-4.5.17/src/builder/value_parser.rs:1692 },
    DebugInfo { addr: d6600, size: 1b, name: _ZN79_$LT$u32$u20$as$u20$clap_builder..builder..value_parser..ValueParserFactory$GT$12value_parser17h5337a2d4ea196deeE, location: /home/not-matthias/.cargo/registry/src/index.crates.io-1949cf8c6b5b557f/clap_builder-4.5.17/src/builder/value_parser.rs:2360 },
    DebugInfo { addr: d6620, size: 13, name: _ZN79_$LT$i64$u20$as$u20$clap_builder..builder..value_parser..ValueParserFactory$GT$12value_parser17h3ca813e584879affE, location: /home/not-matthias/.cargo/registry/src/index.crates.io-1949cf8c6b5b557f/clap_builder-4.5.17/src/builder/value_parser.rs:2382 },
    DebugInfo { addr: d6620, size: 13, name: _ZN79_$LT$u64$u20$as$u20$clap_builder..builder..value_parser..ValueParserFactory$GT$12value_parser17hed1e725c403d2c55E, location: /home/not-matthias/.cargo/registry/src/index.crates.io-1949cf8c6b5b557f/clap_builder-4.5.17/src/builder/value_parser.rs:2382 },
    DebugInfo { addr: d6640, size: 632, name: _ZN4core3ptr52drop_in_place$LT$clap_builder..builder..arg..Arg$GT$17he9c0a80b4a99c6b8E.llvm.17390379896768929180, location: /home/not-matthias/.rustup/toolchains/stable-x86_64-unknown-linux-gnu/lib/rustlib/src/rust/library/core/src/ptr/mod.rs:524 },
    DebugInfo { addr: d6c80, size: 120, name: _ZN4core3ptr59drop_in_place$LT$clap_builder..builder..ext..Extensions$GT$17h6250317f4a1980b8E, location: /home/not-matthias/.rustup/toolchains/stable-x86_64-unknown-linux-gnu/lib/rustlib/src/rust/library/core/src/ptr/mod.rs:524 },
    DebugInfo { addr: d6da0, size: ce, name: _ZN79_$LT$alloc..vec..drain..Drain$LT$T$C$A$GT$$u20$as$u20$core..ops..drop..Drop$GT$4drop17ha59c957bda96cfa8E, location: /home/not-matthias/.rustup/toolchains/stable-x86_64-unknown-linux-gnu/lib/rustlib/src/rust/library/alloc/src/vec/drain.rs:175 },
    DebugInfo { addr: d6e70, size: 4fb, name: _ZN81_$LT$alloc..vec..splice..Splice$LT$I$C$A$GT$$u20$as$u20$core..ops..drop..Drop$GT$4drop17h574959797721d063E, location: /home/not-matthias/.rustup/toolchains/stable-x86_64-unknown-linux-gnu/lib/rustlib/src/rust/library/alloc/src/vec/splice.rs:56 },
    DebugInfo { addr: d7370, size: 95, name: _ZN86_$LT$alloc..vec..into_iter..IntoIter$LT$T$C$A$GT$$u20$as$u20$core..ops..drop..Drop$GT$4drop17h2b6733fb2d766b38E, location: /home/not-matthias/.rustup/toolchains/stable-x86_64-unknown-linux-gnu/lib/rustlib/src/rust/library/alloc/src/vec/into_iter.rs:487 },
    DebugInfo { addr: d7410, size: 95, name: _ZN86_$LT$alloc..vec..into_iter..IntoIter$LT$T$C$A$GT$$u20$as$u20$core..ops..drop..Drop$GT$4drop17h4b45b8667c167a3dE, location: /home/not-matthias/.rustup/toolchains/stable-x86_64-unknown-linux-gnu/lib/rustlib/src/rust/library/alloc/src/vec/into_iter.rs:487 },
    DebugInfo { addr: d74b0, size: 95, name: _ZN86_$LT$alloc..vec..into_iter..IntoIter$LT$T$C$A$GT$$u20$as$u20$core..ops..drop..Drop$GT$4drop17h9504c614cbeca253E, location: /home/not-matthias/.rustup/toolchains/stable-x86_64-unknown-linux-gnu/lib/rustlib/src/rust/library/alloc/src/vec/into_iter.rs:487 },
    DebugInfo { addr: d7550, size: 27c, name: _ZN12clap_builder6parser7matches11arg_matches10ArgMatches8get_flag17h63bc9abf1fe31a3aE, location: /home/not-matthias/.cargo/registry/src/index.crates.io-1949cf8c6b5b557f/clap_builder-4.5.17/src/parser/matches/arg_matches.rs:177 },
    DebugInfo { addr: d77d0, size: 1ad, name: _ZN12clap_builder6parser7matches11arg_matches10ArgMatches11try_get_one17h4cb661ca8ede4159E, location: /home/not-matthias/.cargo/registry/src/index.crates.io-1949cf8c6b5b557f/clap_builder-4.5.17/src/parser/matches/arg_matches.rs:1059 },
    DebugInfo { addr: d7980, size: 64, name: _ZN12clap_builder7mkeymap7MKeyMap4push17h6ecd08ffab3c7640E, location: /home/not-matthias/.cargo/registry/src/index.crates.io-1949cf8c6b5b557f/clap_builder-4.5.17/src/mkeymap.rs:94 },
    DebugInfo { addr: d79f0, size: 339, name: _ZN12clap_builder7mkeymap7MKeyMap6_build17h0a9f84feab680512E, location: /home/not-matthias/.cargo/registry/src/index.crates.io-1949cf8c6b5b557f/clap_builder-4.5.17/src/mkeymap.rs:137 },
    DebugInfo { addr: d7d30, size: 24, name: _ZN4core3ptr47drop_in_place$LT$std..io..stdio..StderrLock$GT$17h02125937a8d42bb0E.llvm.11750586362588205305, location: /home/not-matthias/.rustup/toolchains/stable-x86_64-unknown-linux-gnu/lib/rustlib/src/rust/library/core/src/ptr/mod.rs:524 },
    DebugInfo { addr: d7d30, size: 24, name: _ZN4core3ptr47drop_in_place$LT$std..io..stdio..StdoutLock$GT$17h8e3838aa8899a11eE.llvm.11750586362588205305, location: /home/not-matthias/.rustup/toolchains/stable-x86_64-unknown-linux-gnu/lib/rustlib/src/rust/library/core/src/ptr/mod.rs:524 },
    DebugInfo { addr: d7d60, size: 82, name: _ZN4core3ptr65drop_in_place$LT$alloc..vec..Vec$LT$alloc..string..String$GT$$GT$17he3fc526f4bc110e4E.llvm.11750586362588205305, location: /home/not-matthias/.rustup/toolchains/stable-x86_64-unknown-linux-gnu/lib/rustlib/src/rust/library/core/src/ptr/mod.rs:524 },
    DebugInfo { addr: d7df0, size: 207, name: _ZN4core5slice4sort6stable5merge5merge17h24f74ea2f21e7a4fE, location: /home/not-matthias/.rustup/toolchains/stable-x86_64-unknown-linux-gnu/lib/rustlib/src/rust/library/core/src/slice/sort/stable/merge.rs:8 },
    DebugInfo { addr: d8000, size: 213, name: _ZN4core5slice4sort6stable5merge5merge17h8010f473ac86a5d4E, location: /home/not-matthias/.rustup/toolchains/stable-x86_64-unknown-linux-gnu/lib/rustlib/src/rust/library/core/src/slice/sort/stable/merge.rs:8 },
    DebugInfo { addr: d8220, size: 213, name: _ZN4core5slice4sort6stable5merge5merge17h9e6c9870bab9a581E, location: /home/not-matthias/.rustup/toolchains/stable-x86_64-unknown-linux-gnu/lib/rustlib/src/rust/library/core/src/slice/sort/stable/merge.rs:8 },
    DebugInfo { addr: d8440, size: 638, name: _ZN4core5slice4sort6stable9quicksort9quicksort17h642d4346dc0d25beE, location: /home/not-matthias/.rustup/toolchains/stable-x86_64-unknown-linux-gnu/lib/rustlib/src/rust/library/core/src/slice/sort/stable/quicksort.rs:16 },
    DebugInfo { addr: d8a80, size: 6a0, name: _ZN4core5slice4sort6stable9quicksort9quicksort17h9b70c4fa45f75e1eE, location: /home/not-matthias/.rustup/toolchains/stable-x86_64-unknown-linux-gnu/lib/rustlib/src/rust/library/core/src/slice/sort/stable/quicksort.rs:16 },
    DebugInfo { addr: d9120, size: 690, name: _ZN4core5slice4sort6stable9quicksort9quicksort17hec83114cf201cf9aE, location: /home/not-matthias/.rustup/toolchains/stable-x86_64-unknown-linux-gnu/lib/rustlib/src/rust/library/core/src/slice/sort/stable/quicksort.rs:16 },
    DebugInfo { addr: d97b0, size: 1da, name: _ZN5alloc5slice29_$LT$impl$u20$$u5b$T$u5d$$GT$6repeat17h1ca20d105f19d192E, location: /home/not-matthias/.rustup/toolchains/stable-x86_64-unknown-linux-gnu/lib/rustlib/src/rust/library/alloc/src/slice.rs:508 },
    DebugInfo { addr: d9990, size: ab, name: _ZN12clap_builder6parser5error12MatchesError6unwrap17h4bc30bc209520331E, location: /home/not-matthias/.cargo/registry/src/index.crates.io-1949cf8c6b5b557f/clap_builder-4.5.17/src/parser/error.rs:25 },
    DebugInfo { addr: d9990, size: ab, name: _ZN12clap_builder6parser5error12MatchesError6unwrap17hf81a4cbffbc5c995E, location: /home/not-matthias/.cargo/registry/src/index.crates.io-1949cf8c6b5b557f/clap_builder-4.5.17/src/parser/error.rs:25 },
    DebugInfo { addr: d9a40, size: a1, name: _ZN80_$LT$clap_builder..parser..error..MatchesError$u20$as$u20$core..fmt..Display$GT$3fmt17h90a54d6c93f28453E, location: /home/not-matthias/.cargo/registry/src/index.crates.io-1949cf8c6b5b557f/clap_builder-4.5.17/src/parser/error.rs:40 },
    DebugInfo { addr: d9af0, size: 51, name: _ZN12clap_builder6output3fmt9Colorizer12with_content17hdc25d2c928120647E, location: /home/not-matthias/.cargo/registry/src/index.crates.io-1949cf8c6b5b557f/clap_builder-4.5.17/src/output/fmt.rs:27 },
    DebugInfo { addr: d9b50, size: c3, name: _ZN12clap_builder6output3fmt9Colorizer5print17hdcd008c1340e9f91E, location: /home/not-matthias/.cargo/registry/src/index.crates.io-1949cf8c6b5b557f/clap_builder-4.5.17/src/output/fmt.rs:60 },
    DebugInfo { addr: d9c20, size: 20d, name: _ZN4core3ops8function5impls79_$LT$impl$u20$core..ops..function..FnMut$LT$A$GT$$u20$for$u20$$RF$mut$u20$F$GT$8call_mut17h8f3ca904d97550e1E, location: /home/not-matthias/.rustup/toolchains/stable-x86_64-unknown-linux-gnu/lib/rustlib/src/rust/library/core/src/ops/function.rs:293 },
    DebugInfo { addr: d9e30, size: a7, name: _ZN4core3ptr144drop_in_place$LT$clap_builder..util..flat_map..FlatMap$LT$clap_builder..util..id..Id$C$alloc..vec..Vec$LT$clap_builder..util..id..Id$GT$$GT$$GT$17h013032e53e7179efE, location: /home/not-matthias/.rustup/toolchains/stable-x86_64-unknown-linux-gnu/lib/rustlib/src/rust/library/core/src/ptr/mod.rs:524 },
    DebugInfo { addr: d9ee0, size: 18, name: _ZN4core3ptr42drop_in_place$LT$alloc..string..String$GT$17hd6d205257de6c30dE.llvm.14054754358263018937, location: /home/not-matthias/.rustup/toolchains/stable-x86_64-unknown-linux-gnu/lib/rustlib/src/rust/library/alloc/src/raw_vec/mod.rs:406 },
    DebugInfo { addr: d9f00, size: 82, name: _ZN4core3ptr65drop_in_place$LT$alloc..vec..Vec$LT$alloc..string..String$GT$$GT$17he3fc526f4bc110e4E, location: /home/not-matthias/.rustup/toolchains/stable-x86_64-unknown-linux-gnu/lib/rustlib/src/rust/library/core/src/ptr/mod.rs:524 },
    DebugInfo { addr: d9f90, size: a2, name: _ZN4core3ptr96drop_in_place$LT$alloc..vec..Vec$LT$clap_builder..builder..possible_value..PossibleValue$GT$$GT$17h2da977e3cad7124cE, location: /home/not-matthias/.rustup/toolchains/stable-x86_64-unknown-linux-gnu/lib/rustlib/src/rust/library/core/src/ptr/mod.rs:524 },
    DebugInfo { addr: da040, size: 15, name: _ZN53_$LT$core..fmt..Error$u20$as$u20$core..fmt..Debug$GT$3fmt17h6736176c8e29474eE.llvm.14054754358263018937, location: /home/not-matthias/.rustup/toolchains/stable-x86_64-unknown-linux-gnu/lib/rustlib/src/rust/library/core/src/fmt/mod.rs:102 },
    DebugInfo { addr: da060, size: 123, name: _ZN58_$LT$alloc..string..String$u20$as$u20$core..fmt..Write$GT$10write_char17h13db4e3872bba170E.llvm.14054754358263018937, location: /home/not-matthias/.rustup/toolchains/stable-x86_64-unknown-linux-gnu/lib/rustlib/src/rust/library/alloc/src/string.rs:3202 },
    DebugInfo { addr: da190, size: 67, name: _ZN58_$LT$alloc..string..String$u20$as$u20$core..fmt..Write$GT$9write_str17h3471f8bf4fd2c6acE.llvm.14054754358263018937, location: /home/not-matthias/.rustup/toolchains/stable-x86_64-unknown-linux-gnu/lib/rustlib/src/rust/library/alloc/src/string.rs:3196 },
    DebugInfo { addr: da200, size: 2812, name: _ZN12clap_builder6parser9validator9Validator8validate17h3e27356f6975d549E, location: /home/not-matthias/.cargo/registry/src/index.crates.io-1949cf8c6b5b557f/clap_builder-4.5.17/src/parser/validator.rs:24 },
    DebugInfo { addr: dca20, size: 3c1, name: _ZN12clap_builder6parser9validator9Conflicts16gather_conflicts17hd2146ad957ef8f59E, location: /home/not-matthias/.cargo/registry/src/index.crates.io-1949cf8c6b5b557f/clap_builder-4.5.17/src/parser/validator.rs:482 },
    DebugInfo { addr: dcdf0, size: 6da, name: _ZN12clap_builder6parser9validator23gather_direct_conflicts17h8ac6a7e24cf63bd7E, location: /home/not-matthias/.cargo/registry/src/index.crates.io-1949cf8c6b5b557f/clap_builder-4.5.17/src/parser/validator.rs:516 },
    DebugInfo { addr: dd4d0, size: 15, name: _ZN36_$LT$T$u20$as$u20$core..any..Any$GT$7type_id17h352adeb97ea45f2dE, location: /home/not-matthias/.rustup/toolchains/stable-x86_64-unknown-linux-gnu/lib/rustlib/src/rust/library/core/src/any.rs:139 },
    DebugInfo { addr: dd4f0, size: 14, name: _ZN44_$LT$$RF$T$u20$as$u20$core..fmt..Display$GT$3fmt17h34c0cc280d1b0a76E, location: /home/not-matthias/.rustup/toolchains/stable-x86_64-unknown-linux-gnu/lib/rustlib/src/rust/library/core/src/fmt/mod.rs:2636 },
    DebugInfo { addr: dd510, size: 60, name: _ZN44_$LT$$RF$T$u20$as$u20$core..fmt..Display$GT$3fmt17h398980a0053d95deE, location: /home/not-matthias/.rustup/toolchains/stable-x86_64-unknown-linux-gnu/lib/rustlib/src/rust/library/core/src/fmt/mod.rs:2636 },
    DebugInfo { addr: dd570, size: 5d, name: _ZN44_$LT$$RF$T$u20$as$u20$core..fmt..Display$GT$3fmt17h5e3d690afa158d70E, location: /home/not-matthias/.rustup/toolchains/stable-x86_64-unknown-linux-gnu/lib/rustlib/src/rust/library/core/src/fmt/mod.rs:2636 },
    DebugInfo { addr: dd5d0, size: 10, name: _ZN4core3fmt5Write9write_fmt17h59b7b15462d87773E, location: /home/not-matthias/.rustup/toolchains/stable-x86_64-unknown-linux-gnu/lib/rustlib/src/rust/library/core/src/fmt/mod.rs:205 },
    DebugInfo { addr: dd5e0, size: 18, name: _ZN4core3ptr65drop_in_place$LT$clap_builder..builder..styled_str..StyledStr$GT$17hdf2180b6513b2eb7E.llvm.14536144630470599887, location: /home/not-matthias/.rustup/toolchains/stable-x86_64-unknown-linux-gnu/lib/rustlib/src/rust/library/alloc/src/raw_vec/mod.rs:406 },
    DebugInfo { addr: dd600, size: 288, name: _ZN4core3str21_$LT$impl$u20$str$GT$12trim_matches17h1c950d0dad5619a2E, location: /home/not-matthias/.rustup/toolchains/stable-x86_64-unknown-linux-gnu/lib/rustlib/src/rust/library/core/src/str/mod.rs:2310 },
    DebugInfo { addr: dd890, size: 130, name: _ZN4core3str21_$LT$impl$u20$str$GT$16trim_end_matches17h1489edc9a19ee570E.llvm.14536144630470599887, location: /home/not-matthias/.rustup/toolchains/stable-x86_64-unknown-linux-gnu/lib/rustlib/src/rust/library/core/src/str/mod.rs:2462 },
    DebugInfo { addr: dd9c0, size: 1d5, name: _ZN81_$LT$core..str..pattern..CharSearcher$u20$as$u20$core..str..pattern..Searcher$GT$10next_match17h06e5f2dd80a2a38eE, location: /home/not-matthias/.rustup/toolchains/stable-x86_64-unknown-linux-gnu/lib/rustlib/src/rust/library/core/src/str/pattern.rs:433 },
    DebugInfo { addr: ddba0, size: 65, name: _ZN12clap_builder7builder10styled_str9StyledStr8push_str17h249df173f0e24bb0E, location: /home/not-matthias/.cargo/registry/src/index.crates.io-1949cf8c6b5b557f/clap_builder-4.5.17/src/builder/styled_str.rs:44 },
    DebugInfo { addr: ddc10, size: 94a, name: _ZN12clap_builder7builder10styled_str9StyledStr19replace_newline_var17h159a80743e9988a0E, location: /home/not-matthias/.cargo/registry/src/index.crates.io-1949cf8c6b5b557f/clap_builder-4.5.17/src/builder/styled_str.rs:62 },
    DebugInfo { addr: de560, size: 69d, name: _ZN12clap_builder7builder10styled_str9StyledStr6indent17hc791be9b21536935E, location: /home/not-matthias/.cargo/registry/src/index.crates.io-1949cf8c6b5b557f/clap_builder-4.5.17/src/builder/styled_str.rs:67 },
    DebugInfo { addr: dec00, size: 677, name: _ZN12clap_builder7builder10styled_str9StyledStr4wrap17h207905e854bdeee8E, location: /home/not-matthias/.cargo/registry/src/index.crates.io-1949cf8c6b5b557f/clap_builder-4.5.17/src/builder/styled_str.rs:79 },
    DebugInfo { addr: df280, size: 10, name: _ZN12clap_builder7builder10styled_str9StyledStr13display_width17h17ade8b916e285f7E, location: /home/not-matthias/.rustup/toolchains/stable-x86_64-unknown-linux-gnu/lib/rustlib/src/rust/library/alloc/src/raw_vec/mod.rs:512 },
    DebugInfo { addr: df290, size: 6d, name: _ZN12clap_builder7builder10styled_str9StyledStr11push_styled17h7de19bb6b4c1e35bE, location: /home/not-matthias/.cargo/registry/src/index.crates.io-1949cf8c6b5b557f/clap_builder-4.5.17/src/builder/styled_str.rs:141 },
    DebugInfo { addr: df300, size: b4, name: _ZN99_$LT$clap_builder..builder..styled_str..StyledStr$u20$as$u20$core..convert..From$LT$$RF$str$GT$$GT$4from17h3540e23cb63b1339E, location: /home/not-matthias/.cargo/registry/src/index.crates.io-1949cf8c6b5b557f/clap_builder-4.5.17/src/builder/styled_str.rs:174 },
    DebugInfo { addr: df3c0, size: 67, name: _ZN81_$LT$clap_builder..builder..styled_str..StyledStr$u20$as$u20$core..fmt..Write$GT$9write_str17hecb1012c825ab9f7E, location: /home/not-matthias/.cargo/registry/src/index.crates.io-1949cf8c6b5b557f/clap_builder-4.5.17/src/builder/styled_str.rs:189 },
    DebugInfo { addr: df430, size: 123, name: _ZN81_$LT$clap_builder..builder..styled_str..StyledStr$u20$as$u20$core..fmt..Write$GT$10write_char17h494c4bae9d8b5efdE, location: /home/not-matthias/.cargo/registry/src/index.crates.io-1949cf8c6b5b557f/clap_builder-4.5.17/src/builder/styled_str.rs:195 },
    DebugInfo { addr: df560, size: 2f7, name: _ZN12clap_builder6output4help10write_help17h5ff51cf2ed9de68aE, location: /home/not-matthias/.cargo/registry/src/index.crates.io-1949cf8c6b5b557f/clap_builder-4.5.17/src/output/help.rs:9 },
    DebugInfo { addr: df860, size: 103, name: _ZN12clap_builder6output5usage5Usage3new17h67e3d84bd578b2aeE, location: /home/not-matthias/.cargo/registry/src/index.crates.io-1949cf8c6b5b557f/clap_builder-4.5.17/src/output/usage.rs:26 },
    DebugInfo { addr: df970, size: 2b1, name: _ZN12clap_builder6output5usage5Usage23create_usage_with_title17h7f175877b092aa68E, location: /home/not-matthias/.cargo/registry/src/index.crates.io-1949cf8c6b5b557f/clap_builder-4.5.17/src/output/usage.rs:41 },
    DebugInfo { addr: dfc30, size: 187, name: _ZN12clap_builder6output5usage5Usage21create_usage_no_title17h625ca6b05ccbe8c7E, location: /home/not-matthias/.cargo/registry/src/index.crates.io-1949cf8c6b5b557f/clap_builder-4.5.17/src/output/usage.rs:61 },
    DebugInfo { addr: dfdc0, size: 45c, name: _ZN12clap_builder6output8textwrap15wrap_algorithms11LineWrapper4wrap17h8b64500f3885b480E, location: /home/not-matthias/.cargo/registry/src/index.crates.io-1949cf8c6b5b557f/clap_builder-4.5.17/src/output/textwrap/wrap_algorithms.rs:24 },
    DebugInfo { addr: e0220, size: 2e2, name: _ZN12clap_builder6output8textwrap4wrap17h04b056b8dfc58a59E, location: /home/not-matthias/.cargo/registry/src/index.crates.io-1949cf8c6b5b557f/clap_builder-4.5.17/src/output/textwrap/mod.rs:14 },
    DebugInfo { addr: e0510, size: 15, name: _ZN36_$LT$T$u20$as$u20$core..any..Any$GT$7type_id17h0ad9f2b1fd835b1bE, location: /home/not-matthias/.rustup/toolchains/stable-x86_64-unknown-linux-gnu/lib/rustlib/src/rust/library/core/src/any.rs:139 },
    DebugInfo { addr: e0530, size: 15, name: _ZN36_$LT$T$u20$as$u20$core..any..Any$GT$7type_id17hdb231659df61b82cE, location: /home/not-matthias/.rustup/toolchains/stable-x86_64-unknown-linux-gnu/lib/rustlib/src/rust/library/core/src/any.rs:139 },
    DebugInfo { addr: e0550, size: 5f, name: _ZN4core3ptr100drop_in_place$LT$alloc..boxed..Box$LT$clap_builder..parser..matches..arg_matches..SubCommand$GT$$GT$17hb5564219b0f6b0b1E.llvm.13923871662077467809, location: /home/not-matthias/.rustup/toolchains/stable-x86_64-unknown-linux-gnu/lib/rustlib/src/rust/library/core/src/ptr/mod.rs:524 },
    DebugInfo { addr: e05b0, size: 1c0, name: _ZN4core3ptr103drop_in_place$LT$core..option..Option$LT$clap_builder..parser..matches..matched_arg..MatchedArg$GT$$GT$17h635664aa86876db0E.llvm.13923871662077467809, location: /home/not-matthias/.rustup/toolchains/stable-x86_64-unknown-linux-gnu/lib/rustlib/src/rust/library/core/src/ptr/mod.rs:524 },
    DebugInfo { addr: e0770, size: c3, name: _ZN4core3ptr106drop_in_place$LT$alloc..vec..Vec$LT$alloc..vec..Vec$LT$clap_builder..util..any_value..AnyValue$GT$$GT$$GT$17h3ed8dbed13fd4322E, location: /home/not-matthias/.rustup/toolchains/stable-x86_64-unknown-linux-gnu/lib/rustlib/src/rust/library/core/src/ptr/mod.rs:524 },
    DebugInfo { addr: e0840, size: 3b, name: _ZN4core3ptr141drop_in_place$LT$alloc..sync..Weak$LT$dyn$u20$core..any..Any$u2b$core..marker..Send$u2b$core..marker..Sync$C$$RF$alloc..alloc..Global$GT$$GT$17h4ba9194bc4e9fc48E, location: /home/not-matthias/.rustup/toolchains/stable-x86_64-unknown-linux-gnu/lib/rustlib/src/rust/library/alloc/src/rc.rs:3069 },
    DebugInfo { addr: e0880, size: e0, name: _ZN4core3ptr149drop_in_place$LT$clap_builder..util..flat_map..FlatMap$LT$clap_builder..util..id..Id$C$clap_builder..parser..matches..matched_arg..MatchedArg$GT$$GT$17h370b95324273c1f8E.llvm.13923871662077467809, location: /home/not-matthias/.rustup/toolchains/stable-x86_64-unknown-linux-gnu/lib/rustlib/src/rust/library/core/src/ptr/mod.rs:524 },
    DebugInfo { addr: e0960, size: a6, name: _ZN4core3ptr66drop_in_place$LT$clap_builder..parser..arg_matcher..ArgMatcher$GT$17h5f3f5a181657582cE, location: /home/not-matthias/.rustup/toolchains/stable-x86_64-unknown-linux-gnu/lib/rustlib/src/rust/library/core/src/ptr/mod.rs:524 },
    DebugInfo { addr: e0a10, size: 82, name: _ZN4core3ptr70drop_in_place$LT$alloc..vec..Vec$LT$std..ffi..os_str..OsString$GT$$GT$17h1d058bcecc253de2E.llvm.13923871662077467809, location: /home/not-matthias/.rustup/toolchains/stable-x86_64-unknown-linux-gnu/lib/rustlib/src/rust/library/core/src/ptr/mod.rs:524 },
    DebugInfo { addr: e0aa0, size: 99, name: _ZN4core3ptr75drop_in_place$LT$clap_builder..parser..matches..arg_matches..ArgMatches$GT$17h2c968ea20157ab57E.llvm.13923871662077467809, location: /home/not-matthias/.rustup/toolchains/stable-x86_64-unknown-linux-gnu/lib/rustlib/src/rust/library/core/src/ptr/mod.rs:524 },
    DebugInfo { addr: e0b40, size: 2b, name: _ZN4core3ptr75drop_in_place$LT$clap_builder..parser..matches..arg_matches..SubCommand$GT$17he114fe02efce8555E.llvm.13923871662077467809, location: /home/not-matthias/.rustup/toolchains/stable-x86_64-unknown-linux-gnu/lib/rustlib/src/rust/library/core/src/ptr/mod.rs:524 },
    DebugInfo { addr: e0b70, size: 100, name: _ZN4core3ptr83drop_in_place$LT$alloc..vec..Vec$LT$clap_builder..util..any_value..AnyValue$GT$$GT$17h15a57a300a5d8834E.llvm.13923871662077467809, location: /home/not-matthias/.rustup/toolchains/stable-x86_64-unknown-linux-gnu/lib/rustlib/src/rust/library/core/src/ptr/mod.rs:524 },
    DebugInfo { addr: e0c70, size: 83, name: _ZN4core3ptr89drop_in_place$LT$core..option..Option$LT$clap_builder..parser..parser..PendingArg$GT$$GT$17hcdb996485852528aE, location: /home/not-matthias/.rustup/toolchains/stable-x86_64-unknown-linux-gnu/lib/rustlib/src/rust/library/core/src/ptr/mod.rs:524 },
    DebugInfo { addr: e0d00, size: f2, name: _ZN4core3ptr93drop_in_place$LT$alloc..vec..Vec$LT$alloc..vec..Vec$LT$std..ffi..os_str..OsString$GT$$GT$$GT$17h84d91d98f61ee896E, location: /home/not-matthias/.rustup/toolchains/stable-x86_64-unknown-linux-gnu/lib/rustlib/src/rust/library/core/src/ptr/mod.rs:524 },
    DebugInfo { addr: e0e00, size: 84, name: _ZN5alloc4sync16Arc$LT$T$C$A$GT$9drop_slow17hef26df32993e2a10E, location: /home/not-matthias/.rustup/toolchains/stable-x86_64-unknown-linux-gnu/lib/rustlib/src/rust/library/alloc/src/sync.rs:1932 },
    DebugInfo { addr: e0e90, size: 6c, name: _ZN5alloc7raw_vec11finish_grow17h0ec8b2ba57b18c8dE.llvm.13923871662077467809, location: /home/not-matthias/.rustup/toolchains/stable-x86_64-unknown-linux-gnu/lib/rustlib/src/rust/library/alloc/src/raw_vec/mod.rs:766 },
    DebugInfo { addr: e0f00, size: b8, name: _ZN5alloc7raw_vec19RawVec$LT$T$C$A$GT$8grow_one17h006f4be951ff4e81E, location: /home/not-matthias/.rustup/toolchains/stable-x86_64-unknown-linux-gnu/lib/rustlib/src/rust/library/alloc/src/raw_vec/mod.rs:339 },
    DebugInfo { addr: e0f00, size: b8, name: _ZN5alloc7raw_vec19RawVec$LT$T$C$A$GT$8grow_one17h23eeda34266e7f6bE, location: /home/not-matthias/.rustup/toolchains/stable-x86_64-unknown-linux-gnu/lib/rustlib/src/rust/library/alloc/src/raw_vec/mod.rs:339 },
    DebugInfo { addr: e0f00, size: b8, name: _ZN5alloc7raw_vec19RawVec$LT$T$C$A$GT$8grow_one17h2ac0e454f0463eb1E, location: /home/not-matthias/.rustup/toolchains/stable-x86_64-unknown-linux-gnu/lib/rustlib/src/rust/library/alloc/src/raw_vec/mod.rs:339 },
    DebugInfo { addr: e0fc0, size: b7, name: _ZN5alloc7raw_vec19RawVec$LT$T$C$A$GT$8grow_one17h0e724f011dbc116aE, location: /home/not-matthias/.rustup/toolchains/stable-x86_64-unknown-linux-gnu/lib/rustlib/src/rust/library/alloc/src/raw_vec/mod.rs:339 },
    DebugInfo { addr: e1080, size: b5, name: _ZN5alloc7raw_vec19RawVec$LT$T$C$A$GT$8grow_one17h11f59b90d5f11076E, location: /home/not-matthias/.rustup/toolchains/stable-x86_64-unknown-linux-gnu/lib/rustlib/src/rust/library/alloc/src/raw_vec/mod.rs:339 },
    DebugInfo { addr: e1080, size: b5, name: _ZN5alloc7raw_vec19RawVec$LT$T$C$A$GT$8grow_one17h30d09012e1f1f09eE, location: /home/not-matthias/.rustup/toolchains/stable-x86_64-unknown-linux-gnu/lib/rustlib/src/rust/library/alloc/src/raw_vec/mod.rs:339 },
    DebugInfo { addr: e1080, size: b5, name: _ZN5alloc7raw_vec19RawVec$LT$T$C$A$GT$8grow_one17h798f64bf1ac0315fE, location: /home/not-matthias/.rustup/toolchains/stable-x86_64-unknown-linux-gnu/lib/rustlib/src/rust/library/alloc/src/raw_vec/mod.rs:339 },
    DebugInfo { addr: e1080, size: b5, name: _ZN5alloc7raw_vec19RawVec$LT$T$C$A$GT$8grow_one17hb124e4a2c149664cE, location: /home/not-matthias/.rustup/toolchains/stable-x86_64-unknown-linux-gnu/lib/rustlib/src/rust/library/alloc/src/raw_vec/mod.rs:339 },
    DebugInfo { addr: e1140, size: b4, name: _ZN5alloc7raw_vec19RawVec$LT$T$C$A$GT$8grow_one17h3a7797160d1e4dd1E, location: /home/not-matthias/.rustup/toolchains/stable-x86_64-unknown-linux-gnu/lib/rustlib/src/rust/library/alloc/src/raw_vec/mod.rs:339 },
    DebugInfo { addr: e1140, size: b4, name: _ZN5alloc7raw_vec19RawVec$LT$T$C$A$GT$8grow_one17h3e62ec268abd3665E, location: /home/not-matthias/.rustup/toolchains/stable-x86_64-unknown-linux-gnu/lib/rustlib/src/rust/library/alloc/src/raw_vec/mod.rs:339 },
    DebugInfo { addr: e1140, size: b4, name: _ZN5alloc7raw_vec19RawVec$LT$T$C$A$GT$8grow_one17hb74d943d87f62566E, location: /home/not-matthias/.rustup/toolchains/stable-x86_64-unknown-linux-gnu/lib/rustlib/src/rust/library/alloc/src/raw_vec/mod.rs:339 },
    DebugInfo { addr: e1200, size: b8, name: _ZN5alloc7raw_vec19RawVec$LT$T$C$A$GT$8grow_one17h5298867d8f484ccfE, location: /home/not-matthias/.rustup/toolchains/stable-x86_64-unknown-linux-gnu/lib/rustlib/src/rust/library/alloc/src/raw_vec/mod.rs:339 },
    DebugInfo { addr: e1200, size: b8, name: _ZN5alloc7raw_vec19RawVec$LT$T$C$A$GT$8grow_one17h93bfce41c6eadd3dE, location: /home/not-matthias/.rustup/toolchains/stable-x86_64-unknown-linux-gnu/lib/rustlib/src/rust/library/alloc/src/raw_vec/mod.rs:339 },
    DebugInfo { addr: e1200, size: b8, name: _ZN5alloc7raw_vec19RawVec$LT$T$C$A$GT$8grow_one17hcbf3d58eba724438E, location: /home/not-matthias/.rustup/toolchains/stable-x86_64-unknown-linux-gnu/lib/rustlib/src/rust/library/alloc/src/raw_vec/mod.rs:339 },
    DebugInfo { addr: e12c0, size: b8, name: _ZN5alloc7raw_vec19RawVec$LT$T$C$A$GT$8grow_one17h67d6431bbcadee90E, location: /home/not-matthias/.rustup/toolchains/stable-x86_64-unknown-linux-gnu/lib/rustlib/src/rust/library/alloc/src/raw_vec/mod.rs:339 },
    DebugInfo { addr: e1380, size: b8, name: _ZN5alloc7raw_vec19RawVec$LT$T$C$A$GT$8grow_one17h852f85785964a860E, location: /home/not-matthias/.rustup/toolchains/stable-x86_64-unknown-linux-gnu/lib/rustlib/src/rust/library/alloc/src/raw_vec/mod.rs:339 },
    DebugInfo { addr: e1440, size: b4, name: _ZN5alloc7raw_vec19RawVec$LT$T$C$A$GT$8grow_one17hb9f3296e6e6eaad6E, location: /home/not-matthias/.rustup/toolchains/stable-x86_64-unknown-linux-gnu/lib/rustlib/src/rust/library/alloc/src/raw_vec/mod.rs:339 },
    DebugInfo { addr: e1440, size: b4, name: _ZN5alloc7raw_vec19RawVec$LT$T$C$A$GT$8grow_one17hc32c81d933dfbc9eE, location: /home/not-matthias/.rustup/toolchains/stable-x86_64-unknown-linux-gnu/lib/rustlib/src/rust/library/alloc/src/raw_vec/mod.rs:339 },
    DebugInfo { addr: e1440, size: b4, name: _ZN5alloc7raw_vec19RawVec$LT$T$C$A$GT$8grow_one17hce5db77af5681c10E, location: /home/not-matthias/.rustup/toolchains/stable-x86_64-unknown-linux-gnu/lib/rustlib/src/rust/library/alloc/src/raw_vec/mod.rs:339 },
    DebugInfo { addr: e1500, size: b4, name: _ZN5alloc7raw_vec19RawVec$LT$T$C$A$GT$8grow_one17hd9f2f35030f2c573E, location: /home/not-matthias/.rustup/toolchains/stable-x86_64-unknown-linux-gnu/lib/rustlib/src/rust/library/alloc/src/raw_vec/mod.rs:339 },
    DebugInfo { addr: e15c0, size: f5, name: _ZN5alloc7raw_vec20RawVecInner$LT$A$GT$7reserve21do_reserve_and_handle17hc8aacb32b51e3070E, location: /home/not-matthias/.rustup/toolchains/stable-x86_64-unknown-linux-gnu/lib/rustlib/src/rust/library/alloc/src/raw_vec/mod.rs:551 },
    DebugInfo { addr: e16c0, size: 20, name: _ZN77_$LT$alloc..raw_vec..RawVec$LT$T$C$A$GT$$u20$as$u20$core..ops..drop..Drop$GT$4drop17hd8cb936b078f6a03E, location: /home/not-matthias/.rustup/toolchains/stable-x86_64-unknown-linux-gnu/lib/rustlib/src/rust/library/alloc/src/raw_vec/mod.rs:406 },
    DebugInfo { addr: e16e0, size: c0, name: _ZN12clap_builder7builder3ext10Extensions6update17ha1bbd7c01c10177aE, location: /home/not-matthias/.cargo/registry/src/index.crates.io-1949cf8c6b5b557f/clap_builder-4.5.17/src/builder/ext.rs:36 },
    DebugInfo { addr: e17a0, size: a0, name: _ZN12clap_builder6parser11arg_matcher10ArgMatcher10into_inner17h621e1a9950b7f1bfE, location: /home/not-matthias/.cargo/registry/src/index.crates.io-1949cf8c6b5b557f/clap_builder-4.5.17/src/parser/arg_matcher.rs:43 },
    DebugInfo { addr: e1840, size: 854, name: _ZN12clap_builder6parser11arg_matcher10ArgMatcher21fill_in_global_values17h8473a459d11c0dd0E.llvm.13923871662077467809, location: /home/not-matthias/.cargo/registry/src/index.crates.io-1949cf8c6b5b557f/clap_builder-4.5.17/src/parser/arg_matcher.rs:53 },
    DebugInfo { addr: e20a0, size: f4, name: _ZN12clap_builder6parser11arg_matcher10ArgMatcher10subcommand17hb98585d3d7a996b9E, location: /home/not-matthias/.cargo/registry/src/index.crates.io-1949cf8c6b5b557f/clap_builder-4.5.17/src/parser/arg_matcher.rs:121 },
    DebugInfo { addr: e21a0, size: 148, name: _ZN12clap_builder6parser11arg_matcher10ArgMatcher14check_explicit17h5001e8f4abf32875E, location: /home/not-matthias/.cargo/registry/src/index.crates.io-1949cf8c6b5b557f/clap_builder-4.5.17/src/parser/arg_matcher.rs:129 },
    DebugInfo { addr: e22f0, size: 1f5, name: _ZN12clap_builder6parser11arg_matcher10ArgMatcher16start_custom_arg17h084be6d67bde5aa5E, location: /home/not-matthias/.cargo/registry/src/index.crates.io-1949cf8c6b5b557f/clap_builder-4.5.17/src/parser/arg_matcher.rs:135 },
    DebugInfo { addr: e24f0, size: 131, name: _ZN12clap_builder6parser11arg_matcher10ArgMatcher18start_custom_group17h5cbadb602ecb894aE, location: /home/not-matthias/.cargo/registry/src/index.crates.io-1949cf8c6b5b557f/clap_builder-4.5.17/src/parser/arg_matcher.rs:144 },
    DebugInfo { addr: e2630, size: 181, name: _ZN12clap_builder6parser11arg_matcher10ArgMatcher28start_occurrence_of_external17h21badb414f5d8c5dE, location: /home/not-matthias/.cargo/registry/src/index.crates.io-1949cf8c6b5b557f/clap_builder-4.5.17/src/parser/arg_matcher.rs:152 },
    DebugInfo { addr: e27c0, size: 2c7, name: _ZN12clap_builder6parser11arg_matcher10ArgMatcher10add_val_to17h12f682fc3141ab20E, location: /home/not-matthias/.cargo/registry/src/index.crates.io-1949cf8c6b5b557f/clap_builder-4.5.17/src/parser/arg_matcher.rs:168 },
    DebugInfo { addr: e2a90, size: f8, name: _ZN12clap_builder6parser11arg_matcher10ArgMatcher12add_index_to17he5df39a9c048c65cE, location: /home/not-matthias/.cargo/registry/src/index.crates.io-1949cf8c6b5b557f/clap_builder-4.5.17/src/parser/arg_matcher.rs:173 },
    DebugInfo { addr: e2b90, size: 3a, name: _ZN12clap_builder6parser7matches11matched_arg10MatchedArg5first17h32aea7a0bc2fb1fcE, location: /home/not-matthias/.rustup/toolchains/stable-x86_64-unknown-linux-gnu/lib/rustlib/src/rust/library/alloc/src/raw_vec/mod.rs:512 },
    DebugInfo { addr: e2bd0, size: ea, name: _ZN12clap_builder6parser7matches11matched_arg10MatchedArg13new_val_group17h0a57291a160f9431E.llvm.13923871662077467809, location: /home/not-matthias/.cargo/registry/src/index.crates.io-1949cf8c6b5b557f/clap_builder-4.5.17/src/parser/matches/matched_arg.rs:111 },
    DebugInfo { addr: e2cc0, size: 7e, name: _ZN12clap_builder6parser7matches11matched_arg10MatchedArg8num_vals17h72b8efaec2be7590E, location: /home/not-matthias/.rustup/toolchains/stable-x86_64-unknown-linux-gnu/lib/rustlib/src/rust/library/alloc/src/vec/mod.rs:1600 },
    DebugInfo { addr: e2d40, size: 73, name: _ZN12clap_builder6parser7matches11matched_arg10MatchedArg13infer_type_id17hf60d8fa9a4606710E, location: /home/not-matthias/.rustup/toolchains/stable-x86_64-unknown-linux-gnu/lib/rustlib/src/rust/library/core/src/option.rs:1575 },
    DebugInfo { addr: e2dc0, size: 621, name: _ZN4core3ptr52drop_in_place$LT$clap_builder..builder..arg..Arg$GT$17he9c0a80b4a99c6b8E.llvm.15815658538356960411, location: /home/not-matthias/.rustup/toolchains/stable-x86_64-unknown-linux-gnu/lib/rustlib/src/rust/library/core/src/ptr/mod.rs:524 },
    DebugInfo { addr: e33f0, size: 120, name: _ZN4core3ptr59drop_in_place$LT$clap_builder..builder..ext..Extensions$GT$17h6250317f4a1980b8E, location: /home/not-matthias/.rustup/toolchains/stable-x86_64-unknown-linux-gnu/lib/rustlib/src/rust/library/core/src/ptr/mod.rs:524 },
    DebugInfo { addr: e3510, size: 82, name: _ZN4core3ptr65drop_in_place$LT$alloc..vec..Vec$LT$alloc..string..String$GT$$GT$17he3fc526f4bc110e4E.llvm.15815658538356960411, location: /home/not-matthias/.rustup/toolchains/stable-x86_64-unknown-linux-gnu/lib/rustlib/src/rust/library/core/src/ptr/mod.rs:524 },
    DebugInfo { addr: e35a0, size: 18, name: _ZN4core3ptr65drop_in_place$LT$clap_builder..builder..styled_str..StyledStr$GT$17hdf2180b6513b2eb7E.llvm.15815658538356960411, location: /home/not-matthias/.rustup/toolchains/stable-x86_64-unknown-linux-gnu/lib/rustlib/src/rust/library/alloc/src/raw_vec/mod.rs:406 },
    DebugInfo { addr: e35c0, size: 14, name: _ZN60_$LT$alloc..string..String$u20$as$u20$core..fmt..Display$GT$3fmt17h253a895d4ea9e2d1E, location: /home/not-matthias/.rustup/toolchains/stable-x86_64-unknown-linux-gnu/lib/rustlib/src/rust/library/alloc/src/string.rs:2595 },
    DebugInfo { addr: e35e0, size: ce, name: _ZN12clap_builder7builder3arg3Arg11value_names17hb3e12819e47202efE, location: /home/not-matthias/.cargo/registry/src/index.crates.io-1949cf8c6b5b557f/clap_builder-4.5.17/src/builder/arg.rs:1267 },
    DebugInfo { addr: e36b0, size: 319, name: _ZN12clap_builder7builder3arg3Arg6_build17h1611ba96fbfa81c8E, location: /home/not-matthias/.cargo/registry/src/index.crates.io-1949cf8c6b5b557f/clap_builder-4.5.17/src/builder/arg.rs:4246 },
    DebugInfo { addr: e39d0, size: 18a, name: _ZN12clap_builder7builder3arg3Arg16name_no_brackets17h520d6c3994cd050bE, location: /home/not-matthias/.cargo/registry/src/index.crates.io-1949cf8c6b5b557f/clap_builder-4.5.17/src/builder/arg.rs:4300 },
    DebugInfo { addr: e3b60, size: cbc, name: _ZN12clap_builder7builder3arg3Arg18stylize_arg_suffix17hf8bede15fc20da05E, location: /home/not-matthias/.cargo/registry/src/index.crates.io-1949cf8c6b5b557f/clap_builder-4.5.17/src/builder/arg.rs:4340 },
    DebugInfo { addr: e4820, size: 389, name: _ZN70_$LT$clap_builder..builder..arg..Arg$u20$as$u20$core..fmt..Display$GT$3fmt17h043130e39dc9ebd6E, location: /home/not-matthias/.cargo/registry/src/index.crates.io-1949cf8c6b5b557f/clap_builder-4.5.17/src/builder/arg.rs:4459 },
    DebugInfo { addr: e4bb0, size: 67, name: _ZN81_$LT$clap_builder..builder..styled_str..StyledStr$u20$as$u20$core..fmt..Write$GT$9write_str17hecb1012c825ab9f7E.llvm.15815658538356960411, location: /home/not-matthias/.cargo/registry/src/index.crates.io-1949cf8c6b5b557f/clap_builder-4.5.17/src/builder/styled_str.rs:189 },
    DebugInfo { addr: e4c20, size: 123, name: _ZN81_$LT$clap_builder..builder..styled_str..StyledStr$u20$as$u20$core..fmt..Write$GT$10write_char17h494c4bae9d8b5efdE.llvm.15815658538356960411, location: /home/not-matthias/.cargo/registry/src/index.crates.io-1949cf8c6b5b557f/clap_builder-4.5.17/src/builder/styled_str.rs:195 },
    DebugInfo { addr: e4d50, size: 2bf, name: _ZN106_$LT$clap_builder..error..format..KindFormatter$u20$as$u20$clap_builder..error..format..ErrorFormatter$GT$12format_error17h5a967b57dad41d2eE, location: /home/not-matthias/.cargo/registry/src/index.crates.io-1949cf8c6b5b557f/clap_builder-4.5.17/src/error/format.rs:35 },
    DebugInfo { addr: e5010, size: 37a, name: _ZN12clap_builder5error6format20format_error_message17hcbc654d447b610e9E, location: /home/not-matthias/.cargo/registry/src/index.crates.io-1949cf8c6b5b557f/clap_builder-4.5.17/src/error/format.rs:392 },
    DebugInfo { addr: e5390, size: 216, name: _ZN12clap_builder5error6format13get_help_flag17hdaae58c3121b1ebcE, location: /home/not-matthias/.cargo/registry/src/index.crates.io-1949cf8c6b5b557f/clap_builder-4.5.17/src/error/format.rs:424 },
    DebugInfo { addr: e55b0, size: 1a0, name: _ZN12clap_builder6output8textwrap4core13display_width17h5ab9e98f65afea58E, location: /home/not-matthias/.rustup/toolchains/stable-x86_64-unknown-linux-gnu/lib/rustlib/src/rust/library/core/src/ptr/non_null.rs:1620 },
    DebugInfo { addr: e5750, size: 9, name: _ZN42_$LT$$RF$T$u20$as$u20$core..fmt..Debug$GT$3fmt17h06c4c1e054e0b1d1E, location: /home/not-matthias/.rustup/toolchains/stable-x86_64-unknown-linux-gnu/lib/rustlib/src/rust/library/core/src/fmt/mod.rs:2636 },
    DebugInfo { addr: e5760, size: 5a, name: _ZN4core3ptr118drop_in_place$LT$alloc..boxed..Box$LT$dyn$u20$core..error..Error$u2b$core..marker..Send$u2b$core..marker..Sync$GT$$GT$17habf0768de7ad6f93E, location: /home/not-matthias/.rustup/toolchains/stable-x86_64-unknown-linux-gnu/lib/rustlib/src/rust/library/core/src/ptr/mod.rs:524 },
    DebugInfo { addr: e57c0, size: 5f, name: _ZN4core3ptr130drop_in_place$LT$core..option..Option$LT$$LP$alloc..string..String$C$core..option..Option$LT$alloc..string..String$GT$$RP$$GT$$GT$17h34adca02ae595b5aE, location: /home/not-matthias/.rustup/toolchains/stable-x86_64-unknown-linux-gnu/lib/rustlib/src/rust/library/core/src/ptr/mod.rs:524 },
    DebugInfo { addr: e5820, size: 18, name: _ZN4core3ptr39drop_in_place$LT$std..path..PathBuf$GT$17hd796bbdc25981935E.llvm.14773156567859404580, location: /home/not-matthias/.rustup/toolchains/stable-x86_64-unknown-linux-gnu/lib/rustlib/src/rust/library/alloc/src/raw_vec/mod.rs:406 },
    DebugInfo { addr: e5820, size: 18, name: _ZN4core3ptr42drop_in_place$LT$alloc..string..String$GT$17hd6d205257de6c30dE.llvm.14773156567859404580, location: /home/not-matthias/.rustup/toolchains/stable-x86_64-unknown-linux-gnu/lib/rustlib/src/rust/library/alloc/src/raw_vec/mod.rs:406 },
    DebugInfo { addr: e5820, size: 18, name: _ZN4core3ptr47drop_in_place$LT$std..ffi..os_str..OsString$GT$17h062ef9cf74b44880E.llvm.14773156567859404580, location: /home/not-matthias/.rustup/toolchains/stable-x86_64-unknown-linux-gnu/lib/rustlib/src/rust/library/alloc/src/raw_vec/mod.rs:406 },
    DebugInfo { addr: e5840, size: 44, name: _ZN4core3ptr47drop_in_place$LT$clap_builder..error..Error$GT$17h446c1ada455939ceE.llvm.14773156567859404580, location: /home/not-matthias/.rustup/toolchains/stable-x86_64-unknown-linux-gnu/lib/rustlib/src/rust/library/core/src/ptr/mod.rs:524 },
    DebugInfo { addr: e5890, size: e3, name: _ZN4core3ptr52drop_in_place$LT$clap_builder..error..ErrorInner$GT$17ha219cb1d9f9f58dfE.llvm.14773156567859404580, location: /home/not-matthias/.rustup/toolchains/stable-x86_64-unknown-linux-gnu/lib/rustlib/src/rust/library/core/src/ptr/mod.rs:524 },
    DebugInfo { addr: e5980, size: 82, name: _ZN4core3ptr65drop_in_place$LT$alloc..vec..Vec$LT$alloc..string..String$GT$$GT$17he3fc526f4bc110e4E, location: /home/not-matthias/.rustup/toolchains/stable-x86_64-unknown-linux-gnu/lib/rustlib/src/rust/library/core/src/ptr/mod.rs:524 },
    DebugInfo { addr: e5a10, size: 1b0, name: _ZN4core3ptr75drop_in_place$LT$clap_builder..parser..matches..matched_arg..MatchedArg$GT$17h446a62dc874f2d0cE.llvm.14773156567859404580, location: /home/not-matthias/.rustup/toolchains/stable-x86_64-unknown-linux-gnu/lib/rustlib/src/rust/library/core/src/ptr/mod.rs:524 },
    DebugInfo { addr: e5bc0, size: a4, name: _ZN4core3ptr81drop_in_place$LT$core..result..Result$LT$$LP$$RP$$C$std..io..error..Error$GT$$GT$17h2ab4ac2e58e0643dE.llvm.14773156567859404580, location: /home/not-matthias/.rustup/toolchains/stable-x86_64-unknown-linux-gnu/lib/rustlib/src/rust/library/core/src/ptr/mod.rs:524 },
    DebugInfo { addr: e5c70, size: f2, name: _ZN4core3ptr93drop_in_place$LT$alloc..vec..Vec$LT$alloc..vec..Vec$LT$std..ffi..os_str..OsString$GT$$GT$$GT$17h84d91d98f61ee896E.llvm.14773156567859404580, location: /home/not-matthias/.rustup/toolchains/stable-x86_64-unknown-linux-gnu/lib/rustlib/src/rust/library/core/src/ptr/mod.rs:524 },
    DebugInfo { addr: e5d70, size: 3, name: _ZN4core5error5Error5cause17h8dc0f368d02cab6dE, location: /home/not-matthias/.rustup/toolchains/stable-x86_64-unknown-linux-gnu/lib/rustlib/src/rust/library/core/src/error.rs:143 },
    DebugInfo { addr: e5d80, size: 15, name: _ZN4core5error5Error7type_id17h3f94a10eab273b74E, location: /home/not-matthias/.rustup/toolchains/stable-x86_64-unknown-linux-gnu/lib/rustlib/src/rust/library/core/src/error.rs:116 },
    DebugInfo { addr: e5da0, size: 1cc, name: _ZN12clap_builder5error14Error$LT$F$GT$8with_cmd17h817ee4a5f34257e3E, location: /home/not-matthias/.cargo/registry/src/index.crates.io-1949cf8c6b5b557f/clap_builder-4.5.17/src/error/mod.rs:149 },
    DebugInfo { addr: e5f70, size: 2d, name: _ZN12clap_builder5error14Error$LT$F$GT$4exit17hea6a8ce5a7658e2dE, location: /home/not-matthias/.cargo/registry/src/index.crates.io-1949cf8c6b5b557f/clap_builder-4.5.17/src/error/mod.rs:233 },
    DebugInfo { addr: e5fa0, size: 127, name: _ZN12clap_builder5error14Error$LT$F$GT$5print17hf2ddf501b22e6e28E.llvm.14773156567859404580, location: /home/not-matthias/.cargo/registry/src/index.crates.io-1949cf8c6b5b557f/clap_builder-4.5.17/src/error/mod.rs:256 },
    DebugInfo { addr: e60d0, size: 1cb, name: _ZN12clap_builder5error14Error$LT$F$GT$7for_app17h1bc08cc01aa14322E, location: /home/not-matthias/.cargo/registry/src/index.crates.io-1949cf8c6b5b557f/clap_builder-4.5.17/src/error/mod.rs:293 },
    DebugInfo { addr: e62a0, size: 26d, name: _ZN12clap_builder5error14Error$LT$F$GT$17argument_conflict17h8c936cf28dffdf35E, location: /home/not-matthias/.cargo/registry/src/index.crates.io-1949cf8c6b5b557f/clap_builder-4.5.17/src/error/mod.rs:366 },
    DebugInfo { addr: e62a0, size: 26d, name: _ZN12clap_builder5error14Error$LT$F$GT$19subcommand_conflict17h88246c2fdc74623dE, location: /home/not-matthias/.cargo/registry/src/index.crates.io-1949cf8c6b5b557f/clap_builder-4.5.17/src/error/mod.rs:366 },
    DebugInfo { addr: e6510, size: 201, name: _ZN12clap_builder5error14Error$LT$F$GT$9no_equals17h86d3c2d3c66a21d8E, location: /home/not-matthias/.cargo/registry/src/index.crates.io-1949cf8c6b5b557f/clap_builder-4.5.17/src/error/mod.rs:426 },
    DebugInfo { addr: e6720, size: 1f7, name: _ZN12clap_builder5error14Error$LT$F$GT$13invalid_value17hc2911b66491f598aE, location: /home/not-matthias/.cargo/registry/src/index.crates.io-1949cf8c6b5b557f/clap_builder-4.5.17/src/error/mod.rs:442 },
    DebugInfo { addr: e6920, size: 201, name: _ZN12clap_builder5error14Error$LT$F$GT$23unrecognized_subcommand17hd58bddcbf363a92fE, location: /home/not-matthias/.cargo/registry/src/index.crates.io-1949cf8c6b5b557f/clap_builder-4.5.17/src/error/mod.rs:518 },
    DebugInfo { addr: e6b30, size: 23b, name: _ZN12clap_builder5error14Error$LT$F$GT$25missing_required_argument17hadb00f88cd9155aeE, location: /home/not-matthias/.cargo/registry/src/index.crates.io-1949cf8c6b5b557f/clap_builder-4.5.17/src/error/mod.rs:540 },
    DebugInfo { addr: e6d70, size: 26d, name: _ZN12clap_builder5error14Error$LT$F$GT$18missing_subcommand17hadea0bc168c42aeaE, location: /home/not-matthias/.cargo/registry/src/index.crates.io-1949cf8c6b5b557f/clap_builder-4.5.17/src/error/mod.rs:562 },
    DebugInfo { addr: e6fe0, size: 1c8, name: _ZN12clap_builder5error14Error$LT$F$GT$12invalid_utf817hc84b772abd111ba4E, location: /home/not-matthias/.cargo/registry/src/index.crates.io-1949cf8c6b5b557f/clap_builder-4.5.17/src/error/mod.rs:588 },
    DebugInfo { addr: e71b0, size: 24b, name: _ZN12clap_builder5error14Error$LT$F$GT$15too_many_values17hb3037e11daaffc18E, location: /home/not-matthias/.cargo/registry/src/index.crates.io-1949cf8c6b5b557f/clap_builder-4.5.17/src/error/mod.rs:602 },
    DebugInfo { addr: e7400, size: 201, name: _ZN12clap_builder5error14Error$LT$F$GT$14too_few_values17hda5e9973a9bce452E, location: /home/not-matthias/.cargo/registry/src/index.crates.io-1949cf8c6b5b557f/clap_builder-4.5.17/src/error/mod.rs:625 },
    DebugInfo { addr: e7610, size: 293, name: _ZN12clap_builder5error14Error$LT$F$GT$16value_validation17h5ec696c7151d4974E, location: /home/not-matthias/.cargo/registry/src/index.crates.io-1949cf8c6b5b557f/clap_builder-4.5.17/src/error/mod.rs:656 },
    DebugInfo { addr: e78b0, size: 201, name: _ZN12clap_builder5error14Error$LT$F$GT$22wrong_number_of_values17hc14172f2101b72caE, location: /home/not-matthias/.cargo/registry/src/index.crates.io-1949cf8c6b5b557f/clap_builder-4.5.17/src/error/mod.rs:674 },
    DebugInfo { addr: e7ac0, size: 320, name: _ZN12clap_builder5error14Error$LT$F$GT$16unknown_argument17h497380033002356eE, location: /home/not-matthias/.cargo/registry/src/index.crates.io-1949cf8c6b5b557f/clap_builder-4.5.17/src/error/mod.rs:705 },
    DebugInfo { addr: e7de0, size: 2e1, name: _ZN12clap_builder5error14Error$LT$F$GT$23unnecessary_double_dash17he675381e470aca27E, location: /home/not-matthias/.cargo/registry/src/index.crates.io-1949cf8c6b5b557f/clap_builder-4.5.17/src/error/mod.rs:761 },
    DebugInfo { addr: e80d0, size: 252, name: _ZN12clap_builder5error7Message6format17h525f6fedd896036cE, location: /home/not-matthias/.cargo/registry/src/index.crates.io-1949cf8c6b5b557f/clap_builder-4.5.17/src/error/mod.rs:851 },
    DebugInfo { addr: e8330, size: 40, name: _ZN12clap_builder5error7Message9formatted17h5c6cd9233da1b8acE, location: /home/not-matthias/.cargo/registry/src/index.crates.io-1949cf8c6b5b557f/clap_builder-4.5.17/src/error/mod.rs:871 },
    DebugInfo { addr: e8370, size: 1f8, name: _ZN12clap_builder4util8flat_map20FlatMap$LT$K$C$V$GT$6insert17h7d7574f3fbc480faE, location: /home/not-matthias/.cargo/registry/src/index.crates.io-1949cf8c6b5b557f/clap_builder-4.5.17/src/util/flat_map.rs:19 },
    DebugInfo { addr: e8570, size: 26a, name: _ZN12clap_builder4util8flat_map20FlatMap$LT$K$C$V$GT$6insert17hbdcf293e35d65a4fE, location: /home/not-matthias/.cargo/registry/src/index.crates.io-1949cf8c6b5b557f/clap_builder-4.5.17/src/util/flat_map.rs:19 },
    DebugInfo { addr: e87e0, size: 177, name: _ZN12clap_builder4util8flat_map20FlatMap$LT$K$C$V$GT$16extend_unchecked17h8a05ba5cd91d89acE, location: /home/not-matthias/.cargo/registry/src/index.crates.io-1949cf8c6b5b557f/clap_builder-4.5.17/src/util/flat_map.rs:36 },
    DebugInfo { addr: e8960, size: 1dd, name: _ZN12clap_builder4util8flat_map20FlatMap$LT$K$C$V$GT$6remove17h4d100b887889c8c6E, location: /home/not-matthias/.cargo/registry/src/index.crates.io-1949cf8c6b5b557f/clap_builder-4.5.17/src/util/flat_map.rs:55 },
    DebugInfo { addr: e8b40, size: 142, name: _ZN12clap_builder4util8flat_map18Entry$LT$K$C$V$GT$9or_insert17h296c702cf5bd55adE, location: /home/not-matthias/.cargo/registry/src/index.crates.io-1949cf8c6b5b557f/clap_builder-4.5.17/src/util/flat_map.rs:151 },
    DebugInfo { addr: e8c90, size: 181, name: _ZN104_$LT$core..iter..adapters..cloned..Cloned$LT$I$GT$$u20$as$u20$core..iter..traits..iterator..Iterator$GT$4next17h461f7db9bff1b079E, location: /home/not-matthias/.rustup/toolchains/stable-x86_64-unknown-linux-gnu/lib/rustlib/src/rust/library/core/src/iter/adapters/cloned.rs:40 },
    DebugInfo { addr: e8e20, size: a9, name: _ZN104_$LT$core..iter..adapters..cloned..Cloned$LT$I$GT$$u20$as$u20$core..iter..traits..iterator..Iterator$GT$4next17ha8b643243e286916E, location: /home/not-matthias/.rustup/toolchains/stable-x86_64-unknown-linux-gnu/lib/rustlib/src/rust/library/core/src/iter/adapters/cloned.rs:40 },
    DebugInfo { addr: e8ed0, size: 82, name: _ZN4core3ptr127drop_in_place$LT$alloc..vec..Vec$LT$$LP$$LP$usize$C$alloc..string..String$RP$$C$$RF$clap_builder..builder..arg..Arg$RP$$GT$$GT$17hc7535cddb307d0cbE, location: /home/not-matthias/.rustup/toolchains/stable-x86_64-unknown-linux-gnu/lib/rustlib/src/rust/library/core/src/ptr/mod.rs:524 },
    DebugInfo { addr: e8f60, size: 82, name: _ZN4core3ptr150drop_in_place$LT$alloc..vec..Vec$LT$$LP$usize$C$clap_builder..builder..styled_str..StyledStr$C$$RF$clap_builder..builder..command..Command$RP$$GT$$GT$17h38509fed98cbb4fcE, location: /home/not-matthias/.rustup/toolchains/stable-x86_64-unknown-linux-gnu/lib/rustlib/src/rust/library/core/src/ptr/mod.rs:524 },
    DebugInfo { addr: e8ff0, size: 15c, name: _ZN4core5slice4sort6shared5pivot11median3_rec17h9af05b954df0e606E, location: /home/not-matthias/.rustup/toolchains/stable-x86_64-unknown-linux-gnu/lib/rustlib/src/rust/library/core/src/slice/sort/shared/pivot.rs:49 },
    DebugInfo { addr: e9150, size: 155, name: _ZN4core5slice4sort6shared5pivot11median3_rec17he84b7e86039ff455E, location: /home/not-matthias/.rustup/toolchains/stable-x86_64-unknown-linux-gnu/lib/rustlib/src/rust/library/core/src/slice/sort/shared/pivot.rs:49 },
    DebugInfo { addr: e92b0, size: 14f, name: _ZN4core5slice4sort6shared5pivot11median3_rec17hfe12899b3c9e6358E.llvm.6144304332173156340, location: /home/not-matthias/.rustup/toolchains/stable-x86_64-unknown-linux-gnu/lib/rustlib/src/rust/library/core/src/slice/sort/shared/pivot.rs:49 },
    DebugInfo { addr: e9400, size: 135, name: _ZN4core5slice4sort6shared5pivot12choose_pivot17h1b6d27d4be656eaeE, location: /home/not-matthias/.rustup/toolchains/stable-x86_64-unknown-linux-gnu/lib/rustlib/src/rust/library/core/src/slice/sort/shared/pivot.rs:18 },
    DebugInfo { addr: e9540, size: 14c, name: _ZN4core5slice4sort6shared5pivot12choose_pivot17h9be96d1088376cb0E, location: /home/not-matthias/.rustup/toolchains/stable-x86_64-unknown-linux-gnu/lib/rustlib/src/rust/library/core/src/slice/sort/shared/pivot.rs:18 },
    DebugInfo { addr: e9690, size: 150, name: _ZN4core5slice4sort6shared5pivot12choose_pivot17hdf2940fe74221f6fE, location: /home/not-matthias/.rustup/toolchains/stable-x86_64-unknown-linux-gnu/lib/rustlib/src/rust/library/core/src/slice/sort/shared/pivot.rs:18 },
    DebugInfo { addr: e97e0, size: 134, name: _ZN4core5slice4sort6stable14driftsort_main17h2cb4205551e6a6daE, location: /home/not-matthias/.rustup/toolchains/stable-x86_64-unknown-linux-gnu/lib/rustlib/src/rust/library/core/src/slice/sort/stable/mod.rs:94 },
    DebugInfo { addr: e9920, size: 15d, name: _ZN4core5slice4sort6stable14driftsort_main17h59885575a40cb549E, location: /home/not-matthias/.rustup/toolchains/stable-x86_64-unknown-linux-gnu/lib/rustlib/src/rust/library/core/src/slice/sort/stable/mod.rs:94 },
    DebugInfo { addr: e9a80, size: 15d, name: _ZN4core5slice4sort6stable14driftsort_main17hcb37a476531ba0f9E, location: /home/not-matthias/.rustup/toolchains/stable-x86_64-unknown-linux-gnu/lib/rustlib/src/rust/library/core/src/slice/sort/stable/mod.rs:94 },
    DebugInfo { addr: e9be0, size: 5d4, name: _ZN4core5slice4sort6stable5drift4sort17h0c2aa8502d7c87a4E, location: /home/not-matthias/.rustup/toolchains/stable-x86_64-unknown-linux-gnu/lib/rustlib/src/rust/library/core/src/slice/sort/stable/drift.rs:20 },
    DebugInfo { addr: ea1c0, size: 62f, name: _ZN4core5slice4sort6stable5drift4sort17h2022f7fdb0782f62E, location: /home/not-matthias/.rustup/toolchains/stable-x86_64-unknown-linux-gnu/lib/rustlib/src/rust/library/core/src/slice/sort/stable/drift.rs:20 },
    DebugInfo { addr: ea7f0, size: 62f, name: _ZN4core5slice4sort6stable5drift4sort17h9b67578c984192b0E, location: /home/not-matthias/.rustup/toolchains/stable-x86_64-unknown-linux-gnu/lib/rustlib/src/rust/library/core/src/slice/sort/stable/drift.rs:20 },
    DebugInfo { addr: eae20, size: 1a8, name: _ZN104_$LT$core..iter..adapters..copied..Copied$LT$I$GT$$u20$as$u20$core..iter..traits..iterator..Iterator$GT$4fold17h26ae25833f59d420E, location: /home/not-matthias/.rustup/toolchains/stable-x86_64-unknown-linux-gnu/lib/rustlib/src/rust/library/core/src/iter/adapters/copied.rs:71 },
    DebugInfo { addr: eafd0, size: 15, name: _ZN36_$LT$T$u20$as$u20$core..any..Any$GT$7type_id17h6a62834b70985760E, location: /home/not-matthias/.rustup/toolchains/stable-x86_64-unknown-linux-gnu/lib/rustlib/src/rust/library/core/src/any.rs:139 },
    DebugInfo { addr: eaff0, size: 15, name: _ZN42_$LT$$RF$T$u20$as$u20$core..fmt..Debug$GT$3fmt17h577f262c959504bcE, location: /home/not-matthias/.rustup/toolchains/stable-x86_64-unknown-linux-gnu/lib/rustlib/src/rust/library/core/src/fmt/mod.rs:2636 },
    DebugInfo { addr: eb010, size: 2b, name: _ZN42_$LT$$RF$T$u20$as$u20$core..fmt..Debug$GT$3fmt17h8ef65b358ff814e0E, location: /home/not-matthias/.rustup/toolchains/stable-x86_64-unknown-linux-gnu/lib/rustlib/src/rust/library/core/src/fmt/mod.rs:2636 },
    DebugInfo { addr: eb040, size: 13, name: _ZN44_$LT$$RF$T$u20$as$u20$core..fmt..Display$GT$3fmt17h682c7ad3debb5c04E, location: /home/not-matthias/.rustup/toolchains/stable-x86_64-unknown-linux-gnu/lib/rustlib/src/rust/library/core/src/fmt/mod.rs:2636 },
    DebugInfo { addr: eb060, size: 13, name: _ZN44_$LT$$RF$T$u20$as$u20$core..fmt..Display$GT$3fmt17hccc9e7ef1c1b44dfE, location: /home/not-matthias/.rustup/toolchains/stable-x86_64-unknown-linux-gnu/lib/rustlib/src/rust/library/core/src/fmt/mod.rs:2636 },
    DebugInfo { addr: eb080, size: 1e7, name: _ZN4core3ops8function5impls79_$LT$impl$u20$core..ops..function..FnMut$LT$A$GT$$u20$for$u20$$RF$mut$u20$F$GT$8call_mut17h17a70a35ec54e73bE, location: /home/not-matthias/.rustup/toolchains/stable-x86_64-unknown-linux-gnu/lib/rustlib/src/rust/library/core/src/ops/function.rs:293 },
    DebugInfo { addr: eb270, size: 45, name: _ZN4core3ptr73drop_in_place$LT$clap_builder..builder..possible_value..PossibleValue$GT$17hf849e3b8c7416193E.llvm.13795077942256327412, location: /home/not-matthias/.rustup/toolchains/stable-x86_64-unknown-linux-gnu/lib/rustlib/src/rust/library/core/src/ptr/mod.rs:524 },
    DebugInfo { addr: eb2c0, size: 3, name: _ZN4core5error5Error5cause17h145d68f9e5181f32E, location: /home/not-matthias/.rustup/toolchains/stable-x86_64-unknown-linux-gnu/lib/rustlib/src/rust/library/core/src/error.rs:143 },
    DebugInfo { addr: eb2d0, size: 3, name: _ZN4core5error5Error5cause17hce2e871c4c4ae541E, location: /home/not-matthias/.rustup/toolchains/stable-x86_64-unknown-linux-gnu/lib/rustlib/src/rust/library/core/src/error.rs:143 },
    DebugInfo { addr: eb2e0, size: 15, name: _ZN4core5error5Error7type_id17h3b7cf1e559b90979E, location: /home/not-matthias/.rustup/toolchains/stable-x86_64-unknown-linux-gnu/lib/rustlib/src/rust/library/core/src/error.rs:116 },
    DebugInfo { addr: eb300, size: 15, name: _ZN4core5error5Error7type_id17hd38e27edce578886E, location: /home/not-matthias/.rustup/toolchains/stable-x86_64-unknown-linux-gnu/lib/rustlib/src/rust/library/core/src/error.rs:116 },
    DebugInfo { addr: eb320, size: 487, name: _ZN5alloc3str17join_generic_copy17h4e90c8a71bc2e695E, location: /home/not-matthias/.rustup/toolchains/stable-x86_64-unknown-linux-gnu/lib/rustlib/src/rust/library/alloc/src/str.rs:130 },
    DebugInfo { addr: eb7b0, size: 49b, name: _ZN5alloc3str17join_generic_copy17h752f3d5915571b1cE, location: /home/not-matthias/.rustup/toolchains/stable-x86_64-unknown-linux-gnu/lib/rustlib/src/rust/library/alloc/src/str.rs:130 },
    DebugInfo { addr: ebc50, size: 49b, name: _ZN5alloc3str17join_generic_copy17hf715b25a963db2edE, location: /home/not-matthias/.rustup/toolchains/stable-x86_64-unknown-linux-gnu/lib/rustlib/src/rust/library/alloc/src/str.rs:130 },
    DebugInfo { addr: ec0f0, size: 14, name: _ZN64_$LT$alloc..borrow..Cow$LT$B$GT$$u20$as$u20$core..fmt..Debug$GT$3fmt17h020726222e2543d6E, location: /home/not-matthias/.rustup/toolchains/stable-x86_64-unknown-linux-gnu/lib/rustlib/src/rust/library/alloc/src/borrow.rs:398 },
    DebugInfo { addr: ec110, size: 14, name: _ZN66_$LT$alloc..borrow..Cow$LT$B$GT$$u20$as$u20$core..fmt..Display$GT$3fmt17h772c4fdbd900d26cE, location: /home/not-matthias/.rustup/toolchains/stable-x86_64-unknown-linux-gnu/lib/rustlib/src/rust/library/alloc/src/borrow.rs:411 },
    DebugInfo { addr: ec130, size: 86, name: _ZN79_$LT$std..ffi..os_str..OsString$u20$as$u20$core..convert..From$LT$$RF$T$GT$$GT$4from17h54bd3a97e196e50dE, location: /home/not-matthias/.rustup/toolchains/stable-x86_64-unknown-linux-gnu/lib/rustlib/src/rust/library/std/src/ffi/os_str.rs:622 },
    DebugInfo { addr: ec1c0, size: 165, name: _ZN12clap_builder7builder14possible_value13PossibleValue7matches17h4281ed9ddd46c608E, location: /home/not-matthias/.cargo/registry/src/index.crates.io-1949cf8c6b5b557f/clap_builder-4.5.17/src/builder/possible_value.rs:215 },
    DebugInfo { addr: ec330, size: b4, name: _ZN123_$LT$I$u20$as$u20$clap_builder..builder..resettable..IntoResettable$LT$clap_builder..builder..styled_str..StyledStr$GT$$GT$15into_resettable17he4f73fea6eebe357E, location: /home/not-matthias/.cargo/registry/src/index.crates.io-1949cf8c6b5b557f/clap_builder-4.5.17/src/builder/resettable.rs:191 },
    DebugInfo { addr: ec3f0, size: 13, name: _ZN68_$LT$clap_builder..builder..str..Str$u20$as$u20$core..fmt..Debug$GT$3fmt17h5b9c7f1a3fa84a8fE, location: /home/not-matthias/.cargo/registry/src/index.crates.io-1949cf8c6b5b557f/clap_builder-4.5.17/src/builder/str.rs:106 },
    DebugInfo { addr: ec410, size: 15, name: _ZN36_$LT$T$u20$as$u20$core..any..Any$GT$7type_id17h1a2663d71528bd2fE, location: /home/not-matthias/.rustup/toolchains/stable-x86_64-unknown-linux-gnu/lib/rustlib/src/rust/library/core/src/any.rs:139 },
    DebugInfo { addr: ec430, size: 15, name: _ZN36_$LT$T$u20$as$u20$core..any..Any$GT$7type_id17h1f48e145faee9855E, location: /home/not-matthias/.rustup/toolchains/stable-x86_64-unknown-linux-gnu/lib/rustlib/src/rust/library/core/src/any.rs:139 },
    DebugInfo { addr: ec450, size: 14, name: _ZN44_$LT$$RF$T$u20$as$u20$core..fmt..Display$GT$3fmt17h3c8954201c04ab38E, location: /home/not-matthias/.rustup/toolchains/stable-x86_64-unknown-linux-gnu/lib/rustlib/src/rust/library/core/src/fmt/mod.rs:2636 },
    DebugInfo { addr: ec470, size: 10, name: _ZN44_$LT$$RF$T$u20$as$u20$core..fmt..Display$GT$3fmt17h86c7bc535b10f5f7E, location: /home/not-matthias/.rustup/toolchains/stable-x86_64-unknown-linux-gnu/lib/rustlib/src/rust/library/core/src/fmt/mod.rs:2636 },
    DebugInfo { addr: ec480, size: 10, name: _ZN4core3fmt5Write9write_fmt17hb2b38185aa8333c7E, location: /home/not-matthias/.rustup/toolchains/stable-x86_64-unknown-linux-gnu/lib/rustlib/src/rust/library/core/src/fmt/mod.rs:205 },
    DebugInfo { addr: ec490, size: 166, name: _ZN4core3ops8function5impls79_$LT$impl$u20$core..ops..function..FnMut$LT$A$GT$$u20$for$u20$$RF$mut$u20$F$GT$8call_mut17h0e6b1436d36b86deE, location: /home/not-matthias/.rustup/toolchains/stable-x86_64-unknown-linux-gnu/lib/rustlib/src/rust/library/core/src/ops/function.rs:293 },
    DebugInfo { addr: ec600, size: 18, name: _ZN4core3ptr42drop_in_place$LT$alloc..string..String$GT$17hd6d205257de6c30dE, location: /home/not-matthias/.rustup/toolchains/stable-x86_64-unknown-linux-gnu/lib/rustlib/src/rust/library/alloc/src/raw_vec/mod.rs:406 },
    DebugInfo { addr: ec620, size: 82, name: _ZN4core3ptr87drop_in_place$LT$clap_builder..util..flat_set..FlatSet$LT$alloc..string..String$GT$$GT$17h3c077fcd7010b02cE, location: /home/not-matthias/.rustup/toolchains/stable-x86_64-unknown-linux-gnu/lib/rustlib/src/rust/library/core/src/ptr/mod.rs:524 },
    DebugInfo { addr: ec6b0, size: 134, name: _ZN4core5slice4sort6shared9smallsort11insert_tail17h232870a8454eb6bdE.llvm.18272423429892007616, location: /home/not-matthias/.rustup/toolchains/stable-x86_64-unknown-linux-gnu/lib/rustlib/src/rust/library/core/src/slice/sort/shared/smallsort.rs:542 },
    DebugInfo { addr: ec7f0, size: 134, name: _ZN4core5slice4sort6shared9smallsort11insert_tail17h830da913366e1c8fE.llvm.18272423429892007616, location: /home/not-matthias/.rustup/toolchains/stable-x86_64-unknown-linux-gnu/lib/rustlib/src/rust/library/core/src/slice/sort/shared/smallsort.rs:542 },
    DebugInfo { addr: ec930, size: 115, name: _ZN4core5slice4sort6shared9smallsort11insert_tail17hdfe1702727ee0808E.llvm.18272423429892007616, location: /home/not-matthias/.rustup/toolchains/stable-x86_64-unknown-linux-gnu/lib/rustlib/src/rust/library/core/src/slice/sort/shared/smallsort.rs:542 },
    DebugInfo { addr: eca50, size: 26e, name: _ZN4core5slice4sort6shared9smallsort12sort4_stable17h6c518f477132835fE, location: /home/not-matthias/.rustup/toolchains/stable-x86_64-unknown-linux-gnu/lib/rustlib/src/rust/library/core/src/slice/sort/shared/smallsort.rs:612 },
    DebugInfo { addr: eccc0, size: 233, name: _ZN4core5slice4sort6shared9smallsort12sort4_stable17had030f69bcb926a6E, location: /home/not-matthias/.rustup/toolchains/stable-x86_64-unknown-linux-gnu/lib/rustlib/src/rust/library/core/src/slice/sort/shared/smallsort.rs:612 },
    DebugInfo { addr: ecf00, size: 260, name: _ZN4core5slice4sort6shared9smallsort12sort4_stable17hb160ec5c9362166dE, location: /home/not-matthias/.rustup/toolchains/stable-x86_64-unknown-linux-gnu/lib/rustlib/src/rust/library/core/src/slice/sort/shared/smallsort.rs:612 },
    DebugInfo { addr: ed160, size: 54e, name: _ZN4core5slice4sort6shared9smallsort31small_sort_general_with_scratch17hc26216f77deb780fE, location: /home/not-matthias/.rustup/toolchains/stable-x86_64-unknown-linux-gnu/lib/rustlib/src/rust/library/core/src/slice/sort/shared/smallsort.rs:220 },
    DebugInfo { addr: ed6b0, size: 4e4, name: _ZN4core5slice4sort6shared9smallsort31small_sort_general_with_scratch17hdb0a96d8e0c1b9b5E, location: /home/not-matthias/.rustup/toolchains/stable-x86_64-unknown-linux-gnu/lib/rustlib/src/rust/library/core/src/slice/sort/shared/smallsort.rs:220 },
    DebugInfo { addr: edba0, size: 54c, name: _ZN4core5slice4sort6shared9smallsort31small_sort_general_with_scratch17hdd686036f159fb3aE, location: /home/not-matthias/.rustup/toolchains/stable-x86_64-unknown-linux-gnu/lib/rustlib/src/rust/library/core/src/slice/sort/shared/smallsort.rs:220 },
    DebugInfo { addr: ee0f0, size: 68, name: _ZN53_$LT$T$u20$as$u20$core..slice..cmp..SliceContains$GT$14slice_contains17h39d91e7e1d339850E, location: /home/not-matthias/.rustup/toolchains/stable-x86_64-unknown-linux-gnu/lib/rustlib/src/rust/library/core/src/ptr/non_null.rs:1620 },
    DebugInfo { addr: ee160, size: 15, name: _ZN53_$LT$core..fmt..Error$u20$as$u20$core..fmt..Debug$GT$3fmt17h6736176c8e29474eE, location: /home/not-matthias/.rustup/toolchains/stable-x86_64-unknown-linux-gnu/lib/rustlib/src/rust/library/core/src/fmt/mod.rs:102 },
    DebugInfo { addr: ee180, size: 123, name: _ZN58_$LT$alloc..string..String$u20$as$u20$core..fmt..Write$GT$10write_char17h13db4e3872bba170E, location: /home/not-matthias/.rustup/toolchains/stable-x86_64-unknown-linux-gnu/lib/rustlib/src/rust/library/alloc/src/string.rs:3202 },
    DebugInfo { addr: ee2b0, size: 67, name: _ZN58_$LT$alloc..string..String$u20$as$u20$core..fmt..Write$GT$9write_str17h3471f8bf4fd2c6acE, location: /home/not-matthias/.rustup/toolchains/stable-x86_64-unknown-linux-gnu/lib/rustlib/src/rust/library/alloc/src/string.rs:3196 },
    DebugInfo { addr: ee320, size: 152, name: _ZN117_$LT$clap_builder..util..flat_set..FlatSet$LT$T$GT$$u20$as$u20$core..iter..traits..collect..FromIterator$LT$T$GT$$GT$9from_iter17hc5db23900abe964fE, location: /home/not-matthias/.cargo/registry/src/index.crates.io-1949cf8c6b5b557f/clap_builder-4.5.17/src/util/flat_set.rs:100 },
    DebugInfo { addr: ee480, size: 451, name: _ZN117_$LT$clap_builder..util..flat_set..FlatSet$LT$T$GT$$u20$as$u20$core..iter..traits..collect..FromIterator$LT$T$GT$$GT$9from_iter17he5acac3ca469eee5E, location: /home/not-matthias/.cargo/registry/src/index.crates.io-1949cf8c6b5b557f/clap_builder-4.5.17/src/util/flat_set.rs:100 },
    DebugInfo { addr: ee8e0, size: 103, name: _ZN13terminal_size4unix13terminal_size17h36cfae79f4ed6234E, location: /home/not-matthias/.cargo/registry/src/index.crates.io-1949cf8c6b5b557f/terminal_size-0.3.0/src/unix.rs:10 },
    DebugInfo { addr: ee9f0, size: 13, name: _ZN42_$LT$$RF$T$u20$as$u20$core..fmt..Debug$GT$3fmt17h0c241a3946be0dc1E, location: /home/not-matthias/.rustup/toolchains/stable-x86_64-unknown-linux-gnu/lib/rustlib/src/rust/library/core/src/fmt/mod.rs:2636 },
    DebugInfo { addr: eea10, size: 49, name: _ZN42_$LT$$RF$T$u20$as$u20$core..fmt..Debug$GT$3fmt17hd99df2538ec85c6bE, location: /home/not-matthias/.rustup/toolchains/stable-x86_64-unknown-linux-gnu/lib/rustlib/src/rust/library/core/src/fmt/mod.rs:2636 },
    DebugInfo { addr: eea60, size: 26, name: _ZN42_$LT$$RF$T$u20$as$u20$core..fmt..Debug$GT$3fmt17he1e46241c218cc8aE, location: /home/not-matthias/.rustup/toolchains/stable-x86_64-unknown-linux-gnu/lib/rustlib/src/rust/library/core/src/fmt/mod.rs:2636 },
    DebugInfo { addr: eea86, size: 2e, name: _ZN4core9panicking13assert_failed17h001e00ff54159f04E, location: /home/not-matthias/.rustup/toolchains/stable-x86_64-unknown-linux-gnu/lib/rustlib/src/rust/library/core/src/panicking.rs:378 },
    DebugInfo { addr: eeac0, size: 91, name: _ZN67_$LT$std..ffi..os_str..OsStr$u20$as$u20$clap_lex..ext..OsStrExt$GT$8contains17h5e099995b9e3c087E, location: /home/not-matthias/.cargo/registry/src/index.crates.io-1949cf8c6b5b557f/clap_lex-0.7.2/src/ext.rs:191 },
    DebugInfo { addr: eeb60, size: 35, name: _ZN67_$LT$std..ffi..os_str..OsStr$u20$as$u20$clap_lex..ext..OsStrExt$GT$12strip_prefix17h5062f3365c8f85c4E, location: /home/not-matthias/.cargo/registry/src/index.crates.io-1949cf8c6b5b557f/clap_lex-0.7.2/src/ext.rs:201 },
    DebugInfo { addr: eeba0, size: 56, name: _ZN67_$LT$std..ffi..os_str..OsStr$u20$as$u20$clap_lex..ext..OsStrExt$GT$5split17h1ba6205864a1557cE, location: /home/not-matthias/.cargo/registry/src/index.crates.io-1949cf8c6b5b557f/clap_lex-0.7.2/src/ext.rs:215 },
    DebugInfo { addr: eec00, size: f1, name: _ZN67_$LT$std..ffi..os_str..OsStr$u20$as$u20$clap_lex..ext..OsStrExt$GT$10split_once17h734f1b0b5bd2b395E, location: /home/not-matthias/.cargo/registry/src/index.crates.io-1949cf8c6b5b557f/clap_lex-0.7.2/src/ext.rs:223 },
    DebugInfo { addr: eed00, size: 6b, name: _ZN79_$LT$clap_lex..ext..Split$u20$as$u20$core..iter..traits..iterator..Iterator$GT$4next17h82854dbda7afebcdE, location: /home/not-matthias/.cargo/registry/src/index.crates.io-1949cf8c6b5b557f/clap_lex-0.7.2/src/ext.rs:255 },
    DebugInfo { addr: eed70, size: 23, name: _ZN4core3fmt3num52_$LT$impl$u20$core..fmt..Debug$u20$for$u20$usize$GT$3fmt17h7abaade222174992E, location: /home/not-matthias/.rustup/toolchains/stable-x86_64-unknown-linux-gnu/lib/rustlib/src/rust/library/core/src/fmt/mod.rs:2169 },
    DebugInfo { addr: eeda0, size: 63, name: _ZN64_$LT$core..str..error..Utf8Error$u20$as$u20$core..fmt..Debug$GT$3fmt17hc3bfda3fc8f6bdd8E, location: /home/not-matthias/.rustup/toolchains/stable-x86_64-unknown-linux-gnu/lib/rustlib/src/rust/library/core/src/str/error.rs:45 },
    DebugInfo { addr: eee10, size: 31, name: _ZN8clap_lex7RawArgs4next17h468946739d6b2e20E, location: /home/not-matthias/.cargo/registry/src/index.crates.io-1949cf8c6b5b557f/clap_lex-0.7.2/src/lib.rs:195 },
    DebugInfo { addr: eee50, size: 31, name: _ZN8clap_lex7RawArgs7next_os17h01038520781505c6E, location: /home/not-matthias/.cargo/registry/src/index.crates.io-1949cf8c6b5b557f/clap_lex-0.7.2/src/lib.rs:195 },
    DebugInfo { addr: eee90, size: 1f, name: _ZN8clap_lex7RawArgs4peek17h9a74bb841d208386E, location: /home/not-matthias/.cargo/registry/src/index.crates.io-1949cf8c6b5b557f/clap_lex-0.7.2/src/lib.rs:202 },
    DebugInfo { addr: eeeb0, size: 38, name: _ZN8clap_lex7RawArgs9remaining17h0941ce365614fa08E, location: /home/not-matthias/.cargo/registry/src/index.crates.io-1949cf8c6b5b557f/clap_lex-0.7.2/src/lib.rs:223 },
    DebugInfo { addr: eeef0, size: 48, name: _ZN8clap_lex7RawArgs4seek17h6e21b31b998eb80aE, location: /home/not-matthias/.cargo/registry/src/index.crates.io-1949cf8c6b5b557f/clap_lex-0.7.2/src/lib.rs:231 },
    DebugInfo { addr: eef40, size: 16, name: _ZN8clap_lex9ParsedArg9is_escape17h2d1d680866edfc8bE, location: /home/not-matthias/.rustup/toolchains/stable-x86_64-unknown-linux-gnu/lib/rustlib/src/rust/library/core/src/slice/cmp.rs:136 },
    DebugInfo { addr: eef60, size: e1, name: _ZN8clap_lex9ParsedArg18is_negative_number17h304e7d672209a122E, location: /home/not-matthias/.cargo/registry/src/index.crates.io-1949cf8c6b5b557f/clap_lex-0.7.2/src/lib.rs:312 },
    DebugInfo { addr: ef050, size: c0, name: _ZN8clap_lex9ParsedArg7to_long17ha93e947e20681e42E, location: /home/not-matthias/.cargo/registry/src/index.crates.io-1949cf8c6b5b557f/clap_lex-0.7.2/src/lib.rs:320 },
    DebugInfo { addr: ef110, size: 28, name: _ZN8clap_lex9ParsedArg7is_long17hcc7d8671c91ac292E, location: /home/not-matthias/.cargo/registry/src/index.crates.io-1949cf8c6b5b557f/clap_lex-0.7.2/src/lib.rs:339 },
    DebugInfo { addr: ef140, size: 13d, name: _ZN8clap_lex9ParsedArg8to_short17hbe7161940fe29689E, location: /home/not-matthias/.cargo/registry/src/index.crates.io-1949cf8c6b5b557f/clap_lex-0.7.2/src/lib.rs:343 },
    DebugInfo { addr: ef280, size: 2a, name: _ZN8clap_lex9ParsedArg8is_short17hdce223ce1f1c76c1E, location: /home/not-matthias/.cargo/registry/src/index.crates.io-1949cf8c6b5b557f/clap_lex-0.7.2/src/lib.rs:360 },
    DebugInfo { addr: ef2b0, size: 50, name: _ZN8clap_lex9ParsedArg8to_value17h785032c27b695c61E, location: /home/not-matthias/.cargo/registry/src/index.crates.io-1949cf8c6b5b557f/clap_lex-0.7.2/src/lib.rs:373 },
    DebugInfo { addr: ef300, size: 19, name: _ZN8clap_lex9ParsedArg7display17h092fbe9659b226ceE, location: /home/not-matthias/.cargo/registry/src/index.crates.io-1949cf8c6b5b557f/clap_lex-0.7.2/src/lib.rs:380 },
    DebugInfo { addr: ef320, size: 8f, name: _ZN8clap_lex10ShortFlags10advance_by17hca84aa098d4b4b02E, location: /home/not-matthias/.rustup/toolchains/stable-x86_64-unknown-linux-gnu/lib/rustlib/src/rust/library/core/src/cmp.rs:1849 },
    DebugInfo { addr: ef3b0, size: 10, name: _ZN8clap_lex10ShortFlags8is_empty17h40227e62359a61e6E, location: /home/not-matthias/.cargo/registry/src/index.crates.io-1949cf8c6b5b557f/clap_lex-0.7.2/src/lib.rs:414 },
    DebugInfo { addr: ef3c0, size: ae, name: _ZN8clap_lex10ShortFlags18is_negative_number17h9adbbada3ec5a77eE, location: /home/not-matthias/.rustup/toolchains/stable-x86_64-unknown-linux-gnu/lib/rustlib/src/rust/library/core/src/option.rs:625 },
    DebugInfo { addr: ef470, size: dd, name: _ZN8clap_lex10ShortFlags9next_flag17h0f6c6cee53d89911E, location: /home/not-matthias/.cargo/registry/src/index.crates.io-1949cf8c6b5b557f/clap_lex-0.7.2/src/lib.rs:427 },
    DebugInfo { addr: ef550, size: 8d, name: _ZN8clap_lex10ShortFlags13next_value_os17he765375b42b3ffc1E, location: /home/not-matthias/.rustup/toolchains/stable-x86_64-unknown-linux-gnu/lib/rustlib/src/rust/library/core/src/slice/iter/macros.rs:57 },
    DebugInfo { addr: ef5e0, size: dd, name: _ZN79_$LT$clap_lex..ShortFlags$u20$as$u20$core..iter..traits..iterator..Iterator$GT$4next17hf557056be6264258E, location: /home/not-matthias/.cargo/registry/src/index.crates.io-1949cf8c6b5b557f/clap_lex-0.7.2/src/lib.rs:462 },
    DebugInfo { addr: ef6c0, size: 13, name: _ZN44_$LT$$RF$T$u20$as$u20$core..fmt..Display$GT$3fmt17hb4bcc36f06b363d4E, location: /home/not-matthias/.rustup/toolchains/stable-x86_64-unknown-linux-gnu/lib/rustlib/src/rust/library/core/src/fmt/mod.rs:2636 },
    DebugInfo { addr: ef6e0, size: d0, name: _ZN7anstyle5color13DisplayBuffer9write_str17hba7d41187e848301E, location: /home/not-matthias/.cargo/registry/src/index.crates.io-1949cf8c6b5b557f/anstyle-1.0.8/src/color.rs:579 },
    DebugInfo { addr: ef7b0, size: e2, name: _ZN7anstyle5color13DisplayBuffer10write_code17h45dab08f0fd0f8e3E, location: /home/not-matthias/.cargo/registry/src/index.crates.io-1949cf8c6b5b557f/anstyle-1.0.8/src/color.rs:589 },
    DebugInfo { addr: ef8a0, size: 631, name: _ZN7anstyle5style5Style6fmt_to17hf86c366c6f74e01aE, location: /home/not-matthias/.cargo/registry/src/index.crates.io-1949cf8c6b5b557f/anstyle-1.0.8/src/style.rs:108 },
    DebugInfo { addr: efee0, size: 6, name: _ZN67_$LT$anstyle..style..StyleDisplay$u20$as$u20$core..fmt..Display$GT$3fmt17h91da961ceb392ee9E, location: /home/not-matthias/.cargo/registry/src/index.crates.io-1949cf8c6b5b557f/anstyle-1.0.8/src/style.rs:427 },
    DebugInfo { addr: efef0, size: 1a, name: _ZN36_$LT$T$u20$as$u20$core..any..Any$GT$7type_id17h15a99ad6fa19ea84E, location: /rustc/6b00bc3880198600130e1cf62b8f8a93494488cc/library/core/src/any.rs:139 },
    DebugInfo { addr: eff10, size: 1a, name: _ZN36_$LT$T$u20$as$u20$core..any..Any$GT$7type_id17ha7d93e114b1d1dacE, location: /rustc/6b00bc3880198600130e1cf62b8f8a93494488cc/library/core/src/any.rs:139 },
    DebugInfo { addr: eff30, size: 15, name: _ZN42_$LT$$RF$T$u20$as$u20$core..fmt..Debug$GT$3fmt17h33588e308e4e0824E, location: /rustc/6b00bc3880198600130e1cf62b8f8a93494488cc/library/core/src/fmt/mod.rs:2636 },
    DebugInfo { addr: eff50, size: 2d, name: _ZN42_$LT$$RF$T$u20$as$u20$core..fmt..Debug$GT$3fmt17h4d64995e45ae3235E, location: /rustc/6b00bc3880198600130e1cf62b8f8a93494488cc/library/core/src/fmt/mod.rs:2636 },
    DebugInfo { addr: eff80, size: 2d, name: _ZN42_$LT$$RF$T$u20$as$u20$core..fmt..Debug$GT$3fmt17h6ee17d06866f47f8E, location: /rustc/6b00bc3880198600130e1cf62b8f8a93494488cc/library/core/src/fmt/mod.rs:2636 },
    DebugInfo { addr: effb0, size: 74, name: _ZN42_$LT$$RF$T$u20$as$u20$core..fmt..Debug$GT$3fmt17hba6f6560d5921ca2E, location: /rustc/6b00bc3880198600130e1cf62b8f8a93494488cc/library/core/src/fmt/mod.rs:2636 },
    DebugInfo { addr: f0030, size: 1a, name: _ZN42_$LT$$RF$T$u20$as$u20$core..fmt..Debug$GT$3fmt17hc092e40a8d735e6fE, location: /rustc/6b00bc3880198600130e1cf62b8f8a93494488cc/library/core/src/fmt/mod.rs:2636 },
    DebugInfo { addr: f0050, size: 2d, name: _ZN42_$LT$$RF$T$u20$as$u20$core..fmt..Debug$GT$3fmt17hd7bfd816cbb7ea89E, location: /rustc/6b00bc3880198600130e1cf62b8f8a93494488cc/library/core/src/fmt/mod.rs:2636 },
    DebugInfo { addr: f0080, size: 18, name: _ZN42_$LT$$RF$T$u20$as$u20$core..fmt..Debug$GT$3fmt17he9206c47331b624cE, location: /rustc/6b00bc3880198600130e1cf62b8f8a93494488cc/library/core/src/fmt/mod.rs:2636 },
    DebugInfo { addr: f00a0, size: 7b, name: _ZN44_$LT$$RF$T$u20$as$u20$core..fmt..Display$GT$3fmt17h1529f64c0f9b353fE, location: /rustc/6b00bc3880198600130e1cf62b8f8a93494488cc/library/core/src/fmt/mod.rs:2636 },
    DebugInfo { addr: f0120, size: 18, name: _ZN44_$LT$$RF$T$u20$as$u20$core..fmt..Display$GT$3fmt17he7a76e7114bf10d3E, location: /rustc/6b00bc3880198600130e1cf62b8f8a93494488cc/library/core/src/fmt/mod.rs:2636 },
    DebugInfo { addr: f0140, size: 2a, name: _ZN4core3fmt3num50_$LT$impl$u20$core..fmt..Debug$u20$for$u20$i32$GT$3fmt17h4e402c08dfbc55c7E, location: /rustc/6b00bc3880198600130e1cf62b8f8a93494488cc/library/core/src/fmt/num.rs:180 },
    DebugInfo { addr: f0170, size: 2a, name: _ZN4core3fmt3num52_$LT$impl$u20$core..fmt..Debug$u20$for$u20$usize$GT$3fmt17h7abaade222174992E, location: /rustc/6b00bc3880198600130e1cf62b8f8a93494488cc/library/core/src/fmt/num.rs:180 },
    DebugInfo { addr: f01a0, size: f6, name: _ZN4core3fmt5Write10write_char17h19b07edce3a70564E, location: /rustc/6b00bc3880198600130e1cf62b8f8a93494488cc/library/core/src/fmt/mod.rs:176 },
    DebugInfo { addr: f02a0, size: 192, name: _ZN4core3fmt5Write10write_char17h2b17f3c14b06bf1aE, location: /rustc/6b00bc3880198600130e1cf62b8f8a93494488cc/library/core/src/fmt/mod.rs:176 },
    DebugInfo { addr: f0440, size: f6, name: _ZN4core3fmt5Write10write_char17h4a482e3b0d0152bdE, location: /rustc/6b00bc3880198600130e1cf62b8f8a93494488cc/library/core/src/fmt/mod.rs:176 },
    DebugInfo { addr: f0540, size: 142, name: _ZN4core3fmt5Write10write_char17h606739a9ff32e7b7E, location: /rustc/6b00bc3880198600130e1cf62b8f8a93494488cc/library/core/src/fmt/mod.rs:176 },
    DebugInfo { addr: f0690, size: 105, name: _ZN4core3fmt5Write10write_char17h9bdf2b9906fedae4E, location: /rustc/6b00bc3880198600130e1cf62b8f8a93494488cc/library/core/src/fmt/mod.rs:176 },
    DebugInfo { addr: f07a0, size: 15, name: _ZN4core3fmt5Write9write_fmt17h043340bf94e6921aE, location: /rustc/6b00bc3880198600130e1cf62b8f8a93494488cc/library/core/src/fmt/mod.rs:205 },
    DebugInfo { addr: f07c0, size: 15, name: _ZN4core3fmt5Write9write_fmt17h205b03c948deeea3E, location: /rustc/6b00bc3880198600130e1cf62b8f8a93494488cc/library/core/src/fmt/mod.rs:205 },
    DebugInfo { addr: f07e0, size: 15, name: _ZN4core3fmt5Write9write_fmt17h4f6d78fd0ee2779cE, location: /rustc/6b00bc3880198600130e1cf62b8f8a93494488cc/library/core/src/fmt/mod.rs:205 },
    DebugInfo { addr: f0800, size: 15, name: _ZN4core3fmt5Write9write_fmt17hd22c06cbf5bd9365E, location: /rustc/6b00bc3880198600130e1cf62b8f8a93494488cc/library/core/src/fmt/mod.rs:205 },
    DebugInfo { addr: f0820, size: 15, name: _ZN4core3fmt5Write9write_fmt17hf0d9e068c70895c6E, location: /rustc/6b00bc3880198600130e1cf62b8f8a93494488cc/library/core/src/fmt/mod.rs:205 },
    DebugInfo { addr: f0840, size: 15, name: _ZN4core3fmt5Write9write_fmt17hfcdf34c3bdca6217E, location: /rustc/6b00bc3880198600130e1cf62b8f8a93494488cc/library/core/src/fmt/mod.rs:205 },
    DebugInfo { addr: f0860, size: 109, name: _ZN4core3num21_$LT$impl$u20$u64$GT$16from_ascii_radix17h3267784428f24dd8E, location: /rustc/6b00bc3880198600130e1cf62b8f8a93494488cc/library/core/src/num/mod.rs:1520 },
    DebugInfo { addr: f0970, size: 174, name: _ZN4core3num23_$LT$impl$u20$usize$GT$16from_ascii_radix17h975fd71a36bab2e3E, location: /rustc/6b00bc3880198600130e1cf62b8f8a93494488cc/library/core/src/num/mod.rs:1520 },
    DebugInfo { addr: f0af0, size: 1b, name: _ZN4core3ops8function2Fn4call17h68b7e05501b05d6eE, location: /rustc/6b00bc3880198600130e1cf62b8f8a93494488cc/library/core/src/ops/function.rs:79 },
    DebugInfo { addr: f0b10, size: d8, name: _ZN4core3ops8function2Fn4call17hef9e0cb4ab4204abE, location: /rustc/6b00bc3880198600130e1cf62b8f8a93494488cc/library/core/src/ops/function.rs:79 },
    DebugInfo { addr: f0bf0, size: a, name: _ZN4core3ops8function6FnOnce40call_once$u7b$$u7b$vtable.shim$u7d$$u7d$17h070d8cfa6f3af5e9E, location: /rustc/6b00bc3880198600130e1cf62b8f8a93494488cc/library/core/src/ops/function.rs:250 },
    DebugInfo { addr: f0c00, size: 99, name: _ZN4core3ops8function6FnOnce40call_once$u7b$$u7b$vtable.shim$u7d$$u7d$17h3b1836714060e601E, location: /rustc/6b00bc3880198600130e1cf62b8f8a93494488cc/library/core/src/ops/function.rs:250 },
    DebugInfo { addr: f0ca0, size: 87, name: _ZN4core3ops8function6FnOnce40call_once$u7b$$u7b$vtable.shim$u7d$$u7d$17h3d85acfa00f4a637E, location: /rustc/6b00bc3880198600130e1cf62b8f8a93494488cc/library/core/src/ops/function.rs:250 },
    DebugInfo { addr: f0d30, size: 11, name: _ZN4core3ops8function6FnOnce40call_once$u7b$$u7b$vtable.shim$u7d$$u7d$17h4cfdcc9aadb0a73cE, location: /rustc/6b00bc3880198600130e1cf62b8f8a93494488cc/library/core/src/ops/function.rs:250 },
    DebugInfo { addr: f0d50, size: 1e, name: _ZN4core3ops8function6FnOnce40call_once$u7b$$u7b$vtable.shim$u7d$$u7d$17h5beb73cf84614bb5E, location: /rustc/6b00bc3880198600130e1cf62b8f8a93494488cc/library/core/src/ops/function.rs:250 },
    DebugInfo { addr: f0d70, size: 1e, name: _ZN4core3ops8function6FnOnce40call_once$u7b$$u7b$vtable.shim$u7d$$u7d$17h62d94533df7f21aaE, location: /rustc/6b00bc3880198600130e1cf62b8f8a93494488cc/library/core/src/ops/function.rs:250 },
    DebugInfo { addr: f0d90, size: 1e, name: _ZN4core3ops8function6FnOnce40call_once$u7b$$u7b$vtable.shim$u7d$$u7d$17h6bd6d586792b9fbaE, location: /rustc/6b00bc3880198600130e1cf62b8f8a93494488cc/library/core/src/ops/function.rs:250 },
    DebugInfo { addr: f0db0, size: 82, name: _ZN4core3ops8function6FnOnce40call_once$u7b$$u7b$vtable.shim$u7d$$u7d$17h8b38724a51f93b8fE, location: /rustc/6b00bc3880198600130e1cf62b8f8a93494488cc/library/core/src/ops/function.rs:250 },
    DebugInfo { addr: f0e40, size: 88, name: _ZN4core3ops8function6FnOnce40call_once$u7b$$u7b$vtable.shim$u7d$$u7d$17ha4f9de4c30777a9fE, location: /rustc/6b00bc3880198600130e1cf62b8f8a93494488cc/library/core/src/ops/function.rs:250 },
    DebugInfo { addr: f0ed0, size: d, name: _ZN4core3ops8function6FnOnce40call_once$u7b$$u7b$vtable.shim$u7d$$u7d$17ha658793c13c94eb5E, location: /rustc/6b00bc3880198600130e1cf62b8f8a93494488cc/library/core/src/ops/function.rs:250 },
    DebugInfo { addr: f0ee0, size: 11, name: _ZN4core3ops8function6FnOnce40call_once$u7b$$u7b$vtable.shim$u7d$$u7d$17hda18066a3eaa7f4fE, location: /rustc/6b00bc3880198600130e1cf62b8f8a93494488cc/library/core/src/ops/function.rs:250 },
    DebugInfo { addr: f0f00, size: a, name: _ZN4core3ops8function6FnOnce40call_once$u7b$$u7b$vtable.shim$u7d$$u7d$17hdd452b4828c9b19cE, location: /rustc/6b00bc3880198600130e1cf62b8f8a93494488cc/library/core/src/ops/function.rs:250 },
    DebugInfo { addr: f0f10, size: 49, name: _ZN4core3ops8function6FnOnce40call_once$u7b$$u7b$vtable.shim$u7d$$u7d$17hed2b2b7439ce0869E, location: /rustc/6b00bc3880198600130e1cf62b8f8a93494488cc/library/core/src/ops/function.rs:250 },
    DebugInfo { addr: f0f60, size: ab, name: _ZN4core3ops8function6FnOnce40call_once$u7b$$u7b$vtable.shim$u7d$$u7d$17hf8e862da970a516cE, location: /rustc/6b00bc3880198600130e1cf62b8f8a93494488cc/library/core/src/ops/function.rs:250 },
    DebugInfo { addr: f1010, size: 31, name: _ZN4core3ops8function6FnOnce9call_once17h4277bc41dcad3080E, location: /rustc/6b00bc3880198600130e1cf62b8f8a93494488cc/library/core/src/ops/function.rs:250 },
    DebugInfo { addr: f1050, size: 31, name: _ZN4core3ops8function6FnOnce9call_once17hbba1cfca2ff62155E, location: /rustc/6b00bc3880198600130e1cf62b8f8a93494488cc/library/core/src/ops/function.rs:250 },
    DebugInfo { addr: f1090, size: 2d, name: _ZN4core3ptr118drop_in_place$LT$$LT$std..backtrace..Backtrace$u20$as$u20$core..fmt..Display$GT$..fmt..$u7b$$u7b$closure$u7d$$u7d$$GT$17h60397d870bf821dbE, location: /rustc/6b00bc3880198600130e1cf62b8f8a93494488cc/library/core/src/ptr/mod.rs:524 },
    DebugInfo { addr: f10c0, size: 17, name: _ZN4core3ptr119drop_in_place$LT$std..io..default_write_fmt..Adapter$LT$std..io..cursor..Cursor$LT$$RF$mut$u20$$u5b$u8$u5d$$GT$$GT$$GT$17h41ce6725cb488ff2E, location: /rustc/6b00bc3880198600130e1cf62b8f8a93494488cc/library/core/src/ptr/mod.rs:524 },
    DebugInfo { addr: f10e0, size: 62, name: _ZN4core3ptr123drop_in_place$LT$addr2line..Context$LT$gimli..read..endian_slice..EndianSlice$LT$gimli..endianity..LittleEndian$GT$$GT$$GT$17h8403f5b5343d30ecE, location: /rustc/6b00bc3880198600130e1cf62b8f8a93494488cc/library/core/src/ptr/mod.rs:524 },
    DebugInfo { addr: f1150, size: f3, name: _ZN4core3ptr129drop_in_place$LT$addr2line..unit..ResUnit$LT$gimli..read..endian_slice..EndianSlice$LT$gimli..endianity..LittleEndian$GT$$GT$$GT$17h7342008494b0f0ccE, location: /rustc/6b00bc3880198600130e1cf62b8f8a93494488cc/library/core/src/ptr/mod.rs:524 },
    DebugInfo { addr: f1250, size: 4b, name: _ZN4core3ptr129drop_in_place$LT$addr2line..unit..SupUnit$LT$gimli..read..endian_slice..EndianSlice$LT$gimli..endianity..LittleEndian$GT$$GT$$GT$17hf851c68c21a64fc7E, location: /rustc/6b00bc3880198600130e1cf62b8f8a93494488cc/library/core/src/ptr/mod.rs:524 },
    DebugInfo { addr: f12a0, size: dd, name: _ZN4core3ptr130drop_in_place$LT$addr2line..unit..ResUnits$LT$gimli..read..endian_slice..EndianSlice$LT$gimli..endianity..LittleEndian$GT$$GT$$GT$17h53a6bdbbfad35fe9E, location: /rustc/6b00bc3880198600130e1cf62b8f8a93494488cc/library/core/src/ptr/mod.rs:524 },
    DebugInfo { addr: f1380, size: dd, name: _ZN4core3ptr130drop_in_place$LT$addr2line..unit..SupUnits$LT$gimli..read..endian_slice..EndianSlice$LT$gimli..endianity..LittleEndian$GT$$GT$$GT$17hf3df7faf6b2a5d32E, location: /rustc/6b00bc3880198600130e1cf62b8f8a93494488cc/library/core/src/ptr/mod.rs:524 },
    DebugInfo { addr: f1460, size: 5c, name: _ZN4core3ptr130drop_in_place$LT$gimli..read..dwarf..Dwarf$LT$gimli..read..endian_slice..EndianSlice$LT$gimli..endianity..LittleEndian$GT$$GT$$GT$17h0c93c59d36616469E, location: /rustc/6b00bc3880198600130e1cf62b8f8a93494488cc/library/core/src/ptr/mod.rs:524 },
    DebugInfo { addr: f14c0, size: 69, name: _ZN4core3ptr131drop_in_place$LT$alloc..boxed..Box$LT$dyn$u20$core..ops..function..FnOnce$LT$$LP$$RP$$GT$$u2b$Output$u20$$u3d$$u20$$LP$$RP$$GT$$GT$17h3641335b5b807fb4E, location: /rustc/6b00bc3880198600130e1cf62b8f8a93494488cc/library/core/src/ptr/mod.rs:524 },
    DebugInfo { addr: f1530, size: 61, name: _ZN4core3ptr135drop_in_place$LT$std..sync..poison..PoisonError$LT$std..sync..poison..mutex..MutexGuard$LT$std..sync..barrier..BarrierState$GT$$GT$$GT$17h6e1f6fdc711b6091E, location: /rustc/6b00bc3880198600130e1cf62b8f8a93494488cc/library/core/src/ptr/mod.rs:524 },
    DebugInfo { addr: f15a0, size: 4b, name: _ZN4core3ptr137drop_in_place$LT$gimli..read..dwarf..Unit$LT$gimli..read..endian_slice..EndianSlice$LT$gimli..endianity..LittleEndian$GT$$C$usize$GT$$GT$17h28ef1b4b63fe8adfE, location: /rustc/6b00bc3880198600130e1cf62b8f8a93494488cc/library/core/src/ptr/mod.rs:524 },
    DebugInfo { addr: f15f0, size: 63, name: _ZN4core3ptr138drop_in_place$LT$addr2line..function..LazyFunction$LT$gimli..read..endian_slice..EndianSlice$LT$gimli..endianity..LittleEndian$GT$$GT$$GT$17ha655929ef2834b13E, location: /rustc/6b00bc3880198600130e1cf62b8f8a93494488cc/library/core/src/ptr/mod.rs:524 },
    DebugInfo { addr: f1660, size: c6, name: _ZN4core3ptr152drop_in_place$LT$alloc..vec..Vec$LT$addr2line..unit..ResUnit$LT$gimli..read..endian_slice..EndianSlice$LT$gimli..endianity..LittleEndian$GT$$GT$$GT$$GT$17h9e27ee3591c33b89E, location: /rustc/6b00bc3880198600130e1cf62b8f8a93494488cc/library/core/src/ptr/mod.rs:524 },
    DebugInfo { addr: f1730, size: f5, name: _ZN4core3ptr152drop_in_place$LT$alloc..vec..Vec$LT$addr2line..unit..SupUnit$LT$gimli..read..endian_slice..EndianSlice$LT$gimli..endianity..LittleEndian$GT$$GT$$GT$$GT$17h9099ff0bcac7ebccE, location: /rustc/6b00bc3880198600130e1cf62b8f8a93494488cc/library/core/src/ptr/mod.rs:524 },
    DebugInfo { addr: f1830, size: 5c, name: _ZN4core3ptr159drop_in_place$LT$alloc..sync..ArcInner$LT$gimli..read..dwarf..Dwarf$LT$gimli..read..endian_slice..EndianSlice$LT$gimli..endianity..LittleEndian$GT$$GT$$GT$$GT$17h885c75a5acd26a2eE, location: /rustc/6b00bc3880198600130e1cf62b8f8a93494488cc/library/core/src/ptr/mod.rs:524 },
    DebugInfo { addr: f1890, size: bc, name: _ZN4core3ptr161drop_in_place$LT$alloc..vec..Vec$LT$addr2line..function..LazyFunction$LT$gimli..read..endian_slice..EndianSlice$LT$gimli..endianity..LittleEndian$GT$$GT$$GT$$GT$17hd517f36973f12f1cE, location: /rustc/6b00bc3880198600130e1cf62b8f8a93494488cc/library/core/src/ptr/mod.rs:524 },
    DebugInfo { addr: f1950, size: b8, name: _ZN4core3ptr164drop_in_place$LT$$u5b$alloc..boxed..Box$LT$dyn$u20$core..ops..function..FnOnce$LT$$LP$$RP$$GT$$u2b$Output$u20$$u3d$$u20$$LP$$RP$$u2b$core..marker..Send$GT$$u5d$$GT$17hfc8d8a4ba1eed7faE, location: /rustc/6b00bc3880198600130e1cf62b8f8a93494488cc/library/core/src/ptr/mod.rs:524 },
    DebugInfo { addr: f1a10, size: 6c, name: _ZN4core3ptr172drop_in_place$LT$core..result..Result$LT$addr2line..Context$LT$gimli..read..endian_slice..EndianSlice$LT$gimli..endianity..LittleEndian$GT$$GT$$C$gimli..read..Error$GT$$GT$17h05bc5477d85310e4E, location: /rustc/6b00bc3880198600130e1cf62b8f8a93494488cc/library/core/src/ptr/mod.rs:524 },
    DebugInfo { addr: f1a80, size: af, name: _ZN4core3ptr173drop_in_place$LT$alloc..boxed..Box$LT$$u5b$addr2line..function..LazyFunction$LT$gimli..read..endian_slice..EndianSlice$LT$gimli..endianity..LittleEndian$GT$$GT$$u5d$$GT$$GT$17hc0dcdcbbf1e0a5d1E, location: /rustc/6b00bc3880198600130e1cf62b8f8a93494488cc/library/core/src/ptr/mod.rs:524 },
    DebugInfo { addr: f1b30, size: 3b, name: _ZN4core3ptr175drop_in_place$LT$std..sync..reentrant_lock..ReentrantLockGuard$LT$core..cell..RefCell$LT$std..io..buffered..linewriter..LineWriter$LT$std..io..stdio..StdoutRaw$GT$$GT$$GT$$GT$17h73b78ef6ee6573f0E, location: /rustc/6b00bc3880198600130e1cf62b8f8a93494488cc/library/core/src/ptr/mod.rs:524 },
    DebugInfo { addr: f1b70, size: 71, name: _ZN4core3ptr177drop_in_place$LT$alloc..vec..Vec$LT$alloc..boxed..Box$LT$dyn$u20$core..ops..function..FnOnce$LT$$LP$$RP$$GT$$u2b$Output$u20$$u3d$$u20$$LP$$RP$$u2b$core..marker..Send$GT$$GT$$GT$17hd19bfb813e24fb83E, location: /rustc/6b00bc3880198600130e1cf62b8f8a93494488cc/library/core/src/ptr/mod.rs:524 },
    DebugInfo { addr: f1bf0, size: 9f, name: _ZN4core3ptr181drop_in_place$LT$core..option..Option$LT$gimli..read..line..IncompleteLineProgram$LT$gimli..read..endian_slice..EndianSlice$LT$gimli..endianity..LittleEndian$GT$$C$usize$GT$$GT$$GT$17h82c0fe46d027eab5E, location: /rustc/6b00bc3880198600130e1cf62b8f8a93494488cc/library/core/src/ptr/mod.rs:524 },
    DebugInfo { addr: f1c90, size: e5, name: _ZN4core3ptr184drop_in_place$LT$core..result..Result$LT$addr2line..function..Functions$LT$gimli..read..endian_slice..EndianSlice$LT$gimli..endianity..LittleEndian$GT$$GT$$C$gimli..read..Error$GT$$GT$17h26c2fb439f2ee553E, location: /rustc/6b00bc3880198600130e1cf62b8f8a93494488cc/library/core/src/ptr/mod.rs:524 },
    DebugInfo { addr: f1d80, size: 68, name: _ZN4core3ptr193drop_in_place$LT$alloc..vec..into_iter..IntoIter$LT$alloc..boxed..Box$LT$dyn$u20$core..ops..function..FnOnce$LT$$LP$$RP$$GT$$u2b$Output$u20$$u3d$$u20$$LP$$RP$$u2b$core..marker..Send$GT$$GT$$GT$17h91880703be25023aE, location: /rustc/6b00bc3880198600130e1cf62b8f8a93494488cc/library/core/src/ptr/mod.rs:524 },
    DebugInfo { addr: f1df0, size: 25, name: _ZN4core3ptr199drop_in_place$LT$core..result..Result$LT$core..option..Option$LT$alloc..sync..Arc$LT$std..sync..poison..mutex..Mutex$LT$alloc..vec..Vec$LT$u8$GT$$GT$$GT$$GT$$C$std..thread..local..AccessError$GT$$GT$17h270f3e39260d1988E, location: /rustc/6b00bc3880198600130e1cf62b8f8a93494488cc/library/core/src/ptr/mod.rs:524 },
    DebugInfo { addr: f1e20, size: ae, name: _ZN4core3ptr231drop_in_place$LT$core..result..Result$LT$core..option..Option$LT$alloc..boxed..Box$LT$addr2line..unit..DwoUnit$LT$gimli..read..endian_slice..EndianSlice$LT$gimli..endianity..LittleEndian$GT$$GT$$GT$$GT$$C$gimli..read..Error$GT$$GT$17h628e898bb229f61cE, location: /rustc/6b00bc3880198600130e1cf62b8f8a93494488cc/library/core/src/ptr/mod.rs:524 },
    DebugInfo { addr: f1ed0, size: 1e, name: _ZN4core3ptr238drop_in_place$LT$alloc..boxed..convert..$LT$impl$u20$core..convert..From$LT$alloc..string..String$GT$$u20$for$u20$alloc..boxed..Box$LT$dyn$u20$core..error..Error$u2b$core..marker..Send$u2b$core..marker..Sync$GT$$GT$..from..StringError$GT$17h0a0eeee720ef2dbbE, location: /rustc/6b00bc3880198600130e1cf62b8f8a93494488cc/library/core/src/ptr/mod.rs:524 },
    DebugInfo { addr: f1ef0, size: 96, name: _ZN4core3ptr275drop_in_place$LT$gimli..read..line..LineRows$LT$gimli..read..endian_slice..EndianSlice$LT$gimli..endianity..LittleEndian$GT$$C$gimli..read..line..IncompleteLineProgram$LT$gimli..read..endian_slice..EndianSlice$LT$gimli..endianity..LittleEndian$GT$$C$usize$GT$$C$usize$GT$$GT$17h156475ce9884866bE, location: /rustc/6b00bc3880198600130e1cf62b8f8a93494488cc/library/core/src/ptr/mod.rs:524 },
    DebugInfo { addr: f1f90, size: 83, name: _ZN4core3ptr280drop_in_place$LT$$LT$alloc..collections..btree..map..IntoIter$LT$K$C$V$C$A$GT$$u20$as$u20$core..ops..drop..Drop$GT$..drop..DropGuard$LT$u64$C$core..result..Result$LT$alloc..sync..Arc$LT$gimli..read..abbrev..Abbreviations$GT$$C$gimli..read..Error$GT$$C$alloc..alloc..Global$GT$$GT$17head685537876b317E, location: /rustc/6b00bc3880198600130e1cf62b8f8a93494488cc/library/core/src/ptr/mod.rs:524 },
    DebugInfo { addr: f2020, size: 1e, name: _ZN4core3ptr42drop_in_place$LT$alloc..string..String$GT$17h7fc22f80bf3e0365E, location: /rustc/6b00bc3880198600130e1cf62b8f8a93494488cc/library/core/src/ptr/mod.rs:524 },
    DebugInfo { addr: f2040, size: a4, name: _ZN4core3ptr42drop_in_place$LT$std..io..error..Error$GT$17he7548b4c96d240f5E, location: /rustc/6b00bc3880198600130e1cf62b8f8a93494488cc/library/core/src/ptr/mod.rs:524 },
    DebugInfo { addr: f20f0, size: 5c, name: _ZN4core3ptr44drop_in_place$LT$std..backtrace..Capture$GT$17h0375211dcbc72697E, location: /rustc/6b00bc3880198600130e1cf62b8f8a93494488cc/library/core/src/ptr/mod.rs:524 },
    DebugInfo { addr: f2150, size: 1e, name: _ZN4core3ptr46drop_in_place$LT$alloc..vec..Vec$LT$u8$GT$$GT$17h2295e2b653d963a7E, location: /rustc/6b00bc3880198600130e1cf62b8f8a93494488cc/library/core/src/ptr/mod.rs:524 },
    DebugInfo { addr: f2170, size: 64, name: _ZN4core3ptr46drop_in_place$LT$std..io..stdio..StdinLock$GT$17h53192374a7bef973E, location: /rustc/6b00bc3880198600130e1cf62b8f8a93494488cc/library/core/src/ptr/mod.rs:524 },
    DebugInfo { addr: f21e0, size: 1e, name: _ZN4core3ptr47drop_in_place$LT$std..ffi..os_str..OsString$GT$17hf0ec83bb9efa9a42E, location: /rustc/6b00bc3880198600130e1cf62b8f8a93494488cc/library/core/src/ptr/mod.rs:524 },
    DebugInfo { addr: f2200, size: 1e, name: _ZN4core3ptr48drop_in_place$LT$alloc..ffi..c_str..NulError$GT$17h2fd00a4fd7052c99E, location: /rustc/6b00bc3880198600130e1cf62b8f8a93494488cc/library/core/src/ptr/mod.rs:524 },
    DebugInfo { addr: f2220, size: e7, name: _ZN4core3ptr51drop_in_place$LT$std..backtrace..BacktraceFrame$GT$17h9b08c20baac4a2a0E, location: /rustc/6b00bc3880198600130e1cf62b8f8a93494488cc/library/core/src/ptr/mod.rs:524 },
    DebugInfo { addr: f2310, size: 8e, name: _ZN4core3ptr52drop_in_place$LT$std..backtrace..BacktraceSymbol$GT$17h6581cbee995099a5E, location: /rustc/6b00bc3880198600130e1cf62b8f8a93494488cc/library/core/src/ptr/mod.rs:524 },
    DebugInfo { addr: f23a0, size: 13d, name: _ZN4core3ptr55drop_in_place$LT$gimli..read..abbrev..Abbreviations$GT$17he5a67c267b7e6116E, location: /rustc/6b00bc3880198600130e1cf62b8f8a93494488cc/library/core/src/ptr/mod.rs:524 },
    DebugInfo { addr: f24e0, size: 58, name: _ZN4core3ptr55drop_in_place$LT$std..thread..spawnhook..SpawnHooks$GT$17h140705e624936f44E, location: /rustc/6b00bc3880198600130e1cf62b8f8a93494488cc/library/core/src/ptr/mod.rs:524 },
    DebugInfo { addr: f2540, size: dd, name: _ZN4core3ptr60drop_in_place$LT$gimli..read..abbrev..AbbreviationsCache$GT$17hca29b48f79ccdd8cE, location: /rustc/6b00bc3880198600130e1cf62b8f8a93494488cc/library/core/src/ptr/mod.rs:524 },
    DebugInfo { addr: f2620, size: 8c, name: _ZN4core3ptr65drop_in_place$LT$alloc..vec..Vec$LT$alloc..string..String$GT$$GT$17he64301ad1fe07053E, location: /rustc/6b00bc3880198600130e1cf62b8f8a93494488cc/library/core/src/ptr/mod.rs:524 },
    DebugInfo { addr: f26b0, size: 49, name: _ZN4core3ptr65drop_in_place$LT$std..backtrace_rs..symbolize..gimli..Library$GT$17hf9eb7a7b8f35b645E, location: /rustc/6b00bc3880198600130e1cf62b8f8a93494488cc/library/core/src/ptr/mod.rs:524 },
    DebugInfo { addr: f2700, size: 73, name: _ZN4core3ptr65drop_in_place$LT$std..sys..pal..unix..stack_overflow..Handler$GT$17h55d5bf8708bdfa0bE, location: /rustc/6b00bc3880198600130e1cf62b8f8a93494488cc/library/std/src/sys/pal/unix/stack_overflow.rs:246 },
    DebugInfo { addr: f2780, size: 42, name: _ZN4core3ptr66drop_in_place$LT$std..backtrace_rs..backtrace..libunwind..Bomb$GT$17he5ce97b5c8369e5bE, location: /rustc/6b00bc3880198600130e1cf62b8f8a93494488cc/library/std/src/../../backtrace/src/backtrace/libunwind.rs:108 },
    DebugInfo { addr: f27d0, size: 25, name: _ZN4core3ptr69drop_in_place$LT$std..backtrace_rs..symbolize..gimli..elf..Object$GT$17h70b9028ece002166E, location: /rustc/6b00bc3880198600130e1cf62b8f8a93494488cc/library/core/src/ptr/mod.rs:524 },
    DebugInfo { addr: f2800, size: 8c, name: _ZN4core3ptr70drop_in_place$LT$alloc..vec..Vec$LT$std..ffi..os_str..OsString$GT$$GT$17hc0efe34eb1113072E, location: /rustc/6b00bc3880198600130e1cf62b8f8a93494488cc/library/core/src/ptr/mod.rs:524 },
    DebugInfo { addr: f2890, size: dd, name: _ZN4core3ptr70drop_in_place$LT$std..backtrace_rs..symbolize..gimli..stash..Stash$GT$17h3cda65fa33f5918dE, location: /rustc/6b00bc3880198600130e1cf62b8f8a93494488cc/library/core/src/ptr/mod.rs:524 },
    DebugInfo { addr: f2970, size: 90, name: _ZN4core3ptr73drop_in_place$LT$alloc..vec..Vec$LT$addr2line..line..LineSequence$GT$$GT$17h2a8ba00b2fdbd378E, location: /rustc/6b00bc3880198600130e1cf62b8f8a93494488cc/library/core/src/ptr/mod.rs:524 },
    DebugInfo { addr: f2a00, size: 82, name: _ZN4core3ptr77drop_in_place$LT$alloc..boxed..Box$LT$$u5b$alloc..string..String$u5d$$GT$$GT$17h98674a386ca742e1E, location: /rustc/6b00bc3880198600130e1cf62b8f8a93494488cc/library/core/src/ptr/mod.rs:524 },
    DebugInfo { addr: f2a90, size: 26, name: _ZN4core3ptr77drop_in_place$LT$std..panicking..begin_panic_handler..FormatStringPayload$GT$17habfcd3ba83f08d1eE, location: /rustc/6b00bc3880198600130e1cf62b8f8a93494488cc/library/core/src/ptr/mod.rs:524 },
    DebugInfo { addr: f2ac0, size: 107, name: _ZN4core3ptr81drop_in_place$LT$$LP$usize$C$std..backtrace_rs..symbolize..gimli..Mapping$RP$$GT$17h3c829c1253266c07E, location: /rustc/6b00bc3880198600130e1cf62b8f8a93494488cc/library/core/src/ptr/mod.rs:524 },
    DebugInfo { addr: f2bd0, size: 12, name: _ZN4core3ptr81drop_in_place$LT$core..result..Result$LT$$LP$$RP$$C$std..io..error..Error$GT$$GT$17h787b96879b3b5772E, location: /rustc/6b00bc3880198600130e1cf62b8f8a93494488cc/library/core/src/ptr/mod.rs:524 },
    DebugInfo { addr: f2bf0, size: 2f, name: _ZN4core3ptr81drop_in_place$LT$std..io..buffered..bufreader..BufReader$LT$std..fs..File$GT$$GT$17h4d262595971ab202E, location: /rustc/6b00bc3880198600130e1cf62b8f8a93494488cc/library/core/src/ptr/mod.rs:524 },
    DebugInfo { addr: f2c20, size: 1d, name: _ZN4core3ptr86drop_in_place$LT$core..result..Result$LT$std..fs..File$C$std..io..error..Error$GT$$GT$17h63cf366ababc0f63E, location: /rustc/6b00bc3880198600130e1cf62b8f8a93494488cc/library/core/src/ptr/mod.rs:524 },
    DebugInfo { addr: f2c40, size: 54, name: _ZN4core3ptr90drop_in_place$LT$std..io..buffered..bufwriter..BufWriter$LT$W$GT$..flush_buf..BufGuard$GT$17h5252b5aff0765fc8E, location: /rustc/6b00bc3880198600130e1cf62b8f8a93494488cc/library/core/src/ptr/mod.rs:524 },
    DebugInfo { addr: f2ca0, size: 31, name: _ZN4core3ptr91drop_in_place$LT$core..result..Result$LT$alloc..string..String$C$std..env..VarError$GT$$GT$17ha8909b56176e297bE, location: /rustc/6b00bc3880198600130e1cf62b8f8a93494488cc/library/core/src/ptr/mod.rs:524 },
    DebugInfo { addr: f2ce0, size: 23, name: _ZN4core3ptr91drop_in_place$LT$std..sync..poison..rwlock..RwLockReadGuard$LT$std..panicking..Hook$GT$$GT$17hdfe2d6654ea19b97E, location: /rustc/6b00bc3880198600130e1cf62b8f8a93494488cc/library/core/src/ptr/mod.rs:524 },
    DebugInfo { addr: f2d10, size: f9, name: _ZN4core3ptr92drop_in_place$LT$core..result..Result$LT$addr2line..line..Lines$C$gimli..read..Error$GT$$GT$17h852519832365cbbfE, location: /rustc/6b00bc3880198600130e1cf62b8f8a93494488cc/library/core/src/ptr/mod.rs:524 },
    DebugInfo { addr: f2e10, size: fa, name: _ZN4core3ptr95drop_in_place$LT$std..io..buffered..linewriter..LineWriter$LT$std..io..stdio..StdoutRaw$GT$$GT$17h17bde788e166d203E, location: /rustc/6b00bc3880198600130e1cf62b8f8a93494488cc/library/core/src/ptr/mod.rs:524 },
    DebugInfo { addr: f2f10, size: 94, name: _ZN4core3str11validations15next_code_point17hb53fa198177ab0ceE, location: /rustc/6b00bc3880198600130e1cf62b8f8a93494488cc/library/core/src/slice/iter/macros.rs:160 },
    DebugInfo { addr: f2fb0, size: 74, name: _ZN4core3str21_$LT$impl$u20$str$GT$10split_once17hd2688da551ca01b2E, location: /rustc/6b00bc3880198600130e1cf62b8f8a93494488cc/library/core/src/str/mod.rs:1919 },
    DebugInfo { addr: f3030, size: 2ac, name: _ZN4core3str21_$LT$impl$u20$str$GT$12trim_matches17h454bcd5ef61e1d0bE, location: /rustc/6b00bc3880198600130e1cf62b8f8a93494488cc/library/core/src/str/mod.rs:2310 },
    DebugInfo { addr: f32e0, size: 180, name: _ZN4core3str21_$LT$impl$u20$str$GT$18trim_start_matches17hca7c0ed12ad47fe2E, location: /rustc/6b00bc3880198600130e1cf62b8f8a93494488cc/library/core/src/str/mod.rs:2357 },
    DebugInfo { addr: f3460, size: 8e, name: _ZN4core3str4iter22SplitInternal$LT$P$GT$9next_back17hb964a0c9c33c22bcE, location: /rustc/6b00bc3880198600130e1cf62b8f8a93494488cc/library/core/src/str/iter.rs:702 },
    DebugInfo { addr: f34f0, size: f2, name: _ZN4core3str7pattern13simd_contains28_$u7b$$u7b$closure$u7d$$u7d$17h32e9e9ce2e9fe7d4E, location: /rustc/6b00bc3880198600130e1cf62b8f8a93494488cc/library/core/src/str/pattern.rs:1823 },
    DebugInfo { addr: f35f0, size: 8, name: _ZN4core5error5Error5cause17hdcd37cd101a897c5E, location: /rustc/6b00bc3880198600130e1cf62b8f8a93494488cc/library/core/src/error.rs:141 },
    DebugInfo { addr: f3600, size: 6, name: _ZN4core5error5Error7provide17h0d317387783de3a1E, location: /rustc/6b00bc3880198600130e1cf62b8f8a93494488cc/library/core/src/error.rs:204 },
    DebugInfo { addr: f3610, size: 1a, name: _ZN4core5error5Error7type_id17h61c1a9fc7b1d62efE, location: /rustc/6b00bc3880198600130e1cf62b8f8a93494488cc/library/core/src/error.rs:116 },
    DebugInfo { addr: f3630, size: 8, name: _ZN4core5panic12PanicPayload6as_str17h022fd5cd9b76175bE, location: /rustc/6b00bc3880198600130e1cf62b8f8a93494488cc/library/core/src/panic.rs:188 },
    DebugInfo { addr: f3640, size: b2, name: _ZN4core5slice4sort6shared5pivot11median3_rec17h0a031035748e820fE, location: /rustc/6b00bc3880198600130e1cf62b8f8a93494488cc/library/core/src/slice/sort/shared/pivot.rs:49 },
    DebugInfo { addr: f3700, size: b3, name: _ZN4core5slice4sort6shared5pivot11median3_rec17h0b5dbecd13306e27E, location: /rustc/6b00bc3880198600130e1cf62b8f8a93494488cc/library/core/src/slice/sort/shared/pivot.rs:49 },
    DebugInfo { addr: f37c0, size: b2, name: _ZN4core5slice4sort6shared5pivot11median3_rec17h14e753ed116e0f42E, location: /rustc/6b00bc3880198600130e1cf62b8f8a93494488cc/library/core/src/slice/sort/shared/pivot.rs:49 },
    DebugInfo { addr: f3880, size: 103, name: _ZN4core5slice4sort6shared5pivot11median3_rec17h1e431042df8bbdddE, location: /rustc/6b00bc3880198600130e1cf62b8f8a93494488cc/library/core/src/slice/sort/shared/pivot.rs:49 },
    DebugInfo { addr: f3990, size: ac, name: _ZN4core5slice4sort6shared5pivot11median3_rec17h54040defd20b2f59E, location: /rustc/6b00bc3880198600130e1cf62b8f8a93494488cc/library/core/src/slice/sort/shared/pivot.rs:49 },
    DebugInfo { addr: f3a40, size: b3, name: _ZN4core5slice4sort6shared5pivot11median3_rec17hc39dc6de912c62a3E, location: /rustc/6b00bc3880198600130e1cf62b8f8a93494488cc/library/core/src/slice/sort/shared/pivot.rs:49 },
    DebugInfo { addr: f3b00, size: 16a, name: _ZN4core5slice4sort6shared9smallsort12sort4_stable17h13ac6e8efccc3409E, location: /rustc/6b00bc3880198600130e1cf62b8f8a93494488cc/library/core/src/slice/sort/shared/smallsort.rs:612 },
    DebugInfo { addr: f3c70, size: 376, name: _ZN4core5slice4sort6shared9smallsort12sort8_stable17h8f4edf004f4742caE, location: /rustc/6b00bc3880198600130e1cf62b8f8a93494488cc/library/core/src/slice/sort/shared/smallsort.rs:663 },
    DebugInfo { addr: f3ff0, size: 56a, name: _ZN4core5slice4sort6shared9smallsort18small_sort_general17he1ae1d73cbfcc484E, location: /rustc/6b00bc3880198600130e1cf62b8f8a93494488cc/library/core/src/slice/sort/shared/smallsort.rs:205 },
    DebugInfo { addr: f4560, size: 92, name: _ZN4core5slice4sort6shared9smallsort25insertion_sort_shift_left17h0d4d0059a94f0a74E, location: /rustc/6b00bc3880198600130e1cf62b8f8a93494488cc/library/core/src/slice/sort/shared/smallsort.rs:580 },
    DebugInfo { addr: f4600, size: c0, name: _ZN4core5slice4sort6shared9smallsort25insertion_sort_shift_left17h9c2aada1eb0420d8E, location: /rustc/6b00bc3880198600130e1cf62b8f8a93494488cc/library/core/src/slice/sort/shared/smallsort.rs:580 },
    DebugInfo { addr: f46c0, size: 160, name: _ZN4core5slice4sort6stable14driftsort_main17h4f31c087e98163bfE, location: /rustc/6b00bc3880198600130e1cf62b8f8a93494488cc/library/core/src/slice/sort/stable/mod.rs:94 },
    DebugInfo { addr: f4820, size: 158, name: _ZN4core5slice4sort6stable14driftsort_main17h5ec73e94468e5cd8E, location: /rustc/6b00bc3880198600130e1cf62b8f8a93494488cc/library/core/src/slice/sort/stable/mod.rs:94 },
    DebugInfo { addr: f4980, size: 158, name: _ZN4core5slice4sort6stable14driftsort_main17hd4a8d5e06126e738E, location: /rustc/6b00bc3880198600130e1cf62b8f8a93494488cc/library/core/src/slice/sort/stable/mod.rs:94 },
    DebugInfo { addr: f4ae0, size: 158, name: _ZN4core5slice4sort6stable14driftsort_main17hdaacefc17bdcf8f3E, location: /rustc/6b00bc3880198600130e1cf62b8f8a93494488cc/library/core/src/slice/sort/stable/mod.rs:94 },
    DebugInfo { addr: f4c40, size: 169, name: _ZN4core5slice4sort6stable14driftsort_main17he67d38f1f0a3c5dfE, location: /rustc/6b00bc3880198600130e1cf62b8f8a93494488cc/library/core/src/slice/sort/stable/mod.rs:94 },
    DebugInfo { addr: f4db0, size: 69d, name: _ZN4core5slice4sort6stable5drift4sort17h0237f9e067c2e865E, location: /rustc/6b00bc3880198600130e1cf62b8f8a93494488cc/library/core/src/slice/sort/stable/drift.rs:20 },
    DebugInfo { addr: f5450, size: 69d, name: _ZN4core5slice4sort6stable5drift4sort17h07eb7ecae275b654E, location: /rustc/6b00bc3880198600130e1cf62b8f8a93494488cc/library/core/src/slice/sort/stable/drift.rs:20 },
    DebugInfo { addr: f5af0, size: 6d7, name: _ZN4core5slice4sort6stable5drift4sort17hacaaa154793fc177E, location: /rustc/6b00bc3880198600130e1cf62b8f8a93494488cc/library/core/src/slice/sort/stable/drift.rs:20 },
    DebugInfo { addr: f61d0, size: 6e3, name: _ZN4core5slice4sort6stable5drift4sort17hc49b739548e049c6E, location: /rustc/6b00bc3880198600130e1cf62b8f8a93494488cc/library/core/src/slice/sort/stable/drift.rs:20 },
    DebugInfo { addr: f68c0, size: 6e2, name: _ZN4core5slice4sort6stable5drift4sort17he3b1106fbcef37eeE, location: /rustc/6b00bc3880198600130e1cf62b8f8a93494488cc/library/core/src/slice/sort/stable/drift.rs:20 },
    DebugInfo { addr: f6fb0, size: 9ef, name: _ZN4core5slice4sort6stable9quicksort9quicksort17h8442949fb0bffa80E, location: /rustc/6b00bc3880198600130e1cf62b8f8a93494488cc/library/core/src/slice/sort/stable/quicksort.rs:16 },
    DebugInfo { addr: f79a0, size: a5f, name: _ZN4core5slice4sort6stable9quicksort9quicksort17h996b59459a13306aE, location: /rustc/6b00bc3880198600130e1cf62b8f8a93494488cc/library/core/src/slice/sort/stable/quicksort.rs:16 },
    DebugInfo { addr: f8400, size: a2f, name: _ZN4core5slice4sort6stable9quicksort9quicksort17ha8d2daaff5d214efE, location: /rustc/6b00bc3880198600130e1cf62b8f8a93494488cc/library/core/src/slice/sort/stable/quicksort.rs:16 },
    DebugInfo { addr: f8e30, size: a04, name: _ZN4core5slice4sort6stable9quicksort9quicksort17hba8f6c5d5dd98850E, location: /rustc/6b00bc3880198600130e1cf62b8f8a93494488cc/library/core/src/slice/sort/stable/quicksort.rs:16 },
    DebugInfo { addr: f9840, size: a9a, name: _ZN4core5slice4sort6stable9quicksort9quicksort17hf0322a71719ebf1fE, location: /rustc/6b00bc3880198600130e1cf62b8f8a93494488cc/library/core/src/slice/sort/stable/quicksort.rs:16 },
    DebugInfo { addr: fa2e0, size: db, name: _ZN4core5slice4sort8unstable7ipnsort17ha39d80c5ec2323caE, location: /rustc/6b00bc3880198600130e1cf62b8f8a93494488cc/library/core/src/slice/sort/unstable/mod.rs:61 },
    DebugInfo { addr: fa3c0, size: 106, name: _ZN4core5slice4sort8unstable8heapsort8heapsort17ha53c30c8e0ef115eE, location: /rustc/6b00bc3880198600130e1cf62b8f8a93494488cc/library/core/src/slice/sort/unstable/heapsort.rs:16 },
    DebugInfo { addr: fa4d0, size: 462, name: _ZN4core5slice4sort8unstable9quicksort9quicksort17h36baedeb96d67e60E, location: /rustc/6b00bc3880198600130e1cf62b8f8a93494488cc/library/core/src/slice/sort/unstable/quicksort.rs:21 },
    DebugInfo { addr: fa932, size: 30, name: _ZN4core9panicking13assert_failed17h6b7fe04743dd603fE, location: /rustc/6b00bc3880198600130e1cf62b8f8a93494488cc/library/core/src/panicking.rs:378 },
    DebugInfo { addr: fa962, size: 30, name: _ZN4core9panicking13assert_failed17hdba3a023e40856c3E, location: /rustc/6b00bc3880198600130e1cf62b8f8a93494488cc/library/core/src/panicking.rs:378 },
    DebugInfo { addr: fa9a0, size: e, name: _ZN50_$LT$$BP$mut$u20$T$u20$as$u20$core..fmt..Debug$GT$3fmt17h09fb88b57dfbfcbfE, location: /rustc/6b00bc3880198600130e1cf62b8f8a93494488cc/library/core/src/fmt/mod.rs:2836 },
    DebugInfo { addr: fa9b0, size: 15, name: _ZN52_$LT$$RF$mut$u20$T$u20$as$u20$core..fmt..Display$GT$3fmt17h6d630c80594d5964E, location: /rustc/6b00bc3880198600130e1cf62b8f8a93494488cc/library/core/src/fmt/mod.rs:2640 },
    DebugInfo { addr: fa9d0, size: 84b, name: _ZN55_$LT$$RF$str$u20$as$u20$core..str..pattern..Pattern$GT$15is_contained_in17hd2c8571dab7a675eE, location: /rustc/6b00bc3880198600130e1cf62b8f8a93494488cc/library/core/src/str/pattern.rs:988 },
    DebugInfo { addr: fb220, size: 19, name: _ZN58_$LT$alloc..string..String$u20$as$u20$core..fmt..Debug$GT$3fmt17h3dbd93d1431a8f2aE, location: /rustc/6b00bc3880198600130e1cf62b8f8a93494488cc/library/alloc/src/string.rs:2603 },
    DebugInfo { addr: fb240, size: 127, name: _ZN58_$LT$alloc..string..String$u20$as$u20$core..fmt..Write$GT$10write_char17h13db4e3872bba170E, location: /rustc/6b00bc3880198600130e1cf62b8f8a93494488cc/library/alloc/src/string.rs:3202 },
    DebugInfo { addr: fb370, size: 67, name: _ZN58_$LT$alloc..string..String$u20$as$u20$core..fmt..Write$GT$9write_str17h3471f8bf4fd2c6acE, location: /rustc/6b00bc3880198600130e1cf62b8f8a93494488cc/library/alloc/src/string.rs:3196 },
    DebugInfo { addr: fb3e0, size: 406, name: _ZN5alloc11collections5btree3map25IntoIter$LT$K$C$V$C$A$GT$10dying_next17h0b45c8a0ffdb7857E, location: /rustc/6b00bc3880198600130e1cf62b8f8a93494488cc/library/alloc/src/collections/btree/map.rs:1728 },
    DebugInfo { addr: fb7f0, size: 406, name: _ZN5alloc11collections5btree3map25IntoIter$LT$K$C$V$C$A$GT$10dying_next17hd86f0d843cad3973E, location: /rustc/6b00bc3880198600130e1cf62b8f8a93494488cc/library/alloc/src/collections/btree/map.rs:1728 },
    DebugInfo { addr: fbc00, size: 4e, name: _ZN5alloc4sync16Arc$LT$T$C$A$GT$9drop_slow17h0a06fd4e05d85d5aE, location: /rustc/6b00bc3880198600130e1cf62b8f8a93494488cc/library/alloc/src/sync.rs:1932 },
    DebugInfo { addr: fbc50, size: 56, name: _ZN5alloc4sync16Arc$LT$T$C$A$GT$9drop_slow17h36bf26753956958fE, location: /rustc/6b00bc3880198600130e1cf62b8f8a93494488cc/library/alloc/src/sync.rs:1932 },
    DebugInfo { addr: fbcb0, size: 4a, name: _ZN5alloc4sync16Arc$LT$T$C$A$GT$9drop_slow17h39d56c0d62006135E, location: /rustc/6b00bc3880198600130e1cf62b8f8a93494488cc/library/alloc/src/sync.rs:1932 },
    DebugInfo { addr: fbd00, size: a0, name: _ZN5alloc4sync16Arc$LT$T$C$A$GT$9drop_slow17h6a24e91b8a0dff21E, location: /rustc/6b00bc3880198600130e1cf62b8f8a93494488cc/library/alloc/src/sync.rs:1932 },
    DebugInfo { addr: fbda0, size: 67, name: _ZN5alloc4sync16Arc$LT$T$C$A$GT$9drop_slow17h8422373a999d8beeE, location: /rustc/6b00bc3880198600130e1cf62b8f8a93494488cc/library/alloc/src/sync.rs:1932 },
    DebugInfo { addr: fbe10, size: ed, name: _ZN5alloc4sync16Arc$LT$T$C$A$GT$9drop_slow17hf30731108507f6f0E, location: /rustc/6b00bc3880198600130e1cf62b8f8a93494488cc/library/alloc/src/sync.rs:1932 },
    DebugInfo { addr: fbf00, size: 46, name: _ZN5alloc5alloc15exchange_malloc17h25a694104f40c5fcE, location: /rustc/6b00bc3880198600130e1cf62b8f8a93494488cc/library/alloc/src/alloc.rs:348 },
    DebugInfo { addr: fbf50, size: 76, name: _ZN5alloc7raw_vec11finish_grow17hc04868b4c8acc361E, location: /rustc/6b00bc3880198600130e1cf62b8f8a93494488cc/library/alloc/src/raw_vec/mod.rs:766 },
    DebugInfo { addr: fbfd0, size: b7, name: _ZN5alloc7raw_vec19RawVec$LT$T$C$A$GT$8grow_one17h0f74a1674a9e0523E, location: /rustc/6b00bc3880198600130e1cf62b8f8a93494488cc/library/alloc/src/raw_vec/mod.rs:339 },
    DebugInfo { addr: fbfd0, size: b7, name: _ZN5alloc7raw_vec19RawVec$LT$T$C$A$GT$8grow_one17h529b48438c95a50fE, location: /rustc/6b00bc3880198600130e1cf62b8f8a93494488cc/library/alloc/src/raw_vec/mod.rs:339 },
    DebugInfo { addr: fbfd0, size: b7, name: _ZN5alloc7raw_vec19RawVec$LT$T$C$A$GT$8grow_one17h85eaf003d2163eb1E, location: /rustc/6b00bc3880198600130e1cf62b8f8a93494488cc/library/alloc/src/raw_vec/mod.rs:339 },
    DebugInfo { addr: fbfd0, size: b7, name: _ZN5alloc7raw_vec19RawVec$LT$T$C$A$GT$8grow_one17ha6d86d91f95e251dE, location: /rustc/6b00bc3880198600130e1cf62b8f8a93494488cc/library/alloc/src/raw_vec/mod.rs:339 },
    DebugInfo { addr: fbfd0, size: b7, name: _ZN5alloc7raw_vec19RawVec$LT$T$C$A$GT$8grow_one17hb5468a2665c6f266E, location: /rustc/6b00bc3880198600130e1cf62b8f8a93494488cc/library/alloc/src/raw_vec/mod.rs:339 },
    DebugInfo { addr: fbfd0, size: b7, name: _ZN5alloc7raw_vec19RawVec$LT$T$C$A$GT$8grow_one17hf9839fd3ee1c746fE, location: /rustc/6b00bc3880198600130e1cf62b8f8a93494488cc/library/alloc/src/raw_vec/mod.rs:339 },
    DebugInfo { addr: fc090, size: b3, name: _ZN5alloc7raw_vec19RawVec$LT$T$C$A$GT$8grow_one17h10a23fd0872560c3E, location: /rustc/6b00bc3880198600130e1cf62b8f8a93494488cc/library/alloc/src/raw_vec/mod.rs:339 },
    DebugInfo { addr: fc090, size: b3, name: _ZN5alloc7raw_vec19RawVec$LT$T$C$A$GT$8grow_one17hcb88e56ba134a3faE, location: /rustc/6b00bc3880198600130e1cf62b8f8a93494488cc/library/alloc/src/raw_vec/mod.rs:339 },
    DebugInfo { addr: fc090, size: b3, name: _ZN5alloc7raw_vec19RawVec$LT$T$C$A$GT$8grow_one17hfcb40064a526712bE, location: /rustc/6b00bc3880198600130e1cf62b8f8a93494488cc/library/alloc/src/raw_vec/mod.rs:339 },
    DebugInfo { addr: fc150, size: b4, name: _ZN5alloc7raw_vec19RawVec$LT$T$C$A$GT$8grow_one17h10ebc9c95a102119E, location: /rustc/6b00bc3880198600130e1cf62b8f8a93494488cc/library/alloc/src/raw_vec/mod.rs:339 },
    DebugInfo { addr: fc150, size: b4, name: _ZN5alloc7raw_vec19RawVec$LT$T$C$A$GT$8grow_one17h97c9420940a466c0E, location: /rustc/6b00bc3880198600130e1cf62b8f8a93494488cc/library/alloc/src/raw_vec/mod.rs:339 },
    DebugInfo { addr: fc210, size: b6, name: _ZN5alloc7raw_vec19RawVec$LT$T$C$A$GT$8grow_one17h16a00ca779bf486dE, location: /rustc/6b00bc3880198600130e1cf62b8f8a93494488cc/library/alloc/src/raw_vec/mod.rs:339 },
    DebugInfo { addr: fc2d0, size: b3, name: _ZN5alloc7raw_vec19RawVec$LT$T$C$A$GT$8grow_one17h189214c374267fb5E, location: /rustc/6b00bc3880198600130e1cf62b8f8a93494488cc/library/alloc/src/raw_vec/mod.rs:339 },
    DebugInfo { addr: fc2d0, size: b3, name: _ZN5alloc7raw_vec19RawVec$LT$T$C$A$GT$8grow_one17h4f6c7e1d0a538992E, location: /rustc/6b00bc3880198600130e1cf62b8f8a93494488cc/library/alloc/src/raw_vec/mod.rs:339 },
    DebugInfo { addr: fc2d0, size: b3, name: _ZN5alloc7raw_vec19RawVec$LT$T$C$A$GT$8grow_one17hb6ce9080d194f851E, location: /rustc/6b00bc3880198600130e1cf62b8f8a93494488cc/library/alloc/src/raw_vec/mod.rs:339 },
    DebugInfo { addr: fc2d0, size: b3, name: _ZN5alloc7raw_vec19RawVec$LT$T$C$A$GT$8grow_one17hdd31563d5e240d8aE, location: /rustc/6b00bc3880198600130e1cf62b8f8a93494488cc/library/alloc/src/raw_vec/mod.rs:339 },
    DebugInfo { addr: fc2d0, size: b3, name: _ZN5alloc7raw_vec19RawVec$LT$T$C$A$GT$8grow_one17hecf6441981b50172E, location: /rustc/6b00bc3880198600130e1cf62b8f8a93494488cc/library/alloc/src/raw_vec/mod.rs:339 },
    DebugInfo { addr: fc390, size: b3, name: _ZN5alloc7raw_vec19RawVec$LT$T$C$A$GT$8grow_one17h1cee2166311e09e6E, location: /rustc/6b00bc3880198600130e1cf62b8f8a93494488cc/library/alloc/src/raw_vec/mod.rs:339 },
    DebugInfo { addr: fc390, size: b3, name: _ZN5alloc7raw_vec19RawVec$LT$T$C$A$GT$8grow_one17h566e32e1f21188d5E, location: /rustc/6b00bc3880198600130e1cf62b8f8a93494488cc/library/alloc/src/raw_vec/mod.rs:339 },
    DebugInfo { addr: fc390, size: b3, name: _ZN5alloc7raw_vec19RawVec$LT$T$C$A$GT$8grow_one17hb2209c37c9b4231bE, location: /rustc/6b00bc3880198600130e1cf62b8f8a93494488cc/library/alloc/src/raw_vec/mod.rs:339 },
    DebugInfo { addr: fc450, size: b7, name: _ZN5alloc7raw_vec19RawVec$LT$T$C$A$GT$8grow_one17h6882cd36302a57e9E, location: /rustc/6b00bc3880198600130e1cf62b8f8a93494488cc/library/alloc/src/raw_vec/mod.rs:339 },
    DebugInfo { addr: fc450, size: b7, name: _ZN5alloc7raw_vec19RawVec$LT$T$C$A$GT$8grow_one17hc5e7c874e131478dE, location: /rustc/6b00bc3880198600130e1cf62b8f8a93494488cc/library/alloc/src/raw_vec/mod.rs:339 },
    DebugInfo { addr: fc510, size: b7, name: _ZN5alloc7raw_vec19RawVec$LT$T$C$A$GT$8grow_one17ha5e1662447508e21E, location: /rustc/6b00bc3880198600130e1cf62b8f8a93494488cc/library/alloc/src/raw_vec/mod.rs:339 },
    DebugInfo { addr: fc510, size: b7, name: _ZN5alloc7raw_vec19RawVec$LT$T$C$A$GT$8grow_one17hc5b042a0e20b5396E, location: /rustc/6b00bc3880198600130e1cf62b8f8a93494488cc/library/alloc/src/raw_vec/mod.rs:339 },
    DebugInfo { addr: fc5d0, size: b3, name: _ZN5alloc7raw_vec19RawVec$LT$T$C$A$GT$8grow_one17hb3ee9a95430c2072E, location: /rustc/6b00bc3880198600130e1cf62b8f8a93494488cc/library/alloc/src/raw_vec/mod.rs:339 },
    DebugInfo { addr: fc5d0, size: b3, name: _ZN5alloc7raw_vec19RawVec$LT$T$C$A$GT$8grow_one17hc72e5b1088c9c1c6E, location: /rustc/6b00bc3880198600130e1cf62b8f8a93494488cc/library/alloc/src/raw_vec/mod.rs:339 },
    DebugInfo { addr: fc690, size: b6, name: _ZN5alloc7raw_vec19RawVec$LT$T$C$A$GT$8grow_one17hb8e9c694a177c732E, location: /rustc/6b00bc3880198600130e1cf62b8f8a93494488cc/library/alloc/src/raw_vec/mod.rs:339 },
    DebugInfo { addr: fc750, size: b4, name: _ZN5alloc7raw_vec19RawVec$LT$T$C$A$GT$8grow_one17he2333703c711bc7aE, location: /rustc/6b00bc3880198600130e1cf62b8f8a93494488cc/library/alloc/src/raw_vec/mod.rs:339 },
    DebugInfo { addr: fc810, size: da, name: _ZN5alloc7raw_vec20RawVecInner$LT$A$GT$7reserve21do_reserve_and_handle17h670a9f23f7f6b510E, location: /rustc/6b00bc3880198600130e1cf62b8f8a93494488cc/library/alloc/src/raw_vec/mod.rs:551 },
    DebugInfo { addr: fc8f0, size: 2e9, name: _ZN5gimli4read4line13parse_file_v517hd9693875c19b93dfE, location: /rust/deps/gimli-0.31.1/src/read/line.rs:1719 },
    DebugInfo { addr: fcbe0, size: 3d2, name: _ZN5gimli4read4line15FileEntryFormat5parse17heb6bd1977e147822E, location: /rust/deps/gimli-0.31.1/src/read/line.rs:1676 },
    DebugInfo { addr: fcfc0, size: a33, name: _ZN5gimli4read4line15parse_attribute17h9c259d0c0587e1e5E, location: /rust/deps/gimli-0.31.1/src/read/line.rs:1776 },
    DebugInfo { addr: fda00, size: e1, name: _ZN5gimli4read4line18parse_directory_v517h179895d58dd0b393E, location: /rust/deps/gimli-0.31.1/src/read/line.rs:1702 },
    DebugInfo { addr: fdaf0, size: 256, name: _ZN5gimli4read4line27FileEntry$LT$R$C$Offset$GT$5parse17h09f6e0b141a8200fE, location: /rust/deps/gimli-0.31.1/src/read/line.rs:1572 },
    DebugInfo { addr: fdd50, size: 1454, name: _ZN5gimli4read4unit15parse_attribute17he5bfac4d5517299cE, location: /rust/deps/gimli-0.31.1/src/read/unit.rs:1970 },
    DebugInfo { addr: ff1b0, size: 5bc, name: _ZN5gimli4read4unit15skip_attributes17h51eeebf69c9cdcfcE, location: /rust/deps/gimli-0.31.1/src/read/unit.rs:2195 },
    DebugInfo { addr: ff770, size: 562, name: _ZN5gimli4read4unit18Attribute$LT$R$GT$5value17hcaef8ebeca546cf6E, location: /rust/deps/gimli-0.31.1/src/read/unit.rs:1135 },
    DebugInfo { addr: ffce0, size: 32d, name: _ZN5gimli4read4unit22EntriesCursor$LT$R$GT$10next_entry17hcde5e11afad59493E, location: /rust/deps/gimli-0.31.1/src/read/unit.rs:2488 },
    DebugInfo { addr: 100010, size: 60, name: _ZN5gimli4read4unit32AttributeValue$LT$R$C$Offset$GT$11udata_value17hbcd8fa614dfdb5d0E, location: /rust/deps/gimli-0.31.1/src/read/unit.rs:1824 },
    DebugInfo { addr: 100070, size: 63a, name: _ZN5gimli4read4unit33DebugInfoUnitHeadersIter$LT$R$GT$4next17h877279f51e95c82aE, location: /rust/deps/gimli-0.31.1/src/read/unit.rs:187 },
    DebugInfo { addr: 1006b0, size: 25d1, name: _ZN5gimli4read5dwarf13Unit$LT$R$GT$3new17ha47ce75270b274b2E, location: /rust/deps/gimli-0.31.1/src/read/dwarf.rs:1142 },
    DebugInfo { addr: 102c90, size: 1e3, name: _ZN5gimli4read5dwarf14Dwarf$LT$R$GT$11attr_string17hc4312b0e9613f08aE, location: /rust/deps/gimli-0.31.1/src/read/dwarf.rs:409 },
    DebugInfo { addr: 102e80, size: 9de, name: _ZN5gimli4read5index18UnitIndex$LT$R$GT$5parse17h6fe305840898bc8aE, location: /rustc/6b00bc3880198600130e1cf62b8f8a93494488cc/library/core/src/slice/mod.rs:136 },
    DebugInfo { addr: 103860, size: ae, name: _ZN5gimli4read6reader6Reader11read_offset17h3fa77fee082dfb30E, location: /rust/deps/gimli-0.31.1/src/read/reader.rs:537 },
    DebugInfo { addr: 103910, size: af, name: _ZN5gimli4read6reader6Reader12read_uleb12817hfd11e62fde83b2abE, location: /rust/deps/gimli-0.31.1/src/read/reader.rs:458 },
    DebugInfo { addr: 1039c0, size: 108, name: _ZN5gimli4read6reader6Reader17read_sized_offset17h6ba5b053b73dc522E, location: /rust/deps/gimli-0.31.1/src/read/reader.rs:544 },
    DebugInfo { addr: 103ad0, size: 29e, name: _ZN5gimli4read7aranges30ArangeHeader$LT$R$C$Offset$GT$5parse17had6855f630d21a04E, location: /rust/deps/gimli-0.31.1/src/read/aranges.rs:148 },
    DebugInfo { addr: 103d70, size: f2e, name: _ZN5gimli4read8rnglists20RngListIter$LT$R$GT$4next17h61cbd166145637efE, location: /rust/deps/gimli-0.31.1/src/read/rnglists.rs:503 },
    DebugInfo { addr: 104ca0, size: 19, name: _ZN60_$LT$alloc..string..String$u20$as$u20$core..fmt..Display$GT$3fmt17h253a895d4ea9e2d1E, location: /rustc/6b00bc3880198600130e1cf62b8f8a93494488cc/library/alloc/src/string.rs:2595 },
    DebugInfo { addr: 104cc0, size: 44, name: _ZN64_$LT$alloc..ffi..c_str..NulError$u20$as$u20$core..fmt..Debug$GT$3fmt17h53a5fa9634df040aE, location: /rustc/6b00bc3880198600130e1cf62b8f8a93494488cc/library/alloc/src/ffi/c_str.rs:129 },
    DebugInfo { addr: 104d10, size: 1d8, name: _ZN81_$LT$core..str..pattern..CharSearcher$u20$as$u20$core..str..pattern..Searcher$GT$10next_match17h06e5f2dd80a2a38eE, location: /rustc/6b00bc3880198600130e1cf62b8f8a93494488cc/library/core/src/str/pattern.rs:433 },
    DebugInfo { addr: 104ef0, size: 82, name: _ZN87_$LT$T$u20$as$u20$alloc..slice..$LT$impl$u20$$u5b$T$u5d$$GT$..to_vec_in..ConvertVec$GT$6to_vec17h2aea88894ab77008E, location: /rustc/6b00bc3880198600130e1cf62b8f8a93494488cc/library/alloc/src/slice.rs:445 },
    DebugInfo { addr: 104f80, size: 1b3, name: _ZN88_$LT$core..str..pattern..CharSearcher$u20$as$u20$core..str..pattern..ReverseSearcher$GT$15next_match_back17h5fb142c5c9fc4999E, location: /rustc/6b00bc3880198600130e1cf62b8f8a93494488cc/library/core/src/str/pattern.rs:500 },
    DebugInfo { addr: 105140, size: 55, name: _ZN90_$LT$gimli..read..unit..AttributeValue$LT$R$C$Offset$GT$$u20$as$u20$core..clone..Clone$GT$5clone17h7ff71f5dfd45c4a4E, location: /rust/deps/gimli-0.31.1/src/read/unit.rs:932 },
    DebugInfo { addr: 1051a0, size: 153, name: _ZN9addr2line16Context$LT$R$GT$9find_unit17h8fcd20a750ed9c6cE, location: /rust/deps/addr2line-0.24.2/src/lib.rs:341 },
    DebugInfo { addr: 105300, size: 486, name: _ZN9addr2line4line11render_file17h0515ced6e2827fa7E, location: /rust/deps/addr2line-0.24.2/src/line.rs:257 },
    DebugInfo { addr: 105790, size: 2666, name: _ZN9addr2line4line9LazyLines6borrow17h1674bf678613ccf7E, location: /rust/deps/addr2line-0.24.2/src/line.rs:18 },
    DebugInfo { addr: 107e00, size: 518, name: _ZN9addr2line4unit16ResUnit$LT$R$GT$25find_function_or_location17hf548ee1882c225abE, location: /rust/deps/addr2line-0.24.2/src/unit.rs:170 },
    DebugInfo { addr: 108320, size: 19ce, name: _ZN9addr2line4unit16ResUnit$LT$R$GT$25find_function_or_location28_$u7b$$u7b$closure$u7d$$u7d$17hee8b33cd5b612d24E, location: /rust/deps/addr2line-0.24.2/src/unit.rs:180 },
    DebugInfo { addr: 109cf0, size: 57d, name: _ZN9addr2line6lookup30LoopingLookup$LT$T$C$L$C$F$GT$10new_lookup17h7e2d413194fb62cbE, location: /rust/deps/addr2line-0.24.2/src/lookup.rs:224 },
    DebugInfo { addr: 10a270, size: 404, name: _ZN9addr2line8function10name_entry17hf29f3f0b10711643E, location: /rust/deps/addr2line-0.24.2/src/function.rs:514 },
    DebugInfo { addr: 10a680, size: 11c5, name: _ZN9addr2line8function17Function$LT$R$GT$14parse_children17h9a7d91a5ff6ccb2dE, location: /rust/deps/addr2line-0.24.2/src/function.rs:278 },
    DebugInfo { addr: 10b850, size: 19d, name: _ZN9addr2line8function9name_attr17h4c46df5bf8df77afE, location: /rust/deps/addr2line-0.24.2/src/function.rs:476 },
    DebugInfo { addr: 10b9f0, size: 46, name: _ZN3std2rt15handle_rt_panic17h9105c578c50848ffE, location: /rustc/6b00bc3880198600130e1cf62b8f8a93494488cc/library/std/src/rt.rs:75 },
    DebugInfo { addr: 10ba40, size: 47, name: _ZN3std2rt7cleanup17h8cc1f4f2ce2c81c1E, location: /rustc/6b00bc3880198600130e1cf62b8f8a93494488cc/library/core/src/sync/atomic.rs:3830 },
    DebugInfo { addr: 10ba90, size: 727, name: _ZN3std2rt19lang_start_internal17ha8ef919ae4984948E, location: /rustc/6b00bc3880198600130e1cf62b8f8a93494488cc/library/std/src/rt.rs:145 },
    DebugInfo { addr: 10c1c0, size: 11, name: _ZN3std6thread6scoped9ScopeData29increment_num_running_threads17h6ff48f13848fa9f5E, location: /rustc/6b00bc3880198600130e1cf62b8f8a93494488cc/library/core/src/sync/atomic.rs:3862 },
    DebugInfo { addr: 10c1e0, size: 43, name: _ZN3std6thread6scoped9ScopeData8overflow17h7d9921572e56bdc5E, location: /rustc/6b00bc3880198600130e1cf62b8f8a93494488cc/library/std/src/thread/scoped.rs:54 },
    DebugInfo { addr: 10c230, size: 41, name: _ZN3std6thread6scoped9ScopeData29decrement_num_running_threads17h14dd2471513a43fbE, location: /rustc/6b00bc3880198600130e1cf62b8f8a93494488cc/library/std/src/thread/scoped.rs:59 },
    DebugInfo { addr: 10c280, size: a3, name: _ZN3std6thread7current11set_current17hb93be68ab12a58b0E, location: /rustc/6b00bc3880198600130e1cf62b8f8a93494488cc/library/std/src/thread/current.rs:115 },
    DebugInfo { addr: 10c330, size: 8b, name: _ZN3std6thread7current16try_with_current17h9d8b1ee5b7e14201E, location: /rustc/6b00bc3880198600130e1cf62b8f8a93494488cc/library/std/src/thread/current.rs:153 },
    DebugInfo { addr: 10c3c0, size: 35, name: _ZN3std6thread7current7current17h124f03a83cbbed7cE, location: /rustc/6b00bc3880198600130e1cf62b8f8a93494488cc/library/std/src/thread/current.rs:209 },
    DebugInfo { addr: 10c400, size: 16f, name: _ZN3std6thread7current12init_current17h5b86e59cf23c363bE, location: /rustc/6b00bc3880198600130e1cf62b8f8a93494488cc/library/std/src/thread/current.rs:222 },
    DebugInfo { addr: 10c570, size: dd, name: _ZN76_$LT$std..thread..spawnhook..SpawnHooks$u20$as$u20$core..ops..drop..Drop$GT$4drop17hac680f435d010254E, location: /rustc/6b00bc3880198600130e1cf62b8f8a93494488cc/library/std/src/thread/spawnhook.rs:22 },
    DebugInfo { addr: 10c650, size: 2fc, name: _ZN3std6thread9spawnhook15run_spawn_hooks17h8f0f9603a1f2a090E, location: /rustc/6b00bc3880198600130e1cf62b8f8a93494488cc/library/std/src/thread/spawnhook.rs:113 },
    DebugInfo { addr: 10c950, size: 27f, name: _ZN3std6thread9spawnhook15ChildSpawnHooks3run17h57b1ab0a34b062ffE, location: /rustc/6b00bc3880198600130e1cf62b8f8a93494488cc/library/std/src/thread/spawnhook.rs:147 },
    DebugInfo { addr: 10cbd0, size: 32, name: _ZN68_$LT$std..thread..local..AccessError$u20$as$u20$core..fmt..Debug$GT$3fmt17hbff762e14df5205cE, location: /rustc/6b00bc3880198600130e1cf62b8f8a93494488cc/library/std/src/thread/local.rs:217 },
    DebugInfo { addr: 10cc10, size: 53, name: _ZN3std6thread5local18panic_access_error17haac738843e300904E, location: /rustc/6b00bc3880198600130e1cf62b8f8a93494488cc/library/std/src/thread/local.rs:236 },
    DebugInfo { addr: 10cc70, size: 74, name: _ZN3std6thread7Builder4name17h33680cdf96ba26beE, location: /rustc/6b00bc3880198600130e1cf62b8f8a93494488cc/library/std/src/thread/mod.rs:318 },
    DebugInfo { addr: 10ccf0, size: b, name: _ZN3std6thread9yield_now17h5ec1329af0087febE, location: /rustc/6b00bc3880198600130e1cf62b8f8a93494488cc/library/std/src/thread/mod.rs:765 },
    DebugInfo { addr: 10cd00, size: d1, name: _ZN3std6thread5sleep17ha6e93796dc1526dbE, location: /rustc/6b00bc3880198600130e1cf62b8f8a93494488cc/library/std/src/thread/mod.rs:886 },
    DebugInfo { addr: 10cde0, size: 46, name: _ZN65_$LT$std..thread..PanicGuard$u20$as$u20$core..ops..drop..Drop$GT$4drop17h2968683eefbfbd70E, location: /rustc/6b00bc3880198600130e1cf62b8f8a93494488cc/library/std/src/thread/mod.rs:975 },
    DebugInfo { addr: 10ce30, size: 110, name: _ZN3std6thread4park17h608d5a0c4bd0e89fE, location: /rustc/6b00bc3880198600130e1cf62b8f8a93494488cc/library/std/src/thread/mod.rs:1079 },
    DebugInfo { addr: 10cf40, size: 32, name: _ZN3std6thread8ThreadId3new17hdf5175a409569747E, location: /rustc/6b00bc3880198600130e1cf62b8f8a93494488cc/library/core/src/sync/atomic.rs:3829 },
    DebugInfo { addr: 10cf80, size: 3b, name: _ZN3std6thread8ThreadId3new9exhausted17he28d5ef02be2772eE, location: /rustc/6b00bc3880198600130e1cf62b8f8a93494488cc/library/std/src/thread/mod.rs:1192 },
    DebugInfo { addr: 10cfc0, size: f5, name: _ZN118_$LT$std..thread..thread_name_string..ThreadNameString$u20$as$u20$core..convert..From$LT$alloc..string..String$GT$$GT$4from17h1258ba312b61e5b5E, location: /rustc/6b00bc3880198600130e1cf62b8f8a93494488cc/library/std/src/thread/mod.rs:1268 },
    DebugInfo { addr: 10d0c0, size: d0, name: _ZN3std6thread6Thread3new17h1e1b0882db767f60E, location: /rustc/6b00bc3880198600130e1cf62b8f8a93494488cc/library/std/src/thread/mod.rs:1420 },
    DebugInfo { addr: 10d190, size: b5, name: _ZN3std6thread6Thread4park17h8be4bd6c4bef28ccE, location: /rustc/6b00bc3880198600130e1cf62b8f8a93494488cc/library/std/src/thread/mod.rs:1445 },
    DebugInfo { addr: 10d250, size: f4, name: _ZN3std6thread6Thread12park_timeout17hcfb596287cc5b9f4E, location: /rustc/6b00bc3880198600130e1cf62b8f8a93494488cc/library/std/src/thread/mod.rs:1454 },
    DebugInfo { addr: 10d350, size: 3c, name: _ZN3std6thread6Thread5cname17hfd09de3c5a806b76E, location: /rustc/6b00bc3880198600130e1cf62b8f8a93494488cc/library/std/src/thread/mod.rs:1611 },
    DebugInfo { addr: 10d390, size: 1b02, name: _ZN3std6thread21available_parallelism17hd91b7cd09c36abe3E, location: /rustc/6b00bc3880198600130e1cf62b8f8a93494488cc/library/std/src/thread/mod.rs:2026 },
    DebugInfo { addr: 10eea0, size: 223, name: _ZN3std9backtrace9Backtrace7capture17hb3e7e1447f8dfa14E, location: /rustc/6b00bc3880198600130e1cf62b8f8a93494488cc/library/std/src/backtrace.rs:292 },
    DebugInfo { addr: 10f0d0, size: 193, name: _ZN3std9backtrace9Backtrace6create17h51905b6f377b383bE, location: /rustc/6b00bc3880198600130e1cf62b8f8a93494488cc/library/std/src/backtrace.rs:325 },
    DebugInfo { addr: 10f270, size: 155, name: _ZN3std9backtrace9Backtrace6create28_$u7b$$u7b$closure$u7d$$u7d$17h3ff673e3bc098c66E, location: /rustc/6b00bc3880198600130e1cf62b8f8a93494488cc/library/std/src/backtrace.rs:331 },
    DebugInfo { addr: 10f3d0, size: 514, name: _ZN64_$LT$std..backtrace..Backtrace$u20$as$u20$core..fmt..Display$GT$3fmt17h407aded97e19fca4E, location: /rustc/6b00bc3880198600130e1cf62b8f8a93494488cc/library/std/src/backtrace.rs:383 },
    DebugInfo { addr: 10f8f0, size: 1da, name: _ZN3std3env11current_dir17h2d3897870c48da9aE, location: /rustc/6b00bc3880198600130e1cf62b8f8a93494488cc/library/std/src/env.rs:53 },
    DebugInfo { addr: 10fad0, size: 99, name: _ZN3std3env4_var17h22fbfdc381fa63f8E, location: /rustc/6b00bc3880198600130e1cf62b8f8a93494488cc/library/std/src/env.rs:226 },
    DebugInfo { addr: 10fb70, size: 169, name: _ZN3std3env7_var_os17h0495f0815c952e44E, location: /rustc/6b00bc3880198600130e1cf62b8f8a93494488cc/library/std/src/env.rs:263 },
    DebugInfo { addr: 10fce0, size: 1b8, name: _ZN3std3env11current_exe17hacf3e91bb1916d9fE, location: /rustc/6b00bc3880198600130e1cf62b8f8a93494488cc/library/std/src/env.rs:758 },
    DebugInfo { addr: 10fea0, size: 239, name: _ZN3std3env7args_os17hb25bf4acb3c6e8bdE, location: /rustc/6b00bc3880198600130e1cf62b8f8a93494488cc/library/std/src/env.rs:864 },
    DebugInfo { addr: 1100e0, size: 1f, name: _ZN62_$LT$std..ffi..os_str..Display$u20$as$u20$core..fmt..Debug$GT$3fmt17h8548b44fc544ee2eE, location: /rustc/6b00bc3880198600130e1cf62b8f8a93494488cc/library/std/src/ffi/os_str.rs:1632 },
    DebugInfo { addr: 110100, size: e4, name: _ZN64_$LT$std..ffi..os_str..Display$u20$as$u20$core..fmt..Display$GT$3fmt17h95e4287f53111669E, location: /rustc/6b00bc3880198600130e1cf62b8f8a93494488cc/library/std/src/ffi/os_str.rs:1639 },
    DebugInfo { addr: 1101f0, size: 182, name: _ZN3std2fs24buffer_capacity_required17hab2fdb567adeceadE, location: /rustc/6b00bc3880198600130e1cf62b8f8a93494488cc/library/std/src/fs.rs:1157 },
    DebugInfo { addr: 110380, size: fa, name: _ZN51_$LT$$RF$std..fs..File$u20$as$u20$std..io..Read$GT$14read_to_string17hb1563eed71000da0E, location: /rustc/6b00bc3880198600130e1cf62b8f8a93494488cc/library/std/src/fs.rs:1227 },
    DebugInfo { addr: 110480, size: 4d, name: _ZN47_$LT$std..fs..File$u20$as$u20$std..io..Read$GT$4read17hf284bf5a26c6d9d2E, location: /rustc/6b00bc3880198600130e1cf62b8f8a93494488cc/library/std/src/fs.rs:1309 },
    DebugInfo { addr: 1104d0, size: 4d, name: _ZN48_$LT$std..fs..File$u20$as$u20$std..io..Write$GT$5write17h1544c2442f4ba1d6E, location: /rustc/6b00bc3880198600130e1cf62b8f8a93494488cc/library/std/src/fs.rs:1331 },
    DebugInfo { addr: 1104d0, size: 4d, name: _ZN73_$LT$std..os..unix..net..stream..UnixStream$u20$as$u20$std..io..Write$GT$5write17hf94ae5675625321eE, location: /rustc/6b00bc3880198600130e1cf62b8f8a93494488cc/library/std/src/fs.rs:1331 },
    DebugInfo { addr: 1104d0, size: 4d, name: _ZN59_$LT$std..process..ChildStdin$u20$as$u20$std..io..Write$GT$5write17h120b32ec692791ebE, location: /rustc/6b00bc3880198600130e1cf62b8f8a93494488cc/library/std/src/fs.rs:1331 },
    DebugInfo { addr: 110520, size: 1ef, name: _ZN3std2fs11OpenOptions5_open17hde61930d447f72d3E, location: /rustc/6b00bc3880198600130e1cf62b8f8a93494488cc/library/std/src/fs.rs:1642 },
    DebugInfo { addr: 110710, size: b7, name: _ZN3std2fs10DirBuilder7_create17h1b45a740b7df27e7E, location: /rustc/6b00bc3880198600130e1cf62b8f8a93494488cc/library/std/src/fs.rs:3136 },
    DebugInfo { addr: 1107d0, size: 46a, name: _ZN3std2fs10DirBuilder14create_dir_all17h6c5eb20f04d60251E, location: /rustc/6b00bc3880198600130e1cf62b8f8a93494488cc/library/std/src/fs.rs:3139 },
    DebugInfo { addr: 110c40, size: 24d, name: _ZN3std2io8buffered9bufwriter18BufWriter$LT$W$GT$9flush_buf17h07e497946e4518b3E, location: /rustc/6b00bc3880198600130e1cf62b8f8a93494488cc/library/std/src/io/buffered/bufwriter.rs:195 },
    DebugInfo { addr: 110e90, size: 13b, name: _ZN3std2io8buffered9bufwriter18BufWriter$LT$W$GT$14write_all_cold17hd8ddc4ed7db7e536E, location: /rustc/6b00bc3880198600130e1cf62b8f8a93494488cc/library/std/src/io/buffered/bufwriter.rs:401 },
    DebugInfo { addr: 110fd0, size: b, name: _ZN58_$LT$std..io..error..Error$u20$as$u20$core..fmt..Debug$GT$3fmt17hddad94abc0471e03E, location: /rustc/6b00bc3880198600130e1cf62b8f8a93494488cc/library/std/src/io/error.rs:71 },
    DebugInfo { addr: 110fe0, size: 144, name: _ZN3std2io5error5Error3new17hd3c5e87eba616f03E, location: /rustc/6b00bc3880198600130e1cf62b8f8a93494488cc/library/std/src/io/error.rs:566 },
    DebugInfo { addr: 111130, size: 2e7, name: _ZN3std2io5error83_$LT$impl$u20$core..fmt..Debug$u20$for$u20$std..io..error..repr_bitpacked..Repr$GT$3fmt17h4b4fb75f960fb51cE, location: /rustc/6b00bc3880198600130e1cf62b8f8a93494488cc/library/std/src/io/error.rs:1014 },
    DebugInfo { addr: 111420, size: 270, name: _ZN60_$LT$std..io..error..Error$u20$as$u20$core..fmt..Display$GT$3fmt17h8f4b4c77661b5509E, location: /rustc/6b00bc3880198600130e1cf62b8f8a93494488cc/library/std/src/io/error.rs:1035 },
    DebugInfo { addr: 111690, size: 81, name: _ZN60_$LT$std..io..error..Error$u20$as$u20$core..error..Error$GT$11description17h276e899469d57ce4E, location: /rustc/6b00bc3880198600130e1cf62b8f8a93494488cc/library/std/src/io/error.rs:1051 },
    DebugInfo { addr: 111720, size: 21, name: _ZN60_$LT$std..io..error..Error$u20$as$u20$core..error..Error$GT$5cause17h5ef44dde5857f254E, location: /rustc/6b00bc3880198600130e1cf62b8f8a93494488cc/library/std/src/io/error/repr_bitpacked.rs:219 },
    DebugInfo { addr: 111750, size: 21, name: _ZN60_$LT$std..io..error..Error$u20$as$u20$core..error..Error$GT$6source17h5757b7115835f6c5E, location: /rustc/6b00bc3880198600130e1cf62b8f8a93494488cc/library/std/src/io/error/repr_bitpacked.rs:219 },
    DebugInfo { addr: 111780, size: 6b, name: _ZN3std2io5impls74_$LT$impl$u20$std..io..Write$u20$for$u20$alloc..vec..Vec$LT$u8$C$A$GT$$GT$5write17h70ef2d190f9bdea9E, location: /rustc/6b00bc3880198600130e1cf62b8f8a93494488cc/library/std/src/io/impls.rs:482 },
    DebugInfo { addr: 1117f0, size: 15a, name: _ZN3std2io5impls74_$LT$impl$u20$std..io..Write$u20$for$u20$alloc..vec..Vec$LT$u8$C$A$GT$$GT$14write_vectored17hb06c1e25beee6017E, location: /rustc/6b00bc3880198600130e1cf62b8f8a93494488cc/library/std/src/io/impls.rs:488 },
    DebugInfo { addr: 111950, size: 8, name: _ZN3std2io5impls74_$LT$impl$u20$std..io..Write$u20$for$u20$alloc..vec..Vec$LT$u8$C$A$GT$$GT$17is_write_vectored17hb400afa19aab5e35E, location: /rustc/6b00bc3880198600130e1cf62b8f8a93494488cc/library/std/src/io/impls.rs:498 },
    DebugInfo { addr: 111960, size: 67, name: _ZN3std2io5impls74_$LT$impl$u20$std..io..Write$u20$for$u20$alloc..vec..Vec$LT$u8$C$A$GT$$GT$9write_all17h5c84bca3bcf628acE, location: /rustc/6b00bc3880198600130e1cf62b8f8a93494488cc/library/std/src/io/impls.rs:503 },
    DebugInfo { addr: 1119d0, size: 13c, name: _ZN3std2io5impls74_$LT$impl$u20$std..io..Write$u20$for$u20$alloc..vec..Vec$LT$u8$C$A$GT$$GT$18write_all_vectored17h4a122b3f8b8bda63E, location: /rustc/6b00bc3880198600130e1cf62b8f8a93494488cc/library/core/src/ptr/non_null.rs:1620 },
    DebugInfo { addr: 111b10, size: 8, name: _ZN3std2io5impls74_$LT$impl$u20$std..io..Write$u20$for$u20$alloc..vec..Vec$LT$u8$C$A$GT$$GT$5flush17h65b568d92fa007f7E, location: /rustc/6b00bc3880198600130e1cf62b8f8a93494488cc/library/std/src/io/impls.rs:515 },
    DebugInfo { addr: 111b20, size: 25, name: _ZN3std2io5stdio5stdin17h522f8646cbcfeff3E, location: /rustc/6b00bc3880198600130e1cf62b8f8a93494488cc/library/core/src/sync/atomic.rs:3830 },
    DebugInfo { addr: 111b50, size: 25, name: _ZN3std2io5stdio6stdout17h24077edea8269616E, location: /rustc/6b00bc3880198600130e1cf62b8f8a93494488cc/library/core/src/sync/atomic.rs:3830 },
    DebugInfo { addr: 111b80, size: 1c, name: _ZN57_$LT$std..io..stdio..Stdout$u20$as$u20$std..io..Write$GT$5flush17ha472da5353fc43dbE, location: /rustc/6b00bc3880198600130e1cf62b8f8a93494488cc/library/std/src/io/stdio.rs:798 },
    DebugInfo { addr: 111ba0, size: 16a, name: _ZN61_$LT$$RF$std..io..stdio..Stdout$u20$as$u20$std..io..Write$GT$5flush17h9ca1900efff6aec6E, location: /rustc/6b00bc3880198600130e1cf62b8f8a93494488cc/library/std/src/io/stdio.rs:824 },
    DebugInfo { addr: 111d10, size: 26a, name: _ZN61_$LT$$RF$std..io..stdio..Stdout$u20$as$u20$std..io..Write$GT$9write_fmt17h0db0b57af9df0c8aE, location: /rustc/6b00bc3880198600130e1cf62b8f8a93494488cc/library/std/src/io/stdio.rs:833 },
    DebugInfo { addr: 111f80, size: 288, name: _ZN61_$LT$std..io..stdio..StdoutLock$u20$as$u20$std..io..Write$GT$9write_all17h124e724465a803c2E, location: /rustc/6b00bc3880198600130e1cf62b8f8a93494488cc/library/std/src/io/stdio.rs:859 },
    DebugInfo { addr: 112210, size: ba, name: _ZN3std2io5stdio6Stderr4lock17hd1bb9c5be3b5fdefE, location: /rustc/6b00bc3880198600130e1cf62b8f8a93494488cc/library/std/src/io/stdio.rs:997 },
    DebugInfo { addr: 112210, size: ba, name: _ZN3std2io5stdio6Stdout4lock17ha5f5a44ac91123e6E, location: /rustc/6b00bc3880198600130e1cf62b8f8a93494488cc/library/std/src/io/stdio.rs:997 },
    DebugInfo { addr: 1122d0, size: 26a, name: _ZN61_$LT$$RF$std..io..stdio..Stderr$u20$as$u20$std..io..Write$GT$9write_fmt17h6f566e7a34bb93d3E, location: /rustc/6b00bc3880198600130e1cf62b8f8a93494488cc/library/std/src/io/stdio.rs:1065 },
    DebugInfo { addr: 112540, size: 128, name: _ZN61_$LT$std..io..stdio..StderrLock$u20$as$u20$std..io..Write$GT$9write_all17h006efce2b24ab97cE, location: /rustc/6b00bc3880198600130e1cf62b8f8a93494488cc/library/std/src/io/stdio.rs:1091 },
    DebugInfo { addr: 112670, size: c3, name: _ZN3std2io5stdio22try_set_output_capture17hd4b0216193717702E, location: /rustc/6b00bc3880198600130e1cf62b8f8a93494488cc/library/std/src/io/stdio.rs:1131 },
    DebugInfo { addr: 112740, size: 250, name: _ZN3std2io5stdio31print_to_buffer_if_capture_used17h0fc85bc4808f7347E, location: /rustc/6b00bc3880198600130e1cf62b8f8a93494488cc/library/std/src/io/stdio.rs:1169 },
    DebugInfo { addr: 112990, size: e8, name: _ZN3std2io5stdio6_print17h915f3273edec6464E, location: /rustc/6b00bc3880198600130e1cf62b8f8a93494488cc/library/std/src/io/stdio.rs:1274 },
    DebugInfo { addr: 112a80, size: d6, name: _ZN3std2io5stdio7_eprint17h24e2b5fb5581b2f3E, location: /rustc/6b00bc3880198600130e1cf62b8f8a93494488cc/library/std/src/io/stdio.rs:1285 },
    DebugInfo { addr: 112b60, size: 30d, name: _ZN3std2io19default_read_to_end17h7ca4c35d13705ffeE, location: /rustc/6b00bc3880198600130e1cf62b8f8a93494488cc/library/std/src/io/mod.rs:409 },
    DebugInfo { addr: 112e70, size: f5, name: _ZN3std2io19default_read_to_end16small_probe_read17h88093c2a54b1148bE, location: /rustc/6b00bc3880198600130e1cf62b8f8a93494488cc/library/std/src/io/mod.rs:426 },
    DebugInfo { addr: 112f70, size: 98, name: _ZN81_$LT$std..io..default_write_fmt..Adapter$LT$T$GT$$u20$as$u20$core..fmt..Write$GT$9write_str17h163c7118a25ac3b8E, location: /rustc/6b00bc3880198600130e1cf62b8f8a93494488cc/library/std/src/io/mod.rs:627 },
    DebugInfo { addr: 113010, size: f2, name: _ZN81_$LT$std..io..default_write_fmt..Adapter$LT$T$GT$$u20$as$u20$core..fmt..Write$GT$9write_str17h5b52f91221b750f5E, location: /rustc/6b00bc3880198600130e1cf62b8f8a93494488cc/library/std/src/io/mod.rs:627 },
    DebugInfo { addr: 113110, size: 50, name: _ZN81_$LT$std..io..default_write_fmt..Adapter$LT$T$GT$$u20$as$u20$core..fmt..Write$GT$9write_str17h9d99316a2a396702E, location: /rustc/6b00bc3880198600130e1cf62b8f8a93494488cc/library/std/src/io/mod.rs:627 },
    DebugInfo { addr: 113160, size: 67, name: _ZN81_$LT$std..io..default_write_fmt..Adapter$LT$T$GT$$u20$as$u20$core..fmt..Write$GT$9write_str17he49d96955a49e170E, location: /rustc/6b00bc3880198600130e1cf62b8f8a93494488cc/library/std/src/io/mod.rs:627 },
    DebugInfo { addr: 1131d0, size: 50, name: _ZN81_$LT$std..io..default_write_fmt..Adapter$LT$T$GT$$u20$as$u20$core..fmt..Write$GT$9write_str17he5cb547b4dab3268E, location: /rustc/6b00bc3880198600130e1cf62b8f8a93494488cc/library/std/src/io/mod.rs:627 },
    DebugInfo { addr: 113220, size: b9, name: _ZN3std2io5Write9write_all17hfdbe1690329cbb85E, location: /rustc/6b00bc3880198600130e1cf62b8f8a93494488cc/library/std/src/io/mod.rs:1795 },
    DebugInfo { addr: 1132e0, size: 1cb, name: _ZN3std2io5Write18write_all_vectored17h3c4f43077b8d4a23E, location: /rustc/6b00bc3880198600130e1cf62b8f8a93494488cc/library/std/src/io/mod.rs:1857 },
    DebugInfo { addr: 1134b0, size: 12d, name: _ZN3std2io5Write9write_fmt17h2089d1c6c542767eE, location: /rustc/6b00bc3880198600130e1cf62b8f8a93494488cc/library/std/src/io/mod.rs:1910 },
    DebugInfo { addr: 1135e0, size: 12d, name: _ZN3std2io5Write9write_fmt17h561a66a0340b6995E, location: /rustc/6b00bc3880198600130e1cf62b8f8a93494488cc/library/std/src/io/mod.rs:1910 },
    DebugInfo { addr: 113710, size: 12d, name: _ZN3std2io5Write9write_fmt17hfb552b13b10253dcE, location: /rustc/6b00bc3880198600130e1cf62b8f8a93494488cc/library/std/src/io/mod.rs:1910 },
    DebugInfo { addr: 113840, size: c9, name: _ZN3std5panic19get_backtrace_style17hf22aa94dc7be5a6eE, location: /rustc/6b00bc3880198600130e1cf62b8f8a93494488cc/library/core/src/sync/atomic.rs:3829 },
    DebugInfo { addr: 113910, size: 14d, name: _ZN3std4path10Components15len_before_body17hafc171aa8eb80194E, location: /rustc/6b00bc3880198600130e1cf62b8f8a93494488cc/library/std/src/path.rs:375 },
    DebugInfo { addr: 113a60, size: 385, name: _ZN3std4path10Components7as_path17he3077725ece9d5fbE, location: /rustc/6b00bc3880198600130e1cf62b8f8a93494488cc/library/std/src/path.rs:694 },
    DebugInfo { addr: 113df0, size: ea, name: _ZN3std4path10Components25parse_next_component_back17hf70057fb296c601aE, location: /rustc/6b00bc3880198600130e1cf62b8f8a93494488cc/library/std/src/path.rs:759 },
    DebugInfo { addr: 113ee0, size: 3a2, name: _ZN80_$LT$std..path..Components$u20$as$u20$core..iter..traits..iterator..Iterator$GT$4next17h2c14b7897081e5e1E, location: /rustc/6b00bc3880198600130e1cf62b8f8a93494488cc/library/std/src/path.rs:889 },
    DebugInfo { addr: 114290, size: 3b5, name: _ZN95_$LT$std..path..Components$u20$as$u20$core..iter..traits..double_ended..DoubleEndedIterator$GT$9next_back17hf49c6d439bd75fc4E, location: /rustc/6b00bc3880198600130e1cf62b8f8a93494488cc/library/std/src/path.rs:940 },
    DebugInfo { addr: 114650, size: 25e, name: _ZN62_$LT$std..path..Components$u20$as$u20$core..cmp..PartialEq$GT$2eq17h3664336cb1d276bcE, location: /rustc/6b00bc3880198600130e1cf62b8f8a93494488cc/library/std/src/path.rs:991 },
    DebugInfo { addr: 1148b0, size: c1, name: _ZN3std4path7PathBuf3pop17ha27433acc619b4c9E, location: /rustc/6b00bc3880198600130e1cf62b8f8a93494488cc/library/std/src/path.rs:1395 },
    DebugInfo { addr: 114980, size: 34e, name: _ZN3std4path7PathBuf14_set_extension17h23f0cae1114e6dd7E, location: /rustc/6b00bc3880198600130e1cf62b8f8a93494488cc/library/std/src/path.rs:1518 },
    DebugInfo { addr: 114cd0, size: 5f, name: _ZN3std4path4Path9file_name17h1fd5491166767303E, location: /rustc/6b00bc3880198600130e1cf62b8f8a93494488cc/library/std/src/path.rs:304 },
    DebugInfo { addr: 114d30, size: 2ed, name: _ZN3std4path4Path13_strip_prefix17hc60a3c2bf32b245aE, location: /rustc/6b00bc3880198600130e1cf62b8f8a93494488cc/library/std/src/path.rs:2524 },
    DebugInfo { addr: 115020, size: 1f1, name: _ZN3std4path4Path12_starts_with17hf6758a65668e265fE, location: /rustc/6b00bc3880198600130e1cf62b8f8a93494488cc/library/std/src/path.rs:2558 },
    DebugInfo { addr: 115220, size: c1, name: _ZN3std4path4Path9file_stem17hd9e1cd373b97033dE, location: /rustc/6b00bc3880198600130e1cf62b8f8a93494488cc/library/std/src/path.rs:304 },
    DebugInfo { addr: 1152f0, size: 192, name: _ZN3std4path4Path5_join17h3f790f31de26b70dE, location: /rustc/6b00bc3880198600130e1cf62b8f8a93494488cc/library/std/src/path.rs:2701 },
    DebugInfo { addr: 115490, size: e1, name: _ZN3std4path4Path7is_file17h5253bb5eb0022126E, location: /rustc/6b00bc3880198600130e1cf62b8f8a93494488cc/library/std/src/path.rs:3099 },
    DebugInfo { addr: 115580, size: e1, name: _ZN3std4path4Path6is_dir17hc18b17a1f237b385E, location: /rustc/6b00bc3880198600130e1cf62b8f8a93494488cc/library/std/src/path.rs:3126 },
    DebugInfo { addr: 115670, size: b, name: _ZN57_$LT$std..path..Display$u20$as$u20$core..fmt..Display$GT$3fmt17he0167703036885c8E, location: /rustc/6b00bc3880198600130e1cf62b8f8a93494488cc/library/std/src/path.rs:3232 },
    DebugInfo { addr: 115680, size: 14, name: _ZN3std7process4exit17h2f22ed21bfeb17bbE, location: /rustc/6b00bc3880198600130e1cf62b8f8a93494488cc/library/std/src/process.rs:2432 },
    DebugInfo { addr: 1156a0, size: a, name: _ZN3std7process5abort17h74511507ccd5ab25E, location: /rustc/6b00bc3880198600130e1cf62b8f8a93494488cc/library/std/src/process.rs:2498 },
    DebugInfo { addr: 1156b0, size: b, name: _ZN3std7process2id17h6eb04a9fc9eafa8bE, location: /rustc/6b00bc3880198600130e1cf62b8f8a93494488cc/library/std/src/process.rs:2513 },
    DebugInfo { addr: 1156c0, size: 15f, name: _ZN3std4sync4mpmc7context7Context3new17he7c0011d1c4eac03E, location: /rustc/6b00bc3880198600130e1cf62b8f8a93494488cc/library/std/src/sync/mpmc/context.rs:67 },
    DebugInfo { addr: 115820, size: 27c, name: _ZN3std4sync6poison4once4Once9call_once28_$u7b$$u7b$closure$u7d$$u7d$17h084b1677c2f2a746E, location: /rustc/6b00bc3880198600130e1cf62b8f8a93494488cc/library/std/src/sync/poison/once.rs:155 },
    DebugInfo { addr: 115aa0, size: 1de, name: _ZN3std4sync6poison4once4Once9call_once28_$u7b$$u7b$closure$u7d$$u7d$17h93ab614b47dc146dE, location: /rustc/6b00bc3880198600130e1cf62b8f8a93494488cc/library/std/src/sync/poison/once.rs:155 },
    DebugInfo { addr: 115c80, size: 87, name: _ZN3std4sync6poison4once4Once15call_once_force28_$u7b$$u7b$closure$u7d$$u7d$17h60558ec46706fbe7E, location: /rustc/6b00bc3880198600130e1cf62b8f8a93494488cc/library/std/src/sync/poison/once.rs:214 },
    DebugInfo { addr: 115d10, size: ab, name: _ZN3std4sync6poison4once4Once15call_once_force28_$u7b$$u7b$closure$u7d$$u7d$17h91b65117b940796cE, location: /rustc/6b00bc3880198600130e1cf62b8f8a93494488cc/library/std/src/sync/poison/once.rs:214 },
    DebugInfo { addr: 115dc0, size: 88, name: _ZN3std4sync6poison4once4Once15call_once_force28_$u7b$$u7b$closure$u7d$$u7d$17h981ea6cb6d7ba1f2E, location: /rustc/6b00bc3880198600130e1cf62b8f8a93494488cc/library/std/src/sync/poison/once.rs:214 },
    DebugInfo { addr: 115e50, size: 49, name: _ZN3std4sync6poison4once4Once15call_once_force28_$u7b$$u7b$closure$u7d$$u7d$17ha8fd905eb0b2f405E, location: /rustc/6b00bc3880198600130e1cf62b8f8a93494488cc/library/std/src/sync/poison/once.rs:214 },
    DebugInfo { addr: 115ea0, size: 32, name: _ZN76_$LT$std..sync..poison..PoisonError$LT$T$GT$$u20$as$u20$core..fmt..Debug$GT$3fmt17hcf310265a1cb644eE, location: /rustc/6b00bc3880198600130e1cf62b8f8a93494488cc/library/std/src/sync/poison.rs:251 },
    DebugInfo { addr: 115ee0, size: 2ed, name: _ZN3std4sync7barrier7Barrier4wait17h061bf34d65e6ac54E, location: /rustc/6b00bc3880198600130e1cf62b8f8a93494488cc/library/std/src/sync/barrier.rs:120 },
    DebugInfo { addr: 1161cd, size: 59, name: _ZN3std4sync9once_lock17OnceLock$LT$T$GT$10initialize17h06976520ae46f9b7E, location: /rustc/6b00bc3880198600130e1cf62b8f8a93494488cc/library/core/src/sync/atomic.rs:3830 },
    DebugInfo { addr: 116226, size: 7b, name: _ZN3std4sync9once_lock17OnceLock$LT$T$GT$10initialize17h0b158d8d767417c5E, location: /rustc/6b00bc3880198600130e1cf62b8f8a93494488cc/library/std/src/sync/once_lock.rs:508 },
    DebugInfo { addr: 1162a1, size: 55, name: _ZN3std4sync9once_lock17OnceLock$LT$T$GT$10initialize17h2392bf50f07ef956E, location: /rustc/6b00bc3880198600130e1cf62b8f8a93494488cc/library/core/src/sync/atomic.rs:3830 },
    DebugInfo { addr: 1162f6, size: 55, name: _ZN3std4sync9once_lock17OnceLock$LT$T$GT$10initialize17h8b512493707c3c4aE, location: /rustc/6b00bc3880198600130e1cf62b8f8a93494488cc/library/core/src/sync/atomic.rs:3830 },
    DebugInfo { addr: 116350, size: f, name: _ZN3std4time7Instant3now17h6036b261e8d122edE, location: /rustc/6b00bc3880198600130e1cf62b8f8a93494488cc/library/std/src/time.rs:288 },
    DebugInfo { addr: 116360, size: 39, name: _ZN3std4time7Instant14duration_since17h60861f16add11f5dE, location: /rustc/6b00bc3880198600130e1cf62b8f8a93494488cc/library/std/src/time.rs:317 },
    DebugInfo { addr: 116360, size: 39, name: _ZN3std4time7Instant25saturating_duration_since17h78e9106f31df1e75E, location: /rustc/6b00bc3880198600130e1cf62b8f8a93494488cc/library/std/src/time.rs:317 },
    DebugInfo { addr: 1163a0, size: 53, name: _ZN3std4time7Instant7elapsed17hff32a7e69fef8150E, location: /rustc/6b00bc3880198600130e1cf62b8f8a93494488cc/library/std/src/time.rs:391 },
    DebugInfo { addr: 116400, size: 3e, name: _ZN60_$LT$std..time..Instant$u20$as$u20$core..ops..arith..Sub$GT$3sub17h9c075e1189fa0b2fE, location: /rustc/6b00bc3880198600130e1cf62b8f8a93494488cc/library/std/src/time.rs:462 },
    DebugInfo { addr: 116440, size: c3, name: _ZN3std3sys3pal6common14small_c_string24run_with_cstr_allocating17h19a0b2523abb9979E, location: /rustc/6b00bc3880198600130e1cf62b8f8a93494488cc/library/std/src/sys/pal/common/small_c_string.rs:55 },
    DebugInfo { addr: 116510, size: 93, name: _ZN3std3sys3pal6common14small_c_string24run_with_cstr_allocating17h1c8f6ef1329eea31E, location: /rustc/6b00bc3880198600130e1cf62b8f8a93494488cc/library/std/src/sys/pal/common/small_c_string.rs:55 },
    DebugInfo { addr: 1165b0, size: aa, name: _ZN3std3sys3pal6common14small_c_string24run_with_cstr_allocating17h93a82700ef7b0403E, location: /rustc/6b00bc3880198600130e1cf62b8f8a93494488cc/library/std/src/sys/pal/common/small_c_string.rs:55 },
    DebugInfo { addr: 116660, size: bd, name: _ZN3std3sys3pal6common14small_c_string24run_with_cstr_allocating17hd8920f75963f46d4E, location: /rustc/6b00bc3880198600130e1cf62b8f8a93494488cc/library/std/src/sys/pal/common/small_c_string.rs:55 },
    DebugInfo { addr: 116720, size: b8, name: _ZN3std3sys3pal6common14small_c_string24run_with_cstr_allocating17hef3ae4ea53f5e55dE, location: /rustc/6b00bc3880198600130e1cf62b8f8a93494488cc/library/std/src/sys/pal/common/small_c_string.rs:55 },
    DebugInfo { addr: 1167e0, size: 63, name: _ZN3std3sys9backtrace4lock17h9c8d4bcc3fc8f220E, location: /rustc/6b00bc3880198600130e1cf62b8f8a93494488cc/library/std/src/sys/backtrace.rs:16 },
    DebugInfo { addr: 116850, size: 58, name: _ZN3std3sys9backtrace13BacktraceLock5print17hafb9d5969adc39a0E, location: /rustc/6b00bc3880198600130e1cf62b8f8a93494488cc/library/std/src/sys/backtrace.rs:25 },
    DebugInfo { addr: 1168b0, size: 271, name: _ZN98_$LT$std..sys..backtrace..BacktraceLock..print..DisplayBacktrace$u20$as$u20$core..fmt..Display$GT$3fmt17h46a716bba2450163E, location: /rustc/6b00bc3880198600130e1cf62b8f8a93494488cc/library/std/src/sys/backtrace.rs:38 },
    DebugInfo { addr: 116b30, size: 1f, name: _ZN3std3sys9backtrace10_print_fmt28_$u7b$$u7b$closure$u7d$$u7d$17h54fd42bf9c73c249E, location: /rustc/6b00bc3880198600130e1cf62b8f8a93494488cc/library/std/src/sys/backtrace.rs:51 },
    DebugInfo { addr: 116b50, size: 14c, name: _ZN3std3sys9backtrace10_print_fmt28_$u7b$$u7b$closure$u7d$$u7d$17h5f2b45e1c9b2f198E, location: /rustc/6b00bc3880198600130e1cf62b8f8a93494488cc/library/std/src/sys/backtrace.rs:66 },
    DebugInfo { addr: 116ca0, size: 298, name: _ZN3std3sys9backtrace10_print_fmt28_$u7b$$u7b$closure$u7d$$u7d$28_$u7b$$u7b$closure$u7d$$u7d$17hc1bbb2be2d8fdf68E, location: /rustc/6b00bc3880198600130e1cf62b8f8a93494488cc/library/std/src/sys/backtrace.rs:72 },
    DebugInfo { addr: 116f40, size: 9, name: _ZN3std3sys9backtrace26__rust_end_short_backtrace17h5b56844d75e766fcE, location: /rustc/6b00bc3880198600130e1cf62b8f8a93494488cc/library/std/src/sys/backtrace.rs:164 },
    DebugInfo { addr: 116f50, size: 119, name: _ZN3std3sys9backtrace15output_filename17h095cb4e9ea829c87E, location: /rustc/6b00bc3880198600130e1cf62b8f8a93494488cc/library/std/src/sys/backtrace.rs:179 },
    DebugInfo { addr: 117070, size: 148, name: _ZN3std3sys2fs8metadata17h012189a03f551c9aE, location: /rustc/6b00bc3880198600130e1cf62b8f8a93494488cc/library/std/src/sys/fs/mod.rs:99 },
    DebugInfo { addr: 1171c0, size: 130, name: _ZN3std3sys2fs6exists17hc97bd82527fada2cE, location: /rustc/6b00bc3880198600130e1cf62b8f8a93494488cc/library/std/src/sys/fs/mod.rs:123 },
    DebugInfo { addr: 1172f0, size: 46, name: _ZN103_$LT$std..sys..thread_local..abort_on_dtor_unwind..DtorUnwindGuard$u20$as$u20$core..ops..drop..Drop$GT$4drop17h06725b4f736eef5eE, location: /rustc/6b00bc3880198600130e1cf62b8f8a93494488cc/library/std/src/sys/thread_local/mod.rs:194 },
    DebugInfo { addr: 117340, size: 158, name: _ZN3std5alloc24default_alloc_error_hook17h9d915082fe2a7333E, location: /rustc/6b00bc3880198600130e1cf62b8f8a93494488cc/library/std/src/alloc.rs:347 },
    DebugInfo { addr: 1174a0, size: 5d, name: _RNvCs691rhTbG0Ee_7___rustc11___rdl_alloc, location: /rustc/6b00bc3880198600130e1cf62b8f8a93494488cc/library/std/src/alloc.rs:397 },
    DebugInfo { addr: 117500, size: b, name: _RNvCs691rhTbG0Ee_7___rustc13___rdl_dealloc, location: /rustc/6b00bc3880198600130e1cf62b8f8a93494488cc/library/std/src/alloc.rs:407 },
    DebugInfo { addr: 117510, size: a7, name: _RNvCs691rhTbG0Ee_7___rustc13___rdl_realloc, location: /rustc/6b00bc3880198600130e1cf62b8f8a93494488cc/library/std/src/alloc.rs:414 },
    DebugInfo { addr: 1175c0, size: 8c, name: _RNvCs691rhTbG0Ee_7___rustc18___rdl_alloc_zeroed, location: /rustc/6b00bc3880198600130e1cf62b8f8a93494488cc/library/std/src/alloc.rs:429 },
    DebugInfo { addr: 117650, size: c7, name: _RNvCs691rhTbG0Ee_7___rustc17___rust_drop_panic, location: /rustc/6b00bc3880198600130e1cf62b8f8a93494488cc/library/std/src/panicking.rs:74 },
    DebugInfo { addr: 117720, size: c7, name: _RNvCs691rhTbG0Ee_7___rustc24___rust_foreign_exception, location: /rustc/6b00bc3880198600130e1cf62b8f8a93494488cc/library/std/src/panicking.rs:82 },
    DebugInfo { addr: 1177e7, size: 1a2, name: _ZN3std9panicking12default_hook17h3db1b505cfc4eb79E, location: /rustc/6b00bc3880198600130e1cf62b8f8a93494488cc/library/std/src/panicking.rs:248 },
    DebugInfo { addr: 117989, size: 18e, name: _ZN3std9panicking12default_hook28_$u7b$$u7b$closure$u7d$$u7d$17hae2e97a5c4b2b777E, location: /rustc/6b00bc3880198600130e1cf62b8f8a93494488cc/library/std/src/panicking.rs:265 },
    DebugInfo { addr: 117b20, size: 2e0, name: _ZN3std9panicking12default_hook28_$u7b$$u7b$closure$u7d$$u7d$28_$u7b$$u7b$closure$u7d$$u7d$17h1d937a3e1c6b042dE, location: /rustc/6b00bc3880198600130e1cf62b8f8a93494488cc/library/std/src/panicking.rs:270 },
    DebugInfo { addr: 117e00, size: 48, name: _ZN3std9panicking11panic_count8increase17h6d60c59d2d10d72eE, location: /rustc/6b00bc3880198600130e1cf62b8f8a93494488cc/library/std/src/panicking.rs:426 },
    DebugInfo { addr: 117e50, size: 1d, name: _ZN3std9panicking11panic_count17is_zero_slow_path17h93d4206a805079bdE, location: /rustc/6b00bc3880198600130e1cf62b8f8a93494488cc/library/std/src/panicking.rs:492 },
    DebugInfo { addr: 117e6d, size: 43, name: _ZN3std9panicking3try7cleanup17h4f490ddeca09e89cE, location: /rustc/6b00bc3880198600130e1cf62b8f8a93494488cc/library/std/src/panicking.rs:565 },
    DebugInfo { addr: 117eb0, size: 1d, name: _RNvCs691rhTbG0Ee_7___rustc17rust_begin_unwind, location: /rustc/6b00bc3880198600130e1cf62b8f8a93494488cc/library/std/src/panicking.rs:630 },
    DebugInfo { addr: 117ed0, size: 12a, name: _ZN102_$LT$std..panicking..begin_panic_handler..FormatStringPayload$u20$as$u20$core..panic..PanicPayload$GT$8take_box17h9fe4b4681316a900E, location: /rustc/6b00bc3880198600130e1cf62b8f8a93494488cc/library/std/src/panicking.rs:650 },
    DebugInfo { addr: 118000, size: a9, name: _ZN102_$LT$std..panicking..begin_panic_handler..FormatStringPayload$u20$as$u20$core..panic..PanicPayload$GT$3get17h86980894e1a04e09E, location: /rustc/6b00bc3880198600130e1cf62b8f8a93494488cc/library/std/src/panicking.rs:658 },
    DebugInfo { addr: 1180b0, size: 58, name: _ZN95_$LT$std..panicking..begin_panic_handler..FormatStringPayload$u20$as$u20$core..fmt..Display$GT$3fmt17hde1d5ce5b72237a1E, location: /rustc/6b00bc3880198600130e1cf62b8f8a93494488cc/library/std/src/panicking.rs:664 },
    DebugInfo { addr: 118110, size: 50, name: _ZN99_$LT$std..panicking..begin_panic_handler..StaticStrPayload$u20$as$u20$core..panic..PanicPayload$GT$8take_box17h9f692f74f3e46aa8E, location: /rustc/6b00bc3880198600130e1cf62b8f8a93494488cc/library/std/src/panicking.rs:676 },
    DebugInfo { addr: 118160, size: 10, name: _ZN99_$LT$std..panicking..begin_panic_handler..StaticStrPayload$u20$as$u20$core..panic..PanicPayload$GT$3get17hbeb2faf219e70c8bE, location: /rustc/6b00bc3880198600130e1cf62b8f8a93494488cc/library/std/src/panicking.rs:680 },
    DebugInfo { addr: 118170, size: d, name: _ZN99_$LT$std..panicking..begin_panic_handler..StaticStrPayload$u20$as$u20$core..panic..PanicPayload$GT$6as_str17h7533090c44773266E, location: /rustc/6b00bc3880198600130e1cf62b8f8a93494488cc/library/std/src/panicking.rs:684 },
    DebugInfo { addr: 118180, size: 18, name: _ZN92_$LT$std..panicking..begin_panic_handler..StaticStrPayload$u20$as$u20$core..fmt..Display$GT$3fmt17h8196b3a4bceae169E, location: /rustc/6b00bc3880198600130e1cf62b8f8a93494488cc/library/std/src/panicking.rs:690 },
    DebugInfo { addr: 1181a0, size: d2, name: _ZN3std9panicking19begin_panic_handler28_$u7b$$u7b$closure$u7d$$u7d$17h159b61b27f96a9c2E, location: /rustc/6b00bc3880198600130e1cf62b8f8a93494488cc/library/std/src/panicking.rs:697 },
    DebugInfo { addr: 118280, size: 83, name: _ZN3std9panicking14payload_as_str17hc20bc10c6236f70fE, location: /rustc/6b00bc3880198600130e1cf62b8f8a93494488cc/library/std/src/panicking.rs:779 },
    DebugInfo { addr: 118303, size: 279, name: _ZN3std9panicking20rust_panic_with_hook17h409da73ddef13937E, location: /rustc/6b00bc3880198600130e1cf62b8f8a93494488cc/library/std/src/panicking.rs:795 },
    DebugInfo { addr: 118580, size: 6f, name: _RNvCs691rhTbG0Ee_7___rustc10rust_panic, location: /rustc/6b00bc3880198600130e1cf62b8f8a93494488cc/library/std/src/panicking.rs:893 },
    DebugInfo { addr: 1185f0, size: cf, name: _ZN3std12backtrace_rs9symbolize6Symbol4name17h57ff458302c7430cE, location: /rustc/6b00bc3880198600130e1cf62b8f8a93494488cc/library/std/src/../../backtrace/src/symbolize/mod.rs:207 },
    DebugInfo { addr: 1186c0, size: d6, name: _ZN79_$LT$std..backtrace_rs..symbolize..SymbolName$u20$as$u20$core..fmt..Display$GT$3fmt17h997ed81802f2cd0fE, location: /rustc/6b00bc3880198600130e1cf62b8f8a93494488cc/library/std/src/../../backtrace/src/symbolize/mod.rs:369 },
    DebugInfo { addr: 1187a0, size: 3b1, name: _ZN3std12backtrace_rs5print17BacktraceFrameFmt21print_raw_with_column17hf1978358a9a5b310E, location: /rustc/6b00bc3880198600130e1cf62b8f8a93494488cc/library/std/src/../../backtrace/src/print.rs:198 },
    DebugInfo { addr: 118b60, size: 1cb, name: _ZN3std12backtrace_rs5print17BacktraceFrameFmt14print_fileline17hbaa978449716309cE, location: /rustc/6b00bc3880198600130e1cf62b8f8a93494488cc/library/std/src/../../backtrace/src/print.rs:268 },
    DebugInfo { addr: 118d30, size: 251, name: _ZN3std9backtrace6helper12lazy_resolve28_$u7b$$u7b$closure$u7d$$u7d$28_$u7b$$u7b$closure$u7d$$u7d$17h6ee7fd4e9047121aE, location: /rustc/6b00bc3880198600130e1cf62b8f8a93494488cc/library/std/src/backtrace.rs:450 },
    DebugInfo { addr: 118f90, size: 2d, name: _ZN62_$LT$std..io..error..ErrorKind$u20$as$u20$core..fmt..Debug$GT$3fmt17hea670263d63b1087E, location: /rustc/6b00bc3880198600130e1cf62b8f8a93494488cc/library/std/src/io/error.rs:220 },
    DebugInfo { addr: 118fc0, size: be, name: _ZN61_$LT$std..path..Component$u20$as$u20$core..cmp..PartialEq$GT$2eq17hc57a21ac99340e46E, location: /rustc/6b00bc3880198600130e1cf62b8f8a93494488cc/library/std/src/path.rs:500 },
    DebugInfo { addr: 119080, size: 35, name: _ZN64_$LT$std..path..StripPrefixError$u20$as$u20$core..fmt..Debug$GT$3fmt17haf31af66e1ec4e13E, location: /rustc/6b00bc3880198600130e1cf62b8f8a93494488cc/library/std/src/path.rs:2153 },
    DebugInfo { addr: 1190c0, size: 4c, name: _ZN3std3sys3pal4unix4weak18DlsymWeak$LT$F$GT$10initialize17h8d0c9e230dce0f35E, location: /rustc/6b00bc3880198600130e1cf62b8f8a93494488cc/library/std/src/sys/pal/unix/weak.rs:132 },
    DebugInfo { addr: 119110, size: 26, name: _ZN3std3sys3pal4unix5futex10futex_wake17hf8d313f7ba9f1baeE, location: /rustc/6b00bc3880198600130e1cf62b8f8a93494488cc/library/std/src/sys/pal/unix/futex.rs:102 },
    DebugInfo { addr: 119140, size: 15, name: _ZN3std3sys3pal4unix2os4exit17h1bc7fb1aa8c0612bE, location: /rustc/6b00bc3880198600130e1cf62b8f8a93494488cc/library/std/src/sys/pal/unix/os.rs:688 },
    DebugInfo { addr: 119160, size: f0, name: _ZN3std3sys3pal4unix14stack_overflow3imp14signal_handler17h5c559957849c4cb9E, location: /rustc/6b00bc3880198600130e1cf62b8f8a93494488cc/library/std/src/sys/pal/unix/stack_overflow.rs:91 },
    DebugInfo { addr: 119250, size: 110, name: _ZN3std3sys3pal4unix14stack_overflow3imp14signal_handler28_$u7b$$u7b$closure$u7d$$u7d$17hd955422799cec8b2E, location: /rustc/6b00bc3880198600130e1cf62b8f8a93494488cc/library/std/src/sys/pal/unix/stack_overflow.rs:103 },
    DebugInfo { addr: 119360, size: 384, name: _ZN3std3sys3pal4unix14stack_overflow3imp12make_handler17h200b70bc6b88337dE, location: /rustc/6b00bc3880198600130e1cf62b8f8a93494488cc/library/std/src/sys/pal/unix/stack_overflow.rs:211 },
    DebugInfo { addr: 1196f0, size: 29c, name: _ZN3std3sys3pal4unix6thread6Thread3new17hdb19f87c63e0e024E, location: /rustc/6b00bc3880198600130e1cf62b8f8a93494488cc/library/std/src/sys/pal/unix/thread.rs:37 },
    DebugInfo { addr: 119990, size: fc, name: _ZN3std3sys3pal4unix6thread6Thread3new12thread_start17h1822d22fde68314fE, location: /rustc/6b00bc3880198600130e1cf62b8f8a93494488cc/library/std/src/sys/pal/unix/thread.rs:91 },
    DebugInfo { addr: 119a90, size: 61, name: _ZN3std3sys3pal4unix6thread6Thread8set_name17h4d381d99d2a8fd31E, location: /rustc/6b00bc3880198600130e1cf62b8f8a93494488cc/library/std/src/sys/pal/unix/thread.rs:131 },
    DebugInfo { addr: 119b00, size: e, name: _ZN77_$LT$std..sys..pal..unix..thread..Thread$u20$as$u20$core..ops..drop..Drop$GT$4drop17hb579d24ba385c22aE, location: /rustc/6b00bc3880198600130e1cf62b8f8a93494488cc/library/std/src/sys/pal/unix/thread.rs:323 },
    DebugInfo { addr: 119b10, size: 3c7, name: _ZN3std3sys3pal4unix6thread7cgroups8quota_v128_$u7b$$u7b$closure$u7d$$u7d$17hc5284007578bb891E, location: /rustc/6b00bc3880198600130e1cf62b8f8a93494488cc/library/std/src/sys/pal/unix/thread.rs:667 },
    DebugInfo { addr: 119ee0, size: b31, name: _ZN3std3sys3pal4unix6thread7cgroups15find_mountpoint17h679cc1c2c2fccd2cE, location: /rustc/6b00bc3880198600130e1cf62b8f8a93494488cc/library/std/src/sys/pal/unix/thread.rs:702 },
    DebugInfo { addr: 11aa20, size: c9, name: _ZN3std3sys3pal4unix4time8Timespec3now17he0e91844bf6f21a2E, location: /rustc/6b00bc3880198600130e1cf62b8f8a93494488cc/library/std/src/sys/pal/unix/time.rs:99 },
    DebugInfo { addr: 11aaf0, size: cb, name: _ZN3std3sys3pal4unix4time8Timespec12sub_timespec17h7b0e3b91866b52c1E, location: /rustc/6b00bc3880198600130e1cf62b8f8a93494488cc/library/std/src/sys/pal/unix/time.rs:136 },
    DebugInfo { addr: 11abc0, size: b7, name: _ZN3std3sys3pal4unix17decode_error_kind17hfd0fddd80bf85f26E, location: /rustc/6b00bc3880198600130e1cf62b8f8a93494488cc/library/std/src/sys/pal/unix/mod.rs:237 },
    DebugInfo { addr: 11ac80, size: a, name: _ZN3std3sys3pal4unix14abort_internal17h6de20db1dabd0368E, location: /rustc/6b00bc3880198600130e1cf62b8f8a93494488cc/library/std/src/sys/pal/unix/mod.rs:365 },
    DebugInfo { addr: 11ac90, size: 11, name: _ZN3std3sys11personality3gcc14find_eh_action28_$u7b$$u7b$closure$u7d$$u7d$17hc83ce98a73021e5cE, location: /rustc/6b00bc3880198600130e1cf62b8f8a93494488cc/library/std/src/sys/personality/gcc.rs:333 },
    DebugInfo { addr: 11acb0, size: 11, name: _ZN3std3sys11personality3gcc14find_eh_action28_$u7b$$u7b$closure$u7d$$u7d$17ha45f1a9a417df297E, location: /rustc/6b00bc3880198600130e1cf62b8f8a93494488cc/library/std/src/sys/personality/gcc.rs:334 },
    DebugInfo { addr: 11acd0, size: 616, name: rust_eh_personality, location: /rustc/6b00bc3880198600130e1cf62b8f8a93494488cc/library/std/src/sys/personality/gcc.rs:297 },
    DebugInfo { addr: 11b2f0, size: 17, name: _ZN3std3sys4args4unix3imp15ARGV_INIT_ARRAY12init_wrapper17ha2ca0aed27ecc9d1E, location: /rustc/6b00bc3880198600130e1cf62b8f8a93494488cc/library/std/src/sys/args/unix.rs:126 },
    DebugInfo { addr: 11b310, size: 15b, name: _ZN3std3sys3env4unix6getenv28_$u7b$$u7b$closure$u7d$$u7d$17h4356c1fea84fde45E, location: /rustc/6b00bc3880198600130e1cf62b8f8a93494488cc/library/std/src/sys/env/unix.rs:95 },
    DebugInfo { addr: 11b470, size: 46, name: _ZN3std3sys10exit_guard18unique_thread_exit17h2f96313b56ec48dcE, location: /rustc/6b00bc3880198600130e1cf62b8f8a93494488cc/library/std/src/sys/exit_guard.rs:23 },
    DebugInfo { addr: 11b4c0, size: 13e, name: _ZN3std3sys2fs4unix4File6open_c17ha15054cdd5a2ceffE, location: /rustc/6b00bc3880198600130e1cf62b8f8a93494488cc/library/std/src/sys/fs/unix.rs:1176 },
    DebugInfo { addr: 11b600, size: 30, name: _ZN3std3sys2fs4unix10DirBuilder5mkdir28_$u7b$$u7b$closure$u7d$$u7d$17had3f32e51e832156E, location: /rustc/6b00bc3880198600130e1cf62b8f8a93494488cc/library/std/src/sys/fs/unix.rs:1587 },
    DebugInfo { addr: 11b630, size: 1da, name: _ZN3std3sys2fs4unix8readlink17h9c8c6556630c0d34E, location: /rustc/6b00bc3880198600130e1cf62b8f8a93494488cc/library/std/src/sys/fs/unix.rs:1849 },
    DebugInfo { addr: 11b810, size: d4, name: _ZN3std3sys2fs4unix12canonicalize17h003b96f633afb820E, location: /rustc/6b00bc3880198600130e1cf62b8f8a93494488cc/library/std/src/sys/fs/unix.rs:1931 },
    DebugInfo { addr: 11b8f0, size: 2c8, name: _ZN3std3sys2fs4unix9try_statx17h9829f7719a7500f0E, location: /rustc/6b00bc3880198600130e1cf62b8f8a93494488cc/library/std/src/sys/fs/unix.rs:145 },
    DebugInfo { addr: 11bbc0, size: 14d, name: _ZN3std3sys6os_str5bytes5Slice21check_public_boundary9slow_path17h79546775e81af34bE, location: /rustc/6b00bc3880198600130e1cf62b8f8a93494488cc/library/std/src/sys/os_str/bytes.rs:274 },
    DebugInfo { addr: 11bd10, size: 55e, name: _ZN3std3sys6random5linux9getrandom17hd9898d5b4ec595f1E, location: /rustc/6b00bc3880198600130e1cf62b8f8a93494488cc/library/std/src/sys/random/linux.rs:72 },
    DebugInfo { addr: 11c270, size: 30, name: _ZN3std3sys6random5linux19hashmap_random_keys17hf5f98782b412ab19E, location: /rustc/6b00bc3880198600130e1cf62b8f8a93494488cc/library/std/src/sys/random/linux.rs:164 },
    DebugInfo { addr: 11c2a0, size: 50, name: _ZN64_$LT$std..sys..stdio..unix..Stderr$u20$as$u20$std..io..Write$GT$5write17hea69813d10fc5b47E, location: /rustc/6b00bc3880198600130e1cf62b8f8a93494488cc/library/std/src/sys/stdio/unix.rs:76 },
    DebugInfo { addr: 11c2f0, size: 4f, name: _ZN64_$LT$std..sys..stdio..unix..Stderr$u20$as$u20$std..io..Write$GT$14write_vectored17hd08e9801a56c11c6E, location: /rustc/6b00bc3880198600130e1cf62b8f8a93494488cc/library/std/src/sys/stdio/unix.rs:80 },
    DebugInfo { addr: 11c340, size: 8, name: _ZN64_$LT$std..sys..stdio..unix..Stderr$u20$as$u20$std..io..Write$GT$17is_write_vectored17hda05ef289e5d0a6dE, location: /rustc/6b00bc3880198600130e1cf62b8f8a93494488cc/library/std/src/sys/stdio/unix.rs:85 },
    DebugInfo { addr: 11c350, size: 8, name: _ZN64_$LT$std..sys..stdio..unix..Stderr$u20$as$u20$std..io..Write$GT$5flush17hc989850da49e9225E, location: /rustc/6b00bc3880198600130e1cf62b8f8a93494488cc/library/std/src/sys/stdio/unix.rs:90 },
    DebugInfo { addr: 11c360, size: f7, name: _ZN3std3sys4sync5mutex5futex5Mutex14lock_contended17h62a1561aafc30ee1E, location: /rustc/6b00bc3880198600130e1cf62b8f8a93494488cc/library/std/src/sys/sync/mutex/futex.rs:34 },
    DebugInfo { addr: 11c460, size: 1f, name: _ZN3std3sys4sync5mutex5futex5Mutex4wake17h582e9d66664dd268E, location: /rustc/6b00bc3880198600130e1cf62b8f8a93494488cc/library/std/src/sys/sync/mutex/futex.rs:94 },
    DebugInfo { addr: 11c480, size: 223, name: _ZN3std3sys4sync4once5futex4Once4call17hc350b5daaffc59b3E, location: /rustc/6b00bc3880198600130e1cf62b8f8a93494488cc/library/std/src/sys/sync/once/futex.rs:139 },
    DebugInfo { addr: 11c6b0, size: 1af, name: _ZN3std3sys4sync6rwlock5futex6RwLock14read_contended17h694e64af3f33451eE, location: /rustc/6b00bc3880198600130e1cf62b8f8a93494488cc/library/std/src/sys/sync/rwlock/futex.rs:124 },
    DebugInfo { addr: 11c860, size: d7, name: _ZN3std3sys4sync6rwlock5futex6RwLock22wake_writer_or_readers17h9d1fd2e5395e69e1E, location: /rustc/6b00bc3880198600130e1cf62b8f8a93494488cc/library/std/src/sys/sync/rwlock/futex.rs:269 },
    DebugInfo { addr: 11c940, size: 5d, name: _ZN3std3sys12thread_local6native5eager7destroy17h4a568e4193c7bee5E, location: /rustc/6b00bc3880198600130e1cf62b8f8a93494488cc/library/std/src/sys/thread_local/native/eager.rs:62 },
    DebugInfo { addr: 11c9a0, size: 1f, name: _ZN3std3sys12thread_local6native5eager7destroy17ha1cdc068323d37e4E, location: /rustc/6b00bc3880198600130e1cf62b8f8a93494488cc/library/std/src/sys/thread_local/native/eager.rs:62 },
    DebugInfo { addr: 11c9c0, size: 10d, name: _ZN3std3sys12thread_local11destructors10linux_like8register17hbfaaaa8174d4d0f0E, location: /rustc/6b00bc3880198600130e1cf62b8f8a93494488cc/library/std/src/sys/thread_local/destructors/linux_like.rs:15 },
    DebugInfo { addr: 11cad0, size: 105, name: _ZN3std3sys12thread_local5guard3key6enable17hcc9b114abc9c8dc9E, location: /rustc/6b00bc3880198600130e1cf62b8f8a93494488cc/library/std/src/sys/thread_local/guard/key.rs:9 },
    DebugInfo { addr: 11cbe0, size: 147, name: _ZN3std3sys12thread_local5guard3key6enable3run17ha9a467cb310039daE, location: /rustc/6b00bc3880198600130e1cf62b8f8a93494488cc/library/std/src/sys/thread_local/guard/key.rs:20 },
    DebugInfo { addr: 11cd30, size: 21, name: _ZN3std5alloc8rust_oom17hc6bae85804c44578E, location: /rustc/6b00bc3880198600130e1cf62b8f8a93494488cc/library/std/src/alloc.rs:372 },
    DebugInfo { addr: 11cd60, size: 13, name: _RNvCs691rhTbG0Ee_7___rustc8___rg_oom, location: /rustc/6b00bc3880198600130e1cf62b8f8a93494488cc/library/std/src/alloc.rs:372 },
    DebugInfo { addr: 11cd80, size: 46, name: _ZN3std12backtrace_rs9backtrace9libunwind5trace8trace_fn17h4af376efa74da882E, location: /rustc/6b00bc3880198600130e1cf62b8f8a93494488cc/library/std/src/../../backtrace/src/backtrace/libunwind.rs:120 },
    DebugInfo { addr: 11cdd0, size: 106, name: _ZN3std12backtrace_rs9symbolize5gimli5stash5Stash8allocate17ha7b2db550c018d55E, location: /rustc/6b00bc3880198600130e1cf62b8f8a93494488cc/library/std/src/../../backtrace/src/symbolize/gimli/stash.rs:26 },
    DebugInfo { addr: 11ced6, size: 3135, name: _ZN3std12backtrace_rs9symbolize5gimli7Context3new17hdf1c7feb9ae6a9dfE, location: /rustc/6b00bc3880198600130e1cf62b8f8a93494488cc/library/std/src/../../backtrace/src/symbolize/gimli.rs:120 },
    DebugInfo { addr: 120010, size: 2a8, name: _ZN3std12backtrace_rs9symbolize5gimli4mmap17h0eeeb05fffa95ac9E, location: /rustc/6b00bc3880198600130e1cf62b8f8a93494488cc/library/std/src/../../backtrace/src/symbolize/gimli.rs:192 },
    DebugInfo { addr: 1202b8, size: 3f01, name: _ZN3std12backtrace_rs9symbolize5gimli5Cache11with_global17hf3fcb02b685aeefaE, location: /rustc/6b00bc3880198600130e1cf62b8f8a93494488cc/library/std/src/../../backtrace/src/symbolize/gimli.rs:363 },
    DebugInfo { addr: 1241c0, size: d19, name: _ZN3std12backtrace_rs9symbolize5gimli3elf62_$LT$impl$u20$std..backtrace_rs..symbolize..gimli..Mapping$GT$9new_debug17heb786e91ad96ad54E, location: /rustc/6b00bc3880198600130e1cf62b8f8a93494488cc/library/std/src/../../backtrace/src/symbolize/gimli/elf.rs:94 },
    DebugInfo { addr: 124ee0, size: 450, name: _ZN3std12backtrace_rs9symbolize5gimli3elf62_$LT$impl$u20$std..backtrace_rs..symbolize..gimli..Mapping$GT$18load_dwarf_package17hd3055551e7c2140bE, location: /rustc/6b00bc3880198600130e1cf62b8f8a93494488cc/library/std/src/../../backtrace/src/symbolize/gimli/elf.rs:123 },
    DebugInfo { addr: 125330, size: 704, name: _ZN3std12backtrace_rs9symbolize5gimli3elf6Object5parse17hddac159ef186a75cE, location: /rustc/6b00bc3880198600130e1cf62b8f8a93494488cc/library/std/src/../../backtrace/src/symbolize/gimli/elf.rs:165 },
    DebugInfo { addr: 125a40, size: 370, name: _ZN3std12backtrace_rs9symbolize5gimli3elf6Object7section17h96a14479efd8daa4E, location: /rustc/6b00bc3880198600130e1cf62b8f8a93494488cc/library/std/src/../../backtrace/src/symbolize/gimli/elf.rs:215 },
    DebugInfo { addr: 125db0, size: b4, name: _ZN3std12backtrace_rs9symbolize5gimli3elf6Object13search_symtab17h334972a17d86aa96E, location: /rustc/6b00bc3880198600130e1cf62b8f8a93494488cc/library/alloc/src/vec/mod.rs:1600 },
    DebugInfo { addr: 125e70, size: 183, name: _ZN3std12backtrace_rs9symbolize5gimli3elf6Object8build_id17hd513148975b8e7a0E, location: /rust/deps/object-0.36.7/src/read/elf/section.rs:54 },
    DebugInfo { addr: 126000, size: 105, name: _ZN3std12backtrace_rs9symbolize5gimli3elf15decompress_zlib17h969432bb0c89a4b9E, location: /rustc/6b00bc3880198600130e1cf62b8f8a93494488cc/library/std/src/../../backtrace/src/symbolize/gimli/elf.rs:342 },
    DebugInfo { addr: 126110, size: 395, name: _ZN3std12backtrace_rs9symbolize5gimli3elf15locate_build_id17hc193ce1fd4165febE, location: /rustc/6b00bc3880198600130e1cf62b8f8a93494488cc/library/std/src/../../backtrace/src/symbolize/gimli/elf.rs:426 },
    DebugInfo { addr: 1264b0, size: 416, name: _ZN3std12backtrace_rs9symbolize5gimli20libs_dl_iterate_phdr8callback17hf68a8c298f706dedE, location: /rustc/6b00bc3880198600130e1cf62b8f8a93494488cc/library/std/src/../../backtrace/src/symbolize/gimli/libs_dl_iterate_phdr.rs:55 },
    DebugInfo { addr: 1268d0, size: 7e3, name: _ZN114_$LT$std..backtrace_rs..symbolize..gimli..parse_running_mmaps..MapsEntry$u20$as$u20$core..str..traits..FromStr$GT$8from_str17hb7bcfb091db228b3E, location: /rustc/6b00bc3880198600130e1cf62b8f8a93494488cc/library/std/src/../../backtrace/src/symbolize/gimli/parse_running_mmaps_unix.rs:98 },
    DebugInfo { addr: 1270c0, size: bf, name: _ZN114_$LT$std..backtrace_rs..symbolize..gimli..parse_running_mmaps..MapsEntry$u20$as$u20$core..str..traits..FromStr$GT$8from_str28_$u7b$$u7b$closure$u7d$$u7d$17h060fd3b382b4ffe8E, location: /rustc/6b00bc3880198600130e1cf62b8f8a93494488cc/library/core/src/slice/iter/macros.rs:160 },
    DebugInfo { addr: 127180, size: 69, name: _ZN4core3ptr49drop_in_place$LT$panic_unwind..imp..Exception$GT$17h10d68088710b83ecE, location: /rustc/6b00bc3880198600130e1cf62b8f8a93494488cc/library/core/src/ptr/mod.rs:524 },
    DebugInfo { addr: 1271f0, size: 8d, name: _ZN4core3ptr74drop_in_place$LT$alloc..boxed..Box$LT$panic_unwind..imp..Exception$GT$$GT$17h58591d5cc9a1ab54E, location: /rustc/6b00bc3880198600130e1cf62b8f8a93494488cc/library/core/src/ptr/mod.rs:524 },
    DebugInfo { addr: 127280, size: 52, name: _RNvCs691rhTbG0Ee_7___rustc20___rust_panic_cleanup, location: /rustc/6b00bc3880198600130e1cf62b8f8a93494488cc/library/panic_unwind/src/lib.rs:92 },
    DebugInfo { addr: 1272e0, size: a5, name: _RNvCs691rhTbG0Ee_7___rustc18___rust_start_panic, location: /rustc/6b00bc3880198600130e1cf62b8f8a93494488cc/library/panic_unwind/src/lib.rs:99 },
    DebugInfo { addr: 127390, size: 18, name: _ZN12panic_unwind3imp5panic17exception_cleanup17h06c84346a78cc9f5E, location: /rustc/6b00bc3880198600130e1cf62b8f8a93494488cc/library/panic_unwind/src/gcc.rs:74 },
    DebugInfo { addr: 127400, size: 1c5, name: _ZN6memchr4arch6x86_646memchr10memchr_raw9find_sse217hcd747fbd30471addE, location: /rust/deps/memchr-2.7.4/src/arch/x86_64/memchr.rs:90 },
    DebugInfo { addr: 1275d0, size: 1d5, name: _ZN6memchr4arch6x86_646memchr10memchr_raw6detect17h09b74f15f965cd7eE, location: /rust/deps/memchr-2.7.4/src/arch/x86_64/memchr.rs:109 },
    DebugInfo { addr: 12ea70, size: 42, name: _ZN9hashbrown3raw11Fallibility17capacity_overflow17hb6c51339c548b2acE, location: /rust/deps/hashbrown-0.15.3/src/raw/mod.rs:35 },
    DebugInfo { addr: 12eac0, size: 18, name: _ZN9hashbrown3raw11Fallibility9alloc_err17hb27a050813e1a7bbE, location: /rust/deps/hashbrown-0.15.3/src/raw/mod.rs:44 },
    DebugInfo { addr: 131430, size: 15, name: _ZN4core3fmt5Write9write_fmt17h1ae16778873cceccE, location: /rustc/6b00bc3880198600130e1cf62b8f8a93494488cc/library/core/src/fmt/mod.rs:205 },
    DebugInfo { addr: 131450, size: 1e, name: _ZN4core3ptr42drop_in_place$LT$alloc..string..String$GT$17h01d23767156fe9b7E, location: /rustc/6b00bc3880198600130e1cf62b8f8a93494488cc/library/core/src/ptr/mod.rs:524 },
    DebugInfo { addr: 131470, size: 1a, name: _ZN53_$LT$core..fmt..Error$u20$as$u20$core..fmt..Debug$GT$3fmt17h6736176c8e29474eE, location: /rustc/6b00bc3880198600130e1cf62b8f8a93494488cc/library/core/src/fmt/mod.rs:102 },
    DebugInfo { addr: 131490, size: 1a, name: _ZN69_$LT$core..alloc..layout..LayoutError$u20$as$u20$core..fmt..Debug$GT$3fmt17hbaa65eea7f1a89d3E, location: /rustc/6b00bc3880198600130e1cf62b8f8a93494488cc/library/core/src/alloc/layout.rs:547 },
    DebugInfo { addr: 1314b0, size: 37, name: _ZN5alloc7raw_vec17capacity_overflow17h1b4b301db4b7931fE, location: /rustc/6b00bc3880198600130e1cf62b8f8a93494488cc/library/alloc/src/raw_vec/mod.rs:28 },
    DebugInfo { addr: 1314f0, size: a5, name: _ZN5alloc7raw_vec20RawVecInner$LT$A$GT$7reserve21do_reserve_and_handle17h366b06ffbd67de15E, location: /rustc/6b00bc3880198600130e1cf62b8f8a93494488cc/library/alloc/src/raw_vec/mod.rs:551 },
    DebugInfo { addr: 1315a0, size: 76, name: _ZN5alloc7raw_vec11finish_grow17h61e850b4706b9540E, location: /rustc/6b00bc3880198600130e1cf62b8f8a93494488cc/library/alloc/src/raw_vec/mod.rs:766 },
    DebugInfo { addr: 131616, size: 17, name: _ZN5alloc7raw_vec12handle_error17h891236e332f51b87E, location: /rustc/6b00bc3880198600130e1cf62b8f8a93494488cc/library/alloc/src/raw_vec/mod.rs:795 },
    DebugInfo { addr: 13162d, size: 13, name: _ZN5alloc5alloc18handle_alloc_error17h29c279d8237d34e5E, location: /rustc/6b00bc3880198600130e1cf62b8f8a93494488cc/library/alloc/src/alloc.rs:397 },
    DebugInfo { addr: 131640, size: e, name: _ZN256_$LT$alloc..boxed..convert..$LT$impl$u20$core..convert..From$LT$alloc..string..String$GT$$u20$for$u20$alloc..boxed..Box$LT$dyn$u20$core..error..Error$u2b$core..marker..Send$u2b$core..marker..Sync$GT$$GT$..from..StringError$u20$as$u20$core..error..Error$GT$11description17h2530c666fb478694E, location: /rustc/6b00bc3880198600130e1cf62b8f8a93494488cc/library/alloc/src/boxed/convert.rs:613 },
    DebugInfo { addr: 131650, size: 19, name: _ZN256_$LT$alloc..boxed..convert..$LT$impl$u20$core..convert..From$LT$alloc..string..String$GT$$u20$for$u20$alloc..boxed..Box$LT$dyn$u20$core..error..Error$u2b$core..marker..Send$u2b$core..marker..Sync$GT$$GT$..from..StringError$u20$as$u20$core..fmt..Display$GT$3fmt17h45702c79a1faa6e0E, location: /rustc/6b00bc3880198600130e1cf62b8f8a93494488cc/library/alloc/src/boxed/convert.rs:619 },
    DebugInfo { addr: 131670, size: 19, name: _ZN254_$LT$alloc..boxed..convert..$LT$impl$u20$core..convert..From$LT$alloc..string..String$GT$$u20$for$u20$alloc..boxed..Box$LT$dyn$u20$core..error..Error$u2b$core..marker..Send$u2b$core..marker..Sync$GT$$GT$..from..StringError$u20$as$u20$core..fmt..Debug$GT$3fmt17h245021bb6de39f1dE, location: /rustc/6b00bc3880198600130e1cf62b8f8a93494488cc/library/alloc/src/boxed/convert.rs:626 },
    DebugInfo { addr: 131690, size: 6, name: _ZN93_$LT$alloc..collections..btree..mem..replace..PanicGuard$u20$as$u20$core..ops..drop..Drop$GT$4drop17h7926798457b17142E, location: /rustc/6b00bc3880198600130e1cf62b8f8a93494488cc/library/alloc/src/collections/btree/mem.rs:21 },
    DebugInfo { addr: 1316a0, size: 137, name: _ZN72_$LT$$RF$str$u20$as$u20$alloc..ffi..c_str..CString..new..SpecNewImpl$GT$13spec_new_impl17h3b6a56c9872207e6E, location: /rustc/6b00bc3880198600130e1cf62b8f8a93494488cc/library/alloc/src/ffi/c_str.rs:300 },
    DebugInfo { addr: 1316a0, size: 137, name: _ZN81_$LT$$RF$$u5b$u8$u5d$$u20$as$u20$alloc..ffi..c_str..CString..new..SpecNewImpl$GT$13spec_new_impl17he4bfcf6b7da8c708E, location: /rustc/6b00bc3880198600130e1cf62b8f8a93494488cc/library/alloc/src/ffi/c_str.rs:300 },
    DebugInfo { addr: 1317e0, size: 12d, name: _ZN5alloc3ffi5c_str7CString19_from_vec_unchecked17h3e136e712b77954eE, location: /rustc/6b00bc3880198600130e1cf62b8f8a93494488cc/library/alloc/src/ffi/c_str.rs:340 },
    DebugInfo { addr: 131910, size: 19e, name: _ZN5alloc3fmt6format12format_inner17h8a62f782d788077eE, location: /rustc/6b00bc3880198600130e1cf62b8f8a93494488cc/library/alloc/src/fmt.rs:645 },
    DebugInfo { addr: 131ab0, size: 253, name: _ZN5alloc6string6String15from_utf8_lossy17hab6f1da2a0276508E, location: /rustc/6b00bc3880198600130e1cf62b8f8a93494488cc/library/alloc/src/string.rs:622 },
    DebugInfo { addr: 131d10, size: c2, name: _ZN5alloc6string6String11try_reserve17h8f59d3e890b45184E, location: /rustc/6b00bc3880198600130e1cf62b8f8a93494488cc/library/alloc/src/raw_vec/mod.rs:517 },
    DebugInfo { addr: 131de0, size: 90, name: _ZN60_$LT$alloc..string..String$u20$as$u20$core..clone..Clone$GT$5clone17ha172155c8a66ece7E, location: /rustc/6b00bc3880198600130e1cf62b8f8a93494488cc/library/alloc/src/string.rs:2284 },
    DebugInfo { addr: 131e70, size: a7, name: _ZN98_$LT$alloc..string..String$u20$as$u20$core..convert..From$LT$alloc..borrow..Cow$LT$str$GT$$GT$$GT$4from17h2089deafa1a55da5E, location: /rustc/6b00bc3880198600130e1cf62b8f8a93494488cc/library/alloc/src/string.rs:3060 },
    DebugInfo { addr: 131f20, size: 5c, name: _ZN58_$LT$alloc..string..String$u20$as$u20$core..fmt..Write$GT$9write_str17h3471f8bf4fd2c6acE, location: /rustc/6b00bc3880198600130e1cf62b8f8a93494488cc/library/alloc/src/string.rs:3196 },
    DebugInfo { addr: 131f80, size: 11c, name: _ZN58_$LT$alloc..string..String$u20$as$u20$core..fmt..Write$GT$10write_char17h13db4e3872bba170E, location: /rustc/6b00bc3880198600130e1cf62b8f8a93494488cc/library/alloc/src/string.rs:3202 },
    DebugInfo { addr: 1320a0, size: 69, name: _ZN5alloc4sync32arcinner_layout_for_value_layout17hddc63a5d7e5923f5E, location: /rustc/6b00bc3880198600130e1cf62b8f8a93494488cc/library/core/src/ptr/alignment.rs:159 },
    DebugInfo { addr: 132109, size: 60, name: _ZN5alloc3vec16Vec$LT$T$C$A$GT$6insert13assert_failed17h82030a7baf303c1fE, location: /rustc/6b00bc3880198600130e1cf62b8f8a93494488cc/library/alloc/src/vec/mod.rs:2007 },
    DebugInfo { addr: 132169, size: 60, name: _ZN5alloc3vec16Vec$LT$T$C$A$GT$6remove13assert_failed17hfc3b932606881249E, location: /rustc/6b00bc3880198600130e1cf62b8f8a93494488cc/library/alloc/src/vec/mod.rs:2070 },
    DebugInfo { addr: 1321d0, size: 101, name: _ZN4core3num7dec2flt11decimal_seq10DecimalSeq5round17hf99320c56c745e44E, location: /rustc/6b00bc3880198600130e1cf62b8f8a93494488cc/library/core/src/num/dec2flt/decimal_seq.rs:91 },
    DebugInfo { addr: 1322e0, size: 230, name: _ZN4core3num7dec2flt11decimal_seq10DecimalSeq10left_shift17h92dea2f2ce50f576E, location: /rustc/6b00bc3880198600130e1cf62b8f8a93494488cc/library/core/src/num/dec2flt/decimal_seq.rs:124 },
    DebugInfo { addr: 132510, size: 1f7, name: _ZN4core3num7dec2flt11decimal_seq10DecimalSeq11right_shift17h2ed000ba492c6672E, location: /rustc/6b00bc3880198600130e1cf62b8f8a93494488cc/library/core/src/num/dec2flt/decimal_seq.rs:170 },
    DebugInfo { addr: 132710, size: 3f8, name: _ZN4core3num7dec2flt11decimal_seq17parse_decimal_seq17h13639ec2c346ac49E, location: /rustc/6b00bc3880198600130e1cf62b8f8a93494488cc/library/core/src/num/dec2flt/decimal_seq.rs:220 },
    DebugInfo { addr: 132b10, size: 184, name: _ZN4core3num7dec2flt6lemire13compute_float17h65f4ef8d72b9eb31E, location: /rustc/6b00bc3880198600130e1cf62b8f8a93494488cc/library/core/src/num/dec2flt/lemire.rs:33 },
    DebugInfo { addr: 132ca0, size: 4c7, name: _ZN4core3num7dec2flt5parse12parse_number17h62841297b6f280e3E, location: /rustc/6b00bc3880198600130e1cf62b8f8a93494488cc/library/core/src/num/dec2flt/parse.rs:188 },
    DebugInfo { addr: 133170, size: 38, name: _ZN74_$LT$core..num..dec2flt..ParseFloatError$u20$as$u20$core..fmt..Display$GT$3fmt17h2565232960a77601E, location: /rustc/6b00bc3880198600130e1cf62b8f8a93494488cc/library/core/src/num/dec2flt/mod.rs:216 },
    DebugInfo { addr: 1331b0, size: 28d, name: _ZN4core3num7flt2dec8strategy6dragon9mul_pow1017h6e9762fc7149f73aE, location: /rustc/6b00bc3880198600130e1cf62b8f8a93494488cc/library/core/src/num/flt2dec/strategy/dragon.rs:30 },
    DebugInfo { addr: 133440, size: e14, name: _ZN4core3num7flt2dec8strategy6dragon15format_shortest17h667d5a19b39eaf05E, location: /rustc/6b00bc3880198600130e1cf62b8f8a93494488cc/library/core/src/num/flt2dec/strategy/dragon.rs:102 },
    DebugInfo { addr: 134260, size: bbb, name: _ZN4core3num7flt2dec8strategy6dragon12format_exact17h3fb18632c5a650a6E, location: /rustc/6b00bc3880198600130e1cf62b8f8a93494488cc/library/core/src/num/flt2dec/strategy/dragon.rs:262 },
    DebugInfo { addr: 134e20, size: 699, name: _ZN4core3num7flt2dec8strategy5grisu19format_shortest_opt17hc32ff21d821d80b8E, location: /rustc/6b00bc3880198600130e1cf62b8f8a93494488cc/library/core/src/num/flt2dec/strategy/grisu.rs:165 },
    DebugInfo { addr: 1354c0, size: 3fa, name: _ZN4core3num7flt2dec8strategy5grisu16format_exact_opt17hd5874b6ab0934c01E, location: /rustc/6b00bc3880198600130e1cf62b8f8a93494488cc/library/core/src/num/flt2dec/strategy/grisu.rs:471 },
    DebugInfo { addr: 1358c0, size: 1b7, name: _ZN4core3num7flt2dec8strategy5grisu16format_exact_opt14possibly_round17h513b2c2928f672d9E, location: /rustc/6b00bc3880198600130e1cf62b8f8a93494488cc/library/core/src/num/flt2dec/strategy/grisu.rs:648 },
    DebugInfo { addr: 135a80, size: 16d, name: _ZN4core3num7flt2dec17digits_to_dec_str17h72b34971d7122599E, location: /rustc/6b00bc3880198600130e1cf62b8f8a93494488cc/library/core/src/num/flt2dec/mod.rs:181 },
    DebugInfo { addr: 135bf0, size: 1a, name: _ZN72_$LT$core..num..error..TryFromIntError$u20$as$u20$core..fmt..Display$GT$3fmt17h23a5c0f5b13e18fbE, location: /rustc/6b00bc3880198600130e1cf62b8f8a93494488cc/library/core/src/num/error.rs:14 },
    DebugInfo { addr: 135c10, size: 2d, name: _ZN70_$LT$core..num..error..ParseIntError$u20$as$u20$core..fmt..Display$GT$3fmt17ha6bc6f6cebd21587E, location: /rustc/6b00bc3880198600130e1cf62b8f8a93494488cc/library/core/src/num/error.rs:125 },
    DebugInfo { addr: 135c40, size: 1ef, name: _ZN71_$LT$core..ops..range..Range$LT$Idx$GT$$u20$as$u20$core..fmt..Debug$GT$3fmt17hd332746cc7553454E, location: /rustc/6b00bc3880198600130e1cf62b8f8a93494488cc/library/core/src/ops/range.rs:91 },
    DebugInfo { addr: 135e30, size: 77, name: _ZN54_$LT$core..any..TypeId$u20$as$u20$core..fmt..Debug$GT$3fmt17h0f3f4f47efa6dbadE, location: /rustc/6b00bc3880198600130e1cf62b8f8a93494488cc/library/core/src/any.rs:783 },
    DebugInfo { addr: 135eb0, size: 1e, name: _ZN60_$LT$core..cell..BorrowError$u20$as$u20$core..fmt..Debug$GT$3fmt17hd337d75e4e71692cE, location: /rustc/6b00bc3880198600130e1cf62b8f8a93494488cc/library/core/src/cell.rs:742 },
    DebugInfo { addr: 135ed0, size: 1e, name: _ZN63_$LT$core..cell..BorrowMutError$u20$as$u20$core..fmt..Debug$GT$3fmt17hdcb61d89f7c95453E, location: /rustc/6b00bc3880198600130e1cf62b8f8a93494488cc/library/core/src/cell.rs:769 },
    DebugInfo { addr: 135ef0, size: 53, name: _ZN4core4cell22panic_already_borrowed17he89d368eee27c9a6E, location: /rustc/6b00bc3880198600130e1cf62b8f8a93494488cc/library/core/src/cell.rs:790 },
    DebugInfo { addr: 135f50, size: 53, name: _ZN4core4cell30panic_already_mutably_borrowed17h95c7d326eb19a92aE, location: /rustc/6b00bc3880198600130e1cf62b8f8a93494488cc/library/core/src/cell.rs:798 },
    DebugInfo { addr: 135fb0, size: 228, name: _ZN4core4char7methods22_$LT$impl$u20$char$GT$16escape_debug_ext17hde9de3d9b738cd1bE, location: /rustc/6b00bc3880198600130e1cf62b8f8a93494488cc/library/core/src/char/methods.rs:472 },
    DebugInfo { addr: 1361e0, size: 11b, name: _ZN4core3ffi5c_str4CStr19from_bytes_with_nul17hc3d1440fb2d39e10E, location: /rustc/6b00bc3880198600130e1cf62b8f8a93494488cc/library/core/src/ffi/c_str.rs:359 },
    DebugInfo { addr: 136300, size: 19, name: _ZN4core6option13unwrap_failed17h62317944fa5dc382E, location: /rustc/6b00bc3880198600130e1cf62b8f8a93494488cc/library/core/src/option.rs:2039 },
    DebugInfo { addr: 136320, size: 5b, name: _ZN4core6option13expect_failed17h1fcc4e32848a6083E, location: /rustc/6b00bc3880198600130e1cf62b8f8a93494488cc/library/core/src/option.rs:2048 },
    DebugInfo { addr: 136380, size: 20, name: _ZN4core9panicking9panic_fmt17hc8737e8cca20a7c8E, location: /rustc/6b00bc3880198600130e1cf62b8f8a93494488cc/library/core/src/panicking.rs:55 },
    DebugInfo { addr: 1363a0, size: 45, name: _ZN4core9panicking18panic_nounwind_fmt17hc3cf3432011a3c3fE, location: /rustc/6b00bc3880198600130e1cf62b8f8a93494488cc/library/core/src/panicking.rs:90 },
    DebugInfo { addr: 1363f0, size: 3c, name: _ZN4core9panicking5panic17h4a11c031239f36a8E, location: /rustc/6b00bc3880198600130e1cf62b8f8a93494488cc/library/core/src/panicking.rs:133 },
    DebugInfo { addr: 136430, size: 42, name: _ZN4core9panicking14panic_nounwind17h0c59dc9f7f043eadE, location: /rustc/6b00bc3880198600130e1cf62b8f8a93494488cc/library/core/src/panicking.rs:225 },
    DebugInfo { addr: 136480, size: 45, name: _ZN4core9panicking26panic_nounwind_nobacktrace17hd3a2723694bc24f5E, location: /rustc/6b00bc3880198600130e1cf62b8f8a93494488cc/library/core/src/panicking.rs:233 },
    DebugInfo { addr: 1364c5, size: 5c, name: _ZN4core9panicking18panic_bounds_check17hda0827d94e974e71E, location: /rustc/6b00bc3880198600130e1cf62b8f8a93494488cc/library/core/src/panicking.rs:276 },
    DebugInfo { addr: 136521, size: 14, name: _ZN4core9panicking19panic_cannot_unwind17hb8732afd89555502E, location: /rustc/6b00bc3880198600130e1cf62b8f8a93494488cc/library/core/src/panicking.rs:329 },
    DebugInfo { addr: 136535, size: 14, name: _ZN4core9panicking16panic_in_cleanup17h51d1753fd07771d1E, location: /rustc/6b00bc3880198600130e1cf62b8f8a93494488cc/library/core/src/panicking.rs:345 },
    DebugInfo { addr: 136549, size: 30, name: _ZN4core9panicking13assert_failed17h87568c70b5354ac1E, location: /rustc/6b00bc3880198600130e1cf62b8f8a93494488cc/library/core/src/panicking.rs:378 },
    DebugInfo { addr: 136579, size: 13e, name: _ZN4core9panicking19assert_failed_inner17h1eff0b41c54ffee0E, location: /rustc/6b00bc3880198600130e1cf62b8f8a93494488cc/library/core/src/panicking.rs:415 },
    DebugInfo { addr: 1366c0, size: 76, name: _ZN4core6result13unwrap_failed17h727108008d9f4c9bE, location: /rustc/6b00bc3880198600130e1cf62b8f8a93494488cc/library/core/src/result.rs:1731 },
    DebugInfo { addr: 136740, size: 267, name: _ZN68_$LT$core..fmt..builders..PadAdapter$u20$as$u20$core..fmt..Write$GT$9write_str17hb28e218747fd0591E, location: /rustc/6b00bc3880198600130e1cf62b8f8a93494488cc/library/core/src/fmt/builders.rs:31 },
    DebugInfo { addr: 1369b0, size: 5f, name: _ZN68_$LT$core..fmt..builders..PadAdapter$u20$as$u20$core..fmt..Write$GT$10write_char17hdfdcf0d77aaeab52E, location: /rustc/6b00bc3880198600130e1cf62b8f8a93494488cc/library/core/src/fmt/builders.rs:44 },
    DebugInfo { addr: 136a10, size: 186, name: _ZN4core3fmt8builders11DebugStruct5field17h0c93207c4d9e6aeaE, location: /rustc/6b00bc3880198600130e1cf62b8f8a93494488cc/library/core/src/fmt/builders.rs:132 },
    DebugInfo { addr: 136ba0, size: a4, name: _ZN4core3fmt8builders11DebugStruct21finish_non_exhaustive17h0d4e365f6c36b335E, location: /rustc/6b00bc3880198600130e1cf62b8f8a93494488cc/library/core/src/fmt/builders.rs:197 },
    DebugInfo { addr: 136c50, size: 5c, name: _ZN4core3fmt8builders11DebugStruct6finish17heb12b5c3a04a811fE, location: /rustc/6b00bc3880198600130e1cf62b8f8a93494488cc/library/core/src/fmt/builders.rs:0 },
    DebugInfo { addr: 136cb0, size: 126, name: _ZN4core3fmt8builders10DebugTuple5field17h3f399b20f0a94869E, location: /rustc/6b00bc3880198600130e1cf62b8f8a93494488cc/library/core/src/fmt/builders.rs:329 },
    DebugInfo { addr: 136de0, size: 87, name: _ZN4core3fmt8builders10DebugTuple6finish17hfc18502d12f6584bE, location: /rustc/6b00bc3880198600130e1cf62b8f8a93494488cc/library/core/src/fmt/builders.rs:432 },
    DebugInfo { addr: 136e70, size: 112, name: _ZN4core3fmt8builders8DebugSet5entry17h14b9a5c774dcc77eE, location: /rustc/6b00bc3880198600130e1cf62b8f8a93494488cc/library/core/src/fmt/builders.rs:548 },
    DebugInfo { addr: 136e70, size: 112, name: _ZN4core3fmt8builders9DebugList5entry17h0d06b4ba5482333fE, location: /rustc/6b00bc3880198600130e1cf62b8f8a93494488cc/library/core/src/fmt/builders.rs:548 },
    DebugInfo { addr: 136f90, size: 34, name: _ZN4core3fmt8builders9DebugList6finish17h36cf362e84b5c024E, location: /rustc/6b00bc3880198600130e1cf62b8f8a93494488cc/library/core/src/fmt/builders.rs:863 },
    DebugInfo { addr: 136fd0, size: 3e0, name: _ZN4core3fmt5float29float_to_decimal_common_exact17h2fae940eede76b6bE, location: /rustc/6b00bc3880198600130e1cf62b8f8a93494488cc/library/core/src/fmt/float.rs:28 },
    DebugInfo { addr: 1373b0, size: 2de, name: _ZN4core3fmt5float32float_to_decimal_common_shortest17h554fc4e1d6bdd5b6E, location: /rustc/6b00bc3880198600130e1cf62b8f8a93494488cc/library/core/src/fmt/float.rs:54 },
    DebugInfo { addr: 137690, size: 387, name: _ZN4core3fmt3num14parse_u64_into17hc2dfca421961d743E, location: /rustc/6b00bc3880198600130e1cf62b8f8a93494488cc/library/core/src/fmt/num.rs:559 },
    DebugInfo { addr: 137a20, size: 1c, name: _ZN4core3fmt3num53_$LT$impl$u20$core..fmt..Display$u20$for$u20$u128$GT$3fmt17he6792768fd65592eE, location: /rustc/6b00bc3880198600130e1cf62b8f8a93494488cc/library/core/src/fmt/num.rs:647 },
    DebugInfo { addr: 137a40, size: 181, name: _ZN4core3fmt3num8fmt_u12817h6265a5569201e4a9E, location: /rustc/6b00bc3880198600130e1cf62b8f8a93494488cc/library/core/src/fmt/num.rs:670 },
    DebugInfo { addr: 137bd0, size: 15, name: _ZN4core3fmt5Write9write_fmt17h5c9380b63a66aaf9E, location: /rustc/6b00bc3880198600130e1cf62b8f8a93494488cc/library/core/src/fmt/mod.rs:205 },
    DebugInfo { addr: 137bf0, size: 15, name: _ZN59_$LT$core..fmt..Arguments$u20$as$u20$core..fmt..Display$GT$3fmt17hc4d45641ca639cb6E, location: /rustc/6b00bc3880198600130e1cf62b8f8a93494488cc/library/core/src/fmt/mod.rs:733 },
    DebugInfo { addr: 137c10, size: 207, name: _ZN4core3fmt5write17h275e5980d7008551E, location: /rustc/6b00bc3880198600130e1cf62b8f8a93494488cc/library/core/src/fmt/mod.rs:1428 },
    DebugInfo { addr: 137e20, size: 50f, name: _ZN4core3fmt9Formatter12pad_integral17h5d7264772a4edb89E, location: /rustc/6b00bc3880198600130e1cf62b8f8a93494488cc/library/core/src/fmt/mod.rs:1596 },
    DebugInfo { addr: 138330, size: 54, name: _ZN4core3fmt9Formatter12pad_integral12write_prefix17ha8e9531eb095ab51E, location: /rustc/6b00bc3880198600130e1cf62b8f8a93494488cc/library/core/src/fmt/mod.rs:1617 },
    DebugInfo { addr: 138390, size: 439, name: _ZN4core3fmt9Formatter3pad17hdd21642e7502b13fE, location: /rustc/6b00bc3880198600130e1cf62b8f8a93494488cc/library/core/src/fmt/mod.rs:1680 },
    DebugInfo { addr: 1387d0, size: 25a, name: _ZN4core3fmt9Formatter19pad_formatted_parts17h1df8b6c7411274e9E, location: /rustc/6b00bc3880198600130e1cf62b8f8a93494488cc/library/core/src/fmt/mod.rs:1751 },
    DebugInfo { addr: 138a30, size: 259, name: _ZN4core3fmt9Formatter21write_formatted_parts17hfe79a55c5839ac94E, location: /rustc/6b00bc3880198600130e1cf62b8f8a93494488cc/library/core/src/fmt/mod.rs:1795 },
