---
source: src/run/runner/wall_time/perf/debug_info.rs
expression: module_debug_info.debug_infos
---
[
    DebugInfo { addr: 4052c0, size: c, name: _ZNSt7__cxx1112basic_stringIcSt11char_traitsIcESaIcEEC2IS3_EEPKcRKS3_.constprop.0.cold, location: /nix/store/9ds850ifd4jwcccpp3v14818kk74ldf2-gcc-14.2.1.20250322/include/c++/14.2.1.20250322/bits/basic_string.h:651 },
    DebugInfo { addr: 4052cc, size: 24, name: _ZNK4testL28benchmark_uniq_22BM_TemplateMUlvE_clEv.isra.0.cold, location: /nix/store/9ds850ifd4jwcccpp3v14818kk74ldf2-gcc-14.2.1.20250322/include/c++/14.2.1.20250322/bits/basic_string.h:809 },
    DebugInfo { addr: 4052f0, size: 24, name: _ZNK17example_namespaceL20ns_MyFixture_FooTestMUlvE_clEv.isra.0.cold, location: /nix/store/9ds850ifd4jwcccpp3v14818kk74ldf2-gcc-14.2.1.20250322/include/c++/14.2.1.20250322/bits/basic_string.h:809 },
    DebugInfo { addr: 405314, size: 24, name: _ZNKL27benchmark_uniq_2_benchmark_MUlvE_clEv.isra.0.cold, location: /nix/store/9ds850ifd4jwcccpp3v14818kk74ldf2-gcc-14.2.1.20250322/include/c++/14.2.1.20250322/bits/basic_string.h:809 },
    DebugInfo { addr: 405338, size: 2e, name: _ZNL37benchmark_uniq_27BM_Template1_CaptureMUlRN9benchmark5StateEE_4_FUNES2_.cold, location: /nix/store/9ds850ifd4jwcccpp3v14818kk74ldf2-gcc-14.2.1.20250322/include/c++/14.2.1.20250322/bits/basic_string.h:809 },
    DebugInfo { addr: 405366, size: 2e, name: _ZNL28benchmark_uniq_28_benchmark_MUlRN9benchmark5StateEE_4_FUNES2_.cold, location: /nix/store/9ds850ifd4jwcccpp3v14818kk74ldf2-gcc-14.2.1.20250322/include/c++/14.2.1.20250322/bits/basic_string.h:809 },
    DebugInfo { addr: 405394, size: 2e, name: _ZNL28benchmark_uniq_26_benchmark_MUlRN9benchmark5StateEE_4_FUNES2_.cold, location: /nix/store/9ds850ifd4jwcccpp3v14818kk74ldf2-gcc-14.2.1.20250322/include/c++/14.2.1.20250322/bits/basic_string.h:809 },
    DebugInfo { addr: 4053c2, size: 25, name: _ZL13BM_StringCopyRN9benchmark5StateE.cold, location: /nix/store/9ds850ifd4jwcccpp3v14818kk74ldf2-gcc-14.2.1.20250322/include/c++/14.2.1.20250322/bits/basic_string.h:809 },
    DebugInfo { addr: 4053e7, size: 1034, name: _Z41__static_initialization_and_destruction_0v.cold, location: /proc/self/cwd/examples/google_benchmark_bazel/main.cpp:58 },
    DebugInfo { addr: 40641b, size: 2f, name: _ZL14BM_rand_vectorRN9benchmark5StateE.cold, location: /nix/store/9ds850ifd4jwcccpp3v14818kk74ldf2-gcc-14.2.1.20250322/include/c++/14.2.1.20250322/bits/stl_vector.h:738 },
    DebugInfo { addr: 40644a, size: 3f, name: _ZN9benchmark8internal12_GLOBAL__N_114CreateReporterERKNSt7__cxx1112basic_stringIcSt11char_traitsIcESaIcEEENS_15ConsoleReporter13OutputOptionsE.cold, location: /proc/self/cwd/google_benchmark/src/benchmark.cc:618 },
    DebugInfo { addr: 40648a, size: 27, name: _ZNSt8_Rb_treeINSt7__cxx1112basic_stringIcSt11char_traitsIcESaIcEEESt4pairIKS5_N9benchmark7CounterEESt10_Select1stISA_ESt4lessIS5_ESaISA_EE22_M_emplace_hint_uniqueIJRKSt21piecewise_construct_tSt5tupleIJRS7_EESL_IJEEEEESt17_Rb_tree_iteratorISA_ESt23_Rb_tree_const_iteratorISA_EDpOT_.isra.0.cold, location: /proc/self/cwd/google_benchmark/src/benchmark.cc:621 },
    DebugInfo { addr: 4064b2, size: c4, name: _ZN9benchmark5State11PauseTimingEv.cold, location: /nix/store/9ds850ifd4jwcccpp3v14818kk74ldf2-gcc-14.2.1.20250322/include/c++/14.2.1.20250322/bits/stl_vector.h:1909 },
    DebugInfo { addr: 406576, size: 10, name: _ZN9benchmark28CreateDefaultDisplayReporterEv.cold, location: /proc/self/cwd/google_benchmark/src/benchmark.cc:261 },
    DebugInfo { addr: 406586, size: 10, name: _ZN9benchmark8internal17InitializeStreamsEv.cold, location: /proc/self/cwd/google_benchmark/src/benchmark.cc:261 },
    DebugInfo { addr: 406596, size: 98, name: _ZN9benchmark5StateC2ENSt7__cxx1112basic_stringIcSt11char_traitsIcESaIcEEElRKSt6vectorIlSaIlEEiiPNS_8internal11ThreadTimerEPNSC_13ThreadManagerEPNSC_23PerfCountersMeasurementEPNS_15ProfilerManagerEPN8codspeed8CodSpeedE.cold, location: /proc/self/cwd/google_benchmark/src/benchmark.cc:261 },
    DebugInfo { addr: 40662e, size: 18, name: _ZN9benchmark5State8SetLabelERKNSt7__cxx1112basic_stringIcSt11char_traitsIcESaIcEEE.cold, location: /nix/store/9ds850ifd4jwcccpp3v14818kk74ldf2-gcc-14.2.1.20250322/include/c++/14.2.1.20250322/bits/std_mutex.h:117 },
    DebugInfo { addr: 406646, size: 18, name: _ZN9benchmark5State15SkipWithMessageERKNSt7__cxx1112basic_stringIcSt11char_traitsIcESaIcEEE.cold, location: /nix/store/9ds850ifd4jwcccpp3v14818kk74ldf2-gcc-14.2.1.20250322/include/c++/14.2.1.20250322/bits/std_mutex.h:117 },
    DebugInfo { addr: 40665e, size: 18, name: _ZN9benchmark5State13SkipWithErrorERKNSt7__cxx1112basic_stringIcSt11char_traitsIcESaIcEEE.cold, location: /nix/store/9ds850ifd4jwcccpp3v14818kk74ldf2-gcc-14.2.1.20250322/include/c++/14.2.1.20250322/bits/std_mutex.h:117 },
    DebugInfo { addr: 406676, size: 1e, name: _ZN9benchmark7Barrier4waitEv.isra.0.cold, location: /nix/store/9ds850ifd4jwcccpp3v14818kk74ldf2-gcc-14.2.1.20250322/include/c++/14.2.1.20250322/bits/std_mutex.h:117 },
    DebugInfo { addr: 406694, size: a3, name: _ZN9benchmark8internal12_GLOBAL__N_126generate_raw_walltime_dataERKNS0_10RunResultsE.cold, location: /nix/store/9ds850ifd4jwcccpp3v14818kk74ldf2-gcc-14.2.1.20250322/include/c++/14.2.1.20250322/bits/basic_string.h:405 },
    DebugInfo { addr: 406737, size: 2c, name: _ZN9benchmark8internal21ParseCommandLineFlagsEPiPPc.cold, location: /nix/store/9ds850ifd4jwcccpp3v14818kk74ldf2-gcc-14.2.1.20250322/include/c++/14.2.1.20250322/bits/basic_string.h:809 },
    DebugInfo { addr: 406764, size: 65, name: _ZNSt8_Rb_treeINSt7__cxx1112basic_stringIcSt11char_traitsIcESaIcEEESt4pairIKS5_N9benchmark7CounterEESt10_Select1stISA_ESt4lessIS5_ESaISA_EE7_M_copyILb0ENSG_20_Reuse_or_alloc_nodeEEEPSt13_Rb_tree_nodeISA_ESL_PSt18_Rb_tree_node_baseRT0_.isra.0.cold, location: /nix/store/9ds850ifd4jwcccpp3v14818kk74ldf2-gcc-14.2.1.20250322/include/c++/14.2.1.20250322/bits/stl_tree.h:597 },
    DebugInfo { addr: 4067c9, size: 11, name: _ZNSt11__copy_moveILb0ELb0ESt26random_access_iterator_tagE8__copy_mIPN9benchmark17BenchmarkReporter3RunES6_EET0_T_S8_S7_.isra.0.cold, location: /nix/store/9ds850ifd4jwcccpp3v14818kk74ldf2-gcc-14.2.1.20250322/include/c++/14.2.1.20250322/bits/stl_tree.h:460 },
    DebugInfo { addr: 4067da, size: 2f1, name: _ZN9benchmark8internal12_GLOBAL__N_113RunBenchmarksERKSt6vectorINS0_17BenchmarkInstanceESaIS3_EEPNS_17BenchmarkReporterES9_.cold, location: /nix/store/9ds850ifd4jwcccpp3v14818kk74ldf2-gcc-14.2.1.20250322/include/c++/14.2.1.20250322/bits/random.h:1766 },
    DebugInfo { addr: 406acb, size: 103, name: _ZN9benchmark22RunSpecifiedBenchmarksEPNS_17BenchmarkReporterES1_NSt7__cxx1112basic_stringIcSt11char_traitsIcESaIcEEE.cold, location: /nix/store/9ds850ifd4jwcccpp3v14818kk74ldf2-gcc-14.2.1.20250322/include/c++/14.2.1.20250322/fstream:829 },
    DebugInfo { addr: 406bce, size: 24, name: _ZN9benchmark22RunSpecifiedBenchmarksEv.cold, location: /nix/store/9ds850ifd4jwcccpp3v14818kk74ldf2-gcc-14.2.1.20250322/include/c++/14.2.1.20250322/bits/basic_string.h:809 },
    DebugInfo { addr: 406bf2, size: 24, name: _ZN9benchmark22RunSpecifiedBenchmarksENSt7__cxx1112basic_stringIcSt11char_traitsIcESaIcEEE.cold, location: /nix/store/9ds850ifd4jwcccpp3v14818kk74ldf2-gcc-14.2.1.20250322/include/c++/14.2.1.20250322/bits/basic_string.h:809 },
    DebugInfo { addr: 406c16, size: 24, name: _ZN9benchmark22RunSpecifiedBenchmarksEPNS_17BenchmarkReporterE.cold, location: /nix/store/9ds850ifd4jwcccpp3v14818kk74ldf2-gcc-14.2.1.20250322/include/c++/14.2.1.20250322/bits/basic_string.h:809 },
    DebugInfo { addr: 406c3a, size: 24, name: _ZN9benchmark22RunSpecifiedBenchmarksEPNS_17BenchmarkReporterENSt7__cxx1112basic_stringIcSt11char_traitsIcESaIcEEE.cold, location: /nix/store/9ds850ifd4jwcccpp3v14818kk74ldf2-gcc-14.2.1.20250322/include/c++/14.2.1.20250322/bits/basic_string.h:809 },
    DebugInfo { addr: 406c5e, size: 24, name: _ZN9benchmark22RunSpecifiedBenchmarksEPNS_17BenchmarkReporterES1_.cold, location: /nix/store/9ds850ifd4jwcccpp3v14818kk74ldf2-gcc-14.2.1.20250322/include/c++/14.2.1.20250322/bits/basic_string.h:809 },
    DebugInfo { addr: 406c82, size: 11, name: _GLOBAL__sub_I_benchmark.cc.cold, location: /nix/store/9ds850ifd4jwcccpp3v14818kk74ldf2-gcc-14.2.1.20250322/include/c++/14.2.1.20250322/bits/stl_tree.h:982 },
    DebugInfo { addr: 406c94, size: df, name: _ZNK9benchmark13BenchmarkName3strB5cxx11Ev.cold, location: /nix/store/9ds850ifd4jwcccpp3v14818kk74ldf2-gcc-14.2.1.20250322/include/c++/14.2.1.20250322/bits/basic_string.h:405 },
    DebugInfo { addr: 406d73, size: 24, name: _ZN9benchmark12_GLOBAL__N_112StrFormatImpEPKcP13__va_list_tag.cold, location: /nix/store/9ds850ifd4jwcccpp3v14818kk74ldf2-gcc-14.2.1.20250322/include/c++/14.2.1.20250322/bits/unique_ptr.h:134 },
    DebugInfo { addr: 406d97, size: 13b, name: _ZN9benchmark19HumanReadableNumberB5cxx11EdNS_7Counter4OneKE.cold, location: /nix/store/9ds850ifd4jwcccpp3v14818kk74ldf2-gcc-14.2.1.20250322/include/c++/14.2.1.20250322/sstream:79 },
    DebugInfo { addr: 406ed2, size: 100, name: _ZN9benchmark8StrSplitERKNSt7__cxx1112basic_stringIcSt11char_traitsIcESaIcEEEc.cold, location: /nix/store/9ds850ifd4jwcccpp3v14818kk74ldf2-gcc-14.2.1.20250322/include/c++/14.2.1.20250322/bits/basic_string.h:394 },
    DebugInfo { addr: 406fd2, size: 25, name: _ZN9benchmark8internal17BenchmarkFamilies15ClearBenchmarksEv.cold, location: /nix/store/9ds850ifd4jwcccpp3v14818kk74ldf2-gcc-14.2.1.20250322/include/c++/14.2.1.20250322/bits/stl_vector.h:1920 },
    DebugInfo { addr: 406ff8, size: 8, name: _ZN9benchmark8internal9Benchmark11UseRealTimeEv.cold, location: /proc/self/cwd/google_benchmark/src/benchmark_register.cc:414 },
    DebugInfo { addr: 407000, size: 8, name: _ZN9benchmark8internal9Benchmark13UseManualTimeEv.cold, location: /proc/self/cwd/google_benchmark/src/benchmark_register.cc:421 },
    DebugInfo { addr: 407008, size: 8a, name: _ZN9benchmark8internal9Benchmark8ArgNamesERKSt6vectorINSt7__cxx1112basic_stringIcSt11char_traitsIcESaIcEEESaIS8_EE.cold, location: /proc/self/cwd/google_benchmark/src/benchmark_register.cc:421 },
    DebugInfo { addr: 407092, size: 10, name: _ZN9benchmark16CreateDenseRangeElli.cold, location: /nix/store/9ds850ifd4jwcccpp3v14818kk74ldf2-gcc-14.2.1.20250322/include/c++/14.2.1.20250322/bits/stl_vector.h:738 },
    DebugInfo { addr: 4070a2, size: 85, name: _ZN9benchmark8internal9Benchmark11ArgsProductERKSt6vectorIS2_IlSaIlEESaIS4_EE.cold, location: /nix/store/9ds850ifd4jwcccpp3v14818kk74ldf2-gcc-14.2.1.20250322/include/c++/14.2.1.20250322/bits/stl_vector.h:1920 },
    DebugInfo { addr: 407128, size: d1, name: _ZN9benchmark8internal9BenchmarkC2ERKNSt7__cxx1112basic_stringIcSt11char_traitsIcESaIcEEE.cold, location: /nix/store/9ds850ifd4jwcccpp3v14818kk74ldf2-gcc-14.2.1.20250322/include/c++/14.2.1.20250322/bits/basic_string.h:809 },
    DebugInfo { addr: 4071fa, size: 17, name: _ZN9benchmark8internal17BenchmarkFamilies12AddBenchmarkESt10unique_ptrINS0_9BenchmarkESt14default_deleteIS3_EE.cold, location: /nix/store/9ds850ifd4jwcccpp3v14818kk74ldf2-gcc-14.2.1.20250322/include/c++/14.2.1.20250322/bits/std_mutex.h:117 },
    DebugInfo { addr: 407211, size: 17, name: _ZN9benchmark8internal25RegisterBenchmarkInternalESt10unique_ptrINS0_9BenchmarkESt14default_deleteIS2_EE.cold, location: /nix/store/9ds850ifd4jwcccpp3v14818kk74ldf2-gcc-14.2.1.20250322/include/c++/14.2.1.20250322/bits/unique_ptr.h:398 },
    DebugInfo { addr: 407228, size: aa, name: _ZN9benchmark8internal17BenchmarkFamilies14FindBenchmarksENSt7__cxx1112basic_stringIcSt11char_traitsIcESaIcEEEPSt6vectorINS0_17BenchmarkInstanceESaIS9_EEPSo.cold, location: /nix/store/9ds850ifd4jwcccpp3v14818kk74ldf2-gcc-14.2.1.20250322/include/c++/14.2.1.20250322/bits/basic_string.h:809 },
    DebugInfo { addr: 4072d2, size: 24, name: _ZN9benchmark8internal22FindBenchmarksInternalERKNSt7__cxx1112basic_stringIcSt11char_traitsIcESaIcEEEPSt6vectorINS0_17BenchmarkInstanceESaISA_EEPSo.cold, location: /nix/store/9ds850ifd4jwcccpp3v14818kk74ldf2-gcc-14.2.1.20250322/include/c++/14.2.1.20250322/bits/basic_string.h:809 },
    DebugInfo { addr: 4072f6, size: 2b, name: _ZN9benchmark8internal9Benchmark3ArgEl.cold, location: /nix/store/9ds850ifd4jwcccpp3v14818kk74ldf2-gcc-14.2.1.20250322/include/c++/14.2.1.20250322/bits/stl_vector.h:738 },
    DebugInfo { addr: 407322, size: 2b, name: _ZN9benchmark8internal9Benchmark10DenseRangeElli.cold, location: /nix/store/9ds850ifd4jwcccpp3v14818kk74ldf2-gcc-14.2.1.20250322/include/c++/14.2.1.20250322/bits/stl_vector.h:738 },
    DebugInfo { addr: 40734d, size: 10, name: _ZN9benchmark11CreateRangeElli.cold, location: /nix/store/9ds850ifd4jwcccpp3v14818kk74ldf2-gcc-14.2.1.20250322/include/c++/14.2.1.20250322/bits/stl_vector.h:738 },
    DebugInfo { addr: 40735e, size: 32, name: _ZN9benchmark8internal9Benchmark5RangeEll.cold, location: /nix/store/9ds850ifd4jwcccpp3v14818kk74ldf2-gcc-14.2.1.20250322/include/c++/14.2.1.20250322/bits/stl_vector.h:684 },
    DebugInfo { addr: 407390, size: 1c, name: _ZN9benchmark8internal9Benchmark6RangesERKSt6vectorISt4pairIllESaIS4_EE.cold, location: /nix/store/9ds850ifd4jwcccpp3v14818kk74ldf2-gcc-14.2.1.20250322/include/c++/14.2.1.20250322/bits/stl_vector.h:1920 },
    DebugInfo { addr: 4073ac, size: 30, name: _ZN9benchmark8internal9Benchmark7ArgNameERKNSt7__cxx1112basic_stringIcSt11char_traitsIcESaIcEEE.cold, location: /proc/self/cwd/google_benchmark/src/benchmark_register.cc:278 },
    DebugInfo { addr: 4073dc, size: 67, name: _ZN9benchmark17BenchmarkReporter17PrintBasicContextEPSoRKNS0_7ContextE.cold, location: /proc/self/cwd/google_benchmark/src/reporter.cc:36 },
    DebugInfo { addr: 407444, size: 91, name: _ZNK9benchmark17BenchmarkReporter3Run14benchmark_nameB5cxx11Ev.cold, location: /nix/store/9ds850ifd4jwcccpp3v14818kk74ldf2-gcc-14.2.1.20250322/include/c++/14.2.1.20250322/bits/basic_string.h:405 },
    DebugInfo { addr: 4074e6, size: 67, name: _ZN9benchmark12_GLOBAL__N_19StrEscapeERKNSt7__cxx1112basic_stringIcSt11char_traitsIcESaIcEEE.cold, location: /nix/store/9ds850ifd4jwcccpp3v14818kk74ldf2-gcc-14.2.1.20250322/include/c++/14.2.1.20250322/bits/basic_string.h:405 },
    DebugInfo { addr: 40754d, size: 24, name: _ZN9benchmark12_GLOBAL__N_18FormatKVERKNSt7__cxx1112basic_stringIcSt11char_traitsIcESaIcEEEb.cold, location: /nix/store/9ds850ifd4jwcccpp3v14818kk74ldf2-gcc-14.2.1.20250322/include/c++/14.2.1.20250322/bits/basic_string.h:809 },
    DebugInfo { addr: 407571, size: 2c, name: _ZN9benchmark12_GLOBAL__N_18FormatKVERKNSt7__cxx1112basic_stringIcSt11char_traitsIcESaIcEEES8_.cold, location: /nix/store/9ds850ifd4jwcccpp3v14818kk74ldf2-gcc-14.2.1.20250322/include/c++/14.2.1.20250322/bits/basic_string.h:809 },
    DebugInfo { addr: 40759d, size: 54, name: _ZN9benchmark12_GLOBAL__N_18FormatKVERKNSt7__cxx1112basic_stringIcSt11char_traitsIcESaIcEEEPKc.cold, location: /nix/store/9ds850ifd4jwcccpp3v14818kk74ldf2-gcc-14.2.1.20250322/include/c++/14.2.1.20250322/bits/basic_string.h:809 },
    DebugInfo { addr: 4075f1, size: bc, name: _ZN9benchmark12_GLOBAL__N_18FormatKVERKNSt7__cxx1112basic_stringIcSt11char_traitsIcESaIcEEEl.cold, location: /nix/store/9ds850ifd4jwcccpp3v14818kk74ldf2-gcc-14.2.1.20250322/include/c++/14.2.1.20250322/sstream:1030 },
    DebugInfo { addr: 4076ae, size: 14c, name: _ZN9benchmark12JSONReporter13ReportContextERKNS_17BenchmarkReporter7ContextE.cold, location: /nix/store/9ds850ifd4jwcccpp3v14818kk74ldf2-gcc-14.2.1.20250322/include/c++/14.2.1.20250322/bits/basic_string.h:809 },
    DebugInfo { addr: 4077fa, size: c4, name: _ZN9benchmark12_GLOBAL__N_18FormatKVERKNSt7__cxx1112basic_stringIcSt11char_traitsIcESaIcEEEd.cold, location: /nix/store/9ds850ifd4jwcccpp3v14818kk74ldf2-gcc-14.2.1.20250322/include/c++/14.2.1.20250322/bits/basic_string.h:809 },
    DebugInfo { addr: 4078be, size: 244, name: _ZN9benchmark12JSONReporter12PrintRunDataERKNS_17BenchmarkReporter3RunE.cold, location: /nix/store/9ds850ifd4jwcccpp3v14818kk74ldf2-gcc-14.2.1.20250322/include/c++/14.2.1.20250322/bits/basic_string.h:809 },
    DebugInfo { addr: 407b02, size: 28, name: _ZN9benchmark12JSONReporter10ReportRunsERKSt6vectorINS_17BenchmarkReporter3RunESaIS3_EE.cold, location: /nix/store/9ds850ifd4jwcccpp3v14818kk74ldf2-gcc-14.2.1.20250322/include/c++/14.2.1.20250322/bits/basic_string.h:809 },
    DebugInfo { addr: 407b2a, size: a2, name: _ZN9benchmark9CsvEscapeERKNSt7__cxx1112basic_stringIcSt11char_traitsIcESaIcEEE.cold, location: /nix/store/9ds850ifd4jwcccpp3v14818kk74ldf2-gcc-14.2.1.20250322/include/c++/14.2.1.20250322/bits/basic_string.h:405 },
    DebugInfo { addr: 407bcc, size: a7, name: _ZN9benchmark11CSVReporter12PrintRunDataERKNS_17BenchmarkReporter3RunE.cold, location: /nix/store/9ds850ifd4jwcccpp3v14818kk74ldf2-gcc-14.2.1.20250322/include/c++/14.2.1.20250322/bits/basic_string.h:809 },
    DebugInfo { addr: 407c74, size: 76, name: _ZN9benchmark11CSVReporter10ReportRunsERKSt6vectorINS_17BenchmarkReporter3RunESaIS3_EE.cold, location: /nix/store/9ds850ifd4jwcccpp3v14818kk74ldf2-gcc-14.2.1.20250322/include/c++/14.2.1.20250322/bits/new_allocator.h:104 },
    DebugInfo { addr: 407cea, size: 63, name: _GLOBAL__sub_I_csv_reporter.cc.cold, location: /nix/store/9ds850ifd4jwcccpp3v14818kk74ldf2-gcc-14.2.1.20250322/include/c++/14.2.1.20250322/bits/basic_string.h:651 },
    DebugInfo { addr: 407d4e, size: 71, name: _ZNKSt14default_deleteIN9benchmark8internal13ThreadManagerEEclEPS2_.part.0, location: /nix/store/9ds850ifd4jwcccpp3v14818kk74ldf2-gcc-14.2.1.20250322/include/c++/14.2.1.20250322/bits/unique_ptr.h:87 },
    DebugInfo { addr: 407dbf, size: 26, name: _ZN9benchmark8internal17ParseBenchMinTimeERKNSt7__cxx1112basic_stringIcSt11char_traitsIcESaIcEEE.cold, location: /proc/self/cwd/google_benchmark/src/benchmark_runner.cc:228 },
    DebugInfo { addr: 407de6, size: 85, name: _ZN9benchmark8internal15BenchmarkRunnerC2ERKNS0_17BenchmarkInstanceEPNS0_23PerfCountersMeasurementEPNS_17BenchmarkReporter19PerFamilyRunReportsE.cold, location: /proc/self/cwd/google_benchmark/src/benchmark_runner.cc:282 },
    DebugInfo { addr: 407e6b, size: e8, name: _ZN9benchmark8internal12_GLOBAL__N_111RunInThreadEPKNS0_17BenchmarkInstanceEliPNS0_13ThreadManagerEPNS0_23PerfCountersMeasurementEPNS_15ProfilerManagerE.cold, location: /nix/store/9ds850ifd4jwcccpp3v14818kk74ldf2-gcc-14.2.1.20250322/include/c++/14.2.1.20250322/bits/std_mutex.h:117 },
    DebugInfo { addr: 407f54, size: 2b, name: _ZN9benchmark8internal15BenchmarkRunner18RunProfilerManagerEl.cold, location: /nix/store/9ds850ifd4jwcccpp3v14818kk74ldf2-gcc-14.2.1.20250322/include/c++/14.2.1.20250322/bits/std_mutex.h:117 },
    DebugInfo { addr: 407f80, size: 36, name: _ZN9benchmark8internal15BenchmarkRunner16RunMemoryManagerEl.cold, location: /nix/store/9ds850ifd4jwcccpp3v14818kk74ldf2-gcc-14.2.1.20250322/include/c++/14.2.1.20250322/bits/stl_vector.h:1909 },
    DebugInfo { addr: 407fb6, size: 65, name: _ZNSt8_Rb_treeINSt7__cxx1112basic_stringIcSt11char_traitsIcESaIcEEESt4pairIKS5_N9benchmark7CounterEESt10_Select1stISA_ESt4lessIS5_ESaISA_EE7_M_copyILb0ENSG_20_Reuse_or_alloc_nodeEEEPSt13_Rb_tree_nodeISA_ESL_PSt18_Rb_tree_node_baseRT0_.isra.0.cold, location: /nix/store/9ds850ifd4jwcccpp3v14818kk74ldf2-gcc-14.2.1.20250322/include/c++/14.2.1.20250322/bits/stl_tree.h:597 },
    DebugInfo { addr: 40801c, size: 11, name: _ZNSt8_Rb_treeINSt7__cxx1112basic_stringIcSt11char_traitsIcESaIcEEESt4pairIKS5_N9benchmark7CounterEESt10_Select1stISA_ESt4lessIS5_ESaISA_EEaSERKSG_.isra.0.cold, location: /nix/store/9ds850ifd4jwcccpp3v14818kk74ldf2-gcc-14.2.1.20250322/include/c++/14.2.1.20250322/bits/stl_tree.h:460 },
    DebugInfo { addr: 40802e, size: ea, name: _ZN9benchmark8internal15BenchmarkRunner13DoNIterationsEv.cold, location: /nix/store/9ds850ifd4jwcccpp3v14818kk74ldf2-gcc-14.2.1.20250322/include/c++/14.2.1.20250322/bits/std_mutex.h:117 },
    DebugInfo { addr: 408118, size: 28, name: _ZN9benchmark8internal15BenchmarkRunner9RunWarmUpEv.cold, location: /proc/self/cwd/google_benchmark/src/benchmark_runner.h:102 },
    DebugInfo { addr: 408140, size: 85, name: _ZN9benchmark8internal15BenchmarkRunner15DoOneRepetitionEv.cold, location: /proc/self/cwd/google_benchmark/src/benchmark_runner.cc:131 },
    DebugInfo { addr: 4081c6, size: 27, name: _ZN9benchmarkL16IgnoreColorPrintERSoNS_8LogColorEPKcz.cold, location: /nix/store/9ds850ifd4jwcccpp3v14818kk74ldf2-gcc-14.2.1.20250322/include/c++/14.2.1.20250322/bits/basic_string.h:809 },
    DebugInfo { addr: 4081ee, size: 7e, name: _ZN9benchmark15ConsoleReporter11PrintHeaderERKNS_17BenchmarkReporter3RunE.cold, location: /nix/store/9ds850ifd4jwcccpp3v14818kk74ldf2-gcc-14.2.1.20250322/include/c++/14.2.1.20250322/bits/basic_string.h:405 },
    DebugInfo { addr: 40826c, size: b3, name: _ZNSt8_Rb_treeINSt7__cxx1112basic_stringIcSt11char_traitsIcESaIcEEESt4pairIKS5_N9benchmark7CounterEESt10_Select1stISA_ESt4lessIS5_ESaISA_EE7_M_copyILb0ENSG_20_Reuse_or_alloc_nodeEEEPSt13_Rb_tree_nodeISA_ESL_PSt18_Rb_tree_node_baseRT0_.isra.0.cold, location: /nix/store/9ds850ifd4jwcccpp3v14818kk74ldf2-gcc-14.2.1.20250322/include/c++/14.2.1.20250322/bits/basic_string.h:405 },
    DebugInfo { addr: 408320, size: 11, name: _ZN9benchmark15ConsoleReporter10ReportRunsERKSt6vectorINS_17BenchmarkReporter3RunESaIS3_EE.cold, location: /nix/store/9ds850ifd4jwcccpp3v14818kk74ldf2-gcc-14.2.1.20250322/include/c++/14.2.1.20250322/bits/stl_tree.h:460 },
    DebugInfo { addr: 408332, size: 66, name: _ZN9benchmark15ConsoleReporter12PrintRunDataERKNS_17BenchmarkReporter3RunE.cold, location: /nix/store/9ds850ifd4jwcccpp3v14818kk74ldf2-gcc-14.2.1.20250322/include/c++/14.2.1.20250322/bits/basic_string.h:809 },
    DebugInfo { addr: 408398, size: 6b, name: _ZNSt8_Rb_treeINSt7__cxx1112basic_stringIcSt11char_traitsIcESaIcEEESt4pairIKS5_N9benchmark7CounterEESt10_Select1stISA_ESt4lessIS5_ESaISA_EE7_M_copyILb0ENSG_11_Alloc_nodeEEEPSt13_Rb_tree_nodeISA_ESL_PSt18_Rb_tree_node_baseRT0_.isra.0.cold, location: /nix/store/9ds850ifd4jwcccpp3v14818kk74ldf2-gcc-14.2.1.20250322/include/c++/14.2.1.20250322/bits/stl_tree.h:597 },
    DebugInfo { addr: 408403, size: 11, name: _ZN9benchmark14MinimalLeastSqERKSt6vectorIlSaIlEERKS0_IdSaIdEENS_4BigOE.cold, location: /nix/store/9ds850ifd4jwcccpp3v14818kk74ldf2-gcc-14.2.1.20250322/include/c++/14.2.1.20250322/bits/stl_vector.h:738 },
    DebugInfo { addr: 408414, size: 1b0, name: _ZN9benchmark11ComputeBigOERKSt6vectorINS_17BenchmarkReporter3RunESaIS2_EE.cold, location: /proc/self/cwd/google_benchmark/src/check.h:42 },
    DebugInfo { addr: 4085c4, size: 50, name: _ZN9benchmark12_GLOBAL__N_112FlagToEnvVarEPKc.cold, location: /nix/store/9ds850ifd4jwcccpp3v14818kk74ldf2-gcc-14.2.1.20250322/include/c++/14.2.1.20250322/bits/basic_string.h:651 },
    DebugInfo { addr: 408614, size: e6, name: _ZNSt8_Rb_treeINSt7__cxx1112basic_stringIcSt11char_traitsIcESaIcEEESt4pairIKS5_S5_ESt10_Select1stIS8_ESt4lessIS5_ESaIS8_EE7_M_copyILb0ENSE_20_Reuse_or_alloc_nodeEEEPSt13_Rb_tree_nodeIS8_ESJ_PSt18_Rb_tree_node_baseRT0_.isra.0.cold, location: /nix/store/9ds850ifd4jwcccpp3v14818kk74ldf2-gcc-14.2.1.20250322/include/c++/14.2.1.20250322/bits/basic_string.h:809 },
    DebugInfo { addr: 4086fa, size: 61, name: _ZN9benchmark12Int32FromEnvEPKci.cold, location: /nix/store/9ds850ifd4jwcccpp3v14818kk74ldf2-gcc-14.2.1.20250322/include/c++/14.2.1.20250322/bits/basic_string.h:809 },
    DebugInfo { addr: 40875b, size: 5e, name: _ZN9benchmark13DoubleFromEnvEPKcd.cold, location: /nix/store/9ds850ifd4jwcccpp3v14818kk74ldf2-gcc-14.2.1.20250322/include/c++/14.2.1.20250322/bits/basic_string.h:809 },
    DebugInfo { addr: 4087b9, size: 57, name: _ZN9benchmark14ParseFlagValueEPKcS1_b.cold, location: /nix/store/9ds850ifd4jwcccpp3v14818kk74ldf2-gcc-14.2.1.20250322/include/c++/14.2.1.20250322/bits/basic_string.h:405 },
    DebugInfo { addr: 408810, size: 55, name: _ZN9benchmark14ParseInt32FlagEPKcS1_Pi.cold, location: /nix/store/9ds850ifd4jwcccpp3v14818kk74ldf2-gcc-14.2.1.20250322/include/c++/14.2.1.20250322/bits/basic_string.h:405 },
    DebugInfo { addr: 408865, size: 52, name: _ZN9benchmark15ParseDoubleFlagEPKcS1_Pd.cold, location: /nix/store/9ds850ifd4jwcccpp3v14818kk74ldf2-gcc-14.2.1.20250322/include/c++/14.2.1.20250322/bits/basic_string.h:405 },
    DebugInfo { addr: 4088b7, size: 2c, name: _ZN9benchmark11BoolFromEnvEPKcb.cold, location: /nix/store/9ds850ifd4jwcccpp3v14818kk74ldf2-gcc-14.2.1.20250322/include/c++/14.2.1.20250322/bits/basic_string.h:809 },
    DebugInfo { addr: 4088e3, size: 24, name: _ZN9benchmark13ParseBoolFlagEPKcS1_Pb.cold, location: /nix/store/9ds850ifd4jwcccpp3v14818kk74ldf2-gcc-14.2.1.20250322/include/c++/14.2.1.20250322/bits/basic_string.h:809 },
    DebugInfo { addr: 408907, size: d0, name: _ZN9benchmark14KvPairsFromEnvEPKcSt3mapINSt7__cxx1112basic_stringIcSt11char_traitsIcESaIcEEES8_St4lessIS8_ESaISt4pairIKS8_S8_EEE.cold, location: /nix/store/9ds850ifd4jwcccpp3v14818kk74ldf2-gcc-14.2.1.20250322/include/c++/14.2.1.20250322/bits/stl_tree.h:460 },
    DebugInfo { addr: 4089d7, size: 58, name: _ZN9benchmark17ParseKeyValueFlagEPKcS1_PSt3mapINSt7__cxx1112basic_stringIcSt11char_traitsIcESaIcEEES8_St4lessIS8_ESaISt4pairIKS8_S8_EEE.cold, location: /nix/store/9ds850ifd4jwcccpp3v14818kk74ldf2-gcc-14.2.1.20250322/include/c++/14.2.1.20250322/bits/basic_string.h:405 },
    DebugInfo { addr: 408a2f, size: 24, name: _ZN9benchmark12FormatStringB5cxx11EPKcP13__va_list_tag.cold, location: /nix/store/9ds850ifd4jwcccpp3v14818kk74ldf2-gcc-14.2.1.20250322/include/c++/14.2.1.20250322/bits/unique_ptr.h:134 },
    DebugInfo { addr: 408a53, size: 48, name: _ZN9benchmark11ColorPrintfERSoNS_8LogColorEPKcP13__va_list_tag.cold, location: /nix/store/9ds850ifd4jwcccpp3v14818kk74ldf2-gcc-14.2.1.20250322/include/c++/14.2.1.20250322/bits/basic_string.h:809 },
    DebugInfo { addr: 408ab9, size: 91, name: _ZN9benchmark12_GLOBAL__N_112ReadFromFileIlEEbRKNSt7__cxx1112basic_stringIcSt11char_traitsIcESaIcEEEPT_.isra.0.cold, location: /nix/store/9ds850ifd4jwcccpp3v14818kk74ldf2-gcc-14.2.1.20250322/include/c++/14.2.1.20250322/fstream:574 },
    DebugInfo { addr: 408b4a, size: 156, name: _ZN9benchmark12_GLOBAL__N_121GetCPUCyclesPerSecondENS_7CPUInfo7ScalingE.cold, location: /proc/self/cwd/google_benchmark/src/sysinfo.cc:220 },
    DebugInfo { addr: 408ca0, size: 9c, name: _ZN9benchmark12_GLOBAL__N_112ReadFromFileINSt7__cxx1112basic_stringIcSt11char_traitsIcESaIcEEEEEbRKS7_PT_.cold, location: /nix/store/9ds850ifd4jwcccpp3v14818kk74ldf2-gcc-14.2.1.20250322/include/c++/14.2.1.20250322/fstream:574 },
    DebugInfo { addr: 408d3c, size: 8f, name: _ZN9benchmark12_GLOBAL__N_110CpuScalingEi.cold, location: /nix/store/9ds850ifd4jwcccpp3v14818kk74ldf2-gcc-14.2.1.20250322/include/c++/14.2.1.20250322/bits/basic_string.h:809 },
    DebugInfo { addr: 408dcb, size: 548, name: _ZN9benchmark12_GLOBAL__N_121GetCacheSizesFromKVFSEv.cold, location: /nix/store/9ds850ifd4jwcccpp3v14818kk74ldf2-gcc-14.2.1.20250322/include/c++/14.2.1.20250322/bits/basic_string.h:809 },
    DebugInfo { addr: 409314, size: 25, name: _ZN9benchmark7CPUInfoC2Ev.cold, location: /nix/store/9ds850ifd4jwcccpp3v14818kk74ldf2-gcc-14.2.1.20250322/include/c++/14.2.1.20250322/bits/stl_vector.h:369 },
    DebugInfo { addr: 40933a, size: 1d, name: _ZN9benchmark7CPUInfo3GetEv.cold, location: /proc/self/cwd/google_benchmark/src/sysinfo.cc:877 },
    DebugInfo { addr: 4093a5, size: 127, name: _ZN9benchmark12ComputeStatsERKSt6vectorINS_17BenchmarkReporter3RunESaIS2_EE.cold, location: /nix/store/9ds850ifd4jwcccpp3v14818kk74ldf2-gcc-14.2.1.20250322/include/c++/14.2.1.20250322/bits/basic_string.h:809 },
    DebugInfo { addr: 4094cc, size: c3, name: _ZN9benchmark8internal17BenchmarkInstanceC2EPNS0_9BenchmarkEiiRKSt6vectorIlSaIlEEi.cold, location: /nix/store/9ds850ifd4jwcccpp3v14818kk74ldf2-gcc-14.2.1.20250322/include/c++/14.2.1.20250322/bits/basic_string.h:405 },
    DebugInfo { addr: 409590, size: 6c, name: _ZNK9benchmark8internal17BenchmarkInstance26__codspeed_root_frame__RunEliPNS0_11ThreadTimerEPNS0_13ThreadManagerEPNS0_23PerfCountersMeasurementEPNS_15ProfilerManagerE.cold, location: /proc/self/cwd/core/include/codspeed.h:14 },
    DebugInfo { addr: 4095fc, size: 48, name: _ZNK9benchmark8internal17BenchmarkInstance5SetupEv.cold, location: /proc/self/cwd/google_benchmark/src/benchmark_api_internal.cc:138 },
    DebugInfo { addr: 409644, size: 48, name: _ZNK9benchmark8internal17BenchmarkInstance8TeardownEv.cold, location: /proc/self/cwd/google_benchmark/src/benchmark_api_internal.cc:146 },
    DebugInfo { addr: 40968c, size: d8, name: _ZN8codspeed19sanitize_bench_argsERNSt7__cxx1112basic_stringIcSt11char_traitsIcESaIcEEE.cold, location: /nix/store/9ds850ifd4jwcccpp3v14818kk74ldf2-gcc-14.2.1.20250322/include/c++/14.2.1.20250322/bits/basic_string.h:394 },
    DebugInfo { addr: 409764, size: 2b, name: _ZN8codspeed4joinERKSt6vectorINSt7__cxx1112basic_stringIcSt11char_traitsIcESaIcEEESaIS6_EERKS6_.cold, location: /nix/store/9ds850ifd4jwcccpp3v14818kk74ldf2-gcc-14.2.1.20250322/include/c++/14.2.1.20250322/bits/basic_string.h:405 },
    DebugInfo { addr: 409790, size: 8d, name: _ZN8codspeed8CodSpeed15start_benchmarkERKNSt7__cxx1112basic_stringIcSt11char_traitsIcESaIcEEE.cold, location: /nix/store/9ds850ifd4jwcccpp3v14818kk74ldf2-gcc-14.2.1.20250322/include/c++/14.2.1.20250322/bits/basic_string.h:405 },
    DebugInfo { addr: 40981e, size: 5c, name: _ZN8codspeed8CodSpeedC2Ev.cold, location: /nix/store/9ds850ifd4jwcccpp3v14818kk74ldf2-gcc-14.2.1.20250322/include/c++/14.2.1.20250322/bits/basic_ios.h:50 },
    DebugInfo { addr: 40987a, size: a0, name: _ZN8codspeed8CodSpeed13end_benchmarkEv.cold, location: /nix/store/9ds850ifd4jwcccpp3v14818kk74ldf2-gcc-14.2.1.20250322/include/c++/14.2.1.20250322/bits/basic_string.h:405 },
    DebugInfo { addr: 40991a, size: af, name: _ZN8codspeed30get_path_relative_to_workspaceERKNSt7__cxx1112basic_stringIcSt11char_traitsIcESaIcEEE.cold, location: /nix/store/9ds850ifd4jwcccpp3v14818kk74ldf2-gcc-14.2.1.20250322/include/c++/14.2.1.20250322/bits/basic_string.h:630 },
    DebugInfo { addr: 4099c9, size: 1d, name: _ZN8codspeed24compute_iqr_and_outliersERKSt6vectorIdSaIdEEddRdS5_S5_RmS6_.cold, location: /nix/store/9ds850ifd4jwcccpp3v14818kk74ldf2-gcc-14.2.1.20250322/include/c++/14.2.1.20250322/bits/stl_vector.h:369 },
    DebugInfo { addr: 4099e6, size: 1f, name: _ZN8codspeed17escapeBackslashesERKNSt7__cxx1112basic_stringIcSt11char_traitsIcESaIcEEE.cold, location: /nix/store/9ds850ifd4jwcccpp3v14818kk74ldf2-gcc-14.2.1.20250322/include/c++/14.2.1.20250322/bits/basic_string.h:405 },
    DebugInfo { addr: 409a05, size: 35e, name: _ZN8codspeed33write_codspeed_benchmarks_to_jsonERKSt6vectorINS_25CodspeedWalltimeBenchmarkESaIS1_EE.cold, location: /nix/store/9ds850ifd4jwcccpp3v14818kk74ldf2-gcc-14.2.1.20250322/include/c++/14.2.1.20250322/bits/new_allocator.h:104 },
    DebugInfo { addr: 409d63, size: 10c, name: _ZN8codspeed33generate_codspeed_walltime_reportERKSt6vectorINS_20RawWalltimeBenchmarkESaIS1_EE.cold, location: /nix/store/9ds850ifd4jwcccpp3v14818kk74ldf2-gcc-14.2.1.20250322/include/c++/14.2.1.20250322/bits/basic_string.h:809 },
    DebugInfo { addr: 409e6f, size: 73, name: _ZN8codspeed23extract_namespace_clangERKNSt7__cxx1112basic_stringIcSt11char_traitsIcESaIcEEE.cold, location: /nix/store/9ds850ifd4jwcccpp3v14818kk74ldf2-gcc-14.2.1.20250322/include/c++/14.2.1.20250322/bits/basic_string.h:394 },
    DebugInfo { addr: 409ee2, size: 47, name: _ZN8codspeed21extract_namespace_gccERKNSt7__cxx1112basic_stringIcSt11char_traitsIcESaIcEEE.cold, location: /nix/store/9ds850ifd4jwcccpp3v14818kk74ldf2-gcc-14.2.1.20250322/include/c++/14.2.1.20250322/bits/basic_string.h:405 },
    DebugInfo { addr: 409f29, size: 5, name: _ZN8codspeed24extract_lambda_namespaceERKNSt7__cxx1112basic_stringIcSt11char_traitsIcESaIcEEE.cold, location: /nix/store/9ds850ifd4jwcccpp3v14818kk74ldf2-gcc-14.2.1.20250322/include/c++/14.2.1.20250322/bits/basic_ios.h:50 },
    DebugInfo { addr: 409f2e, size: 2, name: bincode_deserializePointerAlloc__anon_2436__4284.cold, location: /proc/self/cwd/core/instrument-hooks/dist/core.c:3543 },
    DebugInfo { addr: 409f30, size: 67, name: instrument_hooks_start_benchmark.cold, location: /proc/self/cwd/core/instrument-hooks/dist/core.c:5247 },
    DebugInfo { addr: 409f97, size: 67, name: instrument_hooks_stop_benchmark.cold, location: /proc/self/cwd/core/instrument-hooks/dist/core.c:5371 },
    DebugInfo { addr: 40a000, size: 97, name: _ZNSt7__cxx1112basic_stringIcSt11char_traitsIcESaIcEEC2IS3_EEPKcRKS3_.constprop.0, location: /nix/store/9ds850ifd4jwcccpp3v14818kk74ldf2-gcc-14.2.1.20250322/include/c++/14.2.1.20250322/bits/basic_string.h:646 },
    DebugInfo { addr: 40a0a0, size: 69, name: _ZNK4testL28benchmark_uniq_22BM_TemplateMUlvE_clEv.isra.0, location: /proc/self/cwd/examples/google_benchmark_bazel/template_bench.hpp:19 },
    DebugInfo { addr: 40a110, size: 69, name: _ZNK17example_namespaceL20ns_MyFixture_FooTestMUlvE_clEv.isra.0, location: /proc/self/cwd/examples/google_benchmark_bazel/fixture_bench.hpp:17 },
    DebugInfo { addr: 40a180, size: 69, name: _ZNKL27benchmark_uniq_2_benchmark_MUlvE_clEv.isra.0, location: /proc/self/cwd/examples/google_benchmark_bazel/fibonacci_bench.hpp:17 },
    DebugInfo { addr: 40a1f0, size: 9d, name: main, location: /proc/self/cwd/examples/google_benchmark_bazel/main.cpp:60 },
    DebugInfo { addr: 40a290, size: 21c3, name: _Z41__static_initialization_and_destruction_0v, location: /proc/self/cwd/examples/google_benchmark_bazel/main.cpp:60 },
    DebugInfo { addr: 40c460, size: 5, name: _GLOBAL__sub_I_main.cpp, location: /proc/self/cwd/examples/google_benchmark_bazel/main.cpp:60 },
    DebugInfo { addr: 40c470, size: 313, name: _GLOBAL__sub_I_benchmark.cc, location: /proc/self/cwd/google_benchmark/src/benchmark.cc:953 },
    DebugInfo { addr: 40c790, size: 5, name: _GLOBAL__sub_I_timers.cc, location: /proc/self/cwd/google_benchmark/include/benchmark/benchmark.h:473 },
    DebugInfo { addr: 40c7a0, size: 5, name: _GLOBAL__sub_I_benchmark_name.cc, location: /proc/self/cwd/google_benchmark/include/benchmark/benchmark.h:473 },
    DebugInfo { addr: 40c7b0, size: 5, name: _GLOBAL__sub_I_string_util.cc, location: /proc/self/cwd/google_benchmark/include/benchmark/benchmark.h:473 },
    DebugInfo { addr: 40c7c0, size: 5, name: _GLOBAL__sub_I_benchmark_register.cc, location: /proc/self/cwd/google_benchmark/include/benchmark/benchmark.h:473 },
    DebugInfo { addr: 40c7d0, size: 5, name: _GLOBAL__sub_I_reporter.cc, location: /proc/self/cwd/google_benchmark/include/benchmark/benchmark.h:473 },
    DebugInfo { addr: 40c7e0, size: 5, name: _GLOBAL__sub_I_perf_counters.cc, location: /proc/self/cwd/google_benchmark/include/benchmark/benchmark.h:473 },
    DebugInfo { addr: 40c7f0, size: 5, name: _GLOBAL__sub_I_json_reporter.cc, location: /proc/self/cwd/google_benchmark/include/benchmark/benchmark.h:473 },
    DebugInfo { addr: 40c800, size: 13c, name: _GLOBAL__sub_I_csv_reporter.cc, location: /proc/self/cwd/google_benchmark/src/csv_reporter.cc:175 },
    DebugInfo { addr: 40c940, size: 21, name: _GLOBAL__sub_I_benchmark_runner.cc, location: /proc/self/cwd/google_benchmark/src/benchmark_runner.cc:568 },
    DebugInfo { addr: 40c970, size: 5, name: _GLOBAL__sub_I_console_reporter.cc, location: /proc/self/cwd/google_benchmark/include/benchmark/benchmark.h:473 },
    DebugInfo { addr: 40c980, size: 5, name: _GLOBAL__sub_I_complexity.cc, location: /proc/self/cwd/google_benchmark/include/benchmark/benchmark.h:473 },
    DebugInfo { addr: 40c990, size: 5, name: _GLOBAL__sub_I_commandlineflags.cc, location: /proc/self/cwd/google_benchmark/include/benchmark/benchmark.h:473 },
    DebugInfo { addr: 40c9a0, size: 5, name: _GLOBAL__sub_I_sysinfo.cc, location: /proc/self/cwd/google_benchmark/include/benchmark/benchmark.h:473 },
    DebugInfo { addr: 40c9b0, size: 5, name: _GLOBAL__sub_I_counter.cc, location: /proc/self/cwd/google_benchmark/include/benchmark/benchmark.h:473 },
    DebugInfo { addr: 40c9c0, size: 5, name: _GLOBAL__sub_I_statistics.cc, location: /proc/self/cwd/google_benchmark/include/benchmark/benchmark.h:473 },
    DebugInfo { addr: 40c9d0, size: 5, name: _GLOBAL__sub_I_benchmark_api_internal.cc, location: /proc/self/cwd/google_benchmark/include/benchmark/benchmark.h:473 },
    DebugInfo { addr: 40cae0, size: 102, name: _ZL21BM_FibonacciIterativeRN9benchmark5StateE, location: /proc/self/cwd/examples/google_benchmark_bazel/fibonacci_bench.hpp:31 },
    DebugInfo { addr: 40cbf0, size: 12e, name: _ZL9BM_memcpyRN9benchmark5StateE, location: /proc/self/cwd/examples/google_benchmark_bazel/main.cpp:45 },
    DebugInfo { addr: 40cd20, size: 87, name: _ZNL28benchmark_uniq_29_benchmark_MUlRN9benchmark5StateEE_4_FUNES2_, location: /proc/self/cwd/examples/google_benchmark_bazel/main.cpp:19 },
    DebugInfo { addr: 40cdb0, size: 8a, name: _ZL13BM_sleep_10nsRN9benchmark5StateE, location: /proc/self/cwd/examples/google_benchmark_bazel/sleep_bench.hpp:28 },
    DebugInfo { addr: 40ce40, size: 3c8, name: _ZL19fibonacci_recursivei, location: /proc/self/cwd/examples/google_benchmark_bazel/fibonacci_bench.hpp:5 },
    DebugInfo { addr: 40d210, size: 125, name: _ZL21BM_FibonacciRecursiveRN9benchmark5StateE, location: /proc/self/cwd/examples/google_benchmark_bazel/fibonacci_bench.hpp:10 },
    DebugInfo { addr: 40d340, size: 11c, name: _ZNL37benchmark_uniq_27BM_Template1_CaptureMUlRN9benchmark5StateEE_4_FUNES2_, location: /proc/self/cwd/examples/google_benchmark_bazel/template_bench.hpp:61 },
    DebugInfo { addr: 40d460, size: 114, name: _ZNL28benchmark_uniq_28_benchmark_MUlRN9benchmark5StateEE_4_FUNES2_, location: /proc/self/cwd/examples/google_benchmark_bazel/main.cpp:18 },
    DebugInfo { addr: 40d580, size: 114, name: _ZNL28benchmark_uniq_26_benchmark_MUlRN9benchmark5StateEE_4_FUNES2_, location: /proc/self/cwd/examples/google_benchmark_bazel/template_bench.hpp:59 },
    DebugInfo { addr: 40d6a0, size: 1b6, name: _ZL13BM_StringCopyRN9benchmark5StateE, location: /proc/self/cwd/examples/google_benchmark_bazel/main.cpp:34 },
    DebugInfo { addr: 40d860, size: 85, name: _ZN17example_namespace27MyFixture_BarTest_Benchmark13BenchmarkCaseERN9benchmark5StateE, location: /proc/self/cwd/examples/google_benchmark_bazel/fixture_bench.hpp:17 },
    DebugInfo { addr: 40d860, size: 85, name: _ZN17example_namespace36MyTemplatedFixture_IntTest_Benchmark13BenchmarkCaseERN9benchmark5StateE, location: /proc/self/cwd/examples/google_benchmark_bazel/fixture_bench.hpp:17 },
    DebugInfo { addr: 40d860, size: 85, name: _ZN17example_namespace39MyTemplatedFixture_DoubleTest_Benchmark13BenchmarkCaseERN9benchmark5StateE, location: /proc/self/cwd/examples/google_benchmark_bazel/fixture_bench.hpp:17 },
    DebugInfo { addr: 40d860, size: 85, name: _ZN17example_namespace27MyTemplate1_TestA_Benchmark13BenchmarkCaseERN9benchmark5StateE, location: /proc/self/cwd/examples/google_benchmark_bazel/fixture_bench.hpp:17 },
    DebugInfo { addr: 40d860, size: 85, name: _ZN17example_namespace27MyTemplate2_TestB_Benchmark13BenchmarkCaseERN9benchmark5StateE, location: /proc/self/cwd/examples/google_benchmark_bazel/fixture_bench.hpp:17 },
    DebugInfo { addr: 40d860, size: 85, name: _ZN17example_namespace27MyFixture_FooTest_Benchmark13BenchmarkCaseERN9benchmark5StateE, location: /proc/self/cwd/examples/google_benchmark_bazel/fixture_bench.hpp:17 },
    DebugInfo { addr: 40d8f0, size: 89, name: _ZL12BM_sleep_1nsRN9benchmark5StateE, location: /proc/self/cwd/examples/google_benchmark_bazel/sleep_bench.hpp:21 },
    DebugInfo { addr: 40d980, size: 8c, name: _ZL14BM_sleep_100msRN9benchmark5StateE, location: /proc/self/cwd/examples/google_benchmark_bazel/sleep_bench.hpp:98 },
    DebugInfo { addr: 40da10, size: 8c, name: _ZL13BM_sleep_50msRN9benchmark5StateE, location: /proc/self/cwd/examples/google_benchmark_bazel/sleep_bench.hpp:91 },
    DebugInfo { addr: 40daa0, size: 8c, name: _ZL13BM_sleep_10msRN9benchmark5StateE, location: /proc/self/cwd/examples/google_benchmark_bazel/sleep_bench.hpp:84 },
    DebugInfo { addr: 40db30, size: 8c, name: _ZL12BM_sleep_1msRN9benchmark5StateE, location: /proc/self/cwd/examples/google_benchmark_bazel/sleep_bench.hpp:77 },
    DebugInfo { addr: 40dbc0, size: 8c, name: _ZL14BM_sleep_100usRN9benchmark5StateE, location: /proc/self/cwd/examples/google_benchmark_bazel/sleep_bench.hpp:70 },
    DebugInfo { addr: 40dc50, size: 8c, name: _ZL13BM_sleep_50usRN9benchmark5StateE, location: /proc/self/cwd/examples/google_benchmark_bazel/sleep_bench.hpp:63 },
    DebugInfo { addr: 40dce0, size: 8c, name: _ZL13BM_sleep_10usRN9benchmark5StateE, location: /proc/self/cwd/examples/google_benchmark_bazel/sleep_bench.hpp:56 },
    DebugInfo { addr: 40dd70, size: 8c, name: _ZL12BM_sleep_1usRN9benchmark5StateE, location: /proc/self/cwd/examples/google_benchmark_bazel/sleep_bench.hpp:49 },
    DebugInfo { addr: 40de00, size: 8a, name: _ZL14BM_sleep_100nsRN9benchmark5StateE, location: /proc/self/cwd/examples/google_benchmark_bazel/sleep_bench.hpp:42 },
    DebugInfo { addr: 40de90, size: 8a, name: _ZL13BM_sleep_50nsRN9benchmark5StateE, location: /proc/self/cwd/examples/google_benchmark_bazel/sleep_bench.hpp:35 },
    DebugInfo { addr: 40df20, size: dd, name: _ZL14BM_rand_vectorRN9benchmark5StateE, location: /proc/self/cwd/examples/google_benchmark_bazel/main.cpp:22 },
    DebugInfo { addr: 40e000, size: 32, name: _ZN9benchmark7Fixture3RunERNS_5StateE, location: /proc/self/cwd/google_benchmark/include/benchmark/benchmark.h:1428 },
    DebugInfo { addr: 40e040, size: 1, name: _ZN9benchmark7Fixture5SetUpERKNS_5StateE, location: /proc/self/cwd/google_benchmark/include/benchmark/benchmark.h:1435 },
    DebugInfo { addr: 40e050, size: 1, name: _ZN9benchmark7Fixture8TearDownERKNS_5StateE, location: /proc/self/cwd/google_benchmark/include/benchmark/benchmark.h:1436 },
    DebugInfo { addr: 40e060, size: 1, name: _ZN17example_namespace9MyFixture5SetUpERN9benchmark5StateE, location: /proc/self/cwd/examples/google_benchmark_bazel/fixture_bench.hpp:13 },
    DebugInfo { addr: 40e070, size: 1, name: _ZN17example_namespace9MyFixture8TearDownERN9benchmark5StateE, location: /proc/self/cwd/examples/google_benchmark_bazel/fixture_bench.hpp:15 },
    DebugInfo { addr: 40e080, size: 13, name: _ZN17example_namespace27MyFixture_BarTest_BenchmarkD1Ev, location: /proc/self/cwd/google_benchmark/include/benchmark/benchmark.h:1424 },
    DebugInfo { addr: 40e080, size: 13, name: _ZN17example_namespace27MyFixture_BarTest_BenchmarkD2Ev, location: /proc/self/cwd/google_benchmark/include/benchmark/benchmark.h:1424 },
    DebugInfo { addr: 40e0a0, size: 31, name: _ZN17example_namespace27MyFixture_BarTest_BenchmarkD0Ev, location: /proc/self/cwd/examples/google_benchmark_bazel/fixture_bench.hpp:22 },
    DebugInfo { addr: 40e0e0, size: 13, name: _ZN17example_namespace27MyFixture_FooTest_BenchmarkD1Ev, location: /proc/self/cwd/google_benchmark/include/benchmark/benchmark.h:1424 },
    DebugInfo { addr: 40e0e0, size: 13, name: _ZN17example_namespace27MyFixture_FooTest_BenchmarkD2Ev, location: /proc/self/cwd/google_benchmark/include/benchmark/benchmark.h:1424 },
    DebugInfo { addr: 40e100, size: 31, name: _ZN17example_namespace27MyFixture_FooTest_BenchmarkD0Ev, location: /proc/self/cwd/examples/google_benchmark_bazel/fixture_bench.hpp:17 },
    DebugInfo { addr: 40e140, size: 13, name: _ZN17example_namespace36MyTemplatedFixture_IntTest_BenchmarkD1Ev, location: /proc/self/cwd/google_benchmark/include/benchmark/benchmark.h:1424 },
    DebugInfo { addr: 40e140, size: 13, name: _ZN17example_namespace36MyTemplatedFixture_IntTest_BenchmarkD2Ev, location: /proc/self/cwd/google_benchmark/include/benchmark/benchmark.h:1424 },
    DebugInfo { addr: 40e160, size: 31, name: _ZN17example_namespace36MyTemplatedFixture_IntTest_BenchmarkD0Ev, location: /proc/self/cwd/examples/google_benchmark_bazel/fixture_bench.hpp:34 },
    DebugInfo { addr: 40e1a0, size: 13, name: _ZN17example_namespace39MyTemplatedFixture_DoubleTest_BenchmarkD1Ev, location: /proc/self/cwd/google_benchmark/include/benchmark/benchmark.h:1424 },
    DebugInfo { addr: 40e1a0, size: 13, name: _ZN17example_namespace39MyTemplatedFixture_DoubleTest_BenchmarkD2Ev, location: /proc/self/cwd/google_benchmark/include/benchmark/benchmark.h:1424 },
    DebugInfo { addr: 40e1c0, size: 31, name: _ZN17example_namespace39MyTemplatedFixture_DoubleTest_BenchmarkD0Ev, location: /proc/self/cwd/examples/google_benchmark_bazel/fixture_bench.hpp:39 },
    DebugInfo { addr: 40e200, size: 13, name: _ZN17example_namespace27MyTemplate1_TestA_BenchmarkD1Ev, location: /proc/self/cwd/google_benchmark/include/benchmark/benchmark.h:1424 },
    DebugInfo { addr: 40e200, size: 13, name: _ZN17example_namespace27MyTemplate1_TestA_BenchmarkD2Ev, location: /proc/self/cwd/google_benchmark/include/benchmark/benchmark.h:1424 },
    DebugInfo { addr: 40e220, size: 31, name: _ZN17example_namespace27MyTemplate1_TestA_BenchmarkD0Ev, location: /proc/self/cwd/examples/google_benchmark_bazel/fixture_bench.hpp:52 },
    DebugInfo { addr: 40e260, size: 13, name: _ZN17example_namespace27MyTemplate2_TestB_BenchmarkD1Ev, location: /proc/self/cwd/google_benchmark/include/benchmark/benchmark.h:1424 },
    DebugInfo { addr: 40e260, size: 13, name: _ZN17example_namespace27MyTemplate2_TestB_BenchmarkD2Ev, location: /proc/self/cwd/google_benchmark/include/benchmark/benchmark.h:1424 },
    DebugInfo { addr: 40e280, size: 31, name: _ZN17example_namespace27MyTemplate2_TestB_BenchmarkD0Ev, location: /proc/self/cwd/examples/google_benchmark_bazel/fixture_bench.hpp:64 },
    DebugInfo { addr: 40e2d0, size: 1a, name: _ZN9benchmark7Fixture8TearDownERNS_5StateE, location: /proc/self/cwd/google_benchmark/include/benchmark/benchmark.h:1439 },
    DebugInfo { addr: 40e2f0, size: 1a, name: _ZN9benchmark7Fixture5SetUpERNS_5StateE, location: /proc/self/cwd/google_benchmark/include/benchmark/benchmark.h:1438 },
    DebugInfo { addr: 40e340, size: 512, name: _ZN4test11BM_TemplateINSt7__cxx1112basic_stringIcSt11char_traitsIcESaIcEEEEEvRN9benchmark5StateE, location: /proc/self/cwd/examples/google_benchmark_bazel/template_bench.hpp:11 },
    DebugInfo { addr: 40e860, size: 85, name: _Z12BM_Template2IidEvRN9benchmark5StateE, location: /proc/self/cwd/examples/google_benchmark_bazel/template_bench.hpp:39 },
    DebugInfo { addr: 40e8f0, size: 7d, name: _Z12BM_Template1IiEvRN9benchmark5StateE, location: /proc/self/cwd/examples/google_benchmark_bazel/template_bench.hpp:27 },
    DebugInfo { addr: 40e970, size: 5ec, name: _ZN17example_namespace27MyFixture_FooTest_BenchmarkC1Ev, location: /proc/self/cwd/examples/google_benchmark_bazel/fixture_bench.hpp:17 },
    DebugInfo { addr: 40e970, size: 5ec, name: _ZN17example_namespace27MyFixture_FooTest_BenchmarkC2Ev, location: /proc/self/cwd/examples/google_benchmark_bazel/fixture_bench.hpp:17 },
    DebugInfo { addr: 40ef60, size: 5ec, name: _ZN17example_namespace27MyFixture_BarTest_BenchmarkC1Ev, location: /proc/self/cwd/examples/google_benchmark_bazel/fixture_bench.hpp:22 },
    DebugInfo { addr: 40ef60, size: 5ec, name: _ZN17example_namespace27MyFixture_BarTest_BenchmarkC2Ev, location: /proc/self/cwd/examples/google_benchmark_bazel/fixture_bench.hpp:22 },
    DebugInfo { addr: 40f550, size: 5ec, name: _ZN17example_namespace36MyTemplatedFixture_IntTest_BenchmarkC1Ev, location: /proc/self/cwd/examples/google_benchmark_bazel/fixture_bench.hpp:34 },
    DebugInfo { addr: 40f550, size: 5ec, name: _ZN17example_namespace36MyTemplatedFixture_IntTest_BenchmarkC2Ev, location: /proc/self/cwd/examples/google_benchmark_bazel/fixture_bench.hpp:34 },
    DebugInfo { addr: 40fb40, size: 5ec, name: _ZN17example_namespace39MyTemplatedFixture_DoubleTest_BenchmarkC1Ev, location: /proc/self/cwd/examples/google_benchmark_bazel/fixture_bench.hpp:39 },
    DebugInfo { addr: 40fb40, size: 5ec, name: _ZN17example_namespace39MyTemplatedFixture_DoubleTest_BenchmarkC2Ev, location: /proc/self/cwd/examples/google_benchmark_bazel/fixture_bench.hpp:39 },
    DebugInfo { addr: 410130, size: 5ec, name: _ZN17example_namespace27MyTemplate1_TestA_BenchmarkC1Ev, location: /proc/self/cwd/examples/google_benchmark_bazel/fixture_bench.hpp:52 },
    DebugInfo { addr: 410130, size: 5ec, name: _ZN17example_namespace27MyTemplate1_TestA_BenchmarkC2Ev, location: /proc/self/cwd/examples/google_benchmark_bazel/fixture_bench.hpp:52 },
    DebugInfo { addr: 410720, size: 5ec, name: _ZN17example_namespace27MyTemplate2_TestB_BenchmarkC1Ev, location: /proc/self/cwd/examples/google_benchmark_bazel/fixture_bench.hpp:64 },
    DebugInfo { addr: 410720, size: 5ec, name: _ZN17example_namespace27MyTemplate2_TestB_BenchmarkC2Ev, location: /proc/self/cwd/examples/google_benchmark_bazel/fixture_bench.hpp:64 },
    DebugInfo { addr: 410d10, size: 11, name: _ZNSt10unique_ptrIN9benchmark8internal17FunctionBenchmarkESt14default_deleteIS2_EED1Ev, location: /nix/store/9ds850ifd4jwcccpp3v14818kk74ldf2-gcc-14.2.1.20250322/include/c++/14.2.1.20250322/bits/unique_ptr.h:398 },
    DebugInfo { addr: 410d10, size: 11, name: _ZNSt10unique_ptrIN9benchmark8internal17FunctionBenchmarkESt14default_deleteIS2_EED2Ev, location: /nix/store/9ds850ifd4jwcccpp3v14818kk74ldf2-gcc-14.2.1.20250322/include/c++/14.2.1.20250322/bits/unique_ptr.h:398 },
    DebugInfo { addr: 410d30, size: 11, name: _ZNSt10unique_ptrIN9benchmark8internal9BenchmarkESt14default_deleteIS2_EED1Ev, location: /nix/store/9ds850ifd4jwcccpp3v14818kk74ldf2-gcc-14.2.1.20250322/include/c++/14.2.1.20250322/bits/unique_ptr.h:398 },
    DebugInfo { addr: 410d30, size: 11, name: _ZNSt10unique_ptrIN9benchmark8internal9BenchmarkESt14default_deleteIS2_EED2Ev, location: /nix/store/9ds850ifd4jwcccpp3v14818kk74ldf2-gcc-14.2.1.20250322/include/c++/14.2.1.20250322/bits/unique_ptr.h:398 },
    DebugInfo { addr: 410d50, size: 219, name: _ZStplIcSt11char_traitsIcESaIcEENSt7__cxx1112basic_stringIT_T0_T1_EEOS8_S9_, location: /nix/store/9ds850ifd4jwcccpp3v14818kk74ldf2-gcc-14.2.1.20250322/include/c++/14.2.1.20250322/bits/basic_string.h:3696 },
    DebugInfo { addr: 410f70, size: 69, name: _ZSt11make_uniqueIN9benchmark8internal17FunctionBenchmarkEJNSt7__cxx1112basic_stringIcSt11char_traitsIcESaIcEEERFvRNS0_5StateEEEENSt8__detail9_MakeUniqIT_E15__single_objectEDpOT0_, location: /nix/store/9ds850ifd4jwcccpp3v14818kk74ldf2-gcc-14.2.1.20250322/include/c++/14.2.1.20250322/bits/unique_ptr.h:1076 },
    DebugInfo { addr: 410fe0, size: 21, name: _ZNSt12_Vector_baseIiSaIiEED1Ev, location: /nix/store/9ds850ifd4jwcccpp3v14818kk74ldf2-gcc-14.2.1.20250322/include/c++/14.2.1.20250322/bits/stl_vector.h:369 },
    DebugInfo { addr: 410fe0, size: 21, name: _ZNSt12_Vector_baseIiSaIiEED2Ev, location: /nix/store/9ds850ifd4jwcccpp3v14818kk74ldf2-gcc-14.2.1.20250322/include/c++/14.2.1.20250322/bits/stl_vector.h:369 },
    DebugInfo { addr: 411010, size: 1c2, name: _ZN4test11BM_TemplateIiEEvRN9benchmark5StateE, location: /proc/self/cwd/examples/google_benchmark_bazel/template_bench.hpp:11 },
    DebugInfo { addr: 411200, size: 8b, name: _ZNSt8_Rb_treeIiSt4pairIKiN9benchmark17BenchmarkReporter19PerFamilyRunReportsEESt10_Select1stIS5_ESt4lessIiESaIS5_EE24_M_get_insert_unique_posERS1_.isra.0, location: /nix/store/9ds850ifd4jwcccpp3v14818kk74ldf2-gcc-14.2.1.20250322/include/c++/14.2.1.20250322/bits/stl_tree.h:2106 },
    DebugInfo { addr: 411290, size: 90, name: _ZNSt7__cxx1112basic_stringIcSt11char_traitsIcESaIcEE12_M_constructIPcEEvT_S7_St20forward_iterator_tag.isra.0, location: /nix/store/9ds850ifd4jwcccpp3v14818kk74ldf2-gcc-14.2.1.20250322/include/c++/14.2.1.20250322/bits/basic_string.tcc:221 },
    DebugInfo { addr: 411320, size: 59, name: _ZNSt8_Rb_treeINSt7__cxx1112basic_stringIcSt11char_traitsIcESaIcEEESt4pairIKS5_N9benchmark7CounterEESt10_Select1stISA_ESt4lessIS5_ESaISA_EE8_M_eraseEPSt13_Rb_tree_nodeISA_E.isra.0, location: /nix/store/9ds850ifd4jwcccpp3v14818kk74ldf2-gcc-14.2.1.20250322/include/c++/14.2.1.20250322/bits/stl_tree.h:1930 },
    DebugInfo { addr: 411380, size: 71, name: _ZNSt8_Rb_treeINSt7__cxx1112basic_stringIcSt11char_traitsIcESaIcEEESt4pairIKS5_S5_ESt10_Select1stIS8_ESt4lessIS5_ESaIS8_EE8_M_eraseEPSt13_Rb_tree_nodeIS8_E.isra.0, location: /nix/store/9ds850ifd4jwcccpp3v14818kk74ldf2-gcc-14.2.1.20250322/include/c++/14.2.1.20250322/bits/stl_tree.h:1930 },
    DebugInfo { addr: 411400, size: 145, name: _ZNSt8_Rb_treeINSt7__cxx1112basic_stringIcSt11char_traitsIcESaIcEEESt4pairIKS5_N9benchmark7CounterEESt10_Select1stISA_ESt4lessIS5_ESaISA_EE24_M_get_insert_unique_posERS7_.isra.0, location: /nix/store/9ds850ifd4jwcccpp3v14818kk74ldf2-gcc-14.2.1.20250322/include/c++/14.2.1.20250322/bits/stl_tree.h:2106 },
    DebugInfo { addr: 411550, size: 1e1, name: _ZN9benchmark8internal12_GLOBAL__N_114CreateReporterERKNSt7__cxx1112basic_stringIcSt11char_traitsIcESaIcEEENS_15ConsoleReporter13OutputOptionsE, location: /proc/self/cwd/google_benchmark/src/benchmark.cc:612 },
    DebugInfo { addr: 411740, size: 445, name: _ZNSt8_Rb_treeINSt7__cxx1112basic_stringIcSt11char_traitsIcESaIcEEESt4pairIKS5_N9benchmark7CounterEESt10_Select1stISA_ESt4lessIS5_ESaISA_EE22_M_emplace_hint_uniqueIJRKSt21piecewise_construct_tSt5tupleIJRS7_EESL_IJEEEEESt17_Rb_tree_iteratorISA_ESt23_Rb_tree_const_iteratorISA_EDpOT_.isra.0, location: /nix/store/9ds850ifd4jwcccpp3v14818kk74ldf2-gcc-14.2.1.20250322/include/c++/14.2.1.20250322/bits/stl_tree.h:2456 },
    DebugInfo { addr: 411b90, size: 9c, name: _ZN9benchmark8internal11ThreadTimer9StopTimerEv.part.0, location: /proc/self/cwd/google_benchmark/src/thread_timer.h:30 },
    DebugInfo { addr: 411c30, size: 8, name: _ZN9benchmark8internal16GetGlobalContextB5cxx11Ev, location: /proc/self/cwd/google_benchmark/src/benchmark.cc:158 },
    DebugInfo { addr: 411c40, size: 8, name: _ZN9benchmark8internal14UseCharPointerEPVKc, location: /proc/self/cwd/google_benchmark/src/benchmark.cc:168 },
    DebugInfo { addr: 411c50, size: c1d, name: _ZN9benchmark5State11PauseTimingEv, location: /proc/self/cwd/google_benchmark/src/benchmark.cc:254 },
    DebugInfo { addr: 412870, size: 18f, name: _ZN9benchmark5State12ResumeTimingEv, location: /proc/self/cwd/google_benchmark/src/benchmark.cc:273 },
    DebugInfo { addr: 412a00, size: 12, name: _ZN9benchmark5State16SetIterationTimeEd, location: /proc/self/cwd/google_benchmark/src/benchmark.cc:312 },
    DebugInfo { addr: 412a20, size: 18, name: _ZN9benchmark8internal6IsZeroEd, location: /nix/store/9ds850ifd4jwcccpp3v14818kk74ldf2-gcc-14.2.1.20250322/include/c++/14.2.1.20250322/bits/std_abs.h:72 },
    DebugInfo { addr: 412a40, size: 6c, name: _ZN9benchmark8internal16GetOutputOptionsEb, location: /proc/self/cwd/google_benchmark/src/benchmark.cc:639 },
    DebugInfo { addr: 412ab0, size: 94, name: _ZN9benchmark28CreateDefaultDisplayReporterEv, location: /proc/self/cwd/google_benchmark/src/benchmark.cc:666 },
    DebugInfo { addr: 412b50, size: 7, name: _ZN9benchmark18GetDefaultTimeUnitEv, location: /proc/self/cwd/google_benchmark/src/benchmark.cc:771 },
    DebugInfo { addr: 412b60, size: 7, name: _ZN9benchmark18SetDefaultTimeUnitENS_8TimeUnitE, location: /proc/self/cwd/google_benchmark/src/benchmark.cc:773 },
    DebugInfo { addr: 412b70, size: 90, name: _ZN9benchmark18GetBenchmarkFilterB5cxx11Ev, location: /proc/self/cwd/google_benchmark/src/benchmark.cc:775 },
    DebugInfo { addr: 412c00, size: 174, name: _ZN9benchmark18SetBenchmarkFilterENSt7__cxx1112basic_stringIcSt11char_traitsIcESaIcEEE, location: /proc/self/cwd/google_benchmark/src/benchmark.cc:777 },
    DebugInfo { addr: 412d80, size: a, name: _ZN9benchmark21GetBenchmarkVerbosityEv, location: /proc/self/cwd/google_benchmark/src/benchmark.cc:781 },
    DebugInfo { addr: 412d90, size: b, name: _ZN9benchmark21RegisterMemoryManagerEPNS_13MemoryManagerE, location: /proc/self/cwd/google_benchmark/src/benchmark.cc:784 },
    DebugInfo { addr: 412da0, size: ae, name: _ZN9benchmark23RegisterProfilerManagerEPNS_15ProfilerManagerE, location: /proc/self/cwd/google_benchmark/src/benchmark.cc:787 },
    DebugInfo { addr: 412e50, size: 2c, name: _ZN9benchmark8internal17PrintUsageAndExitEv, location: /proc/self/cwd/google_benchmark/src/benchmark.cc:809 },
    DebugInfo { addr: 412e80, size: 72, name: _ZN9benchmark8internal26SetDefaultTimeUnitFromFlagERKNSt7__cxx1112basic_stringIcSt11char_traitsIcESaIcEEE, location: /nix/store/9ds850ifd4jwcccpp3v14818kk74ldf2-gcc-14.2.1.20250322/include/c++/14.2.1.20250322/bits/basic_string.h:1077 },
    DebugInfo { addr: 412f00, size: 74, name: _ZN9benchmark8internal17InitializeStreamsEv, location: /proc/self/cwd/google_benchmark/src/benchmark.cc:898 },
    DebugInfo { addr: 412f80, size: 17, name: _ZN9benchmark19GetBenchmarkVersionB5cxx11Ev, location: /nix/store/9ds850ifd4jwcccpp3v14818kk74ldf2-gcc-14.2.1.20250322/include/c++/14.2.1.20250322/bits/basic_string.h:235 },
    DebugInfo { addr: 412fa0, size: 20, name: _ZN9benchmark16PrintDefaultHelpEv, location: /proc/self/cwd/google_benchmark/src/benchmark.cc:913 },
    DebugInfo { addr: 412fc0, size: a3, name: _ZN9benchmark8ShutdownEv, location: /proc/self/cwd/google_benchmark/src/benchmark.cc:943 },
    DebugInfo { addr: 413070, size: 73, name: _ZN9benchmark27ReportUnrecognizedArgumentsEiPPc, location: /proc/self/cwd/google_benchmark/src/benchmark.cc:945 },
    DebugInfo { addr: 4130f0, size: 704, name: _ZN9benchmark5StateC1ENSt7__cxx1112basic_stringIcSt11char_traitsIcESaIcEEElRKSt6vectorIlSaIlEEiiPNS_8internal11ThreadTimerEPNSC_13ThreadManagerEPNSC_23PerfCountersMeasurementEPNS_15ProfilerManagerEPN8codspeed8CodSpeedE, location: /proc/self/cwd/google_benchmark/src/benchmark.cc:173 },
    DebugInfo { addr: 4130f0, size: 704, name: _ZN9benchmark5StateC2ENSt7__cxx1112basic_stringIcSt11char_traitsIcESaIcEEElRKSt6vectorIlSaIlEEiiPNS_8internal11ThreadTimerEPNSC_13ThreadManagerEPNSC_23PerfCountersMeasurementEPNS_15ProfilerManagerEPN8codspeed8CodSpeedE, location: /proc/self/cwd/google_benchmark/src/benchmark.cc:173 },
    DebugInfo { addr: 413800, size: 240, name: _ZNSt8_Rb_treeIiSt4pairIKiN9benchmark17BenchmarkReporter19PerFamilyRunReportsEESt10_Select1stIS5_ESt4lessIiESaIS5_EE8_M_eraseEPSt13_Rb_tree_nodeIS5_E.isra.0, location: /nix/store/9ds850ifd4jwcccpp3v14818kk74ldf2-gcc-14.2.1.20250322/include/c++/14.2.1.20250322/bits/stl_tree.h:1926 },
    DebugInfo { addr: 413a40, size: 67, name: _ZN9benchmark5State8SetLabelERKNSt7__cxx1112basic_stringIcSt11char_traitsIcESaIcEEE, location: /proc/self/cwd/google_benchmark/src/benchmark.cc:315 },
    DebugInfo { addr: 413ab0, size: 153, name: _ZN9benchmark5State15SkipWithMessageERKNSt7__cxx1112basic_stringIcSt11char_traitsIcESaIcEEE, location: /proc/self/cwd/google_benchmark/src/benchmark.cc:281 },
    DebugInfo { addr: 413c10, size: 153, name: _ZN9benchmark5State13SkipWithErrorERKNSt7__cxx1112basic_stringIcSt11char_traitsIcESaIcEEE, location: /proc/self/cwd/google_benchmark/src/benchmark.cc:296 },
    DebugInfo { addr: 413d70, size: 15a, name: _ZN9benchmark7Barrier4waitEv.isra.0, location: /proc/self/cwd/google_benchmark/src/mutex.h:104 },
    DebugInfo { addr: 413ed0, size: 113, name: _ZN9benchmark5State17FinishKeepRunningEv, location: /proc/self/cwd/google_benchmark/src/benchmark.cc:333 },
    DebugInfo { addr: 413ff0, size: 10d, name: _ZN9benchmark5State16StartKeepRunningEv, location: /proc/self/cwd/google_benchmark/src/benchmark.cc:320 },
    DebugInfo { addr: 414100, size: 755, name: _ZN9benchmark8internal12_GLOBAL__N_126generate_raw_walltime_dataERKNS0_10RunResultsE, location: /proc/self/cwd/google_benchmark/src/benchmark.cc:364 },
    DebugInfo { addr: 414860, size: 1f7, name: _ZN9benchmark16AddCustomContextERKNSt7__cxx1112basic_stringIcSt11char_traitsIcESaIcEEES7_, location: /proc/self/cwd/google_benchmark/src/benchmark.cc:795 },
    DebugInfo { addr: 414a60, size: 541, name: _ZN9benchmark8internal21ParseCommandLineFlagsEPiPPc, location: /proc/self/cwd/google_benchmark/src/benchmark.cc:834 },
    DebugInfo { addr: 414fb0, size: 27, name: _ZN9benchmark10InitializeEPiPPcPFvvE, location: /proc/self/cwd/google_benchmark/src/benchmark.cc:937 },
    DebugInfo { addr: 414fe0, size: 1fe, name: _ZNSt8_Rb_treeINSt7__cxx1112basic_stringIcSt11char_traitsIcESaIcEEESt4pairIKS5_N9benchmark7CounterEESt10_Select1stISA_ESt4lessIS5_ESaISA_EE7_M_copyILb0ENSG_20_Reuse_or_alloc_nodeEEEPSt13_Rb_tree_nodeISA_ESL_PSt18_Rb_tree_node_baseRT0_.isra.0, location: /nix/store/9ds850ifd4jwcccpp3v14818kk74ldf2-gcc-14.2.1.20250322/include/c++/14.2.1.20250322/bits/stl_tree.h:1888 },
    DebugInfo { addr: 4151e0, size: 3f3, name: _ZNSt11__copy_moveILb0ELb0ESt26random_access_iterator_tagE8__copy_mIPN9benchmark17BenchmarkReporter3RunES6_EET0_T_S8_S7_.isra.0, location: /nix/store/9ds850ifd4jwcccpp3v14818kk74ldf2-gcc-14.2.1.20250322/include/c++/14.2.1.20250322/bits/stl_algobase.h:401 },
    DebugInfo { addr: 4155e0, size: 2b11, name: _ZN9benchmark8internal12_GLOBAL__N_113RunBenchmarksERKSt6vectorINS0_17BenchmarkInstanceESaIS3_EEPNS_17BenchmarkReporterES9_, location: /proc/self/cwd/google_benchmark/src/benchmark.cc:437 },
    DebugInfo { addr: 418100, size: 79a, name: _ZN9benchmark22RunSpecifiedBenchmarksEPNS_17BenchmarkReporterES1_NSt7__cxx1112basic_stringIcSt11char_traitsIcESaIcEEE, location: /proc/self/cwd/google_benchmark/src/benchmark.cc:696 },
    DebugInfo { addr: 4188a0, size: 8a, name: _ZN9benchmark22RunSpecifiedBenchmarksEv, location: /proc/self/cwd/google_benchmark/src/benchmark.cc:670 },
    DebugInfo { addr: 418930, size: 122, name: _ZN9benchmark22RunSpecifiedBenchmarksENSt7__cxx1112basic_stringIcSt11char_traitsIcESaIcEEE, location: /proc/self/cwd/google_benchmark/src/benchmark.cc:674 },
    DebugInfo { addr: 418a60, size: 92, name: _ZN9benchmark22RunSpecifiedBenchmarksEPNS_17BenchmarkReporterE, location: /proc/self/cwd/google_benchmark/src/benchmark.cc:678 },
    DebugInfo { addr: 418b00, size: 124, name: _ZN9benchmark22RunSpecifiedBenchmarksEPNS_17BenchmarkReporterENSt7__cxx1112basic_stringIcSt11char_traitsIcESaIcEEE, location: /proc/self/cwd/google_benchmark/src/benchmark.cc:684 },
    DebugInfo { addr: 418c30, size: 9a, name: _ZN9benchmark22RunSpecifiedBenchmarksEPNS_17BenchmarkReporterES1_, location: /proc/self/cwd/google_benchmark/src/benchmark.cc:689 },
    DebugInfo { addr: 418cd0, size: 1, name: _ZN9benchmark17BenchmarkReporter16ReportRunsConfigEdbl, location: /proc/self/cwd/google_benchmark/include/benchmark/benchmark.h:1960 },
    DebugInfo { addr: 418ce0, size: 182, name: _ZNSt8_Rb_treeINSt7__cxx1112basic_stringIcSt11char_traitsIcESaIcEEESt4pairIKS5_N9benchmark7CounterEESt10_Select1stISA_ESt4lessIS5_ESaISA_EE7_M_copyILb0ENSG_11_Alloc_nodeEEEPSt13_Rb_tree_nodeISA_ESL_PSt18_Rb_tree_node_baseRT0_.isra.0, location: /nix/store/9ds850ifd4jwcccpp3v14818kk74ldf2-gcc-14.2.1.20250322/include/c++/14.2.1.20250322/bits/stl_tree.h:1888 },
    DebugInfo { addr: 418e70, size: 6d, name: _ZNSt3mapINSt7__cxx1112basic_stringIcSt11char_traitsIcESaIcEEES5_St4lessIS5_ESaISt4pairIKS5_S5_EEED1Ev, location: /nix/store/9ds850ifd4jwcccpp3v14818kk74ldf2-gcc-14.2.1.20250322/include/c++/14.2.1.20250322/bits/stl_map.h:314 },
    DebugInfo { addr: 418e70, size: 6d, name: _ZNSt3mapINSt7__cxx1112basic_stringIcSt11char_traitsIcESaIcEEES5_St4lessIS5_ESaISt4pairIKS5_S5_EEED2Ev, location: /nix/store/9ds850ifd4jwcccpp3v14818kk74ldf2-gcc-14.2.1.20250322/include/c++/14.2.1.20250322/bits/stl_map.h:314 },
    DebugInfo { addr: 418ee0, size: e3, name: _ZN8codspeed8CodSpeedD1Ev, location: /proc/self/cwd/core/include/codspeed.h:10 },
    DebugInfo { addr: 418ee0, size: e3, name: _ZN8codspeed8CodSpeedD2Ev, location: /proc/self/cwd/core/include/codspeed.h:10 },
    DebugInfo { addr: 418fd0, size: 145, name: _ZNSt8_Rb_treeINSt7__cxx1112basic_stringIcSt11char_traitsIcESaIcEEESt4pairIKS5_S5_ESt10_Select1stIS8_ESt4lessIS5_ESaIS8_EE24_M_get_insert_unique_posERS7_.isra.0, location: /nix/store/9ds850ifd4jwcccpp3v14818kk74ldf2-gcc-14.2.1.20250322/include/c++/14.2.1.20250322/bits/stl_tree.h:2106 },
    DebugInfo { addr: 419120, size: 10e, name: _ZN9benchmark13BenchmarkNameD1Ev, location: /proc/self/cwd/google_benchmark/include/benchmark/benchmark.h:1820 },
    DebugInfo { addr: 419120, size: 10e, name: _ZN9benchmark13BenchmarkNameD2Ev, location: /proc/self/cwd/google_benchmark/include/benchmark/benchmark.h:1820 },
    DebugInfo { addr: 419230, size: 186, name: _ZN9benchmark8internal12CheckHandlerC1ESt17basic_string_viewIcSt11char_traitsIcEES5_S5_i, location: /proc/self/cwd/google_benchmark/src/check.h:50 },
    DebugInfo { addr: 419230, size: 186, name: _ZN9benchmark8internal12CheckHandlerC2ESt17basic_string_viewIcSt11char_traitsIcEES5_S5_i, location: /proc/self/cwd/google_benchmark/src/check.h:50 },
    DebugInfo { addr: 4193c0, size: 64, name: _ZN9benchmark8internal12CheckHandlerD1Ev, location: /proc/self/cwd/google_benchmark/src/check.h:63 },
    DebugInfo { addr: 4193c0, size: 64, name: _ZN9benchmark8internal12CheckHandlerD2Ev, location: /proc/self/cwd/google_benchmark/src/check.h:63 },
    DebugInfo { addr: 419430, size: 66, name: _ZN8codspeed20RawWalltimeBenchmarkD1Ev, location: /proc/self/cwd/core/include/codspeed.h:34 },
    DebugInfo { addr: 419430, size: 66, name: _ZN8codspeed20RawWalltimeBenchmarkD2Ev, location: /proc/self/cwd/core/include/codspeed.h:34 },
    DebugInfo { addr: 4194a0, size: 73, name: _ZNSt6vectorINSt7__cxx1112basic_stringIcSt11char_traitsIcESaIcEEESaIS5_EED1Ev, location: /nix/store/9ds850ifd4jwcccpp3v14818kk74ldf2-gcc-14.2.1.20250322/include/c++/14.2.1.20250322/bits/stl_vector.h:733 },
    DebugInfo { addr: 4194a0, size: 73, name: _ZNSt6vectorINSt7__cxx1112basic_stringIcSt11char_traitsIcESaIcEEESaIS5_EED2Ev, location: /nix/store/9ds850ifd4jwcccpp3v14818kk74ldf2-gcc-14.2.1.20250322/include/c++/14.2.1.20250322/bits/stl_vector.h:733 },
    DebugInfo { addr: 419520, size: af, name: _ZNSt7__cxx1112basic_stringIcSt11char_traitsIcESaIcEEC1IS3_EEPKcRKS3_, location: /nix/store/9ds850ifd4jwcccpp3v14818kk74ldf2-gcc-14.2.1.20250322/include/c++/14.2.1.20250322/bits/basic_string.h:646 },
    DebugInfo { addr: 419520, size: af, name: _ZNSt7__cxx1112basic_stringIcSt11char_traitsIcESaIcEEC2IS3_EEPKcRKS3_, location: /nix/store/9ds850ifd4jwcccpp3v14818kk74ldf2-gcc-14.2.1.20250322/include/c++/14.2.1.20250322/bits/basic_string.h:646 },
    DebugInfo { addr: 4195d0, size: 21f, name: _ZNSt6vectorIN9benchmark17BenchmarkReporter3RunESaIS2_EED1Ev, location: /nix/store/9ds850ifd4jwcccpp3v14818kk74ldf2-gcc-14.2.1.20250322/include/c++/14.2.1.20250322/bits/stl_vector.h:733 },
    DebugInfo { addr: 4195d0, size: 21f, name: _ZNSt6vectorIN9benchmark17BenchmarkReporter3RunESaIS2_EED2Ev, location: /nix/store/9ds850ifd4jwcccpp3v14818kk74ldf2-gcc-14.2.1.20250322/include/c++/14.2.1.20250322/bits/stl_vector.h:733 },
    DebugInfo { addr: 4197f0, size: 4af, name: _ZNSt6vectorIN9benchmark8internal15BenchmarkRunnerESaIS2_EED1Ev, location: /nix/store/9ds850ifd4jwcccpp3v14818kk74ldf2-gcc-14.2.1.20250322/include/c++/14.2.1.20250322/bits/stl_vector.h:733 },
    DebugInfo { addr: 4197f0, size: 4af, name: _ZNSt6vectorIN9benchmark8internal15BenchmarkRunnerESaIS2_EED2Ev, location: /nix/store/9ds850ifd4jwcccpp3v14818kk74ldf2-gcc-14.2.1.20250322/include/c++/14.2.1.20250322/bits/stl_vector.h:733 },
    DebugInfo { addr: 419ca0, size: 20a, name: _ZNSt6vectorIN9benchmark8internal15BenchmarkRunnerESaIS2_EE7reserveEm, location: /nix/store/9ds850ifd4jwcccpp3v14818kk74ldf2-gcc-14.2.1.20250322/include/c++/14.2.1.20250322/bits/vector.tcc:70 },
    DebugInfo { addr: 419eb0, size: a3, name: _ZNSt6vectorIN8codspeed20RawWalltimeBenchmarkESaIS1_EED1Ev, location: /nix/store/9ds850ifd4jwcccpp3v14818kk74ldf2-gcc-14.2.1.20250322/include/c++/14.2.1.20250322/bits/stl_vector.h:733 },
    DebugInfo { addr: 419eb0, size: a3, name: _ZNSt6vectorIN8codspeed20RawWalltimeBenchmarkESaIS1_EED2Ev, location: /nix/store/9ds850ifd4jwcccpp3v14818kk74ldf2-gcc-14.2.1.20250322/include/c++/14.2.1.20250322/bits/stl_vector.h:733 },
    DebugInfo { addr: 419f60, size: 11, name: _ZNSt10unique_ptrIN9benchmark17BenchmarkReporterESt14default_deleteIS1_EED1Ev, location: /nix/store/9ds850ifd4jwcccpp3v14818kk74ldf2-gcc-14.2.1.20250322/include/c++/14.2.1.20250322/bits/unique_ptr.h:398 },
    DebugInfo { addr: 419f60, size: 11, name: _ZNSt10unique_ptrIN9benchmark17BenchmarkReporterESt14default_deleteIS1_EED2Ev, location: /nix/store/9ds850ifd4jwcccpp3v14818kk74ldf2-gcc-14.2.1.20250322/include/c++/14.2.1.20250322/bits/unique_ptr.h:398 },
    DebugInfo { addr: 419f80, size: 1b7, name: _ZNSt6vectorIN9benchmark8internal17BenchmarkInstanceESaIS2_EED1Ev, location: /nix/store/9ds850ifd4jwcccpp3v14818kk74ldf2-gcc-14.2.1.20250322/include/c++/14.2.1.20250322/bits/stl_vector.h:733 },
    DebugInfo { addr: 419f80, size: 1b7, name: _ZNSt6vectorIN9benchmark8internal17BenchmarkInstanceESaIS2_EED2Ev, location: /nix/store/9ds850ifd4jwcccpp3v14818kk74ldf2-gcc-14.2.1.20250322/include/c++/14.2.1.20250322/bits/stl_vector.h:733 },
    DebugInfo { addr: 41a140, size: 33, name: _ZNSt11unique_lockISt5mutexE6unlockEv, location: /nix/store/9ds850ifd4jwcccpp3v14818kk74ldf2-gcc-14.2.1.20250322/include/c++/14.2.1.20250322/bits/unique_lock.h:200 },
    DebugInfo { addr: 41a180, size: 23f, name: _ZNSt6vectorIN9benchmark8internal15BenchmarkRunnerESaIS2_EE17_M_realloc_appendIJRKNS1_17BenchmarkInstanceEPNS1_23PerfCountersMeasurementERPNS0_17BenchmarkReporter19PerFamilyRunReportsEEEEvDpOT_, location: /nix/store/9ds850ifd4jwcccpp3v14818kk74ldf2-gcc-14.2.1.20250322/include/c++/14.2.1.20250322/bits/stl_vector.h:993 },
    DebugInfo { addr: 41a3c0, size: 104, name: _ZNSt6vectorIdSaIdEE17_M_realloc_appendIJdEEEvDpOT_, location: /nix/store/9ds850ifd4jwcccpp3v14818kk74ldf2-gcc-14.2.1.20250322/include/c++/14.2.1.20250322/bits/stl_vector.h:1908 },
    DebugInfo { addr: 41a4d0, size: 5c2, name: _ZNSt6vectorIN8codspeed20RawWalltimeBenchmarkESaIS1_EE17_M_realloc_appendIJS1_EEEvDpOT_, location: /nix/store/9ds850ifd4jwcccpp3v14818kk74ldf2-gcc-14.2.1.20250322/include/c++/14.2.1.20250322/bits/stl_vector.h:993 },
    DebugInfo { addr: 41aaa0, size: 4a8, name: _ZNSt8_Rb_treeINSt7__cxx1112basic_stringIcSt11char_traitsIcESaIcEEESt4pairIKS5_S5_ESt10_Select1stIS8_ESt4lessIS5_ESaIS8_EE22_M_emplace_hint_uniqueIJRS7_SG_EEESt17_Rb_tree_iteratorIS8_ESt23_Rb_tree_const_iteratorIS8_EDpOT_, location: /nix/store/9ds850ifd4jwcccpp3v14818kk74ldf2-gcc-14.2.1.20250322/include/c++/14.2.1.20250322/bits/stl_tree.h:2456 },
    DebugInfo { addr: 41af50, size: 161, name: _ZNSt23mersenne_twister_engineImLm32ELm624ELm397ELm31ELm2567483615ELm11ELm4294967295ELm7ELm2636928640ELm15ELm4022730752ELm18ELm1812433253EE11_M_gen_randEv, location: /nix/store/9ds850ifd4jwcccpp3v14818kk74ldf2-gcc-14.2.1.20250322/include/c++/14.2.1.20250322/bits/random.tcc:397 },
    DebugInfo { addr: 41b0c0, size: 76, name: _ZNSt23mersenne_twister_engineImLm32ELm624ELm397ELm31ELm2567483615ELm11ELm4294967295ELm7ELm2636928640ELm15ELm4022730752ELm18ELm1812433253EEclEv, location: /nix/store/9ds850ifd4jwcccpp3v14818kk74ldf2-gcc-14.2.1.20250322/include/c++/14.2.1.20250322/bits/random.tcc:453 },
    DebugInfo { addr: 41b140, size: da, name: _ZNSt24uniform_int_distributionImEclISt23mersenne_twister_engineImLm32ELm624ELm397ELm31ELm2567483615ELm11ELm4294967295ELm7ELm2636928640ELm15ELm4022730752ELm18ELm1812433253EEEEmRT_RKNS0_10param_typeE.isra.0, location: /nix/store/9ds850ifd4jwcccpp3v14818kk74ldf2-gcc-14.2.1.20250322/include/c++/14.2.1.20250322/bits/uniform_int_dist.h:287 },
    DebugInfo { addr: 41b220, size: 139, name: _ZSt7shuffleIN9__gnu_cxx17__normal_iteratorIPmSt6vectorImSaImEEEERSt23mersenne_twister_engineImLm32ELm624ELm397ELm31ELm2567483615ELm11ELm4294967295ELm7ELm2636928640ELm15ELm4022730752ELm18ELm1812433253EEEvT_SA_OT0_, location: /nix/store/9ds850ifd4jwcccpp3v14818kk74ldf2-gcc-14.2.1.20250322/include/c++/14.2.1.20250322/bits/stl_algo.h:3705 },
    DebugInfo { addr: 41b360, size: 186, name: _ZN9benchmark17BenchmarkReporter3RunD1Ev, location: /proc/self/cwd/google_benchmark/include/benchmark/benchmark.h:1851 },
    DebugInfo { addr: 41b360, size: 186, name: _ZN9benchmark17BenchmarkReporter3RunD2Ev, location: /proc/self/cwd/google_benchmark/include/benchmark/benchmark.h:1851 },
    DebugInfo { addr: 41b4f0, size: 104, name: _ZNSt6vectorImSaImEE17_M_realloc_appendIJRKmEEEvDpOT_, location: /nix/store/9ds850ifd4jwcccpp3v14818kk74ldf2-gcc-14.2.1.20250322/include/c++/14.2.1.20250322/bits/stl_vector.h:1908 },
    DebugInfo { addr: 41b600, size: 4b2, name: _ZSt16__do_uninit_copyIN9__gnu_cxx17__normal_iteratorIPN9benchmark17BenchmarkReporter3RunESt6vectorIS4_SaIS4_EEEES5_ET0_T_SB_SA_, location: /nix/store/9ds850ifd4jwcccpp3v14818kk74ldf2-gcc-14.2.1.20250322/include/c++/14.2.1.20250322/bits/stl_uninitialized.h:113 },
    DebugInfo { addr: 41bac0, size: eb1, name: _ZN9benchmark17BenchmarkReporter3RunC1EOS1_, location: /proc/self/cwd/google_benchmark/include/benchmark/benchmark.h:1851 },
    DebugInfo { addr: 41bac0, size: eb1, name: _ZN9benchmark17BenchmarkReporter3RunC2EOS1_, location: /proc/self/cwd/google_benchmark/include/benchmark/benchmark.h:1851 },
    DebugInfo { addr: 41c980, size: 182, name: _ZNSt8_Rb_treeINSt7__cxx1112basic_stringIcSt11char_traitsIcESaIcEEESt4pairIKS5_N9benchmark7CounterEESt10_Select1stISA_ESt4lessIS5_ESaISA_EE20_Reuse_or_alloc_nodeclIRKSA_EEPSt13_Rb_tree_nodeISA_EOT_, location: /nix/store/9ds850ifd4jwcccpp3v14818kk74ldf2-gcc-14.2.1.20250322/include/c++/14.2.1.20250322/bits/stl_tree.h:464 },
    DebugInfo { addr: 41cb20, size: 36, name: _ZStlsISt11char_traitsIcEERSt13basic_ostreamIcT_ES5_c.isra.0, location: /nix/store/9ds850ifd4jwcccpp3v14818kk74ldf2-gcc-14.2.1.20250322/include/c++/14.2.1.20250322/ostream:579 },
    DebugInfo { addr: 41cb60, size: 4a, name: _ZN9benchmark12_GLOBAL__N_115DiagnoseAndExitEPKc, location: /proc/self/cwd/google_benchmark/src/timers.cc:110 },
    DebugInfo { addr: 41cbb0, size: 50, name: _ZN9benchmark15ProcessCPUUsageEv, location: /proc/self/cwd/google_benchmark/src/timers.cc:118 },
    DebugInfo { addr: 41cc00, size: 50, name: _ZN9benchmark14ThreadCPUUsageEv, location: /proc/self/cwd/google_benchmark/src/timers.cc:158 },
    DebugInfo { addr: 41cc50, size: 3cb, name: _ZN9benchmark19LocalDateTimeStringB5cxx11Ev, location: /proc/self/cwd/google_benchmark/src/timers.cc:213 },
    DebugInfo { addr: 41d030, size: 3d4, name: _ZNK9benchmark13BenchmarkName3strB5cxx11Ev, location: /proc/self/cwd/google_benchmark/src/benchmark_name.cc:20 },
    DebugInfo { addr: 41d440, size: 90, name: _ZNSt7__cxx1112basic_stringIcSt11char_traitsIcESaIcEE12_M_constructIPKcEEvT_S8_St20forward_iterator_tag.isra.0, location: /nix/store/9ds850ifd4jwcccpp3v14818kk74ldf2-gcc-14.2.1.20250322/include/c++/14.2.1.20250322/bits/basic_string.tcc:221 },
    DebugInfo { addr: 41d4d0, size: 1a4, name: _ZN9benchmark12_GLOBAL__N_112StrFormatImpEPKcP13__va_list_tag, location: /proc/self/cwd/google_benchmark/src/string_util.cc:115 },
    DebugInfo { addr: 41d680, size: 97, name: _ZN9benchmark9StrFormatB5cxx11EPKcz, location: /proc/self/cwd/google_benchmark/src/string_util.cc:154 },
    DebugInfo { addr: 41d720, size: ec7, name: _ZN9benchmark19HumanReadableNumberB5cxx11EdNS_7Counter4OneKE, location: /proc/self/cwd/google_benchmark/src/string_util.cc:150 },
    DebugInfo { addr: 41e5f0, size: 42f, name: _ZN9benchmark8StrSplitERKNSt7__cxx1112basic_stringIcSt11char_traitsIcESaIcEEEc, location: /proc/self/cwd/google_benchmark/src/string_util.cc:162 },
    DebugInfo { addr: 41ea80, size: 2ec, name: _ZNSt6vectorINSt7__cxx1112basic_stringIcSt11char_traitsIcESaIcEEESaIS5_EE17_M_realloc_appendIJS5_EEEvDpOT_, location: /nix/store/9ds850ifd4jwcccpp3v14818kk74ldf2-gcc-14.2.1.20250322/include/c++/14.2.1.20250322/bits/stl_vector.h:1908 },
    DebugInfo { addr: 41ed80, size: c, name: _ZN9benchmark8internal17FunctionBenchmark3RunERNS_5StateE, location: /proc/self/cwd/google_benchmark/src/benchmark_register.cc:506 },
    DebugInfo { addr: 41ed90, size: 90, name: _ZNSt7__cxx1112basic_stringIcSt11char_traitsIcESaIcEE12_M_constructIPcEEvT_S7_St20forward_iterator_tag.isra.0, location: /nix/store/9ds850ifd4jwcccpp3v14818kk74ldf2-gcc-14.2.1.20250322/include/c++/14.2.1.20250322/bits/basic_string.tcc:221 },
    DebugInfo { addr: 41ee20, size: 2f1, name: _ZNSt8_Rb_treeINSt7__cxx1112basic_stringIcSt11char_traitsIcESaIcEEESt4pairIKS5_N9benchmark7CounterEESt10_Select1stISA_ESt4lessIS5_ESaISA_EE8_M_eraseEPSt13_Rb_tree_nodeISA_E.isra.0, location: /nix/store/9ds850ifd4jwcccpp3v14818kk74ldf2-gcc-14.2.1.20250322/include/c++/14.2.1.20250322/bits/stl_tree.h:1926 },
    DebugInfo { addr: 41f120, size: 9b, name: _ZN9benchmark8internal17BenchmarkFamilies11GetInstanceEv, location: /proc/self/cwd/google_benchmark/src/benchmark_register.cc:96 },
    DebugInfo { addr: 41f1c0, size: 15a, name: _ZN9benchmark8internal17BenchmarkFamilies15ClearBenchmarksEv, location: /proc/self/cwd/google_benchmark/src/benchmark_register.cc:108 },
    DebugInfo { addr: 41f320, size: 173, name: _ZN9benchmark8internal9BenchmarkD1Ev, location: /proc/self/cwd/google_benchmark/src/benchmark_register.cc:236 },
    DebugInfo { addr: 41f320, size: 173, name: _ZN9benchmark8internal9BenchmarkD2Ev, location: /proc/self/cwd/google_benchmark/src/benchmark_register.cc:236 },
    DebugInfo { addr: 41f4a0, size: 23, name: _ZN9benchmark8internal9BenchmarkD0Ev, location: /proc/self/cwd/google_benchmark/src/benchmark_register.cc:236 },
    DebugInfo { addr: 41f4d0, size: b, name: _ZN9benchmark8internal9Benchmark4UnitENS_8TimeUnitE, location: /proc/self/cwd/google_benchmark/src/benchmark_register.cc:250 },
    DebugInfo { addr: 41f4e0, size: 17, name: _ZN9benchmark8internal9Benchmark5ApplyEPFvPS1_E, location: /proc/self/cwd/google_benchmark/src/benchmark_register.cc:335 },
    DebugInfo { addr: 41f500, size: a6, name: _ZN9benchmark8internal9Benchmark5SetupEPFvRKNS_5StateEE, location: /proc/self/cwd/google_benchmark/src/benchmark_register.cc:340 },
    DebugInfo { addr: 41f5b0, size: a6, name: _ZN9benchmark8internal9Benchmark8TeardownEPFvRKNS_5StateEE, location: /proc/self/cwd/google_benchmark/src/benchmark_register.cc:346 },
    DebugInfo { addr: 41f660, size: a6, name: _ZN9benchmark8internal9Benchmark15RangeMultiplierEi, location: /proc/self/cwd/google_benchmark/src/benchmark_register.cc:352 },
    DebugInfo { addr: 41f710, size: 137, name: _ZN9benchmark8internal9Benchmark7MinTimeEd, location: /proc/self/cwd/google_benchmark/src/benchmark_register.cc:358 },
    DebugInfo { addr: 41f850, size: 137, name: _ZN9benchmark8internal9Benchmark13MinWarmUpTimeEd, location: /proc/self/cwd/google_benchmark/src/benchmark_register.cc:365 },
    DebugInfo { addr: 41f990, size: 19d, name: _ZN9benchmark8internal9Benchmark10IterationsEl, location: /proc/self/cwd/google_benchmark/src/benchmark_register.cc:372 },
    DebugInfo { addr: 41fb30, size: a6, name: _ZN9benchmark8internal9Benchmark11RepetitionsEi, location: /proc/self/cwd/google_benchmark/src/benchmark_register.cc:380 },
    DebugInfo { addr: 41fbe0, size: 13, name: _ZN9benchmark8internal9Benchmark20ReportAggregatesOnlyEb, location: /proc/self/cwd/google_benchmark/src/benchmark_register.cc:387 },
    DebugInfo { addr: 41fc00, size: 1b, name: _ZN9benchmark8internal9Benchmark21DisplayAggregatesOnlyEb, location: /proc/self/cwd/google_benchmark/src/benchmark_register.cc:394 },
    DebugInfo { addr: 41fc20, size: b, name: _ZN9benchmark8internal9Benchmark21MeasureProcessCPUTimeEv, location: /proc/self/cwd/google_benchmark/src/benchmark_register.cc:409 },
    DebugInfo { addr: 41fc30, size: 10e, name: _ZN9benchmark8internal9Benchmark11UseRealTimeEv, location: /proc/self/cwd/google_benchmark/src/benchmark_register.cc:413 },
    DebugInfo { addr: 41fd40, size: 10e, name: _ZN9benchmark8internal9Benchmark13UseManualTimeEv, location: /proc/self/cwd/google_benchmark/src/benchmark_register.cc:420 },
    DebugInfo { addr: 41fe50, size: a, name: _ZN9benchmark8internal9Benchmark10ComplexityENS_4BigOE, location: /proc/self/cwd/google_benchmark/src/benchmark_register.cc:428 },
    DebugInfo { addr: 41fe60, size: 15, name: _ZN9benchmark8internal9Benchmark10ComplexityEPFdlE, location: /proc/self/cwd/google_benchmark/src/benchmark_register.cc:433 },
    DebugInfo { addr: 41fe80, size: 9, name: _ZN9benchmark8internal9Benchmark7SetNameERKNSt7__cxx1112basic_stringIcSt11char_traitsIcESaIcEEE, location: /proc/self/cwd/google_benchmark/src/benchmark_register.cc:477 },
    DebugInfo { addr: 41fe90, size: 1a, name: _ZN9benchmark8internal9Benchmark4NameERKNSt7__cxx1112basic_stringIcSt11char_traitsIcESaIcEEE, location: /proc/self/cwd/google_benchmark/src/benchmark_register.cc:238 },
    DebugInfo { addr: 41feb0, size: 5, name: _ZNK9benchmark8internal9Benchmark7GetNameEv, location: /proc/self/cwd/google_benchmark/src/benchmark_register.cc:479 },
    DebugInfo { addr: 41fec0, size: 3b, name: _ZNK9benchmark8internal9Benchmark7ArgsCntEv, location: /nix/store/9ds850ifd4jwcccpp3v14818kk74ldf2-gcc-14.2.1.20250322/include/c++/14.2.1.20250322/bits/stl_iterator.h:1068 },
    DebugInfo { addr: 41ff00, size: 393, name: _ZN9benchmark8internal9Benchmark8ArgNamesERKSt6vectorINSt7__cxx1112basic_stringIcSt11char_traitsIcESaIcEEESaIS8_EE, location: /proc/self/cwd/google_benchmark/src/benchmark_register.cc:314 },
    DebugInfo { addr: 4202a0, size: 120, name: _ZNK9benchmark8internal9Benchmark10GetArgNameEi, location: /proc/self/cwd/google_benchmark/src/benchmark_register.cc:491 },
    DebugInfo { addr: 4203c0, size: 15, name: _ZNK9benchmark8internal9Benchmark11GetTimeUnitEv, location: /proc/self/cwd/google_benchmark/src/benchmark_register.cc:499 },
    DebugInfo { addr: 4203e0, size: 12, name: _ZN9benchmark25ClearRegisteredBenchmarksEv, location: /proc/self/cwd/google_benchmark/src/benchmark_register.cc:510 },
    DebugInfo { addr: 420400, size: 155, name: _ZN9benchmark16CreateDenseRangeElli, location: /proc/self/cwd/google_benchmark/src/benchmark_register.cc:520 },
    DebugInfo { addr: 420560, size: 1af, name: _ZN9benchmark8internal9Benchmark4ArgsERKSt6vectorIlSaIlEE, location: /proc/self/cwd/google_benchmark/src/benchmark_register.cc:329 },
    DebugInfo { addr: 420710, size: 56c, name: _ZN9benchmark8internal9Benchmark11ArgsProductERKSt6vectorIS2_IlSaIlEESaIS4_EE, location: /proc/self/cwd/google_benchmark/src/benchmark_register.cc:281 },
    DebugInfo { addr: 420c80, size: 94, name: _ZN9benchmark8internal9Benchmark17ComputeStatisticsERKNSt7__cxx1112basic_stringIcSt11char_traitsIcESaIcEEEPFdRKSt6vectorIdSaIdEEENS_13StatisticUnitE, location: /proc/self/cwd/google_benchmark/src/benchmark_register.cc:440 },
    DebugInfo { addr: 420d20, size: 24a, name: _ZN9benchmark8internal9BenchmarkC1ERKNSt7__cxx1112basic_stringIcSt11char_traitsIcESaIcEEE, location: /proc/self/cwd/google_benchmark/src/benchmark_register.cc:213 },
    DebugInfo { addr: 420d20, size: 24a, name: _ZN9benchmark8internal9BenchmarkC2ERKNSt7__cxx1112basic_stringIcSt11char_traitsIcESaIcEEE, location: /proc/self/cwd/google_benchmark/src/benchmark_register.cc:213 },
    DebugInfo { addr: 420f70, size: 58, name: _ZN9benchmark8internal9Benchmark12ThreadPerCpuEv, location: /proc/self/cwd/google_benchmark/src/benchmark_register.cc:472 },
    DebugInfo { addr: 420fd0, size: f0, name: _ZN9benchmark8internal9Benchmark7ThreadsEi, location: /proc/self/cwd/google_benchmark/src/benchmark_register.cc:445 },
    DebugInfo { addr: 4210c0, size: 25c, name: _ZN9benchmark8internal9Benchmark16DenseThreadRangeEiii, location: /proc/self/cwd/google_benchmark/src/benchmark_register.cc:460 },
    DebugInfo { addr: 421320, size: 40d, name: _ZN9benchmark8internal9Benchmark11ThreadRangeEii, location: /proc/self/cwd/google_benchmark/src/benchmark_register.cc:451 },
    DebugInfo { addr: 421730, size: 7d, name: _ZN9benchmark8internal17BenchmarkFamilies12AddBenchmarkESt10unique_ptrINS0_9BenchmarkESt14default_deleteIS3_EE, location: /proc/self/cwd/google_benchmark/src/benchmark_register.cc:101 },
    DebugInfo { addr: 4217b0, size: 53, name: _ZN9benchmark8internal25RegisterBenchmarkInternalESt10unique_ptrINS0_9BenchmarkESt14default_deleteIS2_EE, location: /proc/self/cwd/google_benchmark/src/benchmark_register.cc:194 },
    DebugInfo { addr: 421810, size: 1521, name: _ZN9benchmark8internal17BenchmarkFamilies14FindBenchmarksENSt7__cxx1112basic_stringIcSt11char_traitsIcESaIcEEEPSt6vectorINS0_17BenchmarkInstanceESaIS9_EEPSo, location: /proc/self/cwd/google_benchmark/src/benchmark_register.cc:116 },
    DebugInfo { addr: 422d40, size: a5, name: _ZN9benchmark8internal22FindBenchmarksInternalERKNSt7__cxx1112basic_stringIcSt11char_traitsIcESaIcEEEPSt6vectorINS0_17BenchmarkInstanceESaISA_EEPSo, location: /proc/self/cwd/google_benchmark/src/benchmark_register.cc:205 },
    DebugInfo { addr: 422df0, size: 145, name: _ZN9benchmark8internal9Benchmark3ArgEl, location: /proc/self/cwd/google_benchmark/src/benchmark_register.cc:243 },
    DebugInfo { addr: 422f40, size: 1df, name: _ZN9benchmark8internal9Benchmark10DenseRangeElli, location: /proc/self/cwd/google_benchmark/src/benchmark_register.cc:320 },
    DebugInfo { addr: 423120, size: 2e, name: _ZN9benchmark11CreateRangeElli, location: /proc/self/cwd/google_benchmark/src/benchmark_register.cc:514 },
    DebugInfo { addr: 423150, size: 1c5, name: _ZN9benchmark8internal9Benchmark5RangeEll, location: /proc/self/cwd/google_benchmark/src/benchmark_register.cc:255 },
    DebugInfo { addr: 423320, size: 22d, name: _ZN9benchmark8internal9Benchmark6RangesERKSt6vectorISt4pairIllESaIS4_EE, location: /proc/self/cwd/google_benchmark/src/benchmark_register.cc:267 },
    DebugInfo { addr: 423550, size: 23e, name: _ZN9benchmark8internal9Benchmark7ArgNameERKNSt7__cxx1112basic_stringIcSt11char_traitsIcESaIcEEE, location: /proc/self/cwd/google_benchmark/src/benchmark_register.cc:308 },
    DebugInfo { addr: 423790, size: 6b, name: _ZN9benchmark8internal17BenchmarkFamiliesD1Ev, location: /proc/self/cwd/google_benchmark/src/benchmark_register.cc:73 },
    DebugInfo { addr: 423790, size: 6b, name: _ZN9benchmark8internal17BenchmarkFamiliesD2Ev, location: /proc/self/cwd/google_benchmark/src/benchmark_register.cc:73 },
    DebugInfo { addr: 423810, size: 16b, name: _ZN9benchmark8internal17BenchmarkInstanceD1Ev, location: /proc/self/cwd/google_benchmark/src/benchmark_api_internal.h:21 },
    DebugInfo { addr: 423810, size: 16b, name: _ZN9benchmark8internal17BenchmarkInstanceD2Ev, location: /proc/self/cwd/google_benchmark/src/benchmark_api_internal.h:21 },
    DebugInfo { addr: 423980, size: 13, name: _ZN9benchmark8internal17FunctionBenchmarkD1Ev, location: /proc/self/cwd/google_benchmark/include/benchmark/benchmark.h:1372 },
    DebugInfo { addr: 423980, size: 13, name: _ZN9benchmark8internal17FunctionBenchmarkD2Ev, location: /proc/self/cwd/google_benchmark/include/benchmark/benchmark.h:1372 },
    DebugInfo { addr: 4239a0, size: 31, name: _ZN9benchmark8internal17FunctionBenchmarkD0Ev, location: /proc/self/cwd/google_benchmark/include/benchmark/benchmark.h:1372 },
    DebugInfo { addr: 4239e0, size: 21, name: _ZNSt12_Vector_baseIlSaIlEED1Ev, location: /nix/store/9ds850ifd4jwcccpp3v14818kk74ldf2-gcc-14.2.1.20250322/include/c++/14.2.1.20250322/bits/stl_vector.h:369 },
    DebugInfo { addr: 4239e0, size: 21, name: _ZNSt12_Vector_baseIlSaIlEED2Ev, location: /nix/store/9ds850ifd4jwcccpp3v14818kk74ldf2-gcc-14.2.1.20250322/include/c++/14.2.1.20250322/bits/stl_vector.h:369 },
    DebugInfo { addr: 423a10, size: c8c, name: _ZNSt6vectorIN9benchmark8internal17BenchmarkInstanceESaIS2_EE7reserveEm, location: /nix/store/9ds850ifd4jwcccpp3v14818kk74ldf2-gcc-14.2.1.20250322/include/c++/14.2.1.20250322/bits/vector.tcc:70 },
    DebugInfo { addr: 4246a0, size: 6b, name: _ZNSt6vectorIS_IlSaIlEESaIS1_EED1Ev, location: /nix/store/9ds850ifd4jwcccpp3v14818kk74ldf2-gcc-14.2.1.20250322/include/c++/14.2.1.20250322/bits/stl_vector.h:733 },
    DebugInfo { addr: 4246a0, size: 6b, name: _ZNSt6vectorIS_IlSaIlEESaIS1_EED2Ev, location: /nix/store/9ds850ifd4jwcccpp3v14818kk74ldf2-gcc-14.2.1.20250322/include/c++/14.2.1.20250322/bits/stl_vector.h:733 },
    DebugInfo { addr: 424710, size: 104, name: _ZNSt6vectorIlSaIlEE17_M_realloc_appendIJRKlEEEvDpOT_, location: /nix/store/9ds850ifd4jwcccpp3v14818kk74ldf2-gcc-14.2.1.20250322/include/c++/14.2.1.20250322/bits/stl_vector.h:1908 },
    DebugInfo { addr: 424820, size: 27d, name: _ZN9benchmark8internal9AddPowersIlEENSt6vectorIT_SaIS3_EE8iteratorEPS5_S3_S3_i, location: /proc/self/cwd/google_benchmark/src/benchmark_register.h:16 },
    DebugInfo { addr: 424aa0, size: 21d, name: _ZNSt6vectorIS_IlSaIlEESaIS1_EE17_M_realloc_appendIJRKS1_EEEvDpOT_, location: /nix/store/9ds850ifd4jwcccpp3v14818kk74ldf2-gcc-14.2.1.20250322/include/c++/14.2.1.20250322/bits/stl_vector.h:993 },
    DebugInfo { addr: 424cc0, size: 295, name: _ZNSt6vectorIN9benchmark8internal10StatisticsESaIS2_EE17_M_realloc_appendIJRKNSt7__cxx1112basic_stringIcSt11char_traitsIcESaIcEEERPFdRKS_IdSaIdEEERNS0_13StatisticUnitEEEEvDpOT_, location: /nix/store/9ds850ifd4jwcccpp3v14818kk74ldf2-gcc-14.2.1.20250322/include/c++/14.2.1.20250322/bits/vector.tcc:581 },
    DebugInfo { addr: 424f60, size: 104, name: _ZNSt6vectorIiSaIiEE17_M_realloc_appendIJRKiEEEvDpOT_, location: /nix/store/9ds850ifd4jwcccpp3v14818kk74ldf2-gcc-14.2.1.20250322/include/c++/14.2.1.20250322/bits/stl_vector.h:1908 },
    DebugInfo { addr: 425080, size: 118, name: _ZNSt6vectorISt10unique_ptrIN9benchmark8internal9BenchmarkESt14default_deleteIS3_EESaIS6_EE17_M_realloc_appendIJS6_EEEvDpOT_, location: /nix/store/9ds850ifd4jwcccpp3v14818kk74ldf2-gcc-14.2.1.20250322/include/c++/14.2.1.20250322/bits/stl_vector.h:1908 },
    DebugInfo { addr: 4251a0, size: 1758, name: _ZNSt6vectorIN9benchmark8internal17BenchmarkInstanceESaIS2_EE17_M_realloc_appendIJS2_EEEvDpOT_, location: /nix/store/9ds850ifd4jwcccpp3v14818kk74ldf2-gcc-14.2.1.20250322/include/c++/14.2.1.20250322/bits/stl_vector.h:993 },
    DebugInfo { addr: 426900, size: 168, name: _ZNSt6vectorIS_IlSaIlEESaIS1_EE17_M_realloc_appendIJS1_EEEvDpOT_, location: /nix/store/9ds850ifd4jwcccpp3v14818kk74ldf2-gcc-14.2.1.20250322/include/c++/14.2.1.20250322/bits/vector.tcc:581 },
    DebugInfo { addr: 426a70, size: 104, name: _ZNSt6vectorIlSaIlEE17_M_realloc_appendIJlEEEvDpOT_, location: /nix/store/9ds850ifd4jwcccpp3v14818kk74ldf2-gcc-14.2.1.20250322/include/c++/14.2.1.20250322/bits/stl_vector.h:1908 },
    DebugInfo { addr: 426b80, size: 4f4, name: _ZN9benchmark8internal8AddRangeIlEEvPSt6vectorIT_SaIS3_EES3_S3_i, location: /proc/self/cwd/google_benchmark/src/benchmark_register.h:60 },
    DebugInfo { addr: 427080, size: 102, name: _ZSt16__do_uninit_copyIPKNSt7__cxx1112basic_stringIcSt11char_traitsIcESaIcEEEPS5_ET0_T_SA_S9_, location: /nix/store/9ds850ifd4jwcccpp3v14818kk74ldf2-gcc-14.2.1.20250322/include/c++/14.2.1.20250322/bits/stl_uninitialized.h:113 },
    DebugInfo { addr: 4271a0, size: 26, name: _ZN9benchmark17BenchmarkReporterC1Ev, location: /proc/self/cwd/google_benchmark/src/reporter.cc:30 },
    DebugInfo { addr: 4271a0, size: 26, name: _ZN9benchmark17BenchmarkReporterC2Ev, location: /proc/self/cwd/google_benchmark/src/reporter.cc:30 },
    DebugInfo { addr: 4271d0, size: 1, name: _ZN9benchmark17BenchmarkReporterD1Ev, location: /proc/self/cwd/google_benchmark/src/reporter.cc:32 },
    DebugInfo { addr: 4271d0, size: 1, name: _ZN9benchmark17BenchmarkReporterD2Ev, location: /proc/self/cwd/google_benchmark/src/reporter.cc:32 },
    DebugInfo { addr: 4271e0, size: 23, name: _ZN9benchmark17BenchmarkReporterD0Ev, location: /proc/self/cwd/google_benchmark/src/reporter.cc:32 },
    DebugInfo { addr: 427210, size: 675, name: _ZN9benchmark17BenchmarkReporter17PrintBasicContextEPSoRKNS0_7ContextE, location: /proc/self/cwd/google_benchmark/src/reporter.cc:35 },
    DebugInfo { addr: 427890, size: 2b, name: _ZN9benchmark17BenchmarkReporter7ContextC2Ev, location: /proc/self/cwd/google_benchmark/src/reporter.cc:100 },
    DebugInfo { addr: 427890, size: 2b, name: _ZN9benchmark17BenchmarkReporter7ContextC1Ev, location: /proc/self/cwd/google_benchmark/src/reporter.cc:100 },
    DebugInfo { addr: 4278c0, size: 136, name: _ZNK9benchmark17BenchmarkReporter3Run14benchmark_nameB5cxx11Ev, location: /proc/self/cwd/google_benchmark/src/reporter.cc:103 },
    DebugInfo { addr: 427a00, size: 34, name: _ZNK9benchmark17BenchmarkReporter3Run19GetAdjustedRealTimeEv, location: /proc/self/cwd/google_benchmark/src/reporter.cc:112 },
    DebugInfo { addr: 427a40, size: 34, name: _ZNK9benchmark17BenchmarkReporter3Run18GetAdjustedCPUTimeEv, location: /proc/self/cwd/google_benchmark/src/reporter.cc:120 },
    DebugInfo { addr: 427a80, size: 1, name: _ZN9benchmark17BenchmarkReporter8FinalizeEv, location: /proc/self/cwd/google_benchmark/include/benchmark/benchmark.h:1973 },
    DebugInfo { addr: 427aa0, size: 3, name: _ZN9benchmark8internal17PerfCounterValues4ReadERKSt6vectorIiSaIiEE, location: /proc/self/cwd/google_benchmark/src/perf_counters.cc:246 },
    DebugInfo { addr: 427ab0, size: 3, name: _ZN9benchmark8internal12PerfCounters10InitializeEv, location: /proc/self/cwd/google_benchmark/src/perf_counters.cc:250 },
    DebugInfo { addr: 427ac0, size: 3, name: _ZN9benchmark8internal12PerfCounters18IsCounterSupportedERKNSt7__cxx1112basic_stringIcSt11char_traitsIcESaIcEEE, location: /proc/self/cwd/google_benchmark/src/perf_counters.cc:252 },
    DebugInfo { addr: 427ad0, size: a0, name: _ZN9benchmark8internal12PerfCounters6CreateERKSt6vectorINSt7__cxx1112basic_stringIcSt11char_traitsIcESaIcEEESaIS8_EE, location: /proc/self/cwd/google_benchmark/src/perf_counters.cc:255 },
    DebugInfo { addr: 427b70, size: 1, name: _ZNK9benchmark8internal12PerfCounters13CloseCountersEv, location: /proc/self/cwd/google_benchmark/src/perf_counters.cc:262 },
    DebugInfo { addr: 427b80, size: 117, name: _ZN9benchmark8internal12PerfCountersaSEOS1_, location: /proc/self/cwd/google_benchmark/src/perf_counters.cc:271 },
    DebugInfo { addr: 427ca0, size: 107, name: _ZN9benchmark8internal23PerfCountersMeasurementC2ERKSt6vectorINSt7__cxx1112basic_stringIcSt11char_traitsIcESaIcEEESaIS8_EE, location: /proc/self/cwd/google_benchmark/src/perf_counters.cc:265 },
    DebugInfo { addr: 427ca0, size: 107, name: _ZN9benchmark8internal23PerfCountersMeasurementC1ERKSt6vectorINSt7__cxx1112basic_stringIcSt11char_traitsIcESaIcEEESaIS8_EE, location: /proc/self/cwd/google_benchmark/src/perf_counters.cc:265 },
    DebugInfo { addr: 427db0, size: 1d4, name: _ZN9benchmark8internal17PerfCounterValuesC1Em, location: /proc/self/cwd/google_benchmark/src/perf_counters.h:53 },
    DebugInfo { addr: 427db0, size: 1d4, name: _ZN9benchmark8internal17PerfCounterValuesC2Em, location: /proc/self/cwd/google_benchmark/src/perf_counters.h:53 },
    DebugInfo { addr: 427f90, size: b3, name: _ZN9benchmark8internal12PerfCountersD1Ev, location: /proc/self/cwd/google_benchmark/src/perf_counters.h:96 },
    DebugInfo { addr: 427f90, size: b3, name: _ZN9benchmark8internal12PerfCountersD2Ev, location: /proc/self/cwd/google_benchmark/src/perf_counters.h:96 },
    DebugInfo { addr: 428060, size: 15, name: _ZN9benchmark12JSONReporter8FinalizeEv, location: /nix/store/9ds850ifd4jwcccpp3v14818kk74ldf2-gcc-14.2.1.20250322/include/c++/14.2.1.20250322/ostream:676 },
    DebugInfo { addr: 428080, size: 27f, name: _ZN9benchmark12_GLOBAL__N_19StrEscapeERKNSt7__cxx1112basic_stringIcSt11char_traitsIcESaIcEEE, location: /proc/self/cwd/google_benchmark/src/json_reporter.cc:33 },
    DebugInfo { addr: 428300, size: 99, name: _ZN9benchmark12_GLOBAL__N_18FormatKVERKNSt7__cxx1112basic_stringIcSt11char_traitsIcESaIcEEEb, location: /proc/self/cwd/google_benchmark/src/json_reporter.cc:77 },
    DebugInfo { addr: 4283a0, size: c8, name: _ZN9benchmark12_GLOBAL__N_18FormatKVERKNSt7__cxx1112basic_stringIcSt11char_traitsIcESaIcEEES8_, location: /proc/self/cwd/google_benchmark/src/json_reporter.cc:67 },
    DebugInfo { addr: 428470, size: 1b8, name: _ZN9benchmark12_GLOBAL__N_18FormatKVERKNSt7__cxx1112basic_stringIcSt11char_traitsIcESaIcEEEPKc, location: /proc/self/cwd/google_benchmark/src/json_reporter.cc:72 },
    DebugInfo { addr: 428630, size: 4a1, name: _ZN9benchmark12_GLOBAL__N_18FormatKVERKNSt7__cxx1112basic_stringIcSt11char_traitsIcESaIcEEEl, location: /proc/self/cwd/google_benchmark/src/json_reporter.cc:82 },
    DebugInfo { addr: 428ae0, size: 136f, name: _ZN9benchmark12JSONReporter13ReportContextERKNS_17BenchmarkReporter7ContextE, location: /proc/self/cwd/google_benchmark/src/json_reporter.cc:114 },
    DebugInfo { addr: 429e50, size: 577, name: _ZN9benchmark12_GLOBAL__N_18FormatKVERKNSt7__cxx1112basic_stringIcSt11char_traitsIcESaIcEEEd, location: /proc/self/cwd/google_benchmark/src/json_reporter.cc:92 },
    DebugInfo { addr: 42a3d0, size: 198e, name: _ZN9benchmark12JSONReporter12PrintRunDataERKNS_17BenchmarkReporter3RunE, location: /proc/self/cwd/google_benchmark/src/json_reporter.cc:236 },
    DebugInfo { addr: 42bd60, size: 19e, name: _ZN9benchmark12JSONReporter10ReportRunsERKSt6vectorINS_17BenchmarkReporter3RunESaIS3_EE, location: /proc/self/cwd/google_benchmark/src/json_reporter.cc:209 },
    DebugInfo { addr: 42bf00, size: 13, name: _ZN9benchmark12JSONReporterD1Ev, location: /proc/self/cwd/google_benchmark/include/benchmark/benchmark.h:2032 },
    DebugInfo { addr: 42bf00, size: 13, name: _ZN9benchmark12JSONReporterD2Ev, location: /proc/self/cwd/google_benchmark/include/benchmark/benchmark.h:2032 },
    DebugInfo { addr: 42bf20, size: 31, name: _ZN9benchmark12JSONReporterD0Ev, location: /proc/self/cwd/google_benchmark/include/benchmark/benchmark.h:2032 },
    DebugInfo { addr: 42bf60, size: 50, name: _ZNSt7__cxx1115basic_stringbufIcSt11char_traitsIcESaIcEED2Ev, location: /nix/store/9ds850ifd4jwcccpp3v14818kk74ldf2-gcc-14.2.1.20250322/include/c++/14.2.1.20250322/sstream:79 },
    DebugInfo { addr: 42bf60, size: 50, name: _ZNSt7__cxx1115basic_stringbufIcSt11char_traitsIcESaIcEED1Ev, location: /nix/store/9ds850ifd4jwcccpp3v14818kk74ldf2-gcc-14.2.1.20250322/include/c++/14.2.1.20250322/sstream:79 },
    DebugInfo { addr: 42bf60, size: 50, name: _ZNSt7__cxx1115basic_stringbufIcSt11char_traitsIcESaIcEED2Ev, location: /nix/store/9ds850ifd4jwcccpp3v14818kk74ldf2-gcc-14.2.1.20250322/include/c++/14.2.1.20250322/sstream:79 },
    DebugInfo { addr: 42bf60, size: 50, name: _ZNSt7__cxx1115basic_stringbufIcSt11char_traitsIcESaIcEED1Ev, location: /nix/store/9ds850ifd4jwcccpp3v14818kk74ldf2-gcc-14.2.1.20250322/include/c++/14.2.1.20250322/sstream:79 },
    DebugInfo { addr: 42bfb0, size: 5d, name: _ZNSt7__cxx1115basic_stringbufIcSt11char_traitsIcESaIcEED0Ev, location: /nix/store/9ds850ifd4jwcccpp3v14818kk74ldf2-gcc-14.2.1.20250322/include/c++/14.2.1.20250322/sstream:79 },
    DebugInfo { addr: 42bfb0, size: 5d, name: _ZNSt7__cxx1115basic_stringbufIcSt11char_traitsIcESaIcEED0Ev, location: /nix/store/9ds850ifd4jwcccpp3v14818kk74ldf2-gcc-14.2.1.20250322/include/c++/14.2.1.20250322/sstream:79 },
    DebugInfo { addr: 42c020, size: 14, name: _ZN9benchmark11CSVReporter13ReportContextERKNS_17BenchmarkReporter7ContextE, location: /proc/self/cwd/google_benchmark/src/csv_reporter.cc:56 },
    DebugInfo { addr: 42c040, size: 36, name: _ZStlsISt11char_traitsIcEERSt13basic_ostreamIcT_ES5_c.isra.0, location: /nix/store/9ds850ifd4jwcccpp3v14818kk74ldf2-gcc-14.2.1.20250322/include/c++/14.2.1.20250322/ostream:579 },
    DebugInfo { addr: 42c080, size: 337, name: _ZN9benchmark9CsvEscapeERKNSt7__cxx1112basic_stringIcSt11char_traitsIcESaIcEEE, location: /proc/self/cwd/google_benchmark/src/csv_reporter.cc:39 },
    DebugInfo { addr: 42c3c0, size: a2c, name: _ZN9benchmark11CSVReporter12PrintRunDataERKNS_17BenchmarkReporter3RunE, location: /proc/self/cwd/google_benchmark/src/csv_reporter.cc:115 },
    DebugInfo { addr: 42cdf0, size: 872, name: _ZN9benchmark11CSVReporter10ReportRunsERKSt6vectorINS_17BenchmarkReporter3RunESaIS3_EE, location: /proc/self/cwd/google_benchmark/src/csv_reporter.cc:62 },
    DebugInfo { addr: 42d670, size: 59, name: _ZNSt8_Rb_treeINSt7__cxx1112basic_stringIcSt11char_traitsIcESaIcEEES5_St9_IdentityIS5_ESt4lessIS5_ESaIS5_EE8_M_eraseEPSt13_Rb_tree_nodeIS5_E.isra.0, location: /nix/store/9ds850ifd4jwcccpp3v14818kk74ldf2-gcc-14.2.1.20250322/include/c++/14.2.1.20250322/bits/stl_tree.h:1930 },
    DebugInfo { addr: 42d6d0, size: 78, name: _ZN9benchmark11CSVReporterD1Ev, location: /proc/self/cwd/google_benchmark/include/benchmark/benchmark.h:2046 },
    DebugInfo { addr: 42d6d0, size: 78, name: _ZN9benchmark11CSVReporterD2Ev, location: /proc/self/cwd/google_benchmark/include/benchmark/benchmark.h:2046 },
    DebugInfo { addr: 42d750, size: 85, name: _ZN9benchmark11CSVReporterD0Ev, location: /proc/self/cwd/google_benchmark/include/benchmark/benchmark.h:2046 },
    DebugInfo { addr: 42d7e0, size: f6, name: _ZNKSt8_Rb_treeINSt7__cxx1112basic_stringIcSt11char_traitsIcESaIcEEESt4pairIKS5_N9benchmark7CounterEESt10_Select1stISA_ESt4lessIS5_ESaISA_EE4findERS7_, location: /nix/store/9ds850ifd4jwcccpp3v14818kk74ldf2-gcc-14.2.1.20250322/include/c++/14.2.1.20250322/bits/stl_tree.h:2540 },
    DebugInfo { addr: 42d900, size: 90, name: _ZNSt7__cxx1112basic_stringIcSt11char_traitsIcESaIcEE12_M_constructIPcEEvT_S7_St20forward_iterator_tag.isra.0, location: /nix/store/9ds850ifd4jwcccpp3v14818kk74ldf2-gcc-14.2.1.20250322/include/c++/14.2.1.20250322/bits/basic_string.tcc:221 },
    DebugInfo { addr: 42d990, size: 59, name: _ZNSt8_Rb_treeINSt7__cxx1112basic_stringIcSt11char_traitsIcESaIcEEESt4pairIKS5_N9benchmark7CounterEESt10_Select1stISA_ESt4lessIS5_ESaISA_EE8_M_eraseEPSt13_Rb_tree_nodeISA_E.isra.0, location: /nix/store/9ds850ifd4jwcccpp3v14818kk74ldf2-gcc-14.2.1.20250322/include/c++/14.2.1.20250322/bits/stl_tree.h:1930 },
    DebugInfo { addr: 42d9f0, size: 444, name: _ZN9benchmark8internal17ParseBenchMinTimeERKNSt7__cxx1112basic_stringIcSt11char_traitsIcESaIcEEE, location: /nix/store/9ds850ifd4jwcccpp3v14818kk74ldf2-gcc-14.2.1.20250322/include/c++/14.2.1.20250322/bits/basic_string.h:1077 },
    DebugInfo { addr: 42de40, size: 15, name: _ZNK9benchmark8internal15BenchmarkRunner17GetMinTimeToApplyEv, location: /proc/self/cwd/google_benchmark/src/benchmark_runner.cc:386 },
    DebugInfo { addr: 42de60, size: bb, name: _ZNK9benchmark8internal15BenchmarkRunner28ShouldReportIterationResultsERKNS1_16IterationResultsE, location: /proc/self/cwd/google_benchmark/src/benchmark_runner.cc:372 },
    DebugInfo { addr: 42df20, size: 236, name: _ZNK9benchmark8internal15BenchmarkRunner21PredictNumItersNeededERKNS1_16IterationResultsE, location: /proc/self/cwd/google_benchmark/src/benchmark_runner.cc:341 },
    DebugInfo { addr: 42e160, size: f, name: _ZN9benchmark8internal15BenchmarkRunner12FinishWarmUpERKl, location: /proc/self/cwd/google_benchmark/src/benchmark_runner.cc:391 },
    DebugInfo { addr: 42e170, size: 3eb, name: _ZN9benchmark8internal15BenchmarkRunner10GetResultsEv, location: /proc/self/cwd/google_benchmark/src/benchmark_runner.cc:557 },
    DebugInfo { addr: 42e560, size: 458, name: _ZN9benchmark8internal15BenchmarkRunnerC2ERKNS0_17BenchmarkInstanceEPNS0_23PerfCountersMeasurementEPNS_17BenchmarkReporter19PerFamilyRunReportsE, location: /proc/self/cwd/google_benchmark/src/benchmark_runner.cc:239 },
    DebugInfo { addr: 42e560, size: 458, name: _ZN9benchmark8internal15BenchmarkRunnerC1ERKNS0_17BenchmarkInstanceEPNS0_23PerfCountersMeasurementEPNS_17BenchmarkReporter19PerFamilyRunReportsE, location: /proc/self/cwd/google_benchmark/src/benchmark_runner.cc:239 },
    DebugInfo { addr: 42e9c0, size: 5a7, name: _ZN9benchmark8internal12_GLOBAL__N_111RunInThreadEPKNS0_17BenchmarkInstanceEliPNS0_13ThreadManagerEPNS0_23PerfCountersMeasurementEPNS_15ProfilerManagerE, location: /proc/self/cwd/google_benchmark/src/benchmark_runner.cc:138 },
    DebugInfo { addr: 42ef70, size: 248, name: _ZN9benchmark8internal15BenchmarkRunner18RunProfilerManagerEl, location: /proc/self/cwd/google_benchmark/src/benchmark_runner.cc:451 },
    DebugInfo { addr: 42f1c0, size: 3d4, name: _ZN9benchmark8internal15BenchmarkRunner16RunMemoryManagerEl, location: /proc/self/cwd/google_benchmark/src/benchmark_runner.cc:431 },
    DebugInfo { addr: 42f5a0, size: 1fe, name: _ZNSt8_Rb_treeINSt7__cxx1112basic_stringIcSt11char_traitsIcESaIcEEESt4pairIKS5_N9benchmark7CounterEESt10_Select1stISA_ESt4lessIS5_ESaISA_EE7_M_copyILb0ENSG_20_Reuse_or_alloc_nodeEEEPSt13_Rb_tree_nodeISA_ESL_PSt18_Rb_tree_node_baseRT0_.isra.0, location: /nix/store/9ds850ifd4jwcccpp3v14818kk74ldf2-gcc-14.2.1.20250322/include/c++/14.2.1.20250322/bits/stl_tree.h:1888 },
    DebugInfo { addr: 42f7a0, size: fd, name: _ZNSt8_Rb_treeINSt7__cxx1112basic_stringIcSt11char_traitsIcESaIcEEESt4pairIKS5_N9benchmark7CounterEESt10_Select1stISA_ESt4lessIS5_ESaISA_EEaSERKSG_.isra.0, location: /nix/store/9ds850ifd4jwcccpp3v14818kk74ldf2-gcc-14.2.1.20250322/include/c++/14.2.1.20250322/bits/stl_tree.h:1777 },
    DebugInfo { addr: 42f8a0, size: 862, name: _ZN9benchmark8internal15BenchmarkRunner13DoNIterationsEv, location: /proc/self/cwd/google_benchmark/src/benchmark_runner.cc:288 },
    DebugInfo { addr: 430110, size: 73a, name: _ZN9benchmark8internal15BenchmarkRunner9RunWarmUpEv, location: /proc/self/cwd/google_benchmark/src/benchmark_runner.cc:394 },
    DebugInfo { addr: 430850, size: eba, name: _ZN9benchmark8internal15BenchmarkRunner15DoOneRepetitionEv, location: /proc/self/cwd/google_benchmark/src/benchmark_runner.cc:463 },
    DebugInfo { addr: 431710, size: 1, name: _ZNSt6thread24_M_thread_deps_never_runEv, location: /nix/store/9ds850ifd4jwcccpp3v14818kk74ldf2-gcc-14.2.1.20250322/include/c++/14.2.1.20250322/bits/std_thread.h:157 },
    DebugInfo { addr: 431720, size: 13, name: _ZNSt6thread11_State_implINS_8_InvokerISt5tupleIJPFvPKN9benchmark8internal17BenchmarkInstanceEliPNS4_13ThreadManagerEPNS4_23PerfCountersMeasurementEPNS3_15ProfilerManagerEES7_liS9_SB_DnEEEEED1Ev, location: /nix/store/9ds850ifd4jwcccpp3v14818kk74ldf2-gcc-14.2.1.20250322/include/c++/14.2.1.20250322/bits/std_thread.h:243 },
    DebugInfo { addr: 431720, size: 13, name: _ZNSt6thread11_State_implINS_8_InvokerISt5tupleIJPFvPKN9benchmark8internal17BenchmarkInstanceEliPNS4_13ThreadManagerEPNS4_23PerfCountersMeasurementEPNS3_15ProfilerManagerEES7_liS9_SB_DnEEEEED2Ev, location: /nix/store/9ds850ifd4jwcccpp3v14818kk74ldf2-gcc-14.2.1.20250322/include/c++/14.2.1.20250322/bits/std_thread.h:243 },
    DebugInfo { addr: 431740, size: 31, name: _ZNSt6thread11_State_implINS_8_InvokerISt5tupleIJPFvPKN9benchmark8internal17BenchmarkInstanceEliPNS4_13ThreadManagerEPNS4_23PerfCountersMeasurementEPNS3_15ProfilerManagerEES7_liS9_SB_DnEEEEED0Ev, location: /nix/store/9ds850ifd4jwcccpp3v14818kk74ldf2-gcc-14.2.1.20250322/include/c++/14.2.1.20250322/bits/std_thread.h:243 },
    DebugInfo { addr: 431780, size: 1f, name: _ZNSt6thread11_State_implINS_8_InvokerISt5tupleIJPFvPKN9benchmark8internal17BenchmarkInstanceEliPNS4_13ThreadManagerEPNS4_23PerfCountersMeasurementEPNS3_15ProfilerManagerEES7_liS9_SB_DnEEEEE6_M_runEv, location: /nix/store/9ds850ifd4jwcccpp3v14818kk74ldf2-gcc-14.2.1.20250322/include/c++/14.2.1.20250322/bits/invoke.h:61 },
    DebugInfo { addr: 4317a0, size: 182, name: _ZNSt8_Rb_treeINSt7__cxx1112basic_stringIcSt11char_traitsIcESaIcEEESt4pairIKS5_N9benchmark7CounterEESt10_Select1stISA_ESt4lessIS5_ESaISA_EE7_M_copyILb0ENSG_11_Alloc_nodeEEEPSt13_Rb_tree_nodeISA_ESL_PSt18_Rb_tree_node_baseRT0_.isra.0, location: /nix/store/9ds850ifd4jwcccpp3v14818kk74ldf2-gcc-14.2.1.20250322/include/c++/14.2.1.20250322/bits/stl_tree.h:1888 },
    DebugInfo { addr: 431930, size: 5e, name: _ZN9benchmark8internal13ThreadManager6ResultD1Ev, location: /proc/self/cwd/google_benchmark/src/thread_manager.h:39 },
    DebugInfo { addr: 431930, size: 5e, name: _ZN9benchmark8internal13ThreadManager6ResultD2Ev, location: /proc/self/cwd/google_benchmark/src/thread_manager.h:39 },
    DebugInfo { addr: 431990, size: 417, name: _ZN9benchmark17BenchmarkReporter3RunC1ERKS1_, location: /proc/self/cwd/google_benchmark/include/benchmark/benchmark.h:1851 },
    DebugInfo { addr: 431990, size: 417, name: _ZN9benchmark17BenchmarkReporter3RunC2ERKS1_, location: /proc/self/cwd/google_benchmark/include/benchmark/benchmark.h:1851 },
    DebugInfo { addr: 431db0, size: 1166, name: _ZNSt6vectorIN9benchmark17BenchmarkReporter3RunESaIS2_EE17_M_realloc_appendIJRKS2_EEEvDpOT_, location: /nix/store/9ds850ifd4jwcccpp3v14818kk74ldf2-gcc-14.2.1.20250322/include/c++/14.2.1.20250322/bits/stl_vector.h:993 },
    DebugInfo { addr: 432f30, size: da, name: _ZN9benchmarkL10FormatTimeEd, location: /proc/self/cwd/google_benchmark/src/console_reporter.cc:108 },
    DebugInfo { addr: 433010, size: 109, name: _ZN9benchmarkL16IgnoreColorPrintERSoNS_8LogColorEPKcz, location: /proc/self/cwd/google_benchmark/src/console_reporter.cc:101 },
    DebugInfo { addr: 433120, size: 59, name: _ZNSt8_Rb_treeINSt7__cxx1112basic_stringIcSt11char_traitsIcESaIcEEESt4pairIKS5_N9benchmark7CounterEESt10_Select1stISA_ESt4lessIS5_ESaISA_EE8_M_eraseEPSt13_Rb_tree_nodeISA_E.isra.0, location: /nix/store/9ds850ifd4jwcccpp3v14818kk74ldf2-gcc-14.2.1.20250322/include/c++/14.2.1.20250322/bits/stl_tree.h:1930 },
    DebugInfo { addr: 433180, size: 54, name: _ZN9benchmark15ConsoleReporter13ReportContextERKNS_17BenchmarkReporter7ContextE, location: /proc/self/cwd/google_benchmark/src/console_reporter.cc:37 },
    DebugInfo { addr: 4331e0, size: 22c, name: _ZN9benchmark15ConsoleReporter11PrintHeaderERKNS_17BenchmarkReporter3RunE, location: /proc/self/cwd/google_benchmark/src/console_reporter.cc:61 },
    DebugInfo { addr: 433410, size: 508, name: _ZNSt8_Rb_treeINSt7__cxx1112basic_stringIcSt11char_traitsIcESaIcEEESt4pairIKS5_N9benchmark7CounterEESt10_Select1stISA_ESt4lessIS5_ESaISA_EE7_M_copyILb0ENSG_20_Reuse_or_alloc_nodeEEEPSt13_Rb_tree_nodeISA_ESL_PSt18_Rb_tree_node_baseRT0_.isra.0, location: /nix/store/9ds850ifd4jwcccpp3v14818kk74ldf2-gcc-14.2.1.20250322/include/c++/14.2.1.20250322/bits/stl_tree.h:1888 },
    DebugInfo { addr: 433920, size: 19d, name: _ZN9benchmark15ConsoleReporter10ReportRunsERKSt6vectorINS_17BenchmarkReporter3RunESaIS3_EE, location: /proc/self/cwd/google_benchmark/src/console_reporter.cc:79 },
    DebugInfo { addr: 433ac0, size: 942, name: _ZN9benchmark15ConsoleReporter12PrintRunDataERKNS_17BenchmarkReporter3RunE, location: /proc/self/cwd/google_benchmark/src/console_reporter.cc:131 },
    DebugInfo { addr: 434410, size: 78, name: _ZN9benchmark15ConsoleReporterD1Ev, location: /proc/self/cwd/google_benchmark/include/benchmark/benchmark.h:2007 },
    DebugInfo { addr: 434410, size: 78, name: _ZN9benchmark15ConsoleReporterD2Ev, location: /proc/self/cwd/google_benchmark/include/benchmark/benchmark.h:2007 },
    DebugInfo { addr: 434490, size: 85, name: _ZN9benchmark15ConsoleReporterD0Ev, location: /proc/self/cwd/google_benchmark/include/benchmark/benchmark.h:2007 },
    DebugInfo { addr: 434530, size: a, name: _ZZN9benchmark12FittingCurveENS_4BigOEENUllE_4_FUNEl, location: /proc/self/cwd/google_benchmark/src/complexity.cc:32 },
    DebugInfo { addr: 434540, size: 9, name: _ZZN9benchmark12FittingCurveENS_4BigOEENUllE4_4_FUNEl, location: /proc/self/cwd/google_benchmark/src/complexity.cc:47 },
    DebugInfo { addr: 434550, size: 2a, name: _ZZN9benchmark12FittingCurveENS_4BigOEENUllE3_4_FUNEl, location: /proc/self/cwd/google_benchmark/src/complexity.cc:43 },
    DebugInfo { addr: 434580, size: e, name: _ZZN9benchmark12FittingCurveENS_4BigOEENUllE2_4_FUNEl, location: /proc/self/cwd/google_benchmark/src/complexity.cc:39 },
    DebugInfo { addr: 434590, size: 16, name: _ZZN9benchmark12FittingCurveENS_4BigOEENUllE1_4_FUNEl, location: /nix/store/9ds850ifd4jwcccpp3v14818kk74ldf2-gcc-14.2.1.20250322/include/c++/14.2.1.20250322/cmath:1077 },
    DebugInfo { addr: 4345b0, size: e, name: _ZZN9benchmark12FittingCurveENS_4BigOEENUllE0_4_FUNEl, location: /nix/store/9ds850ifd4jwcccpp3v14818kk74ldf2-gcc-14.2.1.20250322/include/c++/14.2.1.20250322/cmath:1077 },
    DebugInfo { addr: 4345c0, size: 90, name: _ZNSt7__cxx1112basic_stringIcSt11char_traitsIcESaIcEE12_M_constructIPcEEvT_S7_St20forward_iterator_tag.isra.0, location: /nix/store/9ds850ifd4jwcccpp3v14818kk74ldf2-gcc-14.2.1.20250322/include/c++/14.2.1.20250322/bits/basic_string.tcc:221 },
    DebugInfo { addr: 434650, size: 59, name: _ZNSt8_Rb_treeINSt7__cxx1112basic_stringIcSt11char_traitsIcESaIcEEESt4pairIKS5_N9benchmark7CounterEESt10_Select1stISA_ESt4lessIS5_ESaISA_EE8_M_eraseEPSt13_Rb_tree_nodeISA_E.isra.0, location: /nix/store/9ds850ifd4jwcccpp3v14818kk74ldf2-gcc-14.2.1.20250322/include/c++/14.2.1.20250322/bits/stl_tree.h:1930 },
    DebugInfo { addr: 4346b0, size: 11a, name: _ZNSt8_Rb_treeINSt7__cxx1112basic_stringIcSt11char_traitsIcESaIcEEESt4pairIKS5_N9benchmark7CounterEESt10_Select1stISA_ESt4lessIS5_ESaISA_EE7_M_copyILb0ENSG_11_Alloc_nodeEEEPSt13_Rb_tree_nodeISA_ESL_PSt18_Rb_tree_node_baseRT0_.isra.0, location: /nix/store/9ds850ifd4jwcccpp3v14818kk74ldf2-gcc-14.2.1.20250322/include/c++/14.2.1.20250322/bits/stl_tree.h:1888 },
    DebugInfo { addr: 4347d0, size: 70, name: _ZN9benchmark12FittingCurveENS_4BigOE, location: /proc/self/cwd/google_benchmark/src/complexity.cc:30 },
    DebugInfo { addr: 434840, size: e6, name: _ZN9benchmark13GetBigOStringB5cxx11ENS_4BigOE, location: /nix/store/9ds850ifd4jwcccpp3v14818kk74ldf2-gcc-14.2.1.20250322/include/c++/14.2.1.20250322/bits/basic_string.h:235 },
    DebugInfo { addr: 434930, size: 206, name: _ZN9benchmark14MinimalLeastSqERKSt6vectorIlSaIlEERKS0_IdSaIdEEPFdlE, location: /proc/self/cwd/google_benchmark/src/complexity.cc:83 },
    DebugInfo { addr: 434b40, size: 2e1, name: _ZN9benchmark14MinimalLeastSqERKSt6vectorIlSaIlEERKS0_IdSaIdEENS_4BigOE, location: /proc/self/cwd/google_benchmark/src/complexity.cc:124 },
    DebugInfo { addr: 434e30, size: 14b5, name: _ZN9benchmark11ComputeBigOERKSt6vectorINS_17BenchmarkReporter3RunESaIS2_EE, location: /proc/self/cwd/google_benchmark/src/complexity.cc:156 },
    DebugInfo { addr: 436300, size: 1cf, name: _ZN9benchmark13BenchmarkNameC1ERKS0_, location: /proc/self/cwd/google_benchmark/include/benchmark/benchmark.h:1820 },
    DebugInfo { addr: 436300, size: 1cf, name: _ZN9benchmark13BenchmarkNameC2ERKS0_, location: /proc/self/cwd/google_benchmark/include/benchmark/benchmark.h:1820 },
    DebugInfo { addr: 4364d0, size: 21, name: _ZNSt12_Vector_baseIdSaIdEED1Ev, location: /nix/store/9ds850ifd4jwcccpp3v14818kk74ldf2-gcc-14.2.1.20250322/include/c++/14.2.1.20250322/bits/stl_vector.h:369 },
    DebugInfo { addr: 4364d0, size: 21, name: _ZNSt12_Vector_baseIdSaIdEED2Ev, location: /nix/store/9ds850ifd4jwcccpp3v14818kk74ldf2-gcc-14.2.1.20250322/include/c++/14.2.1.20250322/bits/stl_vector.h:369 },
    DebugInfo { addr: 436500, size: 21, name: _ZNSt12_Vector_baseIN9benchmark4BigOESaIS1_EED1Ev, location: /nix/store/9ds850ifd4jwcccpp3v14818kk74ldf2-gcc-14.2.1.20250322/include/c++/14.2.1.20250322/bits/stl_vector.h:369 },
    DebugInfo { addr: 436500, size: 21, name: _ZNSt12_Vector_baseIN9benchmark4BigOESaIS1_EED2Ev, location: /nix/store/9ds850ifd4jwcccpp3v14818kk74ldf2-gcc-14.2.1.20250322/include/c++/14.2.1.20250322/bits/stl_vector.h:369 },
    DebugInfo { addr: 436540, size: 90, name: _ZNSt7__cxx1112basic_stringIcSt11char_traitsIcESaIcEE12_M_constructIPcEEvT_S7_St20forward_iterator_tag.isra.0, location: /nix/store/9ds850ifd4jwcccpp3v14818kk74ldf2-gcc-14.2.1.20250322/include/c++/14.2.1.20250322/bits/basic_string.tcc:221 },
    DebugInfo { addr: 4365d0, size: 78, name: _ZN9benchmark12_GLOBAL__N_111ParseDoubleERKNSt7__cxx1112basic_stringIcSt11char_traitsIcESaIcEEEPKcPd.part.0.isra.0, location: /proc/self/cwd/google_benchmark/src/commandlineflags.cc:68 },
    DebugInfo { addr: 436650, size: 71, name: _ZNSt8_Rb_treeINSt7__cxx1112basic_stringIcSt11char_traitsIcESaIcEEESt4pairIKS5_S5_ESt10_Select1stIS8_ESt4lessIS5_ESaIS8_EE8_M_eraseEPSt13_Rb_tree_nodeIS8_E.isra.0, location: /nix/store/9ds850ifd4jwcccpp3v14818kk74ldf2-gcc-14.2.1.20250322/include/c++/14.2.1.20250322/bits/stl_tree.h:1930 },
    DebugInfo { addr: 4366d0, size: 177, name: _ZN9benchmark12_GLOBAL__N_110ParseInt32ERKNSt7__cxx1112basic_stringIcSt11char_traitsIcESaIcEEEPKcPi, location: /proc/self/cwd/google_benchmark/src/commandlineflags.cc:34 },
    DebugInfo { addr: 436850, size: 1c6, name: _ZN9benchmark12_GLOBAL__N_112FlagToEnvVarEPKc, location: /proc/self/cwd/google_benchmark/src/commandlineflags.cc:112 },
    DebugInfo { addr: 436a20, size: 5c8, name: _ZNSt8_Rb_treeINSt7__cxx1112basic_stringIcSt11char_traitsIcESaIcEEESt4pairIKS5_S5_ESt10_Select1stIS8_ESt4lessIS5_ESaIS8_EE7_M_copyILb0ENSE_20_Reuse_or_alloc_nodeEEEPSt13_Rb_tree_nodeIS8_ESJ_PSt18_Rb_tree_node_baseRT0_.isra.0, location: /nix/store/9ds850ifd4jwcccpp3v14818kk74ldf2-gcc-14.2.1.20250322/include/c++/14.2.1.20250322/bits/stl_tree.h:1888 },
    DebugInfo { addr: 436ff0, size: 277, name: _ZN9benchmark12Int32FromEnvEPKci, location: /proc/self/cwd/google_benchmark/src/commandlineflags.cc:133 },
    DebugInfo { addr: 437270, size: 2cc, name: _ZN9benchmark13DoubleFromEnvEPKcd, location: /proc/self/cwd/google_benchmark/src/commandlineflags.cc:146 },
    DebugInfo { addr: 437540, size: 77, name: _ZN9benchmark13StringFromEnvEPKcS1_, location: /proc/self/cwd/google_benchmark/src/commandlineflags.cc:159 },
    DebugInfo { addr: 4375c0, size: 35b, name: _ZN9benchmark14ParseFlagValueEPKcS1_b, location: /proc/self/cwd/google_benchmark/src/commandlineflags.cc:188 },
    DebugInfo { addr: 437920, size: 1f7, name: _ZN9benchmark14ParseInt32FlagEPKcS1_Pi, location: /proc/self/cwd/google_benchmark/src/commandlineflags.cc:236 },
    DebugInfo { addr: 437b20, size: 246, name: _ZN9benchmark15ParseDoubleFlagEPKcS1_Pd, location: /proc/self/cwd/google_benchmark/src/commandlineflags.cc:251 },
    DebugInfo { addr: 437d70, size: 42, name: _ZN9benchmark15ParseStringFlagEPKcS1_PNSt7__cxx1112basic_stringIcSt11char_traitsIcESaIcEEE, location: /proc/self/cwd/google_benchmark/src/commandlineflags.cc:266 },
    DebugInfo { addr: 437dc0, size: 16, name: _ZN9benchmark6IsFlagEPKcS1_, location: /proc/self/cwd/google_benchmark/src/commandlineflags.cc:300 },
    DebugInfo { addr: 437de0, size: 1a0, name: _ZN9benchmark17IsTruthyFlagValueERKNSt7__cxx1112basic_stringIcSt11char_traitsIcESaIcEEE, location: /proc/self/cwd/google_benchmark/src/commandlineflags.cc:305 },
    DebugInfo { addr: 437f80, size: 147, name: _ZN9benchmark11BoolFromEnvEPKcb, location: /proc/self/cwd/google_benchmark/src/commandlineflags.cc:126 },
    DebugInfo { addr: 4380d0, size: 11f, name: _ZN9benchmark13ParseBoolFlagEPKcS1_Pb, location: /proc/self/cwd/google_benchmark/src/commandlineflags.cc:221 },
    DebugInfo { addr: 4381f0, size: 9c6, name: _ZN9benchmark14KvPairsFromEnvEPKcSt3mapINSt7__cxx1112basic_stringIcSt11char_traitsIcESaIcEEES8_St4lessIS8_ESaISt4pairIKS8_S8_EEE, location: /proc/self/cwd/google_benchmark/src/commandlineflags.cc:167 },
    DebugInfo { addr: 438bc0, size: 495, name: _ZN9benchmark17ParseKeyValueFlagEPKcS1_PSt3mapINSt7__cxx1112basic_stringIcSt11char_traitsIcESaIcEEES8_St4lessIS8_ESaISt4pairIKS8_S8_EEE, location: /proc/self/cwd/google_benchmark/src/commandlineflags.cc:281 },
    DebugInfo { addr: 439070, size: 90, name: _ZNSt7__cxx1112basic_stringIcSt11char_traitsIcESaIcEE12_M_constructIPKcEEvT_S8_St20forward_iterator_tag.isra.0, location: /nix/store/9ds850ifd4jwcccpp3v14818kk74ldf2-gcc-14.2.1.20250322/include/c++/14.2.1.20250322/bits/basic_string.tcc:221 },
    DebugInfo { addr: 439100, size: 281, name: _ZN9benchmark12FormatStringB5cxx11EPKcP13__va_list_tag, location: /proc/self/cwd/google_benchmark/src/colorprint.cc:85 },
    DebugInfo { addr: 439390, size: 97, name: _ZN9benchmark12FormatStringB5cxx11EPKcz, location: /proc/self/cwd/google_benchmark/src/colorprint.cc:113 },
    DebugInfo { addr: 439430, size: 17a, name: _ZN9benchmark11ColorPrintfERSoNS_8LogColorEPKcP13__va_list_tag, location: /proc/self/cwd/google_benchmark/src/colorprint.cc:129 },
    DebugInfo { addr: 4395b0, size: 7f, name: _ZN9benchmark11ColorPrintfERSoNS_8LogColorEPKcz, location: /proc/self/cwd/google_benchmark/src/colorprint.cc:121 },
    DebugInfo { addr: 439630, size: 16f, name: _ZN9benchmark15IsColorTerminalEv, location: /proc/self/cwd/google_benchmark/src/colorprint.cc:166 },
    DebugInfo { addr: 4397b0, size: 8, name: _ZN9benchmark8internal15GetAbortHandlerEv, location: /proc/self/cwd/google_benchmark/src/check.cc:8 },
    DebugInfo { addr: 439800, size: 90, name: _ZNSt7__cxx1112basic_stringIcSt11char_traitsIcESaIcEE12_M_constructIPKcEEvT_S8_St20forward_iterator_tag.isra.0, location: /nix/store/9ds850ifd4jwcccpp3v14818kk74ldf2-gcc-14.2.1.20250322/include/c++/14.2.1.20250322/bits/basic_string.tcc:221 },
    DebugInfo { addr: 439890, size: 45, name: _ZStlsISt11char_traitsIcEERSt13basic_ostreamIcT_ES5_PKc.isra.0, location: /nix/store/9ds850ifd4jwcccpp3v14818kk74ldf2-gcc-14.2.1.20250322/include/c++/14.2.1.20250322/ostream:671 },
    DebugInfo { addr: 4398e0, size: 36, name: _ZStlsISt11char_traitsIcEERSt13basic_ostreamIcT_ES5_c.isra.0, location: /nix/store/9ds850ifd4jwcccpp3v14818kk74ldf2-gcc-14.2.1.20250322/include/c++/14.2.1.20250322/ostream:579 },
    DebugInfo { addr: 439920, size: 90, name: _ZNSt7__cxx1112basic_stringIcSt11char_traitsIcESaIcEE12_M_constructIPcEEvT_S7_St20forward_iterator_tag.isra.0, location: /nix/store/9ds850ifd4jwcccpp3v14818kk74ldf2-gcc-14.2.1.20250322/include/c++/14.2.1.20250322/bits/basic_string.tcc:221 },
    DebugInfo { addr: 4399b0, size: 60, name: _ZN9benchmark12_GLOBAL__N_116PrintErrorAndDieIJRA28_KcRNSt7__cxx1112basic_stringIcSt11char_traitsIcESaIcEEERA6_S2_EEEvDpOT_, location: /proc/self/cwd/google_benchmark/src/sysinfo.cc:95 },
    DebugInfo { addr: 4399b0, size: 60, name: _ZN9benchmark12_GLOBAL__N_116PrintErrorAndDieIJRA26_KcRNSt7__cxx1112basic_stringIcSt11char_traitsIcESaIcEEERA15_S2_EEEvDpOT_, location: /proc/self/cwd/google_benchmark/src/sysinfo.cc:95 },
    DebugInfo { addr: 4399b0, size: 60, name: _ZN9benchmark12_GLOBAL__N_116PrintErrorAndDieIJRA26_KcRNSt7__cxx1112basic_stringIcSt11char_traitsIcESaIcEEERA6_S2_EEEvDpOT_, location: /proc/self/cwd/google_benchmark/src/sysinfo.cc:95 },
    DebugInfo { addr: 4399b0, size: 60, name: _ZN9benchmark12_GLOBAL__N_116PrintErrorAndDieIJRA26_KcRNSt7__cxx1112basic_stringIcSt11char_traitsIcESaIcEEERA5_S2_EEEvDpOT_, location: /proc/self/cwd/google_benchmark/src/sysinfo.cc:95 },
    DebugInfo { addr: 439a10, size: 176, name: _ZN9benchmark10SystemInfoC1Ev, location: /proc/self/cwd/google_benchmark/src/sysinfo.cc:884 },
    DebugInfo { addr: 439a10, size: 176, name: _ZN9benchmark10SystemInfoC2Ev, location: /proc/self/cwd/google_benchmark/src/sysinfo.cc:884 },
    DebugInfo { addr: 439b90, size: 86, name: _ZN9benchmark10SystemInfo3GetEv, location: /proc/self/cwd/google_benchmark/src/sysinfo.cc:880 },
    DebugInfo { addr: 439c20, size: 26d, name: _ZN9benchmark12_GLOBAL__N_112ReadFromFileIlEEbRKNSt7__cxx1112basic_stringIcSt11char_traitsIcESaIcEEEPT_.isra.0, location: /proc/self/cwd/google_benchmark/src/sysinfo.cc:212 },
    DebugInfo { addr: 439e90, size: da5, name: _ZN9benchmark12_GLOBAL__N_121GetCPUCyclesPerSecondENS_7CPUInfo7ScalingE, location: /proc/self/cwd/google_benchmark/src/sysinfo.cc:638 },
    DebugInfo { addr: 43ac40, size: 2c5, name: _ZN9benchmark12_GLOBAL__N_112ReadFromFileINSt7__cxx1112basic_stringIcSt11char_traitsIcESaIcEEEEEbRKS7_PT_, location: /proc/self/cwd/google_benchmark/src/sysinfo.cc:212 },
    DebugInfo { addr: 43af10, size: 445, name: _ZN9benchmark12_GLOBAL__N_110CpuScalingEi, location: /proc/self/cwd/google_benchmark/src/sysinfo.cc:222 },
    DebugInfo { addr: 43b360, size: 209a, name: _ZN9benchmark12_GLOBAL__N_121GetCacheSizesFromKVFSEv, location: /proc/self/cwd/google_benchmark/src/sysinfo.cc:267 },
    DebugInfo { addr: 43d400, size: 181, name: _ZN9benchmark7CPUInfoC1Ev, location: /proc/self/cwd/google_benchmark/src/sysinfo.cc:872 },
    DebugInfo { addr: 43d400, size: 181, name: _ZN9benchmark7CPUInfoC2Ev, location: /proc/self/cwd/google_benchmark/src/sysinfo.cc:872 },
    DebugInfo { addr: 43d590, size: 86, name: _ZN9benchmark7CPUInfo3GetEv, location: /proc/self/cwd/google_benchmark/src/sysinfo.cc:868 },
    DebugInfo { addr: 43d620, size: 3, name: _ZNKSt5ctypeIcE8do_widenEc, location: /nix/store/9ds850ifd4jwcccpp3v14818kk74ldf2-gcc-14.2.1.20250322/include/c++/14.2.1.20250322/bits/locale_facets.h:1092 },
    DebugInfo { addr: 43d620, size: 3, name: _ZNKSt5ctypeIcE8do_widenEc, location: /nix/store/9ds850ifd4jwcccpp3v14818kk74ldf2-gcc-14.2.1.20250322/include/c++/14.2.1.20250322/bits/locale_facets.h:1092 },
    DebugInfo { addr: 43d630, size: 96, name: _ZN9__gnu_cxx6__stoaImmcJiEEET0_PFT_PKT1_PPS3_DpT2_EPKcS5_PmS9_, location: /nix/store/9ds850ifd4jwcccpp3v14818kk74ldf2-gcc-14.2.1.20250322/include/c++/14.2.1.20250322/ext/string_conversions.h:56 },
    DebugInfo { addr: 43d6d0, size: 8f, name: _ZN9__gnu_cxx6__stoaIddcJEEET0_PFT_PKT1_PPS3_DpT2_EPKcS5_PmS9_, location: /nix/store/9ds850ifd4jwcccpp3v14818kk74ldf2-gcc-14.2.1.20250322/include/c++/14.2.1.20250322/ext/string_conversions.h:56 },
    DebugInfo { addr: 43d760, size: 73, name: _ZNSt6vectorIN9benchmark7CPUInfo9CacheInfoESaIS2_EED1Ev, location: /nix/store/9ds850ifd4jwcccpp3v14818kk74ldf2-gcc-14.2.1.20250322/include/c++/14.2.1.20250322/bits/stl_vector.h:733 },
    DebugInfo { addr: 43d760, size: 73, name: _ZNSt6vectorIN9benchmark7CPUInfo9CacheInfoESaIS2_EED2Ev, location: /nix/store/9ds850ifd4jwcccpp3v14818kk74ldf2-gcc-14.2.1.20250322/include/c++/14.2.1.20250322/bits/stl_vector.h:733 },
    DebugInfo { addr: 43d7e0, size: 275, name: _ZNSt6vectorIN9benchmark7CPUInfo9CacheInfoESaIS2_EE17_M_realloc_appendIJRKS2_EEEvDpOT_, location: /nix/store/9ds850ifd4jwcccpp3v14818kk74ldf2-gcc-14.2.1.20250322/include/c++/14.2.1.20250322/bits/vector.tcc:581 },
    DebugInfo { addr: 43da60, size: 191, name: _ZNSt6vectorIdSaIdEE17_M_default_appendEm, location: /nix/store/9ds850ifd4jwcccpp3v14818kk74ldf2-gcc-14.2.1.20250322/include/c++/14.2.1.20250322/bits/vector.tcc:808 },
    DebugInfo { addr: 43dc10, size: 145, name: _ZNSt8_Rb_treeINSt7__cxx1112basic_stringIcSt11char_traitsIcESaIcEEESt4pairIKS5_N9benchmark7CounterEESt10_Select1stISA_ESt4lessIS5_ESaISA_EE24_M_get_insert_unique_posERS7_.isra.0, location: /nix/store/9ds850ifd4jwcccpp3v14818kk74ldf2-gcc-14.2.1.20250322/include/c++/14.2.1.20250322/bits/stl_tree.h:2106 },
    DebugInfo { addr: 43dd60, size: 59, name: _ZN9benchmark8internal6FinishERKNS_7CounterEldd, location: /proc/self/cwd/google_benchmark/src/counter.cc:23 },
    DebugInfo { addr: 43ddc0, size: 6d, name: _ZN9benchmark8internal6FinishEPSt3mapINSt7__cxx1112basic_stringIcSt11char_traitsIcESaIcEEENS_7CounterESt4lessIS7_ESaISt4pairIKS7_S8_EEEldd, location: /proc/self/cwd/google_benchmark/src/counter.cc:43 },
    DebugInfo { addr: 43de30, size: 76, name: _ZN9benchmark8internal9SameNamesERKSt3mapINSt7__cxx1112basic_stringIcSt11char_traitsIcESaIcEEENS_7CounterESt4lessIS7_ESaISt4pairIKS7_S8_EEESH_, location: /proc/self/cwd/google_benchmark/src/counter.cc:67 },
    DebugInfo { addr: 43deb0, size: 6c4, name: _ZN9benchmark8internal9IncrementEPSt3mapINSt7__cxx1112basic_stringIcSt11char_traitsIcESaIcEEENS_7CounterESt4lessIS7_ESaISt4pairIKS7_S8_EEERKSF_, location: /proc/self/cwd/google_benchmark/src/counter.cc:49 },
    DebugInfo { addr: 43e5c0, size: 16c, name: _ZSt13__adjust_heapIN9__gnu_cxx17__normal_iteratorIPdSt6vectorIdSaIdEEEEldNS0_5__ops15_Iter_less_iterEEvT_T0_SA_T1_T2_.isra.0, location: /nix/store/9ds850ifd4jwcccpp3v14818kk74ldf2-gcc-14.2.1.20250322/include/c++/14.2.1.20250322/bits/stl_heap.h:229 },
    DebugInfo { addr: 43e730, size: 90, name: _ZNSt7__cxx1112basic_stringIcSt11char_traitsIcESaIcEE12_M_constructIPcEEvT_S7_St20forward_iterator_tag.isra.0, location: /nix/store/9ds850ifd4jwcccpp3v14818kk74ldf2-gcc-14.2.1.20250322/include/c++/14.2.1.20250322/bits/basic_string.tcc:221 },
    DebugInfo { addr: 43e7c0, size: 59, name: _ZNSt8_Rb_treeINSt7__cxx1112basic_stringIcSt11char_traitsIcESaIcEEESt4pairIKS5_N9benchmark7CounterEESt10_Select1stISA_ESt4lessIS5_ESaISA_EE8_M_eraseEPSt13_Rb_tree_nodeISA_E.isra.0, location: /nix/store/9ds850ifd4jwcccpp3v14818kk74ldf2-gcc-14.2.1.20250322/include/c++/14.2.1.20250322/bits/stl_tree.h:1930 },
    DebugInfo { addr: 43e820, size: 71, name: _ZNSt8_Rb_treeINSt7__cxx1112basic_stringIcSt11char_traitsIcESaIcEEESt4pairIKS5_ZN9benchmark12ComputeStatsERKSt6vectorINS8_17BenchmarkReporter3RunESaISB_EEE11CounterStatESt10_Select1stISH_ESt4lessIS5_ESaISH_EE8_M_eraseEPSt13_Rb_tree_nodeISH_E.isra.0, location: /nix/store/9ds850ifd4jwcccpp3v14818kk74ldf2-gcc-14.2.1.20250322/include/c++/14.2.1.20250322/bits/stl_tree.h:1930 },
    DebugInfo { addr: 43e8a0, size: 145, name: _ZNSt8_Rb_treeINSt7__cxx1112basic_stringIcSt11char_traitsIcESaIcEEESt4pairIKS5_N9benchmark7CounterEESt10_Select1stISA_ESt4lessIS5_ESaISA_EE24_M_get_insert_unique_posERS7_.isra.0, location: /nix/store/9ds850ifd4jwcccpp3v14818kk74ldf2-gcc-14.2.1.20250322/include/c++/14.2.1.20250322/bits/stl_tree.h:2106 },
    DebugInfo { addr: 43e9f0, size: 145, name: _ZNSt8_Rb_treeINSt7__cxx1112basic_stringIcSt11char_traitsIcESaIcEEESt4pairIKS5_ZN9benchmark12ComputeStatsERKSt6vectorINS8_17BenchmarkReporter3RunESaISB_EEE11CounterStatESt10_Select1stISH_ESt4lessIS5_ESaISH_EE24_M_get_insert_unique_posERS7_.isra.0, location: /nix/store/9ds850ifd4jwcccpp3v14818kk74ldf2-gcc-14.2.1.20250322/include/c++/14.2.1.20250322/bits/stl_tree.h:2106 },
    DebugInfo { addr: 43eb40, size: f6, name: _ZNSt8_Rb_treeINSt7__cxx1112basic_stringIcSt11char_traitsIcESaIcEEESt4pairIKS5_ZN9benchmark12ComputeStatsERKSt6vectorINS8_17BenchmarkReporter3RunESaISB_EEE11CounterStatESt10_Select1stISH_ESt4lessIS5_ESaISH_EE4findERS7_, location: /nix/store/9ds850ifd4jwcccpp3v14818kk74ldf2-gcc-14.2.1.20250322/include/c++/14.2.1.20250322/bits/stl_tree.h:2527 },
    DebugInfo { addr: 43ec40, size: 25c, name: _ZNSt8_Rb_treeINSt7__cxx1112basic_stringIcSt11char_traitsIcESaIcEEESt4pairIKS5_ZN9benchmark12ComputeStatsERKSt6vectorINS8_17BenchmarkReporter3RunESaISB_EEE11CounterStatESt10_Select1stISH_ESt4lessIS5_ESaISH_EE29_M_get_insert_hint_unique_posESt23_Rb_tree_const_iteratorISH_ERS7_.isra.0, location: /nix/store/9ds850ifd4jwcccpp3v14818kk74ldf2-gcc-14.2.1.20250322/include/c++/14.2.1.20250322/bits/stl_tree.h:2208 },
    DebugInfo { addr: 43eea0, size: 162, name: _ZNSt8_Rb_treeINSt7__cxx1112basic_stringIcSt11char_traitsIcESaIcEEESt4pairIKS5_ZN9benchmark12ComputeStatsERKSt6vectorINS8_17BenchmarkReporter3RunESaISB_EEE11CounterStatESt10_Select1stISH_ESt4lessIS5_ESaISH_EE22_M_emplace_hint_uniqueIJRKSt21piecewise_construct_tSt5tupleIJRS7_EESS_IJEEEEESt17_Rb_tree_iteratorISH_ESt23_Rb_tree_const_iteratorISH_EDpOT_.constprop.0.isra.0, location: /nix/store/9ds850ifd4jwcccpp3v14818kk74ldf2-gcc-14.2.1.20250322/include/c++/14.2.1.20250322/bits/stl_tree.h:2456 },
    DebugInfo { addr: 43f010, size: 8d, name: _ZN9benchmark14StatisticsMeanERKSt6vectorIdSaIdEE, location: /nix/store/9ds850ifd4jwcccpp3v14818kk74ldf2-gcc-14.2.1.20250322/include/c++/14.2.1.20250322/bits/stl_iterator.h:1068 },
    DebugInfo { addr: 43f0a0, size: 4b9, name: _ZN9benchmark16StatisticsMedianERKSt6vectorIdSaIdEE, location: /proc/self/cwd/google_benchmark/src/statistics.cc:40 },
    DebugInfo { addr: 43f560, size: da, name: _ZN9benchmark16StatisticsStdDevERKSt6vectorIdSaIdEE, location: /proc/self/cwd/google_benchmark/src/statistics.cc:75 },
    DebugInfo { addr: 43f640, size: 7e, name: _ZN9benchmark12StatisticsCVERKSt6vectorIdSaIdEE, location: /nix/store/9ds850ifd4jwcccpp3v14818kk74ldf2-gcc-14.2.1.20250322/include/c++/14.2.1.20250322/bits/stl_vector.h:993 },
    DebugInfo { addr: 43f6c0, size: 1ce4, name: _ZN9benchmark12ComputeStatsERKSt6vectorINS_17BenchmarkReporter3RunESaIS2_EE, location: /proc/self/cwd/google_benchmark/src/statistics.cc:109 },
    DebugInfo { addr: 4413c0, size: d5, name: _ZNSt6vectorIdSaIdEE7reserveEm, location: /nix/store/9ds850ifd4jwcccpp3v14818kk74ldf2-gcc-14.2.1.20250322/include/c++/14.2.1.20250322/bits/vector.tcc:67 },
    DebugInfo { addr: 4414a0, size: 104, name: _ZNSt6vectorIdSaIdEE17_M_realloc_appendIJRKdEEEvDpOT_, location: /nix/store/9ds850ifd4jwcccpp3v14818kk74ldf2-gcc-14.2.1.20250322/include/c++/14.2.1.20250322/bits/stl_vector.h:1908 },
    DebugInfo { addr: 4415b0, size: 104, name: _ZNSt6vectorIdSaIdEE17_M_realloc_appendIJRKN9benchmark7CounterEEEEvDpOT_, location: /nix/store/9ds850ifd4jwcccpp3v14818kk74ldf2-gcc-14.2.1.20250322/include/c++/14.2.1.20250322/bits/stl_vector.h:1908 },
    DebugInfo { addr: 4416d0, size: 90, name: _ZNSt7__cxx1112basic_stringIcSt11char_traitsIcESaIcEE12_M_constructIPcEEvT_S7_St20forward_iterator_tag.isra.0, location: /nix/store/9ds850ifd4jwcccpp3v14818kk74ldf2-gcc-14.2.1.20250322/include/c++/14.2.1.20250322/bits/basic_string.tcc:221 },
    DebugInfo { addr: 441760, size: 59, name: _ZNSt8_Rb_treeINSt7__cxx1112basic_stringIcSt11char_traitsIcESaIcEEESt4pairIKS5_N9benchmark7CounterEESt10_Select1stISA_ESt4lessIS5_ESaISA_EE8_M_eraseEPSt13_Rb_tree_nodeISA_E.isra.0, location: /nix/store/9ds850ifd4jwcccpp3v14818kk74ldf2-gcc-14.2.1.20250322/include/c++/14.2.1.20250322/bits/stl_tree.h:1930 },
    DebugInfo { addr: 4417c0, size: c81, name: _ZN9benchmark8internal17BenchmarkInstanceC2EPNS0_9BenchmarkEiiRKSt6vectorIlSaIlEEi, location: /proc/self/cwd/google_benchmark/src/benchmark_api_internal.cc:12 },
    DebugInfo { addr: 4417c0, size: c81, name: _ZN9benchmark8internal17BenchmarkInstanceC1EPNS0_9BenchmarkEiiRKSt6vectorIlSaIlEEi, location: /proc/self/cwd/google_benchmark/src/benchmark_api_internal.cc:12 },
    DebugInfo { addr: 442450, size: 21a, name: _ZNK9benchmark8internal17BenchmarkInstance26__codspeed_root_frame__RunEliPNS0_11ThreadTimerEPNS0_13ThreadManagerEPNS0_23PerfCountersMeasurementEPNS_15ProfilerManagerE, location: /proc/self/cwd/google_benchmark/src/benchmark_api_internal.cc:121 },
    DebugInfo { addr: 442670, size: 19c, name: _ZNK9benchmark8internal17BenchmarkInstance5SetupEv, location: /proc/self/cwd/google_benchmark/src/benchmark_api_internal.cc:133 },
    DebugInfo { addr: 442810, size: 19c, name: _ZNK9benchmark8internal17BenchmarkInstance8TeardownEv, location: /proc/self/cwd/google_benchmark/src/benchmark_api_internal.cc:141 },
    DebugInfo { addr: 4429b0, size: ab, name: _ZN9benchmark5StateD1Ev, location: /proc/self/cwd/google_benchmark/include/benchmark/benchmark.h:723 },
    DebugInfo { addr: 4429b0, size: ab, name: _ZN9benchmark5StateD2Ev, location: /proc/self/cwd/google_benchmark/include/benchmark/benchmark.h:723 },
    DebugInfo { addr: 442a70, size: 90, name: _ZNSt7__cxx1112basic_stringIcSt11char_traitsIcESaIcEE12_M_constructIPKcEEvT_S8_St20forward_iterator_tag.isra.0, location: /nix/store/9ds850ifd4jwcccpp3v14818kk74ldf2-gcc-14.2.1.20250322/include/c++/14.2.1.20250322/bits/basic_string.tcc:221 },
    DebugInfo { addr: 442b00, size: 90, name: _ZNSt7__cxx1112basic_stringIcSt11char_traitsIcESaIcEE12_M_constructIPcEEvT_S7_St20forward_iterator_tag.isra.0, location: /nix/store/9ds850ifd4jwcccpp3v14818kk74ldf2-gcc-14.2.1.20250322/include/c++/14.2.1.20250322/bits/basic_string.tcc:221 },
    DebugInfo { addr: 442b90, size: 27d, name: _ZN8codspeed19sanitize_bench_argsERNSt7__cxx1112basic_stringIcSt11char_traitsIcESaIcEEE, location: /proc/self/cwd/core/src/codspeed.cpp:13 },
    DebugInfo { addr: 442e10, size: e4, name: _ZN8codspeed4joinERKSt6vectorINSt7__cxx1112basic_stringIcSt11char_traitsIcESaIcEEESaIS6_EERKS6_, location: /proc/self/cwd/core/src/codspeed.cpp:40 },
    DebugInfo { addr: 442f00, size: 31, name: _ZN8codspeed8CodSpeed9pop_groupEv, location: /nix/store/9ds850ifd4jwcccpp3v14818kk74ldf2-gcc-14.2.1.20250322/include/c++/14.2.1.20250322/bits/stl_iterator.h:1068 },
    DebugInfo { addr: 442f40, size: 527, name: _ZN8codspeed8CodSpeed15start_benchmarkERKNSt7__cxx1112basic_stringIcSt11char_traitsIcESaIcEEE, location: /proc/self/cwd/core/src/codspeed.cpp:73 },
    DebugInfo { addr: 443470, size: 168, name: _ZN8codspeed8CodSpeedC2Ev, location: /proc/self/cwd/core/src/codspeed.cpp:51 },
    DebugInfo { addr: 443470, size: 168, name: _ZN8codspeed8CodSpeedC1Ev, location: /proc/self/cwd/core/src/codspeed.cpp:51 },
    DebugInfo { addr: 4435e0, size: 580, name: _ZN8codspeed8CodSpeed13end_benchmarkEv, location: /proc/self/cwd/core/src/codspeed.cpp:88 },
    DebugInfo { addr: 443b60, size: bf, name: _ZN8codspeed8CodSpeed10push_groupERKNSt7__cxx1112basic_stringIcSt11char_traitsIcESaIcEEE, location: /proc/self/cwd/core/src/codspeed.cpp:63 },
    DebugInfo { addr: 443c40, size: 220, name: _ZNSt6vectorINSt7__cxx1112basic_stringIcSt11char_traitsIcESaIcEEESaIS5_EE17_M_realloc_appendIJRKS5_EEEvDpOT_, location: /nix/store/9ds850ifd4jwcccpp3v14818kk74ldf2-gcc-14.2.1.20250322/include/c++/14.2.1.20250322/bits/stl_vector.h:1908 },
    DebugInfo { addr: 443e60, size: 90, name: _ZNSt7__cxx1112basic_stringIcSt11char_traitsIcESaIcEE12_M_constructIPKcEEvT_S8_St20forward_iterator_tag.isra.0, location: /nix/store/9ds850ifd4jwcccpp3v14818kk74ldf2-gcc-14.2.1.20250322/include/c++/14.2.1.20250322/bits/basic_string.tcc:221 },
    DebugInfo { addr: 443ef0, size: 53, name: _ZN8codspeed11safe_getenvB5cxx11EPKc, location: /proc/self/cwd/core/src/workspace.cpp:10 },
    DebugInfo { addr: 443f50, size: 283, name: _ZN8codspeed30get_path_relative_to_workspaceERKNSt7__cxx1112basic_stringIcSt11char_traitsIcESaIcEEE, location: /proc/self/cwd/core/src/workspace.cpp:28 },
    DebugInfo { addr: 4441e0, size: 11, name: _ZNSt10unique_ptrINSt10filesystem7__cxx114path5_List5_ImplENS3_13_Impl_deleterEED1Ev, location: /nix/store/9ds850ifd4jwcccpp3v14818kk74ldf2-gcc-14.2.1.20250322/include/c++/14.2.1.20250322/bits/unique_ptr.h:398 },
    DebugInfo { addr: 4441e0, size: 11, name: _ZNSt10unique_ptrINSt10filesystem7__cxx114path5_List5_ImplENS3_13_Impl_deleterEED2Ev, location: /nix/store/9ds850ifd4jwcccpp3v14818kk74ldf2-gcc-14.2.1.20250322/include/c++/14.2.1.20250322/bits/unique_ptr.h:398 },
    DebugInfo { addr: 444240, size: 16c, name: _ZSt13__adjust_heapIN9__gnu_cxx17__normal_iteratorIPdSt6vectorIdSaIdEEEEldNS0_5__ops15_Iter_less_iterEEvT_T0_SA_T1_T2_.isra.0, location: /nix/store/9ds850ifd4jwcccpp3v14818kk74ldf2-gcc-14.2.1.20250322/include/c++/14.2.1.20250322/bits/stl_heap.h:229 },
    DebugInfo { addr: 4443b0, size: 10a, name: _ZSt16__insertion_sortIN9__gnu_cxx17__normal_iteratorIPdSt6vectorIdSaIdEEEENS0_5__ops15_Iter_less_iterEEvT_S9_T0_.isra.0, location: /nix/store/9ds850ifd4jwcccpp3v14818kk74ldf2-gcc-14.2.1.20250322/include/c++/14.2.1.20250322/bits/stl_algo.h:1773 },
    DebugInfo { addr: 4444c0, size: 90, name: _ZNSt7__cxx1112basic_stringIcSt11char_traitsIcESaIcEE12_M_constructIPKcEEvT_S8_St20forward_iterator_tag.isra.0, location: /nix/store/9ds850ifd4jwcccpp3v14818kk74ldf2-gcc-14.2.1.20250322/include/c++/14.2.1.20250322/bits/basic_string.tcc:221 },
    DebugInfo { addr: 444550, size: 22a, name: _ZSt16__introsort_loopIN9__gnu_cxx17__normal_iteratorIPdSt6vectorIdSaIdEEEElNS0_5__ops15_Iter_less_iterEEvT_S9_T0_T1_.isra.0, location: /nix/store/9ds850ifd4jwcccpp3v14818kk74ldf2-gcc-14.2.1.20250322/include/c++/14.2.1.20250322/bits/stl_iterator.h:1328 },
    DebugInfo { addr: 444780, size: 90, name: _ZNSt7__cxx1112basic_stringIcSt11char_traitsIcESaIcEE12_M_constructIPcEEvT_S7_St20forward_iterator_tag.isra.0, location: /nix/store/9ds850ifd4jwcccpp3v14818kk74ldf2-gcc-14.2.1.20250322/include/c++/14.2.1.20250322/bits/basic_string.tcc:221 },
    DebugInfo { addr: 444810, size: eb, name: _ZN8codspeed16compute_quantileERKSt6vectorIdSaIdEEd, location: /nix/store/9ds850ifd4jwcccpp3v14818kk74ldf2-gcc-14.2.1.20250322/include/c++/14.2.1.20250322/bits/stl_vector.h:993 },
    DebugInfo { addr: 444900, size: 2e8, name: _ZN8codspeed24compute_iqr_and_outliersERKSt6vectorIdSaIdEEddRdS5_S5_RmS6_, location: /proc/self/cwd/core/src/walltime.cpp:66 },
    DebugInfo { addr: 444bf0, size: 10f, name: _ZN8codspeed17escapeBackslashesERKNSt7__cxx1112basic_stringIcSt11char_traitsIcESaIcEEE, location: /proc/self/cwd/core/src/walltime.cpp:93 },
    DebugInfo { addr: 444d00, size: 17fc, name: _ZN8codspeed33write_codspeed_benchmarks_to_jsonERKSt6vectorINS_25CodspeedWalltimeBenchmarkESaIS1_EE, location: /proc/self/cwd/core/src/walltime.cpp:106 },
    DebugInfo { addr: 446500, size: cd9, name: _ZN8codspeed33generate_codspeed_walltime_reportERKSt6vectorINS_20RawWalltimeBenchmarkESaIS1_EE, location: /proc/self/cwd/core/src/walltime.cpp:201 },
    DebugInfo { addr: 4471e0, size: 59d, name: _ZNSt10filesystem7__cxx11lsIcSt11char_traitsIcEEERSt13basic_ostreamIT_T0_ES8_RKNS0_4pathE, location: /nix/store/9ds850ifd4jwcccpp3v14818kk74ldf2-gcc-14.2.1.20250322/include/c++/14.2.1.20250322/bits/fs_path.h:540 },
    DebugInfo { addr: 447780, size: 90, name: _ZNSt7__cxx1112basic_stringIcSt11char_traitsIcESaIcEE12_M_constructIPKcEEvT_S8_St20forward_iterator_tag.isra.0, location: /nix/store/9ds850ifd4jwcccpp3v14818kk74ldf2-gcc-14.2.1.20250322/include/c++/14.2.1.20250322/bits/basic_string.tcc:221 },
    DebugInfo { addr: 447810, size: 202, name: _ZN8codspeed23extract_namespace_clangERKNSt7__cxx1112basic_stringIcSt11char_traitsIcESaIcEEE, location: /proc/self/cwd/core/src/uri.cpp:10 },
    DebugInfo { addr: 447a20, size: 1d2, name: _ZN8codspeed21extract_namespace_gccERKNSt7__cxx1112basic_stringIcSt11char_traitsIcESaIcEEE, location: /proc/self/cwd/core/src/uri.cpp:24 },
    DebugInfo { addr: 447c00, size: 109, name: _ZN8codspeed24extract_lambda_namespaceERKNSt7__cxx1112basic_stringIcSt11char_traitsIcESaIcEEE, location: /proc/self/cwd/core/src/uri.cpp:38 },
    DebugInfo { addr: 447d20, size: 2e, name: _Z16measurement_initv, location: /proc/self/cwd/core/src/measurement.cpp:5 },
    DebugInfo { addr: 447d60, size: c8, name: simd_firstTrue__anon_4179__6577, location: /proc/self/cwd/core/instrument-hooks/dist/core.c:5748 },
    DebugInfo { addr: 447e30, size: f, name: io_GenericWriter_28_2aio_counting_writer_CountingWriter_28io_GenericWriter_28void_2cerror_7b_7d_2c_28function_20_27dummyWr__6629, location: /proc/self/cwd/core/instrument-hooks/dist/core.c:6361 },
    DebugInfo { addr: 447e40, size: 1cb, name: mem_indexOfSentinel__anon_3953__6211, location: /proc/self/cwd/core/instrument-hooks/dist/core.c:5583 },
    DebugInfo { addr: 448010, size: 3b7, name: unicode_utf8CountCodepoints__6658, location: /proc/self/cwd/core/instrument-hooks/dist/core.c:6472 },
    DebugInfo { addr: 4483d0, size: 8, name: heap_CAllocator_free__3560, location: /proc/self/cwd/core/instrument-hooks/dist/core.c:7499 },
    DebugInfo { addr: 4483e0, size: 30, name: heap_CAllocator_resize__3558, location: /proc/self/cwd/core/instrument-hooks/dist/core.c:7460 },
    DebugInfo { addr: 448410, size: 3f, name: heap_CAllocator_remap__3559, location: /proc/self/cwd/core/instrument-hooks/dist/core.c:7480 },
    DebugInfo { addr: 448450, size: 3b, name: heap_CAllocator_alloc__3557, location: /proc/self/cwd/core/instrument-hooks/dist/core.c:7434 },
    DebugInfo { addr: 448490, size: 64, name: mem_Allocator_alloc__anon_2157__4173, location: /proc/self/cwd/core/instrument-hooks/dist/core.c:2645 },
    DebugInfo { addr: 448490, size: 64, name: mem_Allocator_alignedAlloc__anon_3782__6202, location: /proc/self/cwd/core/instrument-hooks/dist/core.c:2645 },
    DebugInfo { addr: 448500, size: 1df, name: io_GenericWriter_28_2aarray_list_ArrayListAligned_28u8_2cnull_29_2cerror_7bOutOfMemory_7d_2c_28function_20_27appendWrite_27_29_29___4130, location: /proc/self/cwd/core/instrument-hooks/dist/core.c:4381 },
    DebugInfo { addr: 4486e0, size: 5b, name: io_GenericReader_28_2aio_fixed_buffer_stream_FixedBufferStream_28_5b_5du8_29_2cerror_7b_7d_2c_28function_20_27read_27_29_29_typeEras__4238, location: /proc/self/cwd/core/instrument-hooks/dist/core.c:2709 },
    DebugInfo { addr: 448740, size: 6b, name: io_GenericWriter_28_2aio_fixed_buffer_stream_FixedBufferStream_28_5b_5du8_29_2cerror_7bNoSpaceLeft_7d_2c_28function_20_27write__6811, location: /proc/self/cwd/core/instrument-hooks/dist/core.c:6392 },
    DebugInfo { addr: 4487b0, size: 18a, name: posix_write__1436, location: /proc/self/cwd/core/instrument-hooks/dist/core.c:3938 },
    DebugInfo { addr: 448940, size: ff, name: unicode_utf8EncodeImpl__anon_4956__6813.constprop.0, location: /proc/self/cwd/core/instrument-hooks/dist/core.c:6987 },
    DebugInfo { addr: 448a40, size: d6, name: posix_toPosixPath__1701.constprop.0, location: /proc/self/cwd/core/instrument-hooks/dist/core.c:2972 },
    DebugInfo { addr: 448b20, size: 143, name: fs_File_readAll__1207, location: /proc/self/cwd/core/instrument-hooks/dist/core.c:2575 },
    DebugInfo { addr: 448c70, size: dc, name: io_Reader_readAtLeast__4246.constprop.0, location: /proc/self/cwd/core/instrument-hooks/dist/core.c:3466 },
    DebugInfo { addr: 448d50, size: 181, name: bincode_deserializePointerAlloc__anon_2436__4284, location: /proc/self/cwd/core/instrument-hooks/dist/core.c:1669 },
    DebugInfo { addr: 448ee0, size: 85, name: bincode_deserializeAlloc__anon_2299__4241.isra.0, location: /proc/self/cwd/core/instrument-hooks/dist/core.c:1651 },
    DebugInfo { addr: 448f70, size: 4c, name: time_nanoTimestamp__4145, location: /proc/self/cwd/core/instrument-hooks/dist/core.c:2540 },
    DebugInfo { addr: 448fc0, size: 24a, name: fs_Dir_openFile__3702.constprop.0, location: /proc/self/cwd/core/instrument-hooks/dist/core.c:2403 },
    DebugInfo { addr: 449210, size: 11c, name: fs_Dir_access__3766.constprop.0.isra.0, location: /proc/self/cwd/core/instrument-hooks/dist/core.c:2377 },
    DebugInfo { addr: 449330, size: 82, name: shared_Command_deinit__3908.isra.0, location: /proc/self/cwd/core/instrument-hooks/dist/core.c:2903 },
    DebugInfo { addr: 4493c0, size: 42, name: array_list_ArrayListAligned_28u8_2cnull_29_deinit__3960, location: /proc/self/cwd/core/instrument-hooks/dist/core.c:2459 },
    DebugInfo { addr: 449410, size: ab, name: io_Writer_writeBytesNTimes__6109, location: /proc/self/cwd/core/instrument-hooks/dist/core.c:7116 },
    DebugInfo { addr: 4494c0, size: 590, name: fifo_UnixPipe_Reader_waitForAck__1071.constprop.0.isra.0, location: /proc/self/cwd/core/instrument-hooks/dist/core.c:2211 },
    DebugInfo { addr: 449a50, size: 523, name: fifo_UnixPipe_Writer_sendCmd__1064, location: /proc/self/cwd/core/instrument-hooks/dist/core.c:1508 },
    DebugInfo { addr: 449f80, size: 7f, name: instruments_perf_PerfInstrument_is_instrumented__742, location: /proc/self/cwd/core/instrument-hooks/dist/core.c:2293 },
    DebugInfo { addr: 44a000, size: 16e, name: fmt_format__anon_4398__6630, location: /proc/self/cwd/core/instrument-hooks/dist/core.c:6196 },
    DebugInfo { addr: 44a170, size: 39, name: instrument_hooks_set_feature, location: /proc/self/cwd/core/instrument-hooks/dist/core.c:1165 },
    DebugInfo { addr: 44a1b0, size: 77, name: instrument_hooks_deinit, location: /proc/self/cwd/core/instrument-hooks/dist/core.c:5053 },
    DebugInfo { addr: 44a230, size: 5c, name: running_on_valgrind, location: /proc/self/cwd/core/instrument-hooks/dist/core.c:7657 },
    DebugInfo { addr: 44a290, size: 69, name: instrument_hooks_is_instrumented, location: /proc/self/cwd/core/instrument-hooks/dist/core.c:5195 },
    DebugInfo { addr: 44a300, size: 2d1, name: instrument_hooks_init, location: /proc/self/cwd/core/instrument-hooks/dist/core.c:1393 },
    DebugInfo { addr: 44a5e0, size: 57, name: callgrind_dump_stats, location: /proc/self/cwd/core/instrument-hooks/dist/core.c:7659 },
    DebugInfo { addr: 44a640, size: 53, name: callgrind_dump_stats_at, location: /proc/self/cwd/core/instrument-hooks/dist/core.c:7661 },
    DebugInfo { addr: 44a6a0, size: b5, name: instrument_hooks_set_executed_benchmark, location: /proc/self/cwd/core/instrument-hooks/dist/core.c:5491 },
    DebugInfo { addr: 44a760, size: 5, name: instrument_hooks_executed_benchmark, location: /proc/self/cwd/core/instrument-hooks/dist/core.c:5877 },
    DebugInfo { addr: 44a770, size: 1c3, name: instrument_hooks_set_integration, location: /proc/self/cwd/core/instrument-hooks/dist/core.c:5942 },
    DebugInfo { addr: 44a940, size: 57, name: callgrind_zero_stats, location: /proc/self/cwd/core/instrument-hooks/dist/core.c:7665 },
    DebugInfo { addr: 44a9a0, size: 57, name: callgrind_start_instrumentation, location: /proc/self/cwd/core/instrument-hooks/dist/core.c:7667 },
    DebugInfo { addr: 44aa00, size: 4b, name: instrument_hooks_start_benchmark, location: /proc/self/cwd/core/instrument-hooks/dist/core.c:5273 },
    DebugInfo { addr: 44aa50, size: 57, name: callgrind_stop_instrumentation, location: /proc/self/cwd/core/instrument-hooks/dist/core.c:7669 },
    DebugInfo { addr: 44aab0, size: 53, name: instrument_hooks_stop_benchmark, location: /proc/self/cwd/core/instrument-hooks/dist/core.c:5397 },
]
