---
source: src/run/runner/wall_time/perf/perf_map.rs
expression: module_symbols.symbols
---
[
    Symbol { offset: 555555554390, size: 20, name: __abi_tag },
    Symbol { offset: 5555555a22e0, size: 26, name: _start },
    Symbol { offset: 55555569e890, size: 1, name: completed.0 },
    Symbol { offset: 5555555a72e0, size: 3a, name: _ZN4core3ptr44drop_in_place$LT$codspeed..fifo..FifoIpc$GT$17h2738a55b144de3c7E },
    Symbol { offset: 5555555a7320, size: bc, name: _ZN4core3ptr91drop_in_place$LT$core..result..Result$LT$codspeed..fifo..BenchGuard$C$anyhow..Error$GT$$GT$17hded2ca46b50fc00cE },
    Symbol { offset: 5555555a23d0, size: fc4, name: _ZN30codspeed_divan_compat_walltime5bench7Bencher5bench17h0da6d18105410acfE },
    Symbol { offset: 5555555a33a0, size: fc4, name: _ZN30codspeed_divan_compat_walltime5bench7Bencher5bench17h5592cdf8876773fbE },
    Symbol { offset: 5555555a4370, size: fc4, name: _ZN30codspeed_divan_compat_walltime5bench7Bencher5bench17h66ab3b436729a7afE },
    Symbol { offset: 5555555a5340, size: fc4, name: _ZN30codspeed_divan_compat_walltime5bench7Bencher5bench17h737824574d2b7789E },
    Symbol { offset: 5555555a6310, size: fc4, name: _ZN30codspeed_divan_compat_walltime5bench7Bencher5bench17hab3edb915262d5fcE },
    Symbol { offset: 55555569d9b8, size: 8, name: DW.ref.rust_eh_personality },
    Symbol { offset: 5555555a79b0, size: 550, name: _ZN30codspeed_divan_compat_walltime11thread_pool19TaskShared$LT$F$GT$3new4call23__codspeed_root_frame__17hb4c0add2903589f8E },
    Symbol { offset: 5555555a7460, size: 550, name: _ZN30codspeed_divan_compat_walltime11thread_pool19TaskShared$LT$F$GT$3new4call23__codspeed_root_frame__17h58df1f0fcd874df9E },
    Symbol { offset: 5555555a8450, size: 550, name: _ZN30codspeed_divan_compat_walltime11thread_pool19TaskShared$LT$F$GT$3new4call23__codspeed_root_frame__17hd2c1e0cc0ac38fecE },
    Symbol { offset: 5555555a7f00, size: 550, name: _ZN30codspeed_divan_compat_walltime11thread_pool19TaskShared$LT$F$GT$3new4call23__codspeed_root_frame__17hbbe83a58e679adaeE },
    Symbol { offset: 5555555a73e0, size: 13, name: _ZN30codspeed_divan_compat_walltime11thread_pool19TaskShared$LT$F$GT$3new4call17h3e84e302095d0b0dE },
    Symbol { offset: 5555555a7400, size: 13, name: _ZN30codspeed_divan_compat_walltime11thread_pool19TaskShared$LT$F$GT$3new4call17h716a8c76ad38c374E },
    Symbol { offset: 5555555a7420, size: 13, name: _ZN30codspeed_divan_compat_walltime11thread_pool19TaskShared$LT$F$GT$3new4call17ha80ff79ac139f72fE },
    Symbol { offset: 5555555a7440, size: 13, name: _ZN30codspeed_divan_compat_walltime11thread_pool19TaskShared$LT$F$GT$3new4call17hfdf2aa9ea410980cE },
    Symbol { offset: 5555555a7400, size: 13, name: _ZN30codspeed_divan_compat_walltime11thread_pool19TaskShared$LT$F$GT$3new4call17h8a7fd0c6734f9a7dE },
    Symbol { offset: 5555555a89a0, size: d, name: _ZN3std2rt10lang_start28_$u7b$$u7b$closure$u7d$$u7d$17h2d52dafd748a1776E },
    Symbol { offset: 5555555a89b0, size: 5, name: _ZN3std3sys9backtrace28__rust_begin_short_backtrace17h6b1de45521f1e620E },
    Symbol { offset: 5555555a89c0, size: d, name: _ZN4core3ops8function6FnOnce40call_once$u7b$$u7b$vtable.shim$u7d$$u7d$17h11310b2424f7a2e5E },
    Symbol { offset: 5555555a89d0, size: 5, name: _ZN4core3ops8function6FnOnce9call_once17h04661b85bb5c3feeE },
    Symbol { offset: 5555555a89e0, size: 5, name: _ZN4core3ops8function6FnOnce9call_once17h0a6ec2c31ce6b466E },
    Symbol { offset: 5555555a89f0, size: 5, name: _ZN4core3ops8function6FnOnce9call_once17h4f124aa0e7906f70E },
    Symbol { offset: 5555555a8a00, size: 5, name: _ZN4core3ops8function6FnOnce9call_once17h90f6c2d0dd810eaaE },
    Symbol { offset: 5555555a8a10, size: 56, name: _ZN4core3ops8function6FnOnce9call_once17h9d629fb3cc739b19E },
    Symbol { offset: 5555555a8a70, size: 5, name: _ZN4core3ops8function6FnOnce9call_once17hdc50bcf81f8e08b4E },
    Symbol { offset: 5555555a8e10, size: 6, name: _ZN13sleep_benches4main17h41714caa90c0cdcdE },
    Symbol { offset: 5555555a8e20, size: 30, name: _ZN13sleep_benches23__DIVAN_BENCH_SLEEP_1MS4push17h5f2fc010f24e272aE },
    Symbol { offset: 55555569dab8, size: 10, name: _ZN13sleep_benches23__DIVAN_BENCH_SLEEP_1MS4push4NODE17h4eb6fdd05ae560eeE },
    Symbol { offset: 5555555a8e50, size: 30, name: _ZN13sleep_benches24__DIVAN_BENCH_SLEEP_10MS4push17h40a469a123fe18deE },
    Symbol { offset: 55555569dbc0, size: 10, name: _ZN13sleep_benches24__DIVAN_BENCH_SLEEP_10MS4push4NODE17h1b1b7043b5e660e3E },
    Symbol { offset: 5555555a8e80, size: 30, name: _ZN13sleep_benches24__DIVAN_BENCH_SLEEP_50MS4push17h9e47f01e9e2c6ddeE },
    Symbol { offset: 55555569dcc8, size: 10, name: _ZN13sleep_benches24__DIVAN_BENCH_SLEEP_50MS4push4NODE17h19273b803c539af4E },
    Symbol { offset: 5555555a8eb0, size: 30, name: _ZN13sleep_benches25__DIVAN_BENCH_SLEEP_100MS4push17ha2ef0b1a07d39eccE },
    Symbol { offset: 55555569ddd0, size: 10, name: _ZN13sleep_benches25__DIVAN_BENCH_SLEEP_100MS4push4NODE17hd49119186775cd63E },
    Symbol { offset: 5555555a8ee0, size: 30, name: _ZN13sleep_benches44__DIVAN_BENCH_SLEEP_100MS_WITH_CUSTOM_SAMPLE4push17h6fe02d4be9362fd3E },
    Symbol { offset: 55555569ded8, size: 10, name: _ZN13sleep_benches44__DIVAN_BENCH_SLEEP_100MS_WITH_CUSTOM_SAMPLE4push4NODE17h893e02f6fc4fa4a0E },
    Symbol { offset: 55555569b6d0, size: 8, name: _ZN13sleep_benches23__DIVAN_BENCH_SLEEP_1MS4PUSH17h98a2a7e514de22d0E },
    Symbol { offset: 55555569b6d8, size: 8, name: _ZN13sleep_benches24__DIVAN_BENCH_SLEEP_10MS4PUSH17heca207de84f9c06aE },
    Symbol { offset: 55555569b6e0, size: 8, name: _ZN13sleep_benches24__DIVAN_BENCH_SLEEP_50MS4PUSH17hce9f26281bd80307E },
    Symbol { offset: 55555569b6e8, size: 8, name: _ZN13sleep_benches25__DIVAN_BENCH_SLEEP_100MS4PUSH17h442d731dbdda0ff6E },
    Symbol { offset: 55555569b6f0, size: 8, name: _ZN13sleep_benches44__DIVAN_BENCH_SLEEP_100MS_WITH_CUSTOM_SAMPLE4PUSH17h53f6180804000c8aE },
    Symbol { offset: 55555569d9c0, size: f8, name: _ZN13sleep_benches23__DIVAN_BENCH_SLEEP_1MS17h39af2b6169e52a0aE },
    Symbol { offset: 55555569dac8, size: f8, name: _ZN13sleep_benches24__DIVAN_BENCH_SLEEP_10MS17h2c2143a412a265efE },
    Symbol { offset: 55555569dbd0, size: f8, name: _ZN13sleep_benches24__DIVAN_BENCH_SLEEP_50MS17h48752e1a502d9801E },
    Symbol { offset: 55555569dcd8, size: f8, name: _ZN13sleep_benches25__DIVAN_BENCH_SLEEP_100MS17h4fb72f4760140fa9E },
    Symbol { offset: 55555569dde0, size: f8, name: _ZN13sleep_benches44__DIVAN_BENCH_SLEEP_100MS_WITH_CUSTOM_SAMPLE17h6e1a25b37c66eb15E },
    Symbol { offset: 5555555a8a80, size: 38c, name: _ZN9hashbrown3map28HashMap$LT$K$C$V$C$S$C$A$GT$6insert17heff1e1d0d713fcd8E },
    Symbol { offset: 5555555a8f10, size: 2e, name: main },
    Symbol { offset: 555555565518, size: 22, name: __rustc_debug_gdb_scripts_section__ },
    Symbol { offset: 5555555a8f40, size: 9a2, name: _ZN9hashbrown3raw21RawTable$LT$T$C$A$GT$14reserve_rehash17hcf8cbca6a51729f3E.llvm.15001852044834820933 },
    Symbol { offset: 5555555a98f0, size: 6c, name: _ZN5alloc7raw_vec11finish_grow17h872326278bf00c80E.llvm.12997381087669990207 },
    Symbol { offset: 5555555a9960, size: b4, name: _ZN5alloc7raw_vec19RawVec$LT$T$C$A$GT$8grow_one17h34f94c0018943cd9E },
    Symbol { offset: 5555555a9a20, size: f5, name: _ZN5alloc7raw_vec20RawVecInner$LT$A$GT$7reserve21do_reserve_and_handle17h87f2423aace61410E },
    Symbol { offset: 5555556925c0, size: 18, name: anon.23d8b4c1b8ae99844405ea525750be72.1.llvm.12997381087669990207 },
    Symbol { offset: 55555558a704, size: 7b, name: anon.23d8b4c1b8ae99844405ea525750be72.0.llvm.12997381087669990207 },
    Symbol { offset: 5555555a9b20, size: 5, name: _RNvCs691rhTbG0Ee_7___rustc12___rust_alloc },
    Symbol { offset: 5555555a9b30, size: 5, name: _RNvCs691rhTbG0Ee_7___rustc14___rust_dealloc },
    Symbol { offset: 5555555a9b40, size: 5, name: _RNvCs691rhTbG0Ee_7___rustc14___rust_realloc },
    Symbol { offset: 5555555a9b50, size: 5, name: _RNvCs691rhTbG0Ee_7___rustc19___rust_alloc_zeroed },
    Symbol { offset: 5555555a9b60, size: 5, name: _RNvCs691rhTbG0Ee_7___rustc26___rust_alloc_error_handler },
    Symbol { offset: 55555569e891, size: 1, name: _RNvCs691rhTbG0Ee_7___rustc39___rust_alloc_error_handler_should_panic },
    Symbol { offset: 55555569e892, size: 1, name: __rust_no_alloc_shim_is_unstable },
    Symbol { offset: 5555555aa340, size: 2f, name: _ZN4core3ptr59drop_in_place$LT$clap_builder..builder..ext..Extensions$GT$17h5ff9001bb2c6cc23E },
    Symbol { offset: 5555555aad70, size: c5, name: _ZN4core3ptr83drop_in_place$LT$alloc..vec..Vec$LT$clap_builder..builder..command..Command$GT$$GT$17h7bc29f27f9eec6c1E },
    Symbol { offset: 5555555aaf40, size: bc, name: _ZN4core3ptr86drop_in_place$LT$alloc..vec..Vec$LT$clap_builder..builder..arg_group..ArgGroup$GT$$GT$17h053ebd16ecbac143E },
    Symbol { offset: 5555555ab100, size: 6a, name: _ZN4core3ptr97drop_in_place$LT$core..option..Option$LT$clap_builder..builder..value_parser..ValueParser$GT$$GT$17ha77b5ad38a135002E },
    Symbol { offset: 5555555aa880, size: 82, name: _ZN4core3ptr65drop_in_place$LT$alloc..vec..Vec$LT$alloc..string..String$GT$$GT$17h9eaa0776f7d3c154E },
    Symbol { offset: 5555555aaa80, size: 45, name: _ZN4core3ptr73drop_in_place$LT$clap_builder..builder..possible_value..PossibleValue$GT$17h190ea8a2f5c29c2aE },
    Symbol { offset: 5555555ab170, size: 1eb, name: _ZN4core3str7pattern14TwoWaySearcher4next17haf80c2df0141fd9cE },
    Symbol { offset: 5555555a9b70, size: 68, name: _ZN132_$LT$alloc..vec..Vec$LT$T$C$A$GT$$u20$as$u20$alloc..vec..spec_extend..SpecExtend$LT$$RF$T$C$core..slice..iter..Iter$LT$T$GT$$GT$$GT$11spec_extend17h1b33bf5f0e7976d4E },
    Symbol { offset: 5555555aae40, size: 100, name: _ZN4core3ptr83drop_in_place$LT$alloc..vec..Vec$LT$clap_builder..util..any_value..AnyValue$GT$$GT$17hd0fbec59ad928c9bE.llvm.16041781890786194790 },
    Symbol { offset: 5555555a9be0, size: 5a, name: _ZN4core3ptr154drop_in_place$LT$alloc..boxed..Box$LT$dyn$u20$core..ops..function..FnOnce$LT$$LP$$RP$$GT$$u2b$Output$u20$$u3d$$u20$$LP$$RP$$u2b$core..marker..Send$GT$$GT$17h94d5d89b0f64be04E.llvm.16041781890786194790 },
    Symbol { offset: 5555555a9c40, size: ae, name: _ZN4core3ptr333drop_in_place$LT$regex_lite..pool..Pool$LT$regex_lite..pikevm..Cache$C$alloc..boxed..Box$LT$dyn$u20$core..ops..function..Fn$LT$$LP$$RP$$GT$$u2b$Output$u20$$u3d$$u20$regex_lite..pikevm..Cache$u2b$core..panic..unwind_safe..RefUnwindSafe$u2b$core..panic..unwind_safe..UnwindSafe$u2b$core..marker..Send$u2b$core..marker..Sync$GT$$GT$$GT$17hfb992eb0c45179a1E.llvm.16041781890786194790 },
    Symbol { offset: 5555555aa990, size: ea, name: _ZN4core3ptr71drop_in_place$LT$alloc..boxed..Box$LT$regex_lite..pikevm..Cache$GT$$GT$17h091124115abc8593E.llvm.16041781890786194790 },
    Symbol { offset: 5555555a9cf0, size: 643, name: _ZN4core3ptr52drop_in_place$LT$clap_builder..builder..arg..Arg$GT$17haa45778277852ae3E.llvm.16041781890786194790 },
    Symbol { offset: 5555555aa370, size: 50d, name: _ZN4core3ptr60drop_in_place$LT$clap_builder..builder..command..Command$GT$17he95b42ae013968b2E.llvm.16041781890786194790 },
    Symbol { offset: 5555555aa910, size: 75, name: _ZN4core3ptr67drop_in_place$LT$codspeed_divan_compat_walltime..config..Filter$GT$17h35c820b301f43c0fE.llvm.16041781890786194790 },
    Symbol { offset: 5555555aaad0, size: 1b0, name: _ZN4core3ptr75drop_in_place$LT$clap_builder..parser..matches..matched_arg..MatchedArg$GT$17he936e6531245f0e2E.llvm.16041781890786194790 },
    Symbol { offset: 5555555ab000, size: f2, name: _ZN4core3ptr93drop_in_place$LT$alloc..vec..Vec$LT$alloc..vec..Vec$LT$std..ffi..os_str..OsString$GT$$GT$$GT$17h3854e94f7889223dE.llvm.16041781890786194790 },
    Symbol { offset: 5555555aac80, size: ef, name: _ZN4core3ptr75drop_in_place$LT$codspeed_divan_compat_walltime..entry..tree..EntryTree$GT$17he7d908ec405a2ec5E.llvm.16041781890786194790 },
    Symbol { offset: 5555555ab360, size: 38, name: _ZN4core4iter6traits8iterator8Iterator3nth17h1cc4d669d093731fE.llvm.16041781890786194790 },
    Symbol { offset: 5555555abae0, size: 263, name: _ZN90_$LT$core..str..iter..Split$LT$P$GT$$u20$as$u20$core..iter..traits..iterator..Iterator$GT$4next17h1b6e96535a82d38fE.llvm.16041781890786194790 },
    Symbol { offset: 5555555ab3a0, size: 189, name: _ZN5alloc3vec16Vec$LT$T$C$A$GT$10retain_mut17hca29a92eec694b6aE },
    Symbol { offset: 5555555ace50, size: 684, name: _ZN30codspeed_divan_compat_walltime5entry4tree9EntryTree6retain6retain28_$u7b$$u7b$closure$u7d$$u7d$17h3f665ccd2676cfbcE.llvm.16041781890786194790 },
    Symbol { offset: 5555555ab530, size: 81, name: _ZN5alloc3vec16Vec$LT$T$C$A$GT$14extend_trusted17h337243b24fd63742E },
    Symbol { offset: 5555555ab5c0, size: 1fb, name: _ZN5alloc3vec16Vec$LT$T$C$A$GT$16extend_desugared17hb4e1920558f2125eE },
    Symbol { offset: 5555555ab7c0, size: 6c, name: _ZN5alloc3vec16Vec$LT$T$C$A$GT$6remove17had2e27557ac85138E },
    Symbol { offset: 555555692620, size: 18, name: anon.a8729966588239bef91b88afe6d5b6ca.7.llvm.16041781890786194790 },
    Symbol { offset: 5555555ab830, size: 114, name: _ZN70_$LT$alloc..vec..Vec$LT$T$C$A$GT$$u20$as$u20$core..ops..drop..Drop$GT$4drop17h4caec55174b0e067E },
    Symbol { offset: 5555555ab950, size: bb, name: _ZN70_$LT$alloc..vec..Vec$LT$T$C$A$GT$$u20$as$u20$core..ops..drop..Drop$GT$4drop17h8e47e4ed5d65fc43E },
    Symbol { offset: 5555555aba10, size: c4, name: _ZN70_$LT$alloc..vec..Vec$LT$T$C$A$GT$$u20$as$u20$core..ops..drop..Drop$GT$4drop17hb010496ecbe7d8b2E },
    Symbol { offset: 5555555abd50, size: 307, name: _ZN98_$LT$alloc..vec..Vec$LT$T$GT$$u20$as$u20$alloc..vec..spec_from_iter..SpecFromIter$LT$T$C$I$GT$$GT$9from_iter17h40ec86fb7a1d51e5E },
    Symbol { offset: 5555555ac060, size: 307, name: _ZN98_$LT$alloc..vec..Vec$LT$T$GT$$u20$as$u20$alloc..vec..spec_from_iter..SpecFromIter$LT$T$C$I$GT$$GT$9from_iter17h7300f07429f98107E },
    Symbol { offset: 5555555ac370, size: 2ec, name: _ZN98_$LT$alloc..vec..Vec$LT$T$GT$$u20$as$u20$alloc..vec..spec_from_iter..SpecFromIter$LT$T$C$I$GT$$GT$9from_iter17h9a44327bc31bbf3fE },
    Symbol { offset: 5555555ac660, size: 1c5, name: _ZN98_$LT$alloc..vec..Vec$LT$T$GT$$u20$as$u20$alloc..vec..spec_from_iter..SpecFromIter$LT$T$C$I$GT$$GT$9from_iter17hb38b4d77decab838E },
    Symbol { offset: 5555555ac830, size: 307, name: _ZN98_$LT$alloc..vec..Vec$LT$T$GT$$u20$as$u20$alloc..vec..spec_from_iter..SpecFromIter$LT$T$C$I$GT$$GT$9from_iter17hb77594e09eeef91eE },
    Symbol { offset: 5555555acb40, size: 30a, name: _ZN98_$LT$alloc..vec..Vec$LT$T$GT$$u20$as$u20$alloc..vec..spec_from_iter..SpecFromIter$LT$T$C$I$GT$$GT$9from_iter17hc905df829e9cfef6E },
    Symbol { offset: 55555558a7f9, size: 75, name: anon.a8729966588239bef91b88afe6d5b6ca.6.llvm.16041781890786194790 },
    Symbol { offset: 5555555afa30, size: 5f, name: _ZN4core3ptr130drop_in_place$LT$core..result..Result$LT$$LP$$RP$$C$alloc..boxed..Box$LT$dyn$u20$core..any..Any$u2b$core..marker..Send$GT$$GT$$GT$17h4c79c0c46f9d7d8cE },
    Symbol { offset: 5555555af880, size: 119, name: _ZN3std4sync4mpmc5waker5Waker6notify17h04b09af56c602e4aE },
    Symbol { offset: 5555555afbb0, size: 41, name: _ZN4core3ptr94drop_in_place$LT$std..sync..poison..mutex..MutexGuard$LT$std..sync..mpmc..waker..Waker$GT$$GT$17h1c511e089a93b5feE },
    Symbol { offset: 5555555afa90, size: 41, name: _ZN4core3ptr132drop_in_place$LT$std..sync..poison..PoisonError$LT$std..sync..poison..mutex..MutexGuard$LT$std..sync..mpmc..waker..Waker$GT$$GT$$GT$17h45b44a4fcb87b090E },
    Symbol { offset: 5555555af9a0, size: 88, name: _ZN3std4sync4mpmc7context7Context4with28_$u7b$$u7b$closure$u7d$$u7d$17hfeb80fd4fe890b81E },
    Symbol { offset: 5555555aedd0, size: 50a, name: _ZN3std4sync4mpmc4list16Channel$LT$T$GT$4recv28_$u7b$$u7b$closure$u7d$$u7d$17h63a76c98b01c9425E },
    Symbol { offset: 5555555afae0, size: 58, name: _ZN4core3ptr176drop_in_place$LT$$LT$alloc..vec..drain..Drain$LT$T$C$A$GT$$u20$as$u20$core..ops..drop..Drop$GT$..drop..DropGuard$LT$std..sync..mpmc..waker..Entry$C$alloc..alloc..Global$GT$$GT$17h0e0216ee644bf919E },
    Symbol { offset: 5555555afb40, size: 67, name: _ZN4core3ptr188drop_in_place$LT$core..cell..UnsafeCell$LT$core..option..Option$LT$core..result..Result$LT$$LP$$RP$$C$alloc..boxed..Box$LT$dyn$u20$core..any..Any$u2b$core..marker..Send$GT$$GT$$GT$$GT$$GT$17h19a2cde317c99296E },
    Symbol { offset: 5555555ad4e0, size: 180, name: _ZN12clap_builder6parser7matches11arg_matches10ArgMatches11try_get_one17h3ebbaac7ddbaf3ecE },
    Symbol { offset: 55555558a8c0, size: 63, name: anon.7629d60c51b0aea808920fdd89807b6c.0.llvm.595808209150774305 },
    Symbol { offset: 5555556926b8, size: 18, name: anon.7629d60c51b0aea808920fdd89807b6c.2.llvm.595808209150774305 },
    Symbol { offset: 5555555ad660, size: 180, name: _ZN12clap_builder6parser7matches11arg_matches10ArgMatches11try_get_one17h4f7e68e19623a8aaE },
    Symbol { offset: 5555555ad7e0, size: 180, name: _ZN12clap_builder6parser7matches11arg_matches10ArgMatches11try_get_one17h65d860163670f976E },
    Symbol { offset: 5555555ad960, size: 180, name: _ZN12clap_builder6parser7matches11arg_matches10ArgMatches11try_get_one17h7e63377671403b68E },
    Symbol { offset: 5555555adae0, size: 180, name: _ZN12clap_builder6parser7matches11arg_matches10ArgMatches11try_get_one17h9922791d9dd5016dE },
    Symbol { offset: 5555555adc60, size: 180, name: _ZN12clap_builder6parser7matches11arg_matches10ArgMatches11try_get_one17h9e6e3fba4cc22bb0E },
    Symbol { offset: 5555555adde0, size: 180, name: _ZN12clap_builder6parser7matches11arg_matches10ArgMatches11try_get_one17hb85c00e600f71aafE },
    Symbol { offset: 5555555adfd0, size: 62, name: _ZN12clap_builder6parser7matches11arg_matches49unwrap_downcast_ref$u7b$$u7b$reify.shim$u7d$$u7d$17ha27ccae122dea152E.llvm.595808209150774305 },
    Symbol { offset: 5555555adf60, size: 62, name: _ZN12clap_builder6parser7matches11arg_matches49unwrap_downcast_ref$u7b$$u7b$reify.shim$u7d$$u7d$17h6057865a742eb7efE.llvm.595808209150774305 },
    Symbol { offset: 5555555ae040, size: 62, name: _ZN12clap_builder6parser7matches11arg_matches49unwrap_downcast_ref$u7b$$u7b$reify.shim$u7d$$u7d$17hd2d71169b33ca902E.llvm.595808209150774305 },
    Symbol { offset: 5555555ae0b0, size: 22, name: _ZN3std3sys9backtrace28__rust_begin_short_backtrace17h1783d98a38989584E },
    Symbol { offset: 5555555ae0e0, size: 18e, name: _ZN3std3sys9backtrace28__rust_begin_short_backtrace17h5ded6043d8e1c530E },
    Symbol { offset: 5555555ae270, size: 219, name: _ZN3std4sync4mpmc4list16Channel$LT$T$GT$18disconnect_senders17h9b522774ffaf0455E },
    Symbol { offset: 5555555ae490, size: 2f8, name: _ZN3std4sync4mpmc4list16Channel$LT$T$GT$20disconnect_receivers17h50461dff31fe4fbaE },
    Symbol { offset: 5555555ae790, size: 632, name: _ZN3std4sync4mpmc4list16Channel$LT$T$GT$4recv17hb6c3e4e46c470724E },
    Symbol { offset: 5555555af2e0, size: 59c, name: _ZN3std4sync4mpmc4list16Channel$LT$T$GT$4send17h42bd2d0756b2869dE },
    Symbol { offset: 5555555afda0, size: 160, name: _ZN79_$LT$alloc..vec..drain..Drain$LT$T$C$A$GT$$u20$as$u20$core..ops..drop..Drop$GT$4drop17hfbb1daa12f1e5b2cE },
    Symbol { offset: 5555555afc00, size: 75, name: _ZN5alloc4sync16Arc$LT$T$C$A$GT$9drop_slow17h384b84b20afc696cE },
    Symbol { offset: 5555555afc80, size: 112, name: _ZN5alloc4sync16Arc$LT$T$C$A$GT$9drop_slow17h4530cdaef7699ab2E },
    Symbol { offset: 5555555aff00, size: bd, name: _ZN30codspeed_divan_compat_walltime4util17known_parallelism4slow17h8737b49fd10e8d37E },
    Symbol { offset: 55555569e898, size: 8, name: _ZN30codspeed_divan_compat_walltime4util17known_parallelism6CACHED17h1a0fff389db7687fE },
    Symbol { offset: 55555558a923, size: 7d, name: anon.7629d60c51b0aea808920fdd89807b6c.1.llvm.595808209150774305 },
    Symbol { offset: 5555555b0320, size: 4a, name: _ZN4core3ptr80drop_in_place$LT$$u5b$core..option..Option$LT$alloc..string..String$GT$$u5d$$GT$17h4a02580054791aabE },
    Symbol { offset: 5555555affc0, size: d4, name: _ZN4core3ptr116drop_in_place$LT$core..array..Guard$LT$codspeed_divan_compat_walltime..counter..collection..KnownCounterInfo$GT$$GT$17hf6f6d86fc48b3a77E.llvm.2933146488060740845 },
    Symbol { offset: 5555555b0370, size: 7f, name: _ZN4core3ptr90drop_in_place$LT$codspeed_divan_compat_walltime..counter..collection..KnownCounterInfo$GT$17hffffd24cc6ca159cE.llvm.2933146488060740845 },
    Symbol { offset: 5555555b00a0, size: 156, name: _ZN4core3ptr148drop_in_place$LT$core..option..Option$LT$codspeed_divan_compat_walltime..alloc..AllocTally$LT$$u5b$alloc..string..String$u3b$$u20$6$u5d$$GT$$GT$$GT$17had94a9c8d0c6a9f8E.llvm.2933146488060740845 },
    Symbol { offset: 5555555b0200, size: 45, name: _ZN4core3ptr68drop_in_place$LT$core..array..Guard$LT$alloc..string..String$GT$$GT$17h816cd86596a55f25E.llvm.2933146488060740845 },
    Symbol { offset: 5555555b0250, size: cc, name: _ZN4core3ptr73drop_in_place$LT$$u5b$$u5b$alloc..string..String$u3b$$u20$6$u5d$$u5d$$GT$17h9831d540039a0e25E.llvm.2933146488060740845 },
    Symbol { offset: 5555555b03f0, size: 1b7, name: _ZN4core5array5drain16drain_array_with17h01ba7e12503c5e10E },
    Symbol { offset: 5555555b05b0, size: 197, name: _ZN4core5array5drain16drain_array_with17h1abac056fa9c97e9E },
    Symbol { offset: 5555555b0750, size: a2f, name: _ZN4core5array5drain16drain_array_with17h6d597d8508ee00a3E },
    Symbol { offset: 5555555b1180, size: 1c5, name: _ZN4core5array5drain16drain_array_with17h7c24073f841cc78cE },
    Symbol { offset: 5555555b1350, size: 1ab, name: _ZN4core5array5drain16drain_array_with17h7cfd98a40e385c0fE },
    Symbol { offset: 5555555b1500, size: 19f, name: _ZN4core5array5drain16drain_array_with17h828a0250cfe45291E },
    Symbol { offset: 5555555b16a0, size: 1fb, name: _ZN4core5array5drain16drain_array_with17hd587e331cf7a9447E },
    Symbol { offset: 5555555b18a0, size: 22c, name: _ZN4core5array5drain16drain_array_with17hedde19976a85d690E },
    Symbol { offset: 555555692810, size: 18, name: anon.82f3288049776cc258d40f98fa72809a.1.llvm.2933146488060740845 },
    Symbol { offset: 5555555b1ad0, size: 43, name: _ZN30codspeed_divan_compat_walltime7counter10collection17CounterCollection12push_counter17h85d4a5a01f7e3d71E },
    Symbol { offset: 5555555b1b20, size: 23f, name: _ZN30codspeed_divan_compat_walltime7counter10collection10CounterSet13to_collection17h6c42802303f1a47cE },
    Symbol { offset: 55555558ab6b, size: 38, name: anon.82f3288049776cc258d40f98fa72809a.0.llvm.2933146488060740845 },
    Symbol { offset: 55555569e8e0, size: a0, name: _ZN30codspeed_divan_compat_walltime4time5timer5Timer15bench_overheads6CACHED17h5564a9a2994d96b1E },
    Symbol { offset: 5555555b1d60, size: 15, name: _ZN36_$LT$T$u20$as$u20$core..any..Any$GT$7type_id17h6cc76958d9abb81cE },
    Symbol { offset: 5555555b1d80, size: 7e, name: _ZN4core3ops8function6FnOnce9call_once17hd95a898af54c390cE.llvm.6856625513723934651 },
    Symbol { offset: 5555555b1e00, size: 51, name: _ZN4core3ptr84drop_in_place$LT$codspeed_divan_compat_walltime..stats..sample..SampleCollection$GT$17h1696bde70d5ccf23E.llvm.6856625513723934651 },
    Symbol { offset: 5555555b1e60, size: cb, name: _ZN4core5slice4sort6shared5pivot11median3_rec17h61bcf794140440a0E.llvm.6856625513723934651 },
    Symbol { offset: 5555555b1f30, size: 146, name: _ZN4core5slice4sort6shared5pivot11median3_rec17h6b7867628c4fb5caE.llvm.6856625513723934651 },
    Symbol { offset: 5555555b2080, size: a7, name: _ZN4core5slice4sort6shared5pivot11median3_rec17ha4ee19ce678abdc4E.llvm.6856625513723934651 },
    Symbol { offset: 5555555b2130, size: a7, name: _ZN4core5slice4sort6shared5pivot11median3_rec17hca69cfc5c1e7ccf9E.llvm.6856625513723934651 },
    Symbol { offset: 5555555b21e0, size: 149, name: _ZN4core5slice4sort6shared5pivot11median3_rec17hd7be3dd8d2a5f760E.llvm.6856625513723934651 },
    Symbol { offset: 5555555b2330, size: 13b, name: _ZN4core5slice4sort6shared5pivot12choose_pivot17h613687ce8b903063E },
    Symbol { offset: 5555555b2470, size: 133, name: _ZN4core5slice4sort6shared5pivot12choose_pivot17h8bde785837a94bc3E },
    Symbol { offset: 5555555b25b0, size: 6c, name: _ZN5alloc7raw_vec11finish_grow17h0129885b5b7615f9E.llvm.6856625513723934651 },
    Symbol { offset: 5555555b2620, size: b8, name: _ZN5alloc7raw_vec19RawVec$LT$T$C$A$GT$8grow_one17h53d96cc7a9c2847aE },
    Symbol { offset: 5555555b26e0, size: b8, name: _ZN5alloc7raw_vec19RawVec$LT$T$C$A$GT$8grow_one17h6a6b2bf9a73bde5cE },
    Symbol { offset: 5555555b27a0, size: b5, name: _ZN5alloc7raw_vec19RawVec$LT$T$C$A$GT$8grow_one17h8d82e5cadb5b774cE },
    Symbol { offset: 5555555b2860, size: f5, name: _ZN5alloc7raw_vec20RawVecInner$LT$A$GT$7reserve21do_reserve_and_handle17h4baeb854569af5d6E },
    Symbol { offset: 555555692888, size: 18, name: anon.2c114416f996fba9c6a10e50bdfa25a1.3.llvm.6856625513723934651 },
    Symbol { offset: 5555556928e8, size: 20, name: anon.2c114416f996fba9c6a10e50bdfa25a1.11.llvm.6856625513723934651 },
    Symbol { offset: 5555555b2960, size: 97, name: _ZN30codspeed_divan_compat_walltime5bench12BenchContext15sample_recorder28_$u7b$$u7b$closure$u7d$$u7d$28_$u7b$$u7b$closure$u7d$$u7d$9sync_impl17h425270c28c2a70a3E },
    Symbol { offset: 5555555b2a00, size: 1e15, name: _ZN30codspeed_divan_compat_walltime5bench12BenchContext13compute_stats17h195e8ae3033c8da8E },
    Symbol { offset: 5555555b4820, size: 45, name: _ZN30codspeed_divan_compat_walltime4time5timer5Timer9precision17ha5a302b46a38e775E },
    Symbol { offset: 55555569e8a0, size: 40, name: _ZN30codspeed_divan_compat_walltime4time5timer5Timer9precision6CACHED17h6d35ff82a79d63e3E.llvm.6856625513723934651 },
    Symbol { offset: 5555555b4870, size: 44c, name: _ZN30codspeed_divan_compat_walltime4time5timer5Timer17measure_precision17h76d63bfdc60c8e3cE },
    Symbol { offset: 5555555b4cc0, size: 4c, name: _ZN30codspeed_divan_compat_walltime4time5timer5Timer15bench_overheads17h8e9847b9a394835bE },
    Symbol { offset: 55555569e980, size: 40, name: _ZN30codspeed_divan_compat_walltime4time5timer5Timer20sample_loop_overhead6CACHED17h96450e6e1e01d3bbE.llvm.6856625513723934651 },
    Symbol { offset: 5555555b4d10, size: 1ee, name: _ZN30codspeed_divan_compat_walltime4time5timer5Timer28measure_sample_loop_overhead17h8e6399b0c8cef21eE },
    Symbol { offset: 5555555b4f00, size: 371, name: _ZN30codspeed_divan_compat_walltime4time5timer5Timer28measure_tally_alloc_overhead17he07d6c045fcdc39cE },
    Symbol { offset: 5555555b5280, size: 2b2, name: _ZN30codspeed_divan_compat_walltime4time5timer5Timer30measure_tally_dealloc_overhead17h043b29205ffed546E },
    Symbol { offset: 5555555b5540, size: 4df, name: _ZN30codspeed_divan_compat_walltime4time5timer5Timer30measure_tally_realloc_overhead17h8a8290e75e2e4a5aE },
    Symbol { offset: 5555555b5a20, size: 131, name: _ZN30codspeed_divan_compat_walltime4time5timer13TimedOverhead14total_overhead17h2e52adf076d94c7dE },
    Symbol { offset: 55555558ac5b, size: 7b, name: anon.2c114416f996fba9c6a10e50bdfa25a1.2.llvm.6856625513723934651 },
    Symbol { offset: 5555555a09c0, size: 10, name: anon.2c114416f996fba9c6a10e50bdfa25a1.10.llvm.6856625513723934651 },
    Symbol { offset: 5555555b5b60, size: 70, name: _ZN115_$LT$core..iter..adapters..filter_map..FilterMap$LT$I$C$F$GT$$u20$as$u20$core..iter..traits..iterator..Iterator$GT$4next17h17af71a838e48042E },
    Symbol { offset: 5555555b5bd0, size: 65, name: _ZN115_$LT$core..iter..adapters..filter_map..FilterMap$LT$I$C$F$GT$$u20$as$u20$core..iter..traits..iterator..Iterator$GT$4next17h2487ffbe0f90e5bcE },
    Symbol { offset: 5555555b5c40, size: 6d, name: _ZN115_$LT$core..iter..adapters..filter_map..FilterMap$LT$I$C$F$GT$$u20$as$u20$core..iter..traits..iterator..Iterator$GT$4next17hc1cf2ed98fa3d50dE },
    Symbol { offset: 5555555b5cb0, size: 65, name: _ZN115_$LT$core..iter..adapters..filter_map..FilterMap$LT$I$C$F$GT$$u20$as$u20$core..iter..traits..iterator..Iterator$GT$4next17he46fc327a3bda651E },
    Symbol { offset: 5555555b5d20, size: 1e, name: _ZN115_$LT$core..iter..adapters..filter_map..FilterMap$LT$I$C$F$GT$$u20$as$u20$core..iter..traits..iterator..Iterator$GT$9size_hint17h0728e4d1cdc7d2d8E },
    Symbol { offset: 5555555b5d40, size: 857, name: _ZN135_$LT$clap_builder..builder..value_parser..EnumValueParser$LT$E$GT$$u20$as$u20$clap_builder..builder..value_parser..TypedValueParser$GT$9parse_ref17h0f8bc80cef0fe16dE },
    Symbol { offset: 5555555a1054, size: 4, name: .Lanon.02723585229dd69bc19445d06dbecb05.29 },
    Symbol { offset: 5555555a1028, size: 4, name: .Lanon.02723585229dd69bc19445d06dbecb05.55 },
    Symbol { offset: 5555555a1148, size: 8, name: .Lanon.02723585229dd69bc19445d06dbecb05.56 },
    Symbol { offset: 5555555b9a40, size: 82, name: _ZN4core3ptr65drop_in_place$LT$alloc..vec..Vec$LT$alloc..string..String$GT$$GT$17h9eaa0776f7d3c154E },
    Symbol { offset: 5555555b9ad0, size: 45, name: _ZN4core3ptr73drop_in_place$LT$clap_builder..builder..possible_value..PossibleValue$GT$17h190ea8a2f5c29c2aE },
    Symbol { offset: 5555555b65a0, size: 857, name: _ZN135_$LT$clap_builder..builder..value_parser..EnumValueParser$LT$E$GT$$u20$as$u20$clap_builder..builder..value_parser..TypedValueParser$GT$9parse_ref17h5b2678452707a13fE },
    Symbol { offset: 5555555a1084, size: 4, name: .Lanon.02723585229dd69bc19445d06dbecb05.51 },
    Symbol { offset: 5555555b6e00, size: 7ce, name: _ZN135_$LT$clap_builder..builder..value_parser..EnumValueParser$LT$E$GT$$u20$as$u20$clap_builder..builder..value_parser..TypedValueParser$GT$9parse_ref17h981cdce4aca5777cE },
    Symbol { offset: 5555555b75d0, size: 7ce, name: _ZN135_$LT$clap_builder..builder..value_parser..EnumValueParser$LT$E$GT$$u20$as$u20$clap_builder..builder..value_parser..TypedValueParser$GT$9parse_ref17ha1dd5e58dac188daE },
    Symbol { offset: 5555555b7da0, size: f60, name: _ZN140_$LT$clap_builder..builder..value_parser..RangedI64ValueParser$LT$T$GT$$u20$as$u20$clap_builder..builder..value_parser..TypedValueParser$GT$9parse_ref17h274b20186de95ef1E },
    Symbol { offset: 5555555a11f0, size: 8, name: .Lanon.02723585229dd69bc19445d06dbecb05.0 },
    Symbol { offset: 5555555a1218, size: 8, name: .Lanon.02723585229dd69bc19445d06dbecb05.2 },
    Symbol { offset: 5555555ba220, size: 14, name: _ZN60_$LT$alloc..string..String$u20$as$u20$core..fmt..Display$GT$3fmt17h253a895d4ea9e2d1E },
    Symbol { offset: 5555555b8d00, size: cb9, name: _ZN140_$LT$clap_builder..builder..value_parser..RangedU64ValueParser$LT$T$GT$$u20$as$u20$clap_builder..builder..value_parser..TypedValueParser$GT$9parse_ref17hc3c67dd52d16f752E },
    Symbol { offset: 5555555a11c0, size: 8, name: .Lanon.02723585229dd69bc19445d06dbecb05.5 },
    Symbol { offset: 5555555a1110, size: 8, name: .Lanon.02723585229dd69bc19445d06dbecb05.6 },
    Symbol { offset: 5555555b99c0, size: 5a, name: _ZN4core3ptr118drop_in_place$LT$alloc..boxed..Box$LT$dyn$u20$core..error..Error$u2b$core..marker..Send$u2b$core..marker..Sync$GT$$GT$17h3aca8f2d258b1d55E },
    Symbol { offset: 5555555b9a20, size: 18, name: _ZN4core3ptr238drop_in_place$LT$alloc..boxed..convert..$LT$impl$u20$core..convert..From$LT$alloc..string..String$GT$$u20$for$u20$alloc..boxed..Box$LT$dyn$u20$core..error..Error$u2b$core..marker..Send$u2b$core..marker..Sync$GT$$GT$..from..StringError$GT$17h533251327bc4eeaeE },
    Symbol { offset: 5555555b9b20, size: 83, name: _ZN4core4iter6traits8iterator8Iterator10advance_by17h621d6606ae3f3cbeE },
    Symbol { offset: 5555555b9bb0, size: 98, name: _ZN4core4iter6traits8iterator8Iterator10advance_by17h9d33e83601a5eafeE },
    Symbol { offset: 5555555b9c50, size: e6, name: _ZN4core4iter6traits8iterator8Iterator3nth17h0889f8bd0571be3fE },
    Symbol { offset: 5555555b9d40, size: ed, name: _ZN4core4iter6traits8iterator8Iterator3nth17ha0bba03d09018b26E },
    Symbol { offset: 5555555b9e30, size: e6, name: _ZN4core4iter6traits8iterator8Iterator3nth17hcd36ad194cd8c8abE },
    Symbol { offset: 5555555b9f20, size: ea, name: _ZN4core4iter6traits8iterator8Iterator3nth17hec665ca7fafc1ae5E },
    Symbol { offset: 5555555ba010, size: 3, name: _ZN4core5error5Error6source17h990f11d2393dcb1bE },
    Symbol { offset: 5555555ba020, size: 3, name: _ZN4core5error5Error6source17hc68ef40916c96267E },
    Symbol { offset: 5555555ba030, size: 1, name: _ZN4core5error5Error7provide17h08bb0ec2d3ff0a89E },
    Symbol { offset: 5555555ba040, size: 1, name: _ZN4core5error5Error7provide17h91b891dfef008767E },
    Symbol { offset: 5555555ba050, size: 1, name: _ZN4core5error5Error7provide17hf7c1023bf770e7ceE },
    Symbol { offset: 5555555ba060, size: 15, name: _ZN53_$LT$core..fmt..Error$u20$as$u20$core..fmt..Debug$GT$3fmt17h6736176c8e29474eE },
    Symbol { offset: 5555555ba080, size: 123, name: _ZN58_$LT$alloc..string..String$u20$as$u20$core..fmt..Write$GT$10write_char17h13db4e3872bba170E },
    Symbol { offset: 5555555ba1b0, size: 67, name: _ZN58_$LT$alloc..string..String$u20$as$u20$core..fmt..Write$GT$9write_str17h3471f8bf4fd2c6acE },
    Symbol { offset: 5555555ba240, size: 43, name: _ZN68_$LT$core..num..error..ParseIntError$u20$as$u20$core..fmt..Debug$GT$3fmt17h9d974530281c97f3E },
    Symbol { offset: 5555555ba290, size: 1d, name: _ZN70_$LT$core..num..error..ParseIntError$u20$as$u20$core..error..Error$GT$11description17hf7118da03d3f31b7E },
    Symbol { offset: 5555555ba2b0, size: 29, name: _ZN70_$LT$core..num..error..TryFromIntError$u20$as$u20$core..fmt..Debug$GT$3fmt17h1ec19825d3f66aafE },
    Symbol { offset: 5555555ba2e0, size: d, name: _ZN72_$LT$core..num..error..TryFromIntError$u20$as$u20$core..error..Error$GT$11description17h5edb59429c92c0edE },
    Symbol { offset: 5555555bb280, size: 2c6, name: _ZN75_$LT$F$u20$as$u20$clap_builder..builder..value_parser..TypedValueParser$GT$9parse_ref17h61c939e0bfb6c267E },
    Symbol { offset: 5555555bb550, size: 2d5, name: _ZN75_$LT$F$u20$as$u20$clap_builder..builder..value_parser..TypedValueParser$GT$9parse_ref17he2800eed84d63028E },
    Symbol { offset: 555555692dc8, size: 40, name: anon.02723585229dd69bc19445d06dbecb05.44.llvm.3271458651181060904 },
    Symbol { offset: 555555692c48, size: 40, name: anon.02723585229dd69bc19445d06dbecb05.38.llvm.3271458651181060904 },
    Symbol { offset: 555555692cc8, size: 40, name: anon.02723585229dd69bc19445d06dbecb05.40.llvm.3271458651181060904 },
    Symbol { offset: 555555692d48, size: 40, name: anon.02723585229dd69bc19445d06dbecb05.42.llvm.3271458651181060904 },
    Symbol { offset: 555555692d88, size: 40, name: anon.02723585229dd69bc19445d06dbecb05.43.llvm.3271458651181060904 },
    Symbol { offset: 555555692c88, size: 40, name: anon.02723585229dd69bc19445d06dbecb05.39.llvm.3271458651181060904 },
    Symbol { offset: 5555555ba2f0, size: b3, name: _ZN73_$LT$P$u20$as$u20$clap_builder..builder..value_parser..AnyValueParser$GT$10parse_ref_17h1499f4d280811e69E.llvm.3271458651181060904 },
    Symbol { offset: 5555555ba3b0, size: b3, name: _ZN73_$LT$P$u20$as$u20$clap_builder..builder..value_parser..AnyValueParser$GT$10parse_ref_17h31a60a08473f171bE.llvm.3271458651181060904 },
    Symbol { offset: 5555555ba470, size: b2, name: _ZN73_$LT$P$u20$as$u20$clap_builder..builder..value_parser..AnyValueParser$GT$10parse_ref_17h5af5406387bdb26eE },
    Symbol { offset: 5555555ba530, size: b3, name: _ZN73_$LT$P$u20$as$u20$clap_builder..builder..value_parser..AnyValueParser$GT$10parse_ref_17h731242ff3fbc40dfE.llvm.3271458651181060904 },
    Symbol { offset: 5555555ba5f0, size: a6, name: _ZN73_$LT$P$u20$as$u20$clap_builder..builder..value_parser..AnyValueParser$GT$10parse_ref_17h8296f70a7d3f960aE.llvm.3271458651181060904 },
    Symbol { offset: 5555555ba6a0, size: b3, name: _ZN73_$LT$P$u20$as$u20$clap_builder..builder..value_parser..AnyValueParser$GT$10parse_ref_17hbc24d0ae747b7186E.llvm.3271458651181060904 },
    Symbol { offset: 5555555ba760, size: a5, name: _ZN73_$LT$P$u20$as$u20$clap_builder..builder..value_parser..AnyValueParser$GT$10parse_ref_17hdf7cfef79d96aa6aE.llvm.3271458651181060904 },
    Symbol { offset: 5555555ba810, size: a6, name: _ZN73_$LT$P$u20$as$u20$clap_builder..builder..value_parser..AnyValueParser$GT$10parse_ref_17he285c6607c6a3068E },
    Symbol { offset: 5555555ba8c0, size: 3, name: _ZN73_$LT$P$u20$as$u20$clap_builder..builder..value_parser..AnyValueParser$GT$15possible_values17h06f1f0b31fc6b8dbE.llvm.3271458651181060904 },
    Symbol { offset: 5555555ba8d0, size: 4e, name: _ZN73_$LT$P$u20$as$u20$clap_builder..builder..value_parser..AnyValueParser$GT$15possible_values17h733756b79afc81cdE.llvm.3271458651181060904 },
    Symbol { offset: 5555555ba920, size: 4e, name: _ZN73_$LT$P$u20$as$u20$clap_builder..builder..value_parser..AnyValueParser$GT$15possible_values17hb232277f37ee906aE.llvm.3271458651181060904 },
    Symbol { offset: 5555555ba970, size: 4e, name: _ZN73_$LT$P$u20$as$u20$clap_builder..builder..value_parser..AnyValueParser$GT$15possible_values17hd457da848441ccbbE.llvm.3271458651181060904 },
    Symbol { offset: 5555555ba9c0, size: 4e, name: _ZN73_$LT$P$u20$as$u20$clap_builder..builder..value_parser..AnyValueParser$GT$15possible_values17hd99800c7fc6bf4b5E.llvm.3271458651181060904 },
    Symbol { offset: 5555555baa10, size: 15, name: _ZN73_$LT$P$u20$as$u20$clap_builder..builder..value_parser..AnyValueParser$GT$7type_id17h043a48ec2c2aad84E.llvm.3271458651181060904 },
    Symbol { offset: 5555555baa30, size: 15, name: _ZN73_$LT$P$u20$as$u20$clap_builder..builder..value_parser..AnyValueParser$GT$7type_id17h4305ac116ba6c28cE.llvm.3271458651181060904 },
    Symbol { offset: 5555555baa50, size: 15, name: _ZN73_$LT$P$u20$as$u20$clap_builder..builder..value_parser..AnyValueParser$GT$7type_id17h6caaba847d64973cE.llvm.3271458651181060904 },
    Symbol { offset: 5555555baa70, size: 15, name: _ZN73_$LT$P$u20$as$u20$clap_builder..builder..value_parser..AnyValueParser$GT$7type_id17h6e17434b97d2b1a9E.llvm.3271458651181060904 },
    Symbol { offset: 5555555baa90, size: 15, name: _ZN73_$LT$P$u20$as$u20$clap_builder..builder..value_parser..AnyValueParser$GT$7type_id17h790acd5c8e693a52E },
    Symbol { offset: 5555555baab0, size: 15, name: _ZN73_$LT$P$u20$as$u20$clap_builder..builder..value_parser..AnyValueParser$GT$7type_id17h8c27b42457c0227cE },
    Symbol { offset: 5555555baad0, size: 15, name: _ZN73_$LT$P$u20$as$u20$clap_builder..builder..value_parser..AnyValueParser$GT$7type_id17hbd0a144f82e5ccbdE.llvm.3271458651181060904 },
    Symbol { offset: 5555555baaf0, size: 15, name: _ZN73_$LT$P$u20$as$u20$clap_builder..builder..value_parser..AnyValueParser$GT$7type_id17hee4f503dafd4f655E.llvm.3271458651181060904 },
    Symbol { offset: 5555555bab10, size: d, name: _ZN73_$LT$P$u20$as$u20$clap_builder..builder..value_parser..AnyValueParser$GT$9clone_any17h0dbe8348a72cc6ecE.llvm.3271458651181060904 },
    Symbol { offset: 5555555bab20, size: d, name: _ZN73_$LT$P$u20$as$u20$clap_builder..builder..value_parser..AnyValueParser$GT$9clone_any17h1c8ea7b090d1c9c6E.llvm.3271458651181060904 },
    Symbol { offset: 5555555bab30, size: d, name: _ZN73_$LT$P$u20$as$u20$clap_builder..builder..value_parser..AnyValueParser$GT$9clone_any17h2bd8fa8d2dfdd57bE.llvm.3271458651181060904 },
    Symbol { offset: 5555555bab40, size: 3f, name: _ZN73_$LT$P$u20$as$u20$clap_builder..builder..value_parser..AnyValueParser$GT$9clone_any17h5fde2f4c05d6726bE },
    Symbol { offset: 5555555bab80, size: 68, name: _ZN73_$LT$P$u20$as$u20$clap_builder..builder..value_parser..AnyValueParser$GT$9clone_any17h837297df9e7a35b6E.llvm.3271458651181060904 },
    Symbol { offset: 5555555babf0, size: d, name: _ZN73_$LT$P$u20$as$u20$clap_builder..builder..value_parser..AnyValueParser$GT$9clone_any17h88bccf592694721fE.llvm.3271458651181060904 },
    Symbol { offset: 5555555bac00, size: 68, name: _ZN73_$LT$P$u20$as$u20$clap_builder..builder..value_parser..AnyValueParser$GT$9clone_any17he681fdb860eec5afE.llvm.3271458651181060904 },
    Symbol { offset: 5555555bac70, size: 3f, name: _ZN73_$LT$P$u20$as$u20$clap_builder..builder..value_parser..AnyValueParser$GT$9clone_any17hf51538e8bf7c0889E },
    Symbol { offset: 5555555bacb0, size: a5, name: _ZN73_$LT$P$u20$as$u20$clap_builder..builder..value_parser..AnyValueParser$GT$9parse_ref17h28978640ebe98859E.llvm.3271458651181060904 },
    Symbol { offset: 5555555bad60, size: a6, name: _ZN73_$LT$P$u20$as$u20$clap_builder..builder..value_parser..AnyValueParser$GT$9parse_ref17h53d27fb387ed7f77E },
    Symbol { offset: 5555555bae10, size: b3, name: _ZN73_$LT$P$u20$as$u20$clap_builder..builder..value_parser..AnyValueParser$GT$9parse_ref17h642845ba86b2b2b7E.llvm.3271458651181060904 },
    Symbol { offset: 5555555baed0, size: a6, name: _ZN73_$LT$P$u20$as$u20$clap_builder..builder..value_parser..AnyValueParser$GT$9parse_ref17h6abfa8c7e80d169eE.llvm.3271458651181060904 },
    Symbol { offset: 5555555baf80, size: b3, name: _ZN73_$LT$P$u20$as$u20$clap_builder..builder..value_parser..AnyValueParser$GT$9parse_ref17h7564e4f02e9eb6f4E.llvm.3271458651181060904 },
    Symbol { offset: 5555555bb040, size: b3, name: _ZN73_$LT$P$u20$as$u20$clap_builder..builder..value_parser..AnyValueParser$GT$9parse_ref17h939203a052342196E.llvm.3271458651181060904 },
    Symbol { offset: 5555555bb100, size: b3, name: _ZN73_$LT$P$u20$as$u20$clap_builder..builder..value_parser..AnyValueParser$GT$9parse_ref17h98b163210653dfe2E.llvm.3271458651181060904 },
    Symbol { offset: 5555555bb1c0, size: b2, name: _ZN73_$LT$P$u20$as$u20$clap_builder..builder..value_parser..AnyValueParser$GT$9parse_ref17he16a1f58f72799c7E },
    Symbol { offset: 5555555ba8c0, size: 3, name: _ZN73_$LT$P$u20$as$u20$clap_builder..builder..value_parser..AnyValueParser$GT$15possible_values17h2759bc3b84008502E },
    Symbol { offset: 5555555ba8c0, size: 3, name: _ZN73_$LT$P$u20$as$u20$clap_builder..builder..value_parser..AnyValueParser$GT$15possible_values17hb6a9a952bfd0ade7E },
    Symbol { offset: 5555555ba8c0, size: 3, name: _ZN73_$LT$P$u20$as$u20$clap_builder..builder..value_parser..AnyValueParser$GT$15possible_values17hc5dc87165667c052E.llvm.3271458651181060904 },
    Symbol { offset: 5555555bb9c0, size: 15, name: _ZN53_$LT$core..fmt..Error$u20$as$u20$core..fmt..Debug$GT$3fmt17h6736176c8e29474eE },
    Symbol { offset: 5555555bb9e0, size: 123, name: _ZN58_$LT$alloc..string..String$u20$as$u20$core..fmt..Write$GT$10write_char17h13db4e3872bba170E },
    Symbol { offset: 5555555bbb10, size: 67, name: _ZN58_$LT$alloc..string..String$u20$as$u20$core..fmt..Write$GT$9write_str17h3471f8bf4fd2c6acE },
    Symbol { offset: 5555555bbb80, size: 14, name: _ZN60_$LT$alloc..string..String$u20$as$u20$core..fmt..Display$GT$3fmt17h253a895d4ea9e2d1E },
    Symbol { offset: 555555692e90, size: 20, name: anon.b50dd9244c1b2b98a52c76134ae20302.2.llvm.7467506292163335994 },
    Symbol { offset: 555555692eb0, size: 18, name: anon.b50dd9244c1b2b98a52c76134ae20302.4.llvm.7467506292163335994 },
    Symbol { offset: 5555555bb830, size: 10, name: _ZN4core3fmt5Write9write_fmt17h3006e65a4b7f9d93E },
    Symbol { offset: 5555555bb840, size: 18, name: _ZN4core3ptr42drop_in_place$LT$alloc..string..String$GT$17hbfe830c6b752c7bfE.llvm.7467506292163335994 },
    Symbol { offset: 5555555bb860, size: 135, name: _ZN4core5slice4sort6stable14driftsort_main17h06ba8de16cbece83E },
    Symbol { offset: 5555555bb9a0, size: 14, name: _ZN52_$LT$$RF$mut$u20$T$u20$as$u20$core..fmt..Display$GT$3fmt17h1cbbc9d07241a38bE },
    Symbol { offset: 5555555bbba0, size: 279, name: _ZN89_$LT$alloc..string..String$u20$as$u20$core..iter..traits..collect..Extend$LT$char$GT$$GT$6extend17h4d035cfb22dd3e98E },
    Symbol { offset: 5555555bbe20, size: ef9, name: _ZN30codspeed_divan_compat_walltime5divan8codspeed24collect_walltime_results17hb85954404986877aE },
    Symbol { offset: 5555555bcd20, size: 53e, name: _ZN104_$LT$codspeed_divan_compat_walltime..time..fine_duration..FineDuration$u20$as$u20$core..fmt..Display$GT$3fmt17hbd7b27c7eb9c55f3E },
    Symbol { offset: 5555555bdfd0, size: 230, name: _ZN30codspeed_divan_compat_walltime4util3fmt10format_f6417hac07c2217ca886aaE },
    Symbol { offset: 5555555bd260, size: c89, name: _ZN30codspeed_divan_compat_walltime4time9timestamp3tsc4arch9frequency17h4e8aa9311ec5650bE },
    Symbol { offset: 5555555bdef0, size: d5, name: _ZN30codspeed_divan_compat_walltime4time9timestamp9Timestamp14duration_since17hbb3e33226567481bE },
    Symbol { offset: 55555558b466, size: 28, name: anon.b50dd9244c1b2b98a52c76134ae20302.52.llvm.7467506292163335994 },
    Symbol { offset: 5555556930a8, size: 18, name: anon.b50dd9244c1b2b98a52c76134ae20302.54.llvm.7467506292163335994 },
    Symbol { offset: 5555555be200, size: 1bf, name: _ZN30codspeed_divan_compat_walltime4util3fmt12format_bytes17h16bea4235690fb80E },
    Symbol { offset: 55555558b4c8, size: 60, name: anon.b50dd9244c1b2b98a52c76134ae20302.55.llvm.7467506292163335994 },
    Symbol { offset: 5555556930c0, size: c0, name: anon.b50dd9244c1b2b98a52c76134ae20302.67.llvm.7467506292163335994 },
    Symbol { offset: 5555555be3c0, size: 305, name: _ZN99_$LT$codspeed_divan_compat_walltime..util..fmt..DisplayThroughput$u20$as$u20$core..fmt..Display$GT$3fmt17hfb2ec065c5fc24abE },
    Symbol { offset: 55555558b0c4, size: 2b, name: anon.b50dd9244c1b2b98a52c76134ae20302.0.llvm.7467506292163335994 },
    Symbol { offset: 55555558b0ef, size: 3, name: anon.b50dd9244c1b2b98a52c76134ae20302.1.llvm.7467506292163335994 },
    Symbol { offset: 55555558b0f2, size: 6f, name: anon.b50dd9244c1b2b98a52c76134ae20302.3.llvm.7467506292163335994 },
    Symbol { offset: 55555558b198, size: 76, name: anon.b50dd9244c1b2b98a52c76134ae20302.7.llvm.7467506292163335994 },
    Symbol { offset: 55555558b48e, size: 38, name: anon.b50dd9244c1b2b98a52c76134ae20302.53.llvm.7467506292163335994 },
    Symbol { offset: 55555558b528, size: 1, name: anon.b50dd9244c1b2b98a52c76134ae20302.56.llvm.7467506292163335994 },
    Symbol { offset: 55555558b529, size: 2, name: anon.b50dd9244c1b2b98a52c76134ae20302.57.llvm.7467506292163335994 },
    Symbol { offset: 55555558b52b, size: 2, name: anon.b50dd9244c1b2b98a52c76134ae20302.58.llvm.7467506292163335994 },
    Symbol { offset: 55555558b52d, size: 2, name: anon.b50dd9244c1b2b98a52c76134ae20302.59.llvm.7467506292163335994 },
    Symbol { offset: 55555558b52f, size: 2, name: anon.b50dd9244c1b2b98a52c76134ae20302.60.llvm.7467506292163335994 },
    Symbol { offset: 55555558b531, size: 2, name: anon.b50dd9244c1b2b98a52c76134ae20302.61.llvm.7467506292163335994 },
    Symbol { offset: 55555558b533, size: 3, name: anon.b50dd9244c1b2b98a52c76134ae20302.62.llvm.7467506292163335994 },
    Symbol { offset: 55555558b536, size: 3, name: anon.b50dd9244c1b2b98a52c76134ae20302.63.llvm.7467506292163335994 },
    Symbol { offset: 55555558b539, size: 3, name: anon.b50dd9244c1b2b98a52c76134ae20302.64.llvm.7467506292163335994 },
    Symbol { offset: 55555558b53c, size: 3, name: anon.b50dd9244c1b2b98a52c76134ae20302.65.llvm.7467506292163335994 },
    Symbol { offset: 55555558b53f, size: 3, name: anon.b50dd9244c1b2b98a52c76134ae20302.66.llvm.7467506292163335994 },
    Symbol { offset: 5555555be6d0, size: 35, name: _ZN3std4sync6poison4once4Once15call_once_force28_$u7b$$u7b$closure$u7d$$u7d$17h1c339c7c6b285c3dE.llvm.5514744732077103178 },
    Symbol { offset: 5555555be710, size: dc, name: _ZN3std4sync6poison4once4Once15call_once_force28_$u7b$$u7b$closure$u7d$$u7d$17h4fb93600553dd369E.llvm.5514744732077103178 },
    Symbol { offset: 5555555be7f0, size: c8, name: _ZN3std4sync6poison4once4Once15call_once_force28_$u7b$$u7b$closure$u7d$$u7d$17h723bf0a0d2197397E.llvm.5514744732077103178 },
    Symbol { offset: 5555555be989, size: 4a, name: _ZN3std4sync9once_lock17OnceLock$LT$T$GT$10initialize17hcaaeb0fb72dbb26dE },
    Symbol { offset: 5555555be8c0, size: 35, name: _ZN3std4sync6poison4once4Once15call_once_force28_$u7b$$u7b$closure$u7d$$u7d$17hfcd100f1e3d3eb5fE.llvm.5514744732077103178 },
    Symbol { offset: 5555555be8f5, size: 4a, name: _ZN3std4sync9once_lock17OnceLock$LT$T$GT$10initialize17h3e3653c23c98d2b9E },
    Symbol { offset: 555555693360, size: 28, name: anon.e8d4af640e26f9a7f833e36012e95cbb.0.llvm.5514744732077103178 },
    Symbol { offset: 555555693388, size: 18, name: anon.e8d4af640e26f9a7f833e36012e95cbb.2.llvm.5514744732077103178 },
    Symbol { offset: 5555555be93f, size: 4a, name: _ZN3std4sync9once_lock17OnceLock$LT$T$GT$10initialize17h80ed97d2627127a6E },
    Symbol { offset: 5555556933f0, size: 28, name: anon.e8d4af640e26f9a7f833e36012e95cbb.5.llvm.5514744732077103178 },
    Symbol { offset: 5555556933a0, size: 28, name: anon.e8d4af640e26f9a7f833e36012e95cbb.3.llvm.5514744732077103178 },
    Symbol { offset: 5555555be9d3, size: 4a, name: _ZN3std4sync9once_lock17OnceLock$LT$T$GT$10initialize17hcf9057c84ef7ba07E },
    Symbol { offset: 5555556933c8, size: 28, name: anon.e8d4af640e26f9a7f833e36012e95cbb.4.llvm.5514744732077103178 },
    Symbol { offset: 5555555bea20, size: 35, name: _ZN4core3ops8function6FnOnce40call_once$u7b$$u7b$vtable.shim$u7d$$u7d$17h097533e08c32bbbaE.llvm.5514744732077103178 },
    Symbol { offset: 5555555bea60, size: dc, name: _ZN4core3ops8function6FnOnce40call_once$u7b$$u7b$vtable.shim$u7d$$u7d$17h1317fadcd0400c24E.llvm.5514744732077103178 },
    Symbol { offset: 5555555beb40, size: c8, name: _ZN4core3ops8function6FnOnce40call_once$u7b$$u7b$vtable.shim$u7d$$u7d$17ha308e7181344fd7eE.llvm.5514744732077103178 },
    Symbol { offset: 5555555bec10, size: 35, name: _ZN4core3ops8function6FnOnce40call_once$u7b$$u7b$vtable.shim$u7d$$u7d$17ha5813b97407917f5E.llvm.5514744732077103178 },
    Symbol { offset: 5555555bec50, size: 634, name: _ZN4core5slice4sort6stable5drift4sort17h71e378392d7cccc9E },
    Symbol { offset: 5555555bf290, size: 1ae, name: _ZN4core5slice4sort8unstable7ipnsort17h073f393d73ab0f82E },
    Symbol { offset: 5555555bf440, size: 13b, name: _ZN4core5slice4sort8unstable7ipnsort17h711436c6a7dfb9baE },
    Symbol { offset: 5555555bf580, size: 13b, name: _ZN4core5slice4sort8unstable7ipnsort17hab57575ade3495d1E },
    Symbol { offset: 5555555bf6c0, size: 1a0, name: _ZN4core5slice4sort8unstable7ipnsort17haeccb017b62d22a0E },
    Symbol { offset: 5555555bf860, size: 97, name: _ZN4core5slice4sort8unstable8heapsort8heapsort17h1e06b9b2757b1168E },
    Symbol { offset: 5555555bf900, size: 1f7, name: _ZN4core5slice4sort8unstable8heapsort8heapsort17ha99cef2194ed9c91E },
    Symbol { offset: 5555555bfb00, size: b0, name: _ZN4core5slice4sort8unstable8heapsort8heapsort17he3c67b748589db28E },
    Symbol { offset: 5555555bfbb0, size: 97, name: _ZN4core5slice4sort8unstable8heapsort8heapsort17hfd35c09a94cc74c3E },
    Symbol { offset: 55555558b618, size: 7e, name: anon.e8d4af640e26f9a7f833e36012e95cbb.1.llvm.5514744732077103178 },
    Symbol { offset: 5555555bfcd0, size: 99, name: _ZN4core3ptr110drop_in_place$LT$codspeed_divan_compat_walltime..tree_painter..TreeColumnData$LT$alloc..string..String$GT$$GT$17h22b3cfecff22d639E },
    Symbol { offset: 5555555bfd70, size: 2b5, name: _ZN4core3ptr131drop_in_place$LT$$u5b$codspeed_divan_compat_walltime..tree_painter..TreeColumnData$LT$alloc..string..String$GT$$u3b$$u20$4$u5d$$GT$17hfe7cdb891798d85bE },
    Symbol { offset: 5555555c0030, size: 156, name: _ZN4core3ptr148drop_in_place$LT$core..option..Option$LT$codspeed_divan_compat_walltime..alloc..AllocTally$LT$$u5b$alloc..string..String$u3b$$u20$6$u5d$$GT$$GT$$GT$17had94a9c8d0c6a9f8E },
    Symbol { offset: 5555555c0190, size: 31, name: _ZN4core3ptr169drop_in_place$LT$$u5b$core..option..Option$LT$codspeed_divan_compat_walltime..alloc..AllocTally$LT$$u5b$alloc..string..String$u3b$$u20$6$u5d$$GT$$GT$$u3b$$u20$4$u5d$$GT$17hc5d6547f205ce704E },
    Symbol { offset: 5555555c0810, size: 120, name: _ZN4core3ptr59drop_in_place$LT$clap_builder..builder..ext..Extensions$GT$17h5ff9001bb2c6cc23E },
    Symbol { offset: 5555555c0930, size: a2, name: _ZN4core3ptr91drop_in_place$LT$core..option..Option$LT$$u5b$alloc..string..String$u3b$$u20$6$u5d$$GT$$GT$17hd485fa7995d5f22dE },
    Symbol { offset: 5555555a08c0, size: 10, name: .Lanon.1a562c7969da2c2d409eec3bef085c11.14 },
    Symbol { offset: 5555555a0eb0, size: 20, name: .Lswitch.table._ZN30codspeed_divan_compat_walltime12tree_painter11TreePainter11finish_leaf17hc88b2ef42f2876a6E.90 },
    Symbol { offset: 5555555a1108, size: 8, name: .Lanon.1a562c7969da2c2d409eec3bef085c11.19 },
    Symbol { offset: 5555555bfc50, size: 77, name: _ZN129_$LT$$u5b$core..mem..maybe_uninit..MaybeUninit$LT$T$GT$$u3b$$u20$N$u5d$$u20$as$u20$core..array..iter..iter_inner..PartialDrop$GT$12partial_drop17h2fc88167d579521aE },
    Symbol { offset: 5555555c01d0, size: 632, name: _ZN4core3ptr52drop_in_place$LT$clap_builder..builder..arg..Arg$GT$17haa45778277852ae3E.llvm.832087020919550629 },
    Symbol { offset: 5555555c09e0, size: 434, name: _ZN30codspeed_divan_compat_walltime12tree_painter11TreePainter12start_parent17hf494ce18d112516dE },
    Symbol { offset: 55555558b7ba, size: 7, name: anon.1a562c7969da2c2d409eec3bef085c11.8.llvm.832087020919550629 },
    Symbol { offset: 55555558b7b3, size: 7, name: anon.1a562c7969da2c2d409eec3bef085c11.7.llvm.832087020919550629 },
    Symbol { offset: 5555555c3480, size: 1e8, name: _ZN30codspeed_divan_compat_walltime12tree_painter29TreeColumnData$LT$$RF$str$GT$5write17h791fee5210736ed4E.llvm.832087020919550629 },
    Symbol { offset: 555555693460, size: 20, name: anon.1a562c7969da2c2d409eec3bef085c11.6.llvm.832087020919550629 },
    Symbol { offset: 5555555c0e20, size: 1c5, name: _ZN30codspeed_divan_compat_walltime12tree_painter11TreePainter13finish_parent17hac165f3ed29c888cE },
    Symbol { offset: 555555693480, size: 10, name: anon.1a562c7969da2c2d409eec3bef085c11.12.llvm.832087020919550629 },
    Symbol { offset: 5555555c0ff0, size: 373, name: _ZN30codspeed_divan_compat_walltime12tree_painter11TreePainter11ignore_leaf17h18e2e3aa7dc5bf55E },
    Symbol { offset: 55555558b830, size: 9, name: anon.1a562c7969da2c2d409eec3bef085c11.13.llvm.832087020919550629 },
    Symbol { offset: 5555555c1370, size: 315, name: _ZN30codspeed_divan_compat_walltime12tree_painter11TreePainter10start_leaf17hdd0081fd5e3f5753E },
    Symbol { offset: 5555555c1690, size: 1dee, name: _ZN30codspeed_divan_compat_walltime12tree_painter11TreePainter11finish_leaf17hc88b2ef42f2876a6E },
    Symbol { offset: 55555558b855, size: 5, name: anon.1a562c7969da2c2d409eec3bef085c11.20.llvm.832087020919550629 },
    Symbol { offset: 5555555c3670, size: 35a, name: _ZN30codspeed_divan_compat_walltime4util4sort11natural_cmp17h2bd11ed9588ca1ebE },
    Symbol { offset: 55555558b70c, size: 76, name: anon.1a562c7969da2c2d409eec3bef085c11.0.llvm.832087020919550629 },
    Symbol { offset: 55555558b7b2, size: 1, name: anon.1a562c7969da2c2d409eec3bef085c11.5.llvm.832087020919550629 },
    Symbol { offset: 5555555c5130, size: 88, name: _ZN3std4sync4mpmc7context7Context4with28_$u7b$$u7b$closure$u7d$$u7d$17hed5abc09312ae020E },
    Symbol { offset: 5555555c3f70, size: 1af, name: _ZN3std4sync4mpmc5array16Channel$LT$T$GT$4recv28_$u7b$$u7b$closure$u7d$$u7d$17hbbf8b20f2160c939E },
    Symbol { offset: 5555555c4c60, size: 26a, name: _ZN3std4sync4mpmc5waker9SyncWaker6notify17hccc9fe8637f23689E },
    Symbol { offset: 5555555c4ed0, size: 1c3, name: _ZN3std4sync4mpmc5waker9SyncWaker8register17ha2fec73c1258216eE },
    Symbol { offset: 5555555c4a60, size: 1f7, name: _ZN3std4sync4mpmc5waker9SyncWaker10unregister17h049f5b90545b1886E },
    Symbol { offset: 5555555c50a0, size: 88, name: _ZN3std4sync4mpmc7context7Context4with28_$u7b$$u7b$closure$u7d$$u7d$17he4aa0553c048f332E },
    Symbol { offset: 5555555c45b0, size: 1bf, name: _ZN3std4sync4mpmc5array16Channel$LT$T$GT$4send28_$u7b$$u7b$closure$u7d$$u7d$17hc67c22c595c2ab37E },
    Symbol { offset: 5555555c4770, size: 119, name: _ZN3std4sync4mpmc5waker5Waker6notify17h04b09af56c602e4aE },
    Symbol { offset: 5555555c5ed0, size: 41, name: _ZN4core3ptr94drop_in_place$LT$std..sync..poison..mutex..MutexGuard$LT$std..sync..mpmc..waker..Waker$GT$$GT$17h1c511e089a93b5feE },
    Symbol { offset: 5555555c5a60, size: 41, name: _ZN4core3ptr132drop_in_place$LT$std..sync..poison..PoisonError$LT$std..sync..poison..mutex..MutexGuard$LT$std..sync..mpmc..waker..Waker$GT$$GT$$GT$17h45b44a4fcb87b090E },
    Symbol { offset: 5555555c5bd0, size: b1, name: _ZN4core3ptr215drop_in_place$LT$std..thread..Builder..spawn_unchecked_$LT$codspeed_divan_compat_walltime..thread_pool..spawn..$u7b$$u7b$closure$u7d$$u7d$..$u7b$$u7b$closure$u7d$$u7d$$C$$LP$$RP$$GT$..$u7b$$u7b$closure$u7d$$u7d$$GT$17hd0e48b551896ac24E },
    Symbol { offset: 5555555c5e00, size: c7, name: _ZN4core3ptr85drop_in_place$LT$alloc..sync..ArcInner$LT$std..thread..Packet$LT$$LP$$RP$$GT$$GT$$GT$17hb4f48a2fcdf893dbE },
    Symbol { offset: 5555555c5c90, size: bb, name: _ZN4core3ptr60drop_in_place$LT$std..thread..spawnhook..ChildSpawnHooks$GT$17ha69f871817ecf8b0E },
    Symbol { offset: 5555555c5710, size: 285, name: _ZN4core3ops8function6FnOnce40call_once$u7b$$u7b$vtable.shim$u7d$$u7d$17hcd6baa63d357123cE },
    Symbol { offset: 5555555c5b00, size: 5c, name: _ZN4core3ptr177drop_in_place$LT$alloc..vec..Vec$LT$alloc..boxed..Box$LT$dyn$u20$core..ops..function..FnOnce$LT$$LP$$RP$$GT$$u2b$Output$u20$$u3d$$u20$$LP$$RP$$u2b$core..marker..Send$GT$$GT$$GT$17h8d222ebfd666ac47E },
    Symbol { offset: 5555555c5b60, size: 67, name: _ZN4core3ptr188drop_in_place$LT$core..cell..UnsafeCell$LT$core..option..Option$LT$core..result..Result$LT$$LP$$RP$$C$alloc..boxed..Box$LT$dyn$u20$core..any..Any$u2b$core..marker..Send$GT$$GT$$GT$$GT$$GT$17h19a2cde317c99296E },
    Symbol { offset: 555555693490, size: 18, name: anon.9d45dc588dd6c1ca7d3973bd173ea216.1.llvm.17077398685498481616 },
    Symbol { offset: 5555555c4890, size: 1cc, name: _ZN3std4sync4mpmc5waker9SyncWaker10disconnect17hc955f8edf38f9f84E.llvm.17077398685498481616 },
    Symbol { offset: 5555555c39d0, size: 15a, name: _ZN3std4sync4mpmc5array16Channel$LT$T$GT$20disconnect_receivers17h2fd21e7ad98da48aE },
    Symbol { offset: 5555555c3b30, size: 432, name: _ZN3std4sync4mpmc5array16Channel$LT$T$GT$4recv17hd093e0cda894828bE },
    Symbol { offset: 5555555c4120, size: 486, name: _ZN3std4sync4mpmc5array16Channel$LT$T$GT$4send17h05dfaa96525ad93aE },
    Symbol { offset: 5555555c51c0, size: 547, name: _ZN3std6thread7Builder15spawn_unchecked17h5f007a69198ffda0E },
    Symbol { offset: 5555555c5d50, size: a4, name: _ZN4core3ptr81drop_in_place$LT$core..result..Result$LT$$LP$$RP$$C$std..io..error..Error$GT$$GT$17h3648387e7a3e63e0E.llvm.17077398685498481616 },
    Symbol { offset: 5555555c59a0, size: 5c, name: _ZN4core3ptr128drop_in_place$LT$alloc..vec..Vec$LT$std..sync..mpsc..SyncSender$LT$codspeed_divan_compat_walltime..thread_pool..Task$GT$$GT$$GT$17hcee33aece4b62e00E.llvm.17077398685498481616 },
    Symbol { offset: 5555555c5a00, size: 5f, name: _ZN4core3ptr130drop_in_place$LT$core..result..Result$LT$$LP$$RP$$C$alloc..boxed..Box$LT$dyn$u20$core..any..Any$u2b$core..marker..Send$GT$$GT$$GT$17h4c79c0c46f9d7d8cE.llvm.17077398685498481616 },
    Symbol { offset: 5555555c5ab0, size: 41, name: _ZN4core3ptr172drop_in_place$LT$std..sync..poison..mutex..MutexGuard$LT$alloc..vec..Vec$LT$std..sync..mpsc..SyncSender$LT$codspeed_divan_compat_walltime..thread_pool..Task$GT$$GT$$GT$$GT$17hfbbdbad71ddf0620E.llvm.17077398685498481616 },
    Symbol { offset: 5555555c5f20, size: 126, name: _ZN70_$LT$std..thread..Packet$LT$T$GT$$u20$as$u20$core..ops..drop..Drop$GT$4drop17hcf582985b18b7787E },
    Symbol { offset: 555555693638, size: 10, name: anon.9d45dc588dd6c1ca7d3973bd173ea216.30.llvm.17077398685498481616 },
    Symbol { offset: 5555555c6050, size: 245, name: _ZN30codspeed_divan_compat_walltime11thread_pool10ThreadPool14broadcast_task17h639827f269ee3c2fE },
    Symbol { offset: 5555555c62a0, size: 147, name: _ZN30codspeed_divan_compat_walltime11thread_pool10ThreadPool12drop_threads17h5d48d9245931d7b1E },
    Symbol { offset: 55555558b86c, size: 70, name: anon.9d45dc588dd6c1ca7d3973bd173ea216.0.llvm.17077398685498481616 },
    Symbol { offset: 55555558b904, size: 7d, name: anon.9d45dc588dd6c1ca7d3973bd173ea216.5.llvm.17077398685498481616 },
    Symbol { offset: 55555558baf5, size: 3e, name: anon.9d45dc588dd6c1ca7d3973bd173ea216.29.llvm.17077398685498481616 },
    Symbol { offset: 55555569dee8, size: 20, name: _ZN30codspeed_divan_compat_walltime11thread_pool10BENCH_POOL17h3ae2d7ebba5373c3E },
    Symbol { offset: 5555555c8480, size: a7, name: _ZN4core3ptr42drop_in_place$LT$std..io..error..Error$GT$17h046add9d4e21af6bE },
    Symbol { offset: 5555555c63f0, size: 3da, name: _ZN102_$LT$core..iter..adapters..map..Map$LT$I$C$F$GT$$u20$as$u20$core..iter..traits..iterator..Iterator$GT$4fold17h159708e74b5a6172E },
    Symbol { offset: 5555555c67d0, size: 1a7, name: _ZN102_$LT$core..iter..adapters..map..Map$LT$I$C$F$GT$$u20$as$u20$core..iter..traits..iterator..Iterator$GT$4fold17h95cee8ad8e566c9fE },
    Symbol { offset: 5555555c6980, size: 167, name: _ZN102_$LT$core..iter..adapters..map..Map$LT$I$C$F$GT$$u20$as$u20$core..iter..traits..iterator..Iterator$GT$4fold17hc5666491efcb2c16E },
    Symbol { offset: 5555555c6af0, size: 21e, name: _ZN102_$LT$core..iter..adapters..map..Map$LT$I$C$F$GT$$u20$as$u20$core..iter..traits..iterator..Iterator$GT$4fold17he3f0de492606e786E },
    Symbol { offset: 5555555c6d10, size: 12f, name: _ZN121_$LT$core..iter..adapters..map..Map$LT$I$C$F$GT$$u20$as$u20$core..iter..traits..unchecked_iterator..UncheckedIterator$GT$14next_unchecked17h17a0e76db0b646acE },
    Symbol { offset: 5555555c87c0, size: 14, name: _ZN60_$LT$alloc..string..String$u20$as$u20$core..fmt..Display$GT$3fmt17h253a895d4ea9e2d1E.llvm.165083765660163604 },
    Symbol { offset: 5555555a0f70, size: 20, name: anon.8546a53c80d92a1cc4d9e6175b750d85.18.llvm.165083765660163604 },
    Symbol { offset: 5555555c6e40, size: 128, name: _ZN121_$LT$core..iter..adapters..map..Map$LT$I$C$F$GT$$u20$as$u20$core..iter..traits..unchecked_iterator..UncheckedIterator$GT$14next_unchecked17h331f2e86251e45d9E },
    Symbol { offset: 5555555c6f70, size: 20f, name: _ZN121_$LT$core..iter..adapters..map..Map$LT$I$C$F$GT$$u20$as$u20$core..iter..traits..unchecked_iterator..UncheckedIterator$GT$14next_unchecked17h3f9e287a069fdda9E },
    Symbol { offset: 55555558bd5d, size: 2, name: anon.8546a53c80d92a1cc4d9e6175b750d85.19.llvm.165083765660163604 },
    Symbol { offset: 5555555c8530, size: 99, name: _ZN4core3ptr63drop_in_place$LT$$u5b$alloc..string..String$u3b$$u20$6$u5d$$GT$17h66738f1b98659cbaE.llvm.165083765660163604 },
    Symbol { offset: 5555555c7180, size: 170, name: _ZN121_$LT$core..iter..adapters..map..Map$LT$I$C$F$GT$$u20$as$u20$core..iter..traits..unchecked_iterator..UncheckedIterator$GT$14next_unchecked17h46f12f776be233fbE },
    Symbol { offset: 5555555c72f0, size: 169, name: _ZN121_$LT$core..iter..adapters..map..Map$LT$I$C$F$GT$$u20$as$u20$core..iter..traits..unchecked_iterator..UncheckedIterator$GT$14next_unchecked17h62072a20ed429ee3E },
    Symbol { offset: 5555555c7460, size: 285, name: _ZN121_$LT$core..iter..adapters..map..Map$LT$I$C$F$GT$$u20$as$u20$core..iter..traits..unchecked_iterator..UncheckedIterator$GT$14next_unchecked17hb8cb5ff750386d2aE },
    Symbol { offset: 5555555c76f0, size: 999, name: _ZN121_$LT$core..iter..adapters..map..Map$LT$I$C$F$GT$$u20$as$u20$core..iter..traits..unchecked_iterator..UncheckedIterator$GT$14next_unchecked17hed21b373fb2dca7bE },
    Symbol { offset: 5555556936d8, size: 18, name: anon.8546a53c80d92a1cc4d9e6175b750d85.5.llvm.165083765660163604 },
    Symbol { offset: 5555555c8090, size: 170, name: _ZN121_$LT$core..iter..adapters..map..Map$LT$I$C$F$GT$$u20$as$u20$core..iter..traits..unchecked_iterator..UncheckedIterator$GT$14next_unchecked17hfe5176cddb3802aaE },
    Symbol { offset: 555555693690, size: 30, name: anon.8546a53c80d92a1cc4d9e6175b750d85.0.llvm.165083765660163604 },
    Symbol { offset: 55555558bbac, size: 37, name: anon.8546a53c80d92a1cc4d9e6175b750d85.1.llvm.165083765660163604 },
    Symbol { offset: 555555693710, size: 20, name: anon.8546a53c80d92a1cc4d9e6175b750d85.7.llvm.165083765660163604 },
    Symbol { offset: 5555556936c0, size: 18, name: anon.8546a53c80d92a1cc4d9e6175b750d85.3.llvm.165083765660163604 },
    Symbol { offset: 5555555c8200, size: 15, name: _ZN36_$LT$T$u20$as$u20$core..any..Any$GT$7type_id17hed2cf5fda0364edcE },
    Symbol { offset: 5555555c8220, size: be, name: _ZN45_$LT$T$u20$as$u20$alloc..string..ToString$GT$9to_string17h0c42487ddad85389E.llvm.165083765660163604 },
    Symbol { offset: 5555555c82e0, size: be, name: _ZN45_$LT$T$u20$as$u20$alloc..string..ToString$GT$9to_string17h332a9c25c71b25b0E.llvm.165083765660163604 },
    Symbol { offset: 5555555c83a0, size: be, name: _ZN45_$LT$T$u20$as$u20$alloc..string..ToString$GT$9to_string17he64e4319e8fa528cE.llvm.165083765660163604 },
    Symbol { offset: 5555555c8460, size: 18, name: _ZN4core3ptr42drop_in_place$LT$alloc..string..String$GT$17hbfe830c6b752c7bfE.llvm.165083765660163604 },
    Symbol { offset: 5555555c85d0, size: 3, name: _ZN4core5error5Error5cause17h5412d0c8eae9a6d3E },
    Symbol { offset: 5555555c85e0, size: 15, name: _ZN4core5error5Error7type_id17h7d7facb699be9dccE },
    Symbol { offset: 5555555c8600, size: 15, name: _ZN53_$LT$core..fmt..Error$u20$as$u20$core..fmt..Debug$GT$3fmt17h6736176c8e29474eE.llvm.165083765660163604 },
    Symbol { offset: 5555555c8620, size: 123, name: _ZN58_$LT$alloc..string..String$u20$as$u20$core..fmt..Write$GT$10write_char17h13db4e3872bba170E.llvm.165083765660163604 },
    Symbol { offset: 5555555c8750, size: 67, name: _ZN58_$LT$alloc..string..String$u20$as$u20$core..fmt..Write$GT$9write_str17h3471f8bf4fd2c6acE.llvm.165083765660163604 },
    Symbol { offset: 55555558bbe3, size: 76, name: anon.8546a53c80d92a1cc4d9e6175b750d85.2.llvm.165083765660163604 },
    Symbol { offset: 55555558bc59, size: 83, name: anon.8546a53c80d92a1cc4d9e6175b750d85.4.llvm.165083765660163604 },
    Symbol { offset: 555555693770, size: 20, name: anon.8546a53c80d92a1cc4d9e6175b750d85.20.llvm.165083765660163604 },
    Symbol { offset: 555555693790, size: 20, name: anon.8546a53c80d92a1cc4d9e6175b750d85.21.llvm.165083765660163604 },
    Symbol { offset: 5555556937b0, size: 20, name: anon.8546a53c80d92a1cc4d9e6175b750d85.22.llvm.165083765660163604 },
    Symbol { offset: 55555558bd5f, size: 7, name: anon.8546a53c80d92a1cc4d9e6175b750d85.23.llvm.165083765660163604 },
    Symbol { offset: 55555558bd66, size: 7, name: anon.8546a53c80d92a1cc4d9e6175b750d85.24.llvm.165083765660163604 },
    Symbol { offset: 55555558bd6d, size: 6, name: anon.8546a53c80d92a1cc4d9e6175b750d85.25.llvm.165083765660163604 },
    Symbol { offset: 5555555a0fec, size: 4, name: anon.8546a53c80d92a1cc4d9e6175b750d85.26.llvm.165083765660163604 },
    Symbol { offset: 55555558bd73, size: 7, name: anon.8546a53c80d92a1cc4d9e6175b750d85.27.llvm.165083765660163604 },
    Symbol { offset: 55555558bd7a, size: 5, name: anon.8546a53c80d92a1cc4d9e6175b750d85.28.llvm.165083765660163604 },
    Symbol { offset: 5555556937d0, size: 18, name: anon.3a13d24b6de066bc92805d5278db024d.1.llvm.10295272441522854256 },
    Symbol { offset: 5555555c87e0, size: 1c4, name: _ZN4core5slice4sort6stable5merge5merge17h1d29a2b01cd82c27E },
    Symbol { offset: 5555555c89b0, size: 8b8, name: _ZN4core5slice4sort6stable9quicksort9quicksort17h97c9e7913182d827E },
    Symbol { offset: 5555555c9270, size: 31e, name: _ZN4core5slice4sort8unstable9quicksort9quicksort17h09daf04a83ddb542E },
    Symbol { offset: 5555555c9590, size: 3b4, name: _ZN4core5slice4sort8unstable9quicksort9quicksort17h47d0a47211f9943eE },
    Symbol { offset: 5555555c9950, size: 31e, name: _ZN4core5slice4sort8unstable9quicksort9quicksort17h6bec770f5096bc68E },
    Symbol { offset: 5555555c9c70, size: 7b5, name: _ZN4core5slice4sort8unstable9quicksort9quicksort17h90f73adb35775f4fE },
    Symbol { offset: 5555555ca430, size: 487, name: _ZN5alloc3str17join_generic_copy17hb3550377fabe50bbE },
    Symbol { offset: 5555555ca8c0, size: 2c, name: _ZN72_$LT$std..sync..mpsc..SendError$LT$T$GT$$u20$as$u20$core..fmt..Debug$GT$3fmt17hae5711f3d78bd825E },
    Symbol { offset: 5555555ca8f0, size: 626, name: _ZN30codspeed_divan_compat_walltime4time9timestamp3tsc4arch7measure17measure_frequency17h8480feecd4a8a0aaE },
    Symbol { offset: 55555558bd94, size: 7a, name: anon.3a13d24b6de066bc92805d5278db024d.0.llvm.10295272441522854256 },
    Symbol { offset: 5555555cc520, size: 6c1, name: _ZN3std4sync4mpmc4zero16Channel$LT$T$GT$4send28_$u7b$$u7b$closure$u7d$$u7d$17hf4d421897c62c242E },
    Symbol { offset: 5555555ccdd0, size: bb, name: _ZN3std4sync4mpmc7context7Context4with28_$u7b$$u7b$closure$u7d$$u7d$17haa02c1f27ad051a1E },
    Symbol { offset: 5555555ccfd0, size: 47, name: _ZN4core3ptr171drop_in_place$LT$core..option..Option$LT$std..sync..mpmc..zero..Channel$LT$codspeed_divan_compat_walltime..thread_pool..Task$GT$..recv..$u7b$$u7b$closure$u7d$$u7d$$GT$$GT$17h32aeb2ac6b0ec27aE },
    Symbol { offset: 5555555ccf40, size: 41, name: _ZN4core3ptr138drop_in_place$LT$std..sync..poison..mutex..MutexGuard$LT$alloc..vec..Vec$LT$alloc..boxed..Box$LT$regex_lite..pikevm..Cache$GT$$GT$$GT$$GT$17h9528b75a6d7b6a0eE },
    Symbol { offset: 5555555ccef0, size: 41, name: _ZN4core3ptr131drop_in_place$LT$std..sync..poison..PoisonError$LT$std..sync..poison..mutex..MutexGuard$LT$std..sync..mpmc..zero..Inner$GT$$GT$$GT$17ha3ac65dcc132672cE },
    Symbol { offset: 5555555cbe50, size: 6c4, name: _ZN3std4sync4mpmc4zero16Channel$LT$T$GT$4recv28_$u7b$$u7b$closure$u7d$$u7d$17h8cfa30cf70a263a9E },
    Symbol { offset: 5555555ccd10, size: b2, name: _ZN3std4sync4mpmc7context7Context4with28_$u7b$$u7b$closure$u7d$$u7d$17h107815e772e92443E },
    Symbol { offset: 5555555ccbf0, size: 119, name: _ZN3std4sync4mpmc5waker5Waker6notify17h04b09af56c602e4aE },
    Symbol { offset: 5555555cce90, size: 2e, name: _ZN42_$LT$$RF$T$u20$as$u20$core..fmt..Debug$GT$3fmt17h095145388cd37641E },
    Symbol { offset: 5555555ccec0, size: 2f, name: _ZN42_$LT$$RF$T$u20$as$u20$core..fmt..Debug$GT$3fmt17ha806b371ff65bf71E },
    Symbol { offset: 5555555a10e8, size: 8, name: .Lanon.eef4c86c2028b78ce518c77307f3506e.55 },
    Symbol { offset: 5555555cd020, size: 1f7, name: _ZN4core3ptr338drop_in_place$LT$regex_lite..pool..PoolGuard$LT$regex_lite..pikevm..Cache$C$alloc..boxed..Box$LT$dyn$u20$core..ops..function..Fn$LT$$LP$$RP$$GT$$u2b$Output$u20$$u3d$$u20$regex_lite..pikevm..Cache$u2b$core..panic..unwind_safe..RefUnwindSafe$u2b$core..panic..unwind_safe..UnwindSafe$u2b$core..marker..Send$u2b$core..marker..Sync$GT$$GT$$GT$17ha79085248c4aa535E },
    Symbol { offset: 5555555cd220, size: d9, name: _ZN4core3ptr46drop_in_place$LT$regex_lite..pikevm..Cache$GT$17h4d8521a4a1566f68E },
    Symbol { offset: 5555555cd610, size: 24, name: _ZN4core3ptr99drop_in_place$LT$core..option..Option$LT$alloc..boxed..Box$LT$regex_lite..pikevm..Cache$GT$$GT$$GT$17ha3d42f72bf04d80cE },
    Symbol { offset: 5555555cd4f0, size: 1d, name: _ZN4core3ptr71drop_in_place$LT$alloc..boxed..Box$LT$regex_lite..pikevm..Cache$GT$$GT$17h091124115abc8593E },
    Symbol { offset: 5555555cd640, size: d, name: _ZN4core5error5Error11description17h78b56a21793bca74E },
    Symbol { offset: 5555555cd650, size: 3, name: _ZN4core5error5Error5cause17h3575c262f0f73914E },
    Symbol { offset: 5555555cd660, size: 1, name: _ZN4core5error5Error7provide17h020e47387b161d7cE },
    Symbol { offset: 5555555cd670, size: 15, name: _ZN4core5error5Error7type_id17h2c9e73d480f78b1eE },
    Symbol { offset: 5555555cd690, size: 15, name: _ZN4core5error5Error7type_id17hfe21f59630634623E },
    Symbol { offset: 5555555cd6b0, size: 43, name: _ZN70_$LT$core..time..TryFromFloatSecsError$u20$as$u20$core..fmt..Debug$GT$3fmt17ha1a90561ab0e0ebbE },
    Symbol { offset: 5555555a1054, size: 4, name: .Lanon.eef4c86c2028b78ce518c77307f3506e.48 },
    Symbol { offset: 5555555cd700, size: 43, name: _ZN72_$LT$core..num..dec2flt..ParseFloatError$u20$as$u20$core..fmt..Debug$GT$3fmt17hb9db04c3835e5d43E },
    Symbol { offset: 5555555cd750, size: 24, name: _ZN74_$LT$core..num..dec2flt..ParseFloatError$u20$as$u20$core..error..Error$GT$11description17h9d28b17817bd37f0E },
    Symbol { offset: 5555556938b8, size: 20, name: anon.eef4c86c2028b78ce518c77307f3506e.4.llvm.17381142787149778790 },
    Symbol { offset: 5555556938d8, size: 20, name: anon.eef4c86c2028b78ce518c77307f3506e.5.llvm.17381142787149778790 },
    Symbol { offset: 5555556938f8, size: 20, name: anon.eef4c86c2028b78ce518c77307f3506e.6.llvm.17381142787149778790 },
    Symbol { offset: 555555693918, size: 20, name: anon.eef4c86c2028b78ce518c77307f3506e.7.llvm.17381142787149778790 },
    Symbol { offset: 555555693938, size: 20, name: anon.eef4c86c2028b78ce518c77307f3506e.8.llvm.17381142787149778790 },
    Symbol { offset: 555555693958, size: 20, name: anon.eef4c86c2028b78ce518c77307f3506e.9.llvm.17381142787149778790 },
    Symbol { offset: 555555693978, size: 20, name: anon.eef4c86c2028b78ce518c77307f3506e.10.llvm.17381142787149778790 },
    Symbol { offset: 555555693998, size: 20, name: anon.eef4c86c2028b78ce518c77307f3506e.11.llvm.17381142787149778790 },
    Symbol { offset: 5555555caf20, size: 15, name: _ZN36_$LT$T$u20$as$u20$core..any..Any$GT$7type_id17h17f494a0aee94446E.llvm.17381142787149778790 },
    Symbol { offset: 5555555caf40, size: 15, name: _ZN36_$LT$T$u20$as$u20$core..any..Any$GT$7type_id17h5718588e73ba1a1fE.llvm.17381142787149778790 },
    Symbol { offset: 5555555caf60, size: 15, name: _ZN36_$LT$T$u20$as$u20$core..any..Any$GT$7type_id17h64a7594affcd15feE.llvm.17381142787149778790 },
    Symbol { offset: 5555555ccf90, size: 40, name: _ZN4core3ptr149drop_in_place$LT$std..sync..mpmc..counter..Counter$LT$std..sync..mpmc..zero..Channel$LT$codspeed_divan_compat_walltime..thread_pool..Task$GT$$GT$$GT$17he1324886c7af8898E.llvm.17381142787149778790 },
    Symbol { offset: 5555555caf80, size: 626, name: _ZN3std4sync4mpmc15Sender$LT$T$GT$4send17h7393d5121cd4b880E },
    Symbol { offset: 5555555cb5b0, size: 690, name: _ZN3std4sync4mpmc17Receiver$LT$T$GT$4recv17hbc30d93616892eb6E },
    Symbol { offset: 5555555cbc40, size: 20b, name: _ZN3std4sync4mpmc4zero16Channel$LT$T$GT$10disconnect17he9019c5ed24be10eE },
    Symbol { offset: 5555555cd300, size: 1e6, name: _ZN4core3ptr50drop_in_place$LT$std..sync..mpmc..waker..Waker$GT$17hc3a6872881000f9dE.llvm.17381142787149778790 },
    Symbol { offset: 5555555cd510, size: 100, name: _ZN4core3ptr73drop_in_place$LT$alloc..vec..Vec$LT$std..sync..mpmc..waker..Entry$GT$$GT$17hc399b47509cf4a36E.llvm.17381142787149778790 },
    Symbol { offset: 5555555cd780, size: 8f, name: _ZN74_$LT$std..sync..mpmc..Sender$LT$T$GT$$u20$as$u20$core..ops..drop..Drop$GT$4drop17h3d78d17f685febb8E },
    Symbol { offset: 5555555cd810, size: 1e, name: _ZN76_$LT$std..sync..mpmc..Receiver$LT$T$GT$$u20$as$u20$core..ops..drop..Drop$GT$4drop17h16fdcf8afdd53b62E },
    Symbol { offset: 5555555cd830, size: 21e, name: _ZN100_$LT$codspeed_divan_compat_walltime..config..ParsedSeconds$u20$as$u20$core..str..traits..FromStr$GT$8from_str17h4e1a17a1f24086f0E },
    Symbol { offset: 5555555cda50, size: 292, name: _ZN30codspeed_divan_compat_walltime6config6Filter8is_match17hde850cfd12a8895bE },
    Symbol { offset: 5555555cdcf0, size: dfb, name: _ZN30codspeed_divan_compat_walltime6config11SortingAttr19cmp_bench_arg_names17h3e1d95b2d112a9f2E },
    Symbol { offset: 5555555d0530, size: 5a, name: _ZN4core3ptr118drop_in_place$LT$alloc..boxed..Box$LT$dyn$u20$core..error..Error$u2b$core..marker..Send$u2b$core..marker..Sync$GT$$GT$17h3aca8f2d258b1d55E },
    Symbol { offset: 5555555cfbd0, size: 1bd, name: _ZN3std2io5Write9write_all17h3d1a808713d4b4aeE },
    Symbol { offset: 5555555d0660, size: a4, name: _ZN4core3ptr42drop_in_place$LT$std..io..error..Error$GT$17h046add9d4e21af6bE },
    Symbol { offset: 5555555d13f0, size: a8, name: _ZN4core3ptr93drop_in_place$LT$std..io..default_write_fmt..Adapter$LT$std..sys..stdio..unix..Stderr$GT$$GT$17h650f79733e8c1bffE },
    Symbol { offset: 5555555d1210, size: 41, name: _ZN4core3ptr82drop_in_place$LT$std..sys..thread_local..abort_on_dtor_unwind..DtorUnwindGuard$GT$17hd00b80000de82796E },
    Symbol { offset: 5555555d0440, size: d5, name: _ZN4core3fmt5Write10write_char17h0ae3db24a77ed247E },
    Symbol { offset: 5555555d1760, size: c2, name: _ZN81_$LT$std..io..default_write_fmt..Adapter$LT$T$GT$$u20$as$u20$core..fmt..Write$GT$9write_str17habcc706a62876493E },
    Symbol { offset: 5555555d0520, size: 10, name: _ZN4core3fmt5Write9write_fmt17hf4f327a2001cbcafE },
    Symbol { offset: 5555555d0640, size: 18, name: _ZN4core3ptr42drop_in_place$LT$alloc..string..String$GT$17hbfe830c6b752c7bfE },
    Symbol { offset: 5555555d0a40, size: 120, name: _ZN4core3ptr59drop_in_place$LT$clap_builder..builder..ext..Extensions$GT$17h5ff9001bb2c6cc23E },
    Symbol { offset: 5555555d1260, size: c5, name: _ZN4core3ptr83drop_in_place$LT$alloc..vec..Vec$LT$clap_builder..builder..command..Command$GT$$GT$17h7bc29f27f9eec6c1E },
    Symbol { offset: 5555555d1330, size: bc, name: _ZN4core3ptr86drop_in_place$LT$alloc..vec..Vec$LT$clap_builder..builder..arg_group..ArgGroup$GT$$GT$17h053ebd16ecbac143E },
    Symbol { offset: 5555555d14a0, size: 6a, name: _ZN4core3ptr97drop_in_place$LT$core..option..Option$LT$clap_builder..builder..value_parser..ValueParser$GT$$GT$17ha77b5ad38a135002E },
    Symbol { offset: 5555555d1530, size: 15, name: _ZN53_$LT$core..fmt..Error$u20$as$u20$core..fmt..Debug$GT$3fmt17h6736176c8e29474eE },
    Symbol { offset: 5555555d1550, size: 123, name: _ZN58_$LT$alloc..string..String$u20$as$u20$core..fmt..Write$GT$10write_char17h13db4e3872bba170E },
    Symbol { offset: 5555555d1680, size: 67, name: _ZN58_$LT$alloc..string..String$u20$as$u20$core..fmt..Write$GT$9write_str17h3471f8bf4fd2c6acE },
    Symbol { offset: 5555555a1054, size: 4, name: .Lanon.2fc9a13f399084343baeef94fe2acddd.35 },
    Symbol { offset: 5555555ceaf0, size: 1c5, name: _ZN12clap_builder5error14Error$LT$F$GT$12invalid_utf817hc4aeba74f3a16b33E },
    Symbol { offset: 5555555cf640, size: 1cc, name: _ZN12clap_builder5error14Error$LT$F$GT$8with_cmd17hfdae827d5e777a80E },
    Symbol { offset: 5555555d0950, size: e3, name: _ZN4core3ptr52drop_in_place$LT$clap_builder..error..ErrorInner$GT$17hd6d64cd11eb29200E.llvm.5568910479768839234 },
    Symbol { offset: 5555555cecc0, size: 1f7, name: _ZN12clap_builder5error14Error$LT$F$GT$13invalid_value17h6cb092e2c7075c91E },
    Symbol { offset: 5555555ceec0, size: 293, name: _ZN12clap_builder5error14Error$LT$F$GT$16value_validation17h6eb03fe8be525d7cE },
    Symbol { offset: 5555555d0710, size: 44, name: _ZN4core3ptr47drop_in_place$LT$clap_builder..error..Error$GT$17h93766796f6d582baE.llvm.5568910479768839234 },
    Symbol { offset: 5555555cf160, size: 2a1, name: _ZN12clap_builder5error14Error$LT$F$GT$3raw17h2b0f76b1a06f5a18E },
    Symbol { offset: 5555555cf410, size: 2d, name: _ZN12clap_builder5error14Error$LT$F$GT$4exit17h48517f2337b46c71E },
    Symbol { offset: 5555555cf440, size: 114, name: _ZN12clap_builder5error14Error$LT$F$GT$5print17h6b58fad2e4b8a308E.llvm.5568910479768839234 },
    Symbol { offset: 5555555d1160, size: a4, name: _ZN4core3ptr81drop_in_place$LT$core..result..Result$LT$$LP$$RP$$C$std..io..error..Error$GT$$GT$17h3648387e7a3e63e0E.llvm.5568910479768839234 },
    Symbol { offset: 5555555cf560, size: d7, name: _ZN12clap_builder5error14Error$LT$F$GT$6format17hc39f96eb7b6a870aE },
    Symbol { offset: 55555558c2ea, size: 62, name: anon.2fc9a13f399084343baeef94fe2acddd.2.llvm.5568910479768839234 },
    Symbol { offset: 55555558c34c, size: 22, name: anon.2fc9a13f399084343baeef94fe2acddd.3.llvm.5568910479768839234 },
    Symbol { offset: 555555693d78, size: 18, name: anon.2fc9a13f399084343baeef94fe2acddd.5.llvm.5568910479768839234 },
    Symbol { offset: 5555555d0b60, size: 4fa, name: _ZN4core3ptr60drop_in_place$LT$clap_builder..builder..command..Command$GT$17he95b42ae013968b2E.llvm.5568910479768839234 },
    Symbol { offset: 5555555cf810, size: 1c0, name: _ZN12clap_builder7builder7command7Command3new17h93f5d99fe40743a7E },
    Symbol { offset: 5555555cf9d0, size: 1f6, name: _ZN12clap_builder7builder7command7Command4args17hf354370d65b29d83E },
    Symbol { offset: 5555555cfd90, size: 128, name: _ZN3std2io5Write9write_fmt17h03ac2489010d1d59E },
    Symbol { offset: 5555555cfec0, size: a9, name: _ZN3std3sys12thread_local6native4lazy20Storage$LT$T$C$D$GT$10initialize17h1a82f5d82a0a9910E },
    Symbol { offset: 5555555cff70, size: 50, name: _ZN3std3sys12thread_local6native4lazy7destroy17h0b081e2477f9ca67E.llvm.5568910479768839234 },
    Symbol { offset: 5555555d0590, size: 1f, name: _ZN4core3ptr168drop_in_place$LT$std..sys..thread_local..native..lazy..State$LT$core..cell..Cell$LT$core..option..Option$LT$std..sync..mpmc..context..Context$GT$$GT$$C$$LP$$RP$$GT$$GT$17h461fa5527a641e17E.llvm.5568910479768839234 },
    Symbol { offset: 5555555d05b0, size: 90, name: _ZN4core3ptr175drop_in_place$LT$alloc..boxed..Box$LT$std..sync..mpmc..counter..Counter$LT$std..sync..mpmc..array..Channel$LT$codspeed_divan_compat_walltime..thread_pool..Task$GT$$GT$$GT$$GT$17h8ce5bd77d72fe6dbE.llvm.5568910479768839234 },
    Symbol { offset: 5555555cffc0, size: e9, name: _ZN3std4sync4mpmc7counter15Sender$LT$C$GT$7release17he0050d072e3b1eb9E },
    Symbol { offset: 5555555d0760, size: 1e6, name: _ZN4core3ptr50drop_in_place$LT$std..sync..mpmc..waker..Waker$GT$17hc3a6872881000f9dE.llvm.5568910479768839234 },
    Symbol { offset: 5555555d00b0, size: 88, name: _ZN3std4sync4mpmc7counter15Sender$LT$C$GT$7release17he515d22337a60065E },
    Symbol { offset: 5555555d0140, size: e9, name: _ZN3std4sync4mpmc7counter17Receiver$LT$C$GT$7release17h0afdf54e684b168eE },
    Symbol { offset: 5555555d0230, size: 88, name: _ZN3std4sync4mpmc7counter17Receiver$LT$C$GT$7release17h9a439cb68beafe03E },
    Symbol { offset: 5555555d02c0, size: 17f, name: _ZN3std4sync4mpmc7counter17Receiver$LT$C$GT$7release17hc5aab9062ce2874cE },
    Symbol { offset: 5555555d1060, size: 100, name: _ZN4core3ptr73drop_in_place$LT$alloc..vec..Vec$LT$std..sync..mpmc..waker..Entry$GT$$GT$17hc399b47509cf4a36E.llvm.5568910479768839234 },
    Symbol { offset: 5555555d1510, size: 3, name: _ZN4core5error5Error6source17hc68ef40916c96267E.llvm.5568910479768839234 },
    Symbol { offset: 5555555d1520, size: 1, name: _ZN4core5error5Error7provide17hf7c1023bf770e7ceE.llvm.5568910479768839234 },
    Symbol { offset: 555555693ee8, size: 58, name: anon.2fc9a13f399084343baeef94fe2acddd.30.llvm.5568910479768839234 },
    Symbol { offset: 5555555d16f0, size: 43, name: _ZN68_$LT$core..num..error..ParseIntError$u20$as$u20$core..fmt..Debug$GT$3fmt17h9d974530281c97f3E.llvm.5568910479768839234 },
    Symbol { offset: 5555555d1740, size: 1d, name: _ZN70_$LT$core..num..error..ParseIntError$u20$as$u20$core..error..Error$GT$11description17hf7118da03d3f31b7E.llvm.5568910479768839234 },
    Symbol { offset: 5555555d1830, size: 4c0, name: _ZN30codspeed_divan_compat_walltime5entry7generic9EntryType12display_name17hf3013e58662492a6E.llvm.5568910479768839234 },
    Symbol { offset: 55555558c4c2, size: 28, name: anon.2fc9a13f399084343baeef94fe2acddd.14.llvm.5568910479768839234 },
    Symbol { offset: 555555693f78, size: 18, name: anon.2fc9a13f399084343baeef94fe2acddd.44.llvm.5568910479768839234 },
    Symbol { offset: 55555558c70b, size: 2, name: anon.2fc9a13f399084343baeef94fe2acddd.45.llvm.5568910479768839234 },
    Symbol { offset: 55555558c36e, size: 6e, name: anon.2fc9a13f399084343baeef94fe2acddd.4.llvm.5568910479768839234 },
    Symbol { offset: 555555693ec8, size: 20, name: anon.2fc9a13f399084343baeef94fe2acddd.29.llvm.5568910479768839234 },
    Symbol { offset: 55555558c6d8, size: 33, name: anon.2fc9a13f399084343baeef94fe2acddd.42.llvm.5568910479768839234 },
    Symbol { offset: 5555555d1cf0, size: c6, name: _ZN106_$LT$core..iter..adapters..chain..Chain$LT$A$C$B$GT$$u20$as$u20$core..iter..traits..iterator..Iterator$GT$10advance_by17hfb8ea6cf8ba64a79E },
    Symbol { offset: 5555555d1dc0, size: 13d, name: _ZN106_$LT$core..iter..adapters..chain..Chain$LT$A$C$B$GT$$u20$as$u20$core..iter..traits..iterator..Iterator$GT$3nth17hd6d99c839084ec2dE },
    Symbol { offset: 5555555d1f00, size: 6f, name: _ZN106_$LT$core..iter..adapters..chain..Chain$LT$A$C$B$GT$$u20$as$u20$core..iter..traits..iterator..Iterator$GT$4next17hbfd9e14937f690e4E },
    Symbol { offset: 5555555d1f70, size: b0, name: _ZN106_$LT$core..iter..adapters..chain..Chain$LT$A$C$B$GT$$u20$as$u20$core..iter..traits..iterator..Iterator$GT$9size_hint17hfeb03f64d99bceeaE },
    Symbol { offset: 5555555d2200, size: ef, name: _ZN4core3ptr75drop_in_place$LT$codspeed_divan_compat_walltime..entry..tree..EntryTree$GT$17he7d908ec405a2ec5E },
    Symbol { offset: 5555555d22f0, size: c3, name: _ZN4core3ptr98drop_in_place$LT$alloc..vec..Vec$LT$codspeed_divan_compat_walltime..entry..tree..EntryTree$GT$$GT$17hfdc547ec3820dae5E },
    Symbol { offset: 5555555d2630, size: 1eb, name: _ZN4core3str7pattern14TwoWaySearcher4next17haf80c2df0141fd9cE },
    Symbol { offset: 5555555d2820, size: 2f, name: _ZN4core4iter6traits8iterator8Iterator10advance_by17h5f3e9176e5213c96E },
    Symbol { offset: 5555555d2850, size: 3c, name: _ZN4core4iter6traits8iterator8Iterator3nth17h1cc4d669d093731fE },
    Symbol { offset: 5555555d2890, size: a, name: _ZN4core4iter6traits8iterator8Iterator9size_hint17heaa2dbd210ef1e94E },
    Symbol { offset: 5555555d28a0, size: 5, name: _ZN90_$LT$core..str..iter..Split$LT$P$GT$$u20$as$u20$core..iter..traits..iterator..Iterator$GT$4next17h1b6e96535a82d38fE },
    Symbol { offset: 5555555d3e10, size: 30b, name: _ZN30codspeed_divan_compat_walltime5entry4tree9EntryTree12insert_entry17he312fd278fa7ea11E },
    Symbol { offset: 5555555d4120, size: 24c, name: _ZN30codspeed_divan_compat_walltime5entry4tree9EntryTree9from_path17heea037c406c96d77E },
    Symbol { offset: 5555555a0e10, size: 20, name: .Lswitch.table._ZN107_$LT$codspeed_divan_compat_walltime..time..timestamp..tsc..TscUnavailable$u20$as$u20$core..fmt..Display$GT$3fmt17h3af0fba37e1363c6E },
    Symbol { offset: 5555555d23c0, size: 263, name: _ZN4core3str4iter22SplitInternal$LT$P$GT$4next17h006ffe24e71b0dedE.llvm.12847672943834922989 },
    Symbol { offset: 5555555d2020, size: 4f, name: _ZN3std4sync6poison4once4Once9call_once28_$u7b$$u7b$closure$u7d$$u7d$17hc2f407b5c6ed2f1bE.llvm.12847672943834922989 },
    Symbol { offset: 5555555d2070, size: 134, name: _ZN4core3ops8function5FnMut8call_mut17h864ef6242fbbe8d7E.llvm.12847672943834922989 },
    Symbol { offset: 5555555d4430, size: 93, name: _ZN30codspeed_divan_compat_walltime5entry4tree9EntryTree8location17hb28022400644ad34E },
    Symbol { offset: 5555555d21b0, size: 4f, name: _ZN4core3ops8function6FnOnce40call_once$u7b$$u7b$vtable.shim$u7d$$u7d$17h4f450ded1bd12d9aE.llvm.12847672943834922989 },
    Symbol { offset: 5555555d28b0, size: 7c3, name: _ZN30codspeed_divan_compat_walltime5entry4tree9EntryTree12from_benches17h6b77e1c96bdf69c6E },
    Symbol { offset: 55555558c8c7, size: 2, name: anon.000988cecac3c171e179b5ef07cb8c88.10.llvm.12847672943834922989 },
    Symbol { offset: 5555555d3080, size: 281, name: _ZN30codspeed_divan_compat_walltime5entry4tree9EntryTree13max_name_span17h0639993ac7541c04E },
    Symbol { offset: 5555555d3310, size: 188, name: _ZN30codspeed_divan_compat_walltime5entry4tree9EntryTree19common_column_width17h14b6d85cf5e8c1eaE },
    Symbol { offset: 555555693f90, size: 28, name: anon.000988cecac3c171e179b5ef07cb8c88.0.llvm.12847672943834922989 },
    Symbol { offset: 5555556940e8, size: 18, name: anon.000988cecac3c171e179b5ef07cb8c88.17.llvm.12847672943834922989 },
    Symbol { offset: 5555555d34a0, size: 167, name: _ZN30codspeed_divan_compat_walltime5entry4tree9EntryTree12insert_group17h131290a1b7d6d9aeE },
    Symbol { offset: 5555555d3610, size: 132, name: _ZN30codspeed_divan_compat_walltime5entry4tree9EntryTree12sort_by_attr17hd2aad0c5d67879d2E },
    Symbol { offset: 5555555d3750, size: 6b1, name: _ZN30codspeed_divan_compat_walltime5entry4tree9EntryTree11cmp_by_attr17h4b72084ff34ea109E },
    Symbol { offset: 5555555d4370, size: b5, name: _ZN30codspeed_divan_compat_walltime5entry4tree9EntryTree12display_name17h2dc7770d9a56fddaE },
    Symbol { offset: 5555555d44d0, size: 28, name: _ZN107_$LT$codspeed_divan_compat_walltime..time..timestamp..tsc..TscUnavailable$u20$as$u20$core..fmt..Display$GT$3fmt17h3af0fba37e1363c6E },
    Symbol { offset: 55555558c8f9, size: 7c, name: anon.000988cecac3c171e179b5ef07cb8c88.16.llvm.12847672943834922989 },
    Symbol { offset: 55555569e9c0, size: 10, name: _ZN30codspeed_divan_compat_walltime5entry13BENCH_ENTRIES17h02ff3e2992d5eadeE },
    Symbol { offset: 55555569e9d0, size: 10, name: _ZN30codspeed_divan_compat_walltime5entry13GROUP_ENTRIES17h82c22a2c8bc6ae29E },
    Symbol { offset: 5555555d45f0, size: 1ef, name: _ZN4core5slice4sort6shared9smallsort12sort4_stable17h2e5bcf0eb9f4245aE },
    Symbol { offset: 5555555d47e0, size: 17d, name: _ZN4core5slice4sort6shared9smallsort12sort4_stable17h50011437ff5714a2E },
    Symbol { offset: 5555555d6cb0, size: 188, name: _ZN4core5slice4sort6shared9smallsort19bidirectional_merge17h26375dd079038fb1E },
    Symbol { offset: 5555555a0ff0, size: 4, name: .Lanon.1ad44bf49bd3fb0e20c068f6f72d168d.5 },
    Symbol { offset: 5555555d4500, size: 15, name: _ZN42_$LT$$RF$T$u20$as$u20$core..fmt..Debug$GT$3fmt17hc4ca47ff9c3397ccE },
    Symbol { offset: 5555555d4520, size: 2b, name: _ZN42_$LT$$RF$T$u20$as$u20$core..fmt..Debug$GT$3fmt17hd0a5762a0453fbe5E },
    Symbol { offset: 5555555d4550, size: 13, name: _ZN44_$LT$$RF$T$u20$as$u20$core..fmt..Display$GT$3fmt17ha078289972e30ce7E },
    Symbol { offset: 5555555d4570, size: 16, name: _ZN44_$LT$$RF$T$u20$as$u20$core..fmt..Display$GT$3fmt17hd6c843e9bf2fd8ffE },
    Symbol { offset: 5555555d4590, size: 3, name: _ZN4core5error5Error5cause17h90cf732343a1eaecE },
    Symbol { offset: 5555555d45a0, size: 3, name: _ZN4core5error5Error5cause17hfec468d8f4741559E },
    Symbol { offset: 5555555d45b0, size: 15, name: _ZN4core5error5Error7type_id17h091f9d556f35c8daE },
    Symbol { offset: 5555555d45d0, size: 15, name: _ZN4core5error5Error7type_id17hf2f50094232bfc73E },
    Symbol { offset: 5555555d4960, size: 720, name: _ZN4core5slice4sort6shared9smallsort18small_sort_general17ha4ac5e66096479eaE },
    Symbol { offset: 5555555d5080, size: e21, name: _ZN4core5slice4sort6shared9smallsort18small_sort_network17h5ea62bb0e316636dE },
    Symbol { offset: 5555555d5eb0, size: 6ff, name: _ZN4core5slice4sort6shared9smallsort18small_sort_network17hba325c357800f1d6E },
    Symbol { offset: 5555555d65b0, size: 6ff, name: _ZN4core5slice4sort6shared9smallsort18small_sort_network17hf2a31c3acb5aa92aE },
    Symbol { offset: 5555555d6e40, size: 1c3, name: _ZN4core5slice4sort6shared9smallsort25insertion_sort_shift_left17h237d330d41f594b5E },
    Symbol { offset: 5555555d7010, size: 116, name: _ZN4core5slice4sort6shared9smallsort25insertion_sort_shift_left17h2e99b11442ad9237E },
    Symbol { offset: 5555555d7130, size: 7a, name: _ZN4core5slice4sort6shared9smallsort25insertion_sort_shift_left17h61113c5facbe4e01E },
    Symbol { offset: 5555555d71b0, size: 331, name: _ZN4core5slice4sort6shared9smallsort31small_sort_general_with_scratch17hb101742de22455bcE },
    Symbol { offset: 5555555d74f0, size: 2c, name: _ZN76_$LT$std..sync..poison..PoisonError$LT$T$GT$$u20$as$u20$core..fmt..Debug$GT$3fmt17h2b11ad618ed5c665E },
    Symbol { offset: 5555555d74f0, size: 2c, name: _ZN76_$LT$std..sync..poison..PoisonError$LT$T$GT$$u20$as$u20$core..fmt..Debug$GT$3fmt17h7761a33ed6b270fdE },
    Symbol { offset: 5555555d74f0, size: 2c, name: _ZN76_$LT$std..sync..poison..PoisonError$LT$T$GT$$u20$as$u20$core..fmt..Debug$GT$3fmt17ha99e4c601815a9f3E },
    Symbol { offset: 5555555d7520, size: 113, name: _ZN12clap_builder7builder3arg3Arg12value_parser17ha6d2ff9b3332f677E },
    Symbol { offset: 5555555d7cd0, size: 632, name: _ZN4core3ptr52drop_in_place$LT$clap_builder..builder..arg..Arg$GT$17haa45778277852ae3E },
    Symbol { offset: 5555555d7640, size: ce, name: _ZN12clap_builder7builder3arg3Arg12value_parser17hbf89e4a9ce588d31E },
    Symbol { offset: 5555555d7710, size: d2, name: _ZN12clap_builder7builder3arg3Arg12value_parser17hc220a2bec69173d1E },
    Symbol { offset: 5555555d77f0, size: 113, name: _ZN12clap_builder7builder3arg3Arg12value_parser17hfd2273ddabd9d31cE },
    Symbol { offset: 5555555d7970, size: d2, name: _ZN4core3num62_$LT$impl$u20$core..str..traits..FromStr$u20$for$u20$usize$GT$8from_str17h0dda7ca11035f384E },
    Symbol { offset: 5555555d7a50, size: 8, name: _ZN4core3ops8function2Fn4call17hc67aa3ebb6960024E },
    Symbol { offset: 5555555d7b30, size: 5f, name: _ZN4core3ptr100drop_in_place$LT$alloc..boxed..Box$LT$clap_builder..parser..matches..arg_matches..SubCommand$GT$$GT$17hf6b9ea87d0be32a7E },
    Symbol { offset: 5555555d8c80, size: 149, name: _ZN4core3ptr75drop_in_place$LT$clap_builder..parser..matches..arg_matches..ArgMatches$GT$17hade5e23d6db11731E },
    Symbol { offset: 5555555d7b90, size: 37, name: _ZN4core3ptr105drop_in_place$LT$core..cell..RefCell$LT$codspeed_divan_compat_walltime..tree_painter..TreePainter$GT$$GT$17h3d2edbecb9ddd8eaE },
    Symbol { offset: 5555555d8310, size: 120, name: _ZN4core3ptr59drop_in_place$LT$clap_builder..builder..ext..Extensions$GT$17h5ff9001bb2c6cc23E },
    Symbol { offset: 5555555d8430, size: 4fa, name: _ZN4core3ptr60drop_in_place$LT$clap_builder..builder..command..Command$GT$17he95b42ae013968b2E },
    Symbol { offset: 5555555d8e00, size: c5, name: _ZN4core3ptr83drop_in_place$LT$alloc..vec..Vec$LT$clap_builder..builder..command..Command$GT$$GT$17h7bc29f27f9eec6c1E },
    Symbol { offset: 5555555d8ed0, size: bc, name: _ZN4core3ptr86drop_in_place$LT$alloc..vec..Vec$LT$clap_builder..builder..arg_group..ArgGroup$GT$$GT$17h053ebd16ecbac143E },
    Symbol { offset: 5555555d9070, size: 6a, name: _ZN4core3ptr97drop_in_place$LT$core..option..Option$LT$clap_builder..builder..value_parser..ValueParser$GT$$GT$17ha77b5ad38a135002E },
    Symbol { offset: 5555555d8930, size: 103, name: _ZN4core3ptr65drop_in_place$LT$codspeed_divan_compat_walltime..divan..Divan$GT$17hd7413d4e90c5b866E },
    Symbol { offset: 5555555d8f90, size: 5c, name: _ZN4core3ptr90drop_in_place$LT$alloc..vec..Vec$LT$codspeed_divan_compat_walltime..config..Filter$GT$$GT$17haaf309f11de5cd1eE },
    Symbol { offset: 5555555d8dd0, size: 2d, name: _ZN4core3ptr81drop_in_place$LT$codspeed_divan_compat_walltime..bench..options..BenchOptions$GT$17hd3160fc517ac57ecE },
    Symbol { offset: 5555555d8a40, size: 238, name: _ZN4core3ptr72drop_in_place$LT$codspeed_divan_compat_walltime..bench..BenchContext$GT$17hf2366536cfc8c129E },
    Symbol { offset: 5555555d8ff0, size: 7f, name: _ZN4core3ptr90drop_in_place$LT$codspeed_divan_compat_walltime..counter..collection..KnownCounterInfo$GT$17hffffd24cc6ca159cE },
    Symbol { offset: 5555555d90e0, size: c3, name: _ZN4core3ptr98drop_in_place$LT$alloc..vec..Vec$LT$codspeed_divan_compat_walltime..entry..tree..EntryTree$GT$$GT$17hfdc547ec3820dae5E },
    Symbol { offset: 5555555d91b0, size: 13, name: _ZN75_$LT$core..num..nonzero..NonZero$LT$T$GT$$u20$as$u20$core..fmt..Display$GT$3fmt17h7325606e80fa23b1E },
    Symbol { offset: 5555555d91d0, size: 236, name: _ZN30codspeed_divan_compat_walltime5bench7options12BenchOptions9overwrite17hf212e91736326edcE },
    Symbol { offset: 5555555d9410, size: 65c6, name: _ZN30codspeed_divan_compat_walltime3cli7command17h0e56279f251d0668E },
    Symbol { offset: 5555555a1060, size: 4, name: .Lanon.096deccbb4000c62742d019e5ad4c571.14 },
    Symbol { offset: 5555555a0fe8, size: 4, name: .Lanon.096deccbb4000c62742d019e5ad4c571.16 },
    Symbol { offset: 5555555a0b70, size: 10, name: .Lanon.096deccbb4000c62742d019e5ad4c571.17 },
    Symbol { offset: 5555555a104c, size: 4, name: .Lanon.096deccbb4000c62742d019e5ad4c571.19 },
    Symbol { offset: 5555555a106c, size: 4, name: .Lanon.096deccbb4000c62742d019e5ad4c571.21 },
    Symbol { offset: 5555555a1024, size: 4, name: .Lanon.096deccbb4000c62742d019e5ad4c571.29 },
    Symbol { offset: 5555555a1140, size: 8, name: .Lanon.096deccbb4000c62742d019e5ad4c571.51 },
    Symbol { offset: 5555555a10a0, size: 4, name: .Lanon.096deccbb4000c62742d019e5ad4c571.53 },
    Symbol { offset: 5555555a11b8, size: 8, name: .Lanon.096deccbb4000c62742d019e5ad4c571.56 },
    Symbol { offset: 5555555df9e0, size: 4e6, name: _ZN30codspeed_divan_compat_walltime5divan5Divan10run_action17h8cd71fbdfcc1d0e5E },
    Symbol { offset: 5555555dfed0, size: b3f, name: _ZN30codspeed_divan_compat_walltime5divan5Divan8run_tree17h96dc169ffdef877cE },
    Symbol { offset: 5555555a1170, size: 8, name: .Lanon.096deccbb4000c62742d019e5ad4c571.93 },
    Symbol { offset: 5555555e0fd0, size: 19, name: _ZN30codspeed_divan_compat_walltime5divan5Divan15run_bench_entry28_$u7b$$u7b$closure$u7d$$u7d$17h76451f8c713b5e2aE },
    Symbol { offset: 5555555e0a10, size: 5b1, name: _ZN30codspeed_divan_compat_walltime5divan5Divan15run_bench_entry28_$u7b$$u7b$closure$u7d$$u7d$17h5dfe669715cf2baaE },
    Symbol { offset: 5555555d7910, size: 15, name: _ZN36_$LT$T$u20$as$u20$core..any..Any$GT$7type_id17h44d50dc87b4d75f0E },
    Symbol { offset: 5555555d7930, size: 15, name: _ZN36_$LT$T$u20$as$u20$core..any..Any$GT$7type_id17hb9a50b78a972846fE },
    Symbol { offset: 5555555d7950, size: 15, name: _ZN36_$LT$T$u20$as$u20$core..any..Any$GT$7type_id17hc77910becb0921bfE },
    Symbol { offset: 5555555d7a60, size: c4, name: _ZN4core3ops8function5impls79_$LT$impl$u20$core..ops..function..FnMut$LT$A$GT$$u20$for$u20$$RF$mut$u20$F$GT$8call_mut17h0fa24fcb5185d20eE },
    Symbol { offset: 5555555d7bd0, size: fd, name: _ZN4core3ptr47drop_in_place$LT$clap_builder..error..Error$GT$17h93766796f6d582baE.llvm.7273371273850678743 },
    Symbol { offset: 5555555e0ff0, size: e02, name: _ZN30codspeed_divan_compat_walltime5divan5Divan16config_with_args17h820b01bffc705450E },
    Symbol { offset: 5555555e1e00, size: 117, name: _ZN30codspeed_divan_compat_walltime4main17hdb6160d7ee780833E },
    Symbol { offset: 55555569e9e0, size: 1, name: _ZN30codspeed_divan_compat_walltime5alloc12IGNORE_ALLOC17hc64513e25f0b7784E },
    Symbol { offset: 55555558d172, size: 2b, name: anon.096deccbb4000c62742d019e5ad4c571.89.llvm.7273371273850678743 },
    Symbol { offset: 555555554028, size: 60, name: _ZN30codspeed_divan_compat_walltime5alloc19CURRENT_THREAD_INFO29_$u7b$$u7b$constant$u7d$$u7d$28_$u7b$$u7b$closure$u7d$$u7d$3VAL17h919c5d204d2c345aE },
    Symbol { offset: 5555555a1208, size: 8, name: .Lanon.2ae8f008968a0a0d7b0596e7ff90d707.16 },
    Symbol { offset: 5555555e1f20, size: 18, name: _ZN4core3ptr42drop_in_place$LT$alloc..string..String$GT$17hc9b2847e0c20520cE },
    Symbol { offset: 5555555e1f40, size: a7, name: _ZN4core3ptr42drop_in_place$LT$std..io..error..Error$GT$17hc044a258f1880348E },
    Symbol { offset: 5555555e1ff0, size: 70, name: _ZN4core3ptr45drop_in_place$LT$serde_json..error..Error$GT$17h0cbcbe08241f1b47E },
    Symbol { offset: 5555555e2060, size: 37, name: _ZN4core3ptr66drop_in_place$LT$codspeed..walltime_results..WalltimeBenchmark$GT$17h915d398e34f7cdc0E },
    Symbol { offset: 5555555e20a0, size: 15, name: _ZN53_$LT$core..fmt..Error$u20$as$u20$core..fmt..Debug$GT$3fmt17h6736176c8e29474eE },
    Symbol { offset: 5555555e20c0, size: 123, name: _ZN58_$LT$alloc..string..String$u20$as$u20$core..fmt..Write$GT$10write_char17h13db4e3872bba170E },
    Symbol { offset: 5555555e21f0, size: 67, name: _ZN58_$LT$alloc..string..String$u20$as$u20$core..fmt..Write$GT$9write_str17h3471f8bf4fd2c6acE },
    Symbol { offset: 5555555e2260, size: 14, name: _ZN60_$LT$alloc..string..String$u20$as$u20$core..fmt..Display$GT$3fmt17h253a895d4ea9e2d1E },
    Symbol { offset: 5555555e3810, size: 14c, name: _ZN8codspeed16walltime_results30result_dir_from_workspace_root17h06eadc746e53dc49E },
    Symbol { offset: 5555555a1180, size: 8, name: .Lanon.2fe2b1d118a38e4697316755fca00a13.41 },
    Symbol { offset: 5555555a1188, size: 8, name: .Lanon.2fe2b1d118a38e4697316755fca00a13.35 },
    Symbol { offset: 5555555e2280, size: a3, name: _ZN86_$LT$serde_json..ser..Compound$LT$W$C$F$GT$$u20$as$u20$serde..ser..SerializeStruct$GT$3end17h53833ff4e8826a13E.llvm.18226004862069263307 },
    Symbol { offset: 55555558d332, size: 1, name: anon.2fe2b1d118a38e4697316755fca00a13.14.llvm.18226004862069263307 },
    Symbol { offset: 55555558d333, size: 1, name: anon.2fe2b1d118a38e4697316755fca00a13.15.llvm.18226004862069263307 },
    Symbol { offset: 5555555e2330, size: 956, name: _ZN8codspeed16walltime_results17WalltimeBenchmark28collect_raw_walltime_results17hc4f2b279051add5eE },
    Symbol { offset: 5555555e2c90, size: b73, name: _ZN8codspeed16walltime_results17WalltimeBenchmark17from_runtime_data17hde3a58778ce41a1fE },
    Symbol { offset: 55555558d334, size: 1, name: anon.2fe2b1d118a38e4697316755fca00a13.16.llvm.18226004862069263307 },
    Symbol { offset: 5555555a1028, size: 4, name: anon.2fe2b1d118a38e4697316755fca00a13.43.llvm.18226004862069263307 },
    Symbol { offset: 55555558d3f0, size: 3, name: anon.2fe2b1d118a38e4697316755fca00a13.44.llvm.18226004862069263307 },
    Symbol { offset: 55555558d49d, size: 6, name: anon.2fe2b1d118a38e4697316755fca00a13.70.llvm.18226004862069263307 },
    Symbol { offset: 55555558d4a3, size: 5, name: anon.2fe2b1d118a38e4697316755fca00a13.71.llvm.18226004862069263307 },
    Symbol { offset: 5555555e3960, size: 223, name: _ZN8codspeed16walltime_results1_94_$LT$impl$u20$serde..ser..Serialize$u20$for$u20$codspeed..walltime_results..BenchmarkStats$GT$9serialize17h2e98d7fde2c4dd0cE },
    Symbol { offset: 55555558d3f3, size: 6, name: anon.2fe2b1d118a38e4697316755fca00a13.48.llvm.18226004862069263307 },
    Symbol { offset: 55555558d3f9, size: 6, name: anon.2fe2b1d118a38e4697316755fca00a13.49.llvm.18226004862069263307 },
    Symbol { offset: 55555558d3ff, size: 7, name: anon.2fe2b1d118a38e4697316755fca00a13.50.llvm.18226004862069263307 },
    Symbol { offset: 5555555a1208, size: 8, name: anon.2fe2b1d118a38e4697316755fca00a13.51.llvm.18226004862069263307 },
    Symbol { offset: 55555558d406, size: 5, name: anon.2fe2b1d118a38e4697316755fca00a13.52.llvm.18226004862069263307 },
    Symbol { offset: 55555558d40b, size: 9, name: anon.2fe2b1d118a38e4697316755fca00a13.53.llvm.18226004862069263307 },
    Symbol { offset: 55555558d414, size: 5, name: anon.2fe2b1d118a38e4697316755fca00a13.54.llvm.18226004862069263307 },
    Symbol { offset: 55555558d419, size: 6, name: anon.2fe2b1d118a38e4697316755fca00a13.55.llvm.18226004862069263307 },
    Symbol { offset: 55555558d41f, size: a, name: anon.2fe2b1d118a38e4697316755fca00a13.56.llvm.18226004862069263307 },
    Symbol { offset: 55555558d429, size: 12, name: anon.2fe2b1d118a38e4697316755fca00a13.57.llvm.18226004862069263307 },
    Symbol { offset: 55555558d43b, size: 14, name: anon.2fe2b1d118a38e4697316755fca00a13.58.llvm.18226004862069263307 },
    Symbol { offset: 55555558d44f, size: e, name: anon.2fe2b1d118a38e4697316755fca00a13.59.llvm.18226004862069263307 },
    Symbol { offset: 55555558d45d, size: c, name: anon.2fe2b1d118a38e4697316755fca00a13.60.llvm.18226004862069263307 },
    Symbol { offset: 5555555e3b90, size: e8, name: _ZN8codspeed16walltime_results1_95_$LT$impl$u20$serde..ser..Serialize$u20$for$u20$codspeed..walltime_results..BenchmarkConfig$GT$9serialize17h4b23ac74437663bdE },
    Symbol { offset: 55555558d469, size: e, name: anon.2fe2b1d118a38e4697316755fca00a13.64.llvm.18226004862069263307 },
    Symbol { offset: 55555558d477, size: 11, name: anon.2fe2b1d118a38e4697316755fca00a13.65.llvm.18226004862069263307 },
    Symbol { offset: 55555558d488, size: b, name: anon.2fe2b1d118a38e4697316755fca00a13.66.llvm.18226004862069263307 },
    Symbol { offset: 55555558d493, size: a, name: anon.2fe2b1d118a38e4697316755fca00a13.67.llvm.18226004862069263307 },
    Symbol { offset: 5555555e3c80, size: a7, name: _ZN4core3ptr42drop_in_place$LT$std..io..error..Error$GT$17hc044a258f1880348E },
    Symbol { offset: 5555555e3d30, size: 8c, name: _ZN4core3ptr71drop_in_place$LT$alloc..boxed..Box$LT$bincode..error..ErrorKind$GT$$GT$17hdf28aafd929c09a4E },
    Symbol { offset: 5555555e3dc0, size: e, name: _ZN4core5error5Error5cause17h2c333daa864e9116E },
    Symbol { offset: 5555555e3dd0, size: 15, name: _ZN4core5error5Error7type_id17h03009e483f60851fE },
    Symbol { offset: 5555555e3df0, size: 15, name: _ZN4core5error5Error7type_id17h64394d5da42291e2E },
    Symbol { offset: 5555555e3e10, size: 15, name: _ZN4core5error5Error7type_id17h954041921dab2484E },
    Symbol { offset: 5555555e3e30, size: 7e, name: _ZN6anyhow5error11object_drop17h3834b488f9aaa93bE },
    Symbol { offset: 5555555e3eb0, size: 6b, name: _ZN6anyhow5error11object_drop17h45464fa2bda18614E },
    Symbol { offset: 5555555e3f20, size: db, name: _ZN6anyhow5error11object_drop17h5217222965c1b700E },
    Symbol { offset: 5555555e4000, size: 28, name: _ZN6anyhow5error15object_downcast17h358380651c152522E },
    Symbol { offset: 5555555e4030, size: 28, name: _ZN6anyhow5error15object_downcast17h88270d71a1c14606E },
    Symbol { offset: 5555555e4060, size: 28, name: _ZN6anyhow5error15object_downcast17hd1938bc02f19631bE },
    Symbol { offset: 5555555e4090, size: 4e, name: _ZN6anyhow5error17object_drop_front17h0997e63597097cedE },
    Symbol { offset: 5555555e40e0, size: 4e, name: _ZN6anyhow5error17object_drop_front17h1bb9fd0248f72456E },
    Symbol { offset: 5555555e4130, size: 6, name: _ZN70_$LT$anyhow..error..ErrorImpl$LT$E$GT$$u20$as$u20$core..fmt..Debug$GT$3fmt17h20477cf45d0e4443E },
    Symbol { offset: 5555555e4140, size: e, name: _ZN72_$LT$anyhow..error..ErrorImpl$LT$E$GT$$u20$as$u20$core..error..Error$GT$6source17h0b459c03e4760df0E },
    Symbol { offset: 5555555e4150, size: 17, name: _ZN72_$LT$anyhow..error..ErrorImpl$LT$E$GT$$u20$as$u20$core..fmt..Display$GT$3fmt17h0631b108c61f916cE },
    Symbol { offset: 5555555e40e0, size: 4e, name: _ZN6anyhow5error17object_drop_front17h7979b1927e5665f9E },
    Symbol { offset: 5555555e4090, size: 4e, name: _ZN6anyhow5error17object_drop_front17h95d3e5dff06143f0E },
    Symbol { offset: 5555555e4150, size: 17, name: _ZN72_$LT$anyhow..error..ErrorImpl$LT$E$GT$$u20$as$u20$core..fmt..Display$GT$3fmt17h1aa09593f035c965E },
    Symbol { offset: 5555555e4150, size: 17, name: _ZN72_$LT$anyhow..error..ErrorImpl$LT$E$GT$$u20$as$u20$core..fmt..Display$GT$3fmt17h2599e8ceda901fdcE },
    Symbol { offset: 5555555e4150, size: 17, name: _ZN72_$LT$anyhow..error..ErrorImpl$LT$E$GT$$u20$as$u20$core..fmt..Display$GT$3fmt17h9b3d51cb871cec2aE },
    Symbol { offset: 5555555e4150, size: 17, name: _ZN72_$LT$anyhow..error..ErrorImpl$LT$E$GT$$u20$as$u20$core..fmt..Display$GT$3fmt17haae46a7a9034566eE },
    Symbol { offset: 5555555e4150, size: 17, name: _ZN72_$LT$anyhow..error..ErrorImpl$LT$E$GT$$u20$as$u20$core..fmt..Display$GT$3fmt17hc868fb5709b068faE },
    Symbol { offset: 5555555e4150, size: 17, name: _ZN72_$LT$anyhow..error..ErrorImpl$LT$E$GT$$u20$as$u20$core..fmt..Display$GT$3fmt17hfa13f8b37f85b814E },
    Symbol { offset: 5555555e4130, size: 6, name: _ZN70_$LT$anyhow..error..ErrorImpl$LT$E$GT$$u20$as$u20$core..fmt..Debug$GT$3fmt17h211ad49832ffddb0E },
    Symbol { offset: 5555555e4130, size: 6, name: _ZN70_$LT$anyhow..error..ErrorImpl$LT$E$GT$$u20$as$u20$core..fmt..Debug$GT$3fmt17h239b7e237497186cE },
    Symbol { offset: 5555555e4130, size: 6, name: _ZN70_$LT$anyhow..error..ErrorImpl$LT$E$GT$$u20$as$u20$core..fmt..Debug$GT$3fmt17h670f0a32e46aa9ecE },
    Symbol { offset: 5555555e4130, size: 6, name: _ZN70_$LT$anyhow..error..ErrorImpl$LT$E$GT$$u20$as$u20$core..fmt..Debug$GT$3fmt17h80496b66bb8479d4E },
    Symbol { offset: 5555555e4130, size: 6, name: _ZN70_$LT$anyhow..error..ErrorImpl$LT$E$GT$$u20$as$u20$core..fmt..Debug$GT$3fmt17h85dce41d00a98ad6E },
    Symbol { offset: 5555555e4130, size: 6, name: _ZN70_$LT$anyhow..error..ErrorImpl$LT$E$GT$$u20$as$u20$core..fmt..Debug$GT$3fmt17hd897ff0004d74269E },
    Symbol { offset: 5555555e3dc0, size: e, name: _ZN4core5error5Error5cause17h3814a990149d8b5cE },
    Symbol { offset: 5555555e3dc0, size: e, name: _ZN4core5error5Error5cause17h5a4c565d27b82342E },
    Symbol { offset: 5555555e3dc0, size: e, name: _ZN4core5error5Error5cause17h5a68961ffc94a7c8E },
    Symbol { offset: 5555555e3dc0, size: e, name: _ZN4core5error5Error5cause17h71825a550f4f47cbE },
    Symbol { offset: 5555555e3dc0, size: e, name: _ZN4core5error5Error5cause17hace3dd010f6599e5E },
    Symbol { offset: 5555555e3dc0, size: e, name: _ZN4core5error5Error5cause17hc80e5b8afb776b3aE },
    Symbol { offset: 5555555e4140, size: e, name: _ZN72_$LT$anyhow..error..ErrorImpl$LT$E$GT$$u20$as$u20$core..error..Error$GT$6source17h2963fab924fd6934E },
    Symbol { offset: 5555555e4140, size: e, name: _ZN72_$LT$anyhow..error..ErrorImpl$LT$E$GT$$u20$as$u20$core..error..Error$GT$6source17h3aa7e9ad42a41dcdE },
    Symbol { offset: 5555555e4140, size: e, name: _ZN72_$LT$anyhow..error..ErrorImpl$LT$E$GT$$u20$as$u20$core..error..Error$GT$6source17h44a5701572c33e68E },
    Symbol { offset: 5555555e4140, size: e, name: _ZN72_$LT$anyhow..error..ErrorImpl$LT$E$GT$$u20$as$u20$core..error..Error$GT$6source17h9806e29cffbcd577E },
    Symbol { offset: 5555555e4140, size: e, name: _ZN72_$LT$anyhow..error..ErrorImpl$LT$E$GT$$u20$as$u20$core..error..Error$GT$6source17ha887fc5762fe1686E },
    Symbol { offset: 5555555e4140, size: e, name: _ZN72_$LT$anyhow..error..ErrorImpl$LT$E$GT$$u20$as$u20$core..error..Error$GT$6source17hab7b23bdbaa8ef0eE },
    Symbol { offset: 5555555e4170, size: 1e0, name: _ZN3std2io5Write9write_all17h46949525ce679472E },
    Symbol { offset: 5555555e4360, size: a4, name: _ZN4core3ptr42drop_in_place$LT$std..io..error..Error$GT$17hc044a258f1880348E },
    Symbol { offset: 5555555e4350, size: 6, name: _ZN4core3ptr34drop_in_place$LT$anyhow..Error$GT$17h95a1ca91eab96928E },
    Symbol { offset: 5555555e4410, size: 3a, name: _ZN4core3ptr44drop_in_place$LT$codspeed..fifo..FifoIpc$GT$17hd88b899dd7e851bfE },
    Symbol { offset: 5555555e4450, size: 7d, name: _ZN4core3ptr46drop_in_place$LT$codspeed..shared..Command$GT$17h0478d79fd601c884E },
    Symbol { offset: 5555555e44d0, size: 9e, name: _ZN4core3ptr47drop_in_place$LT$codspeed..fifo..BenchGuard$GT$17h288c0dd7b995201bE },
    Symbol { offset: 5555555e4fd0, size: 1ef, name: _ZN8codspeed4fifo7FifoIpc7connect17h4e8d0eb4b295680aE },
    Symbol { offset: 5555555e4ad0, size: 141, name: _ZN68_$LT$codspeed..fifo..BenchGuard$u20$as$u20$core..ops..drop..Drop$GT$4drop17h847fd0228ba90fe7E },
    Symbol { offset: 5555555e4570, size: 530, name: _ZN8codspeed4fifo10BenchGuard3new17h6a9ae86096997950E },
    Symbol { offset: 5555555e52c0, size: fb, name: _ZN8codspeed4fifo7FifoIpc11with_writer17h377ac224527723e8E },
    Symbol { offset: 5555555e51c0, size: fd, name: _ZN8codspeed4fifo7FifoIpc11with_reader17hb693a87cc557c392E },
    Symbol { offset: 5555555e5640, size: 160, name: _ZN8codspeed4fifo7FifoIpc8send_cmd17hcd321410191ade5fE },
    Symbol { offset: 5555555e53c0, size: 275, name: _ZN8codspeed4fifo7FifoIpc8recv_cmd17h42e5cee966c52e20E },
    Symbol { offset: 5555555e4aa0, size: 28, name: _ZN8codspeed4fifo10BenchGuard20new_with_runner_fifo17hc1c7dedda0a92e4fE },
    Symbol { offset: 5555555e4c20, size: 3aa, name: _ZN8codspeed4fifo8send_cmd17hb06761a9b7e19211E },
    Symbol { offset: 55555558d691, size: 16, name: anon.0de6fc6a6e637e6ab0c60678ca502e16.20.llvm.16573566431161932648 },
    Symbol { offset: 5555555e57a0, size: e2, name: _ZN4core3ptr46drop_in_place$LT$bincode..error..ErrorKind$GT$17hdd73cf9d2fc4f67fE },
    Symbol { offset: 5555555e5890, size: 7f, name: _ZN94_$LT$$RF$mut$u20$bincode..de..Deserializer$LT$R$C$O$GT$$u20$as$u20$serde..de..Deserializer$GT$16deserialize_enum102_$LT$impl$u20$serde..de..EnumAccess$u20$for$u20$$RF$mut$u20$bincode..de..Deserializer$LT$R$C$O$GT$$GT$12variant_seed17h27fb6a17eba5f169E },
    Symbol { offset: 5555555e5910, size: 275, name: _ZN94_$LT$$RF$mut$u20$bincode..de..Deserializer$LT$R$C$O$GT$$u20$as$u20$serde..de..Deserializer$GT$18deserialize_string17ha7393b8da4a068beE },
    Symbol { offset: 5555555e5b90, size: c3, name: _ZN95_$LT$$RF$mut$u20$bincode..de..Deserializer$LT$R$C$O$GT$$u20$as$u20$serde..de..VariantAccess$GT$14struct_variant17h2baab85e2c1159f3E },
    Symbol { offset: 5555556945b0, size: 10, name: anon.f7f9788747b97a4f3aa89ad6d65be703.3.llvm.9546182045561815978 },
    Symbol { offset: 5555556945c0, size: 20, name: anon.f7f9788747b97a4f3aa89ad6d65be703.4.llvm.9546182045561815978 },
    Symbol { offset: 5555555e5c60, size: 11a, name: _ZN95_$LT$$RF$mut$u20$bincode..de..Deserializer$LT$R$C$O$GT$$u20$as$u20$serde..de..VariantAccess$GT$14struct_variant17hc189d7159e99eedfE },
    Symbol { offset: 5555556945e0, size: 10, name: anon.f7f9788747b97a4f3aa89ad6d65be703.6.llvm.9546182045561815978 },
    Symbol { offset: 55555558d71c, size: 38, name: anon.f7f9788747b97a4f3aa89ad6d65be703.2.llvm.9546182045561815978 },
    Symbol { offset: 55555558d754, size: 36, name: anon.f7f9788747b97a4f3aa89ad6d65be703.5.llvm.9546182045561815978 },
    Symbol { offset: 5555555e5d80, size: c8, name: _ZN4core3ptr51drop_in_place$LT$std..backtrace..BacktraceFrame$GT$17h8388b0e198428af3E.llvm.5874213486224038663 },
    Symbol { offset: 5555555e5e50, size: 1ba, name: _ZN5alloc3vec16in_place_collect108_$LT$impl$u20$alloc..vec..spec_from_iter..SpecFromIter$LT$T$C$I$GT$$u20$for$u20$alloc..vec..Vec$LT$T$GT$$GT$9from_iter17h161c83eb93055c95E },
    Symbol { offset: 5555556945f0, size: 18, name: anon.3461ea2f31d154803bea0b19df8ba5c2.1.llvm.5874213486224038663 },
    Symbol { offset: 55555558d78a, size: 89, name: anon.3461ea2f31d154803bea0b19df8ba5c2.0.llvm.5874213486224038663 },
    Symbol { offset: 5555555e6360, size: 41c, name: _ZN6statrs10statistics16slice_statistics13Data$LT$D$GT$14select_inplace17h7f072b0e08d0156cE.llvm.18035060270478968779 },
    Symbol { offset: 5555555e6010, size: 34d, name: _ZN136_$LT$statrs..statistics..slice_statistics..Data$LT$D$GT$$u20$as$u20$statrs..statistics..order_statistics..OrderStatistics$LT$f64$GT$$GT$8quantile17he6cfdeb94f90da28E },
    Symbol { offset: 5555555e67b0, size: 18, name: _ZN4core3ptr42drop_in_place$LT$alloc..string..String$GT$17hc9b2847e0c20520cE },
    Symbol { offset: 5555555e67d0, size: 123, name: _ZN58_$LT$alloc..string..String$u20$as$u20$core..fmt..Write$GT$10write_char17h13db4e3872bba170E },
    Symbol { offset: 5555555e6900, size: 67, name: _ZN58_$LT$alloc..string..String$u20$as$u20$core..fmt..Write$GT$9write_str17h3471f8bf4fd2c6acE },
    Symbol { offset: 5555555e6780, size: 14, name: _ZN42_$LT$$RF$T$u20$as$u20$core..fmt..Debug$GT$3fmt17h84a739a045113c49E },
    Symbol { offset: 5555555e67a0, size: 10, name: _ZN4core3fmt5Write9write_fmt17h869c8dd9ed07df5fE },
    Symbol { offset: 5555555e6970, size: 20b, name: _ZN5serde3ser12SerializeMap15serialize_entry17h231f95108727a8aeE },
    Symbol { offset: 55555558da5a, size: 1, name: anon.c84bde45c13f7916e11f93c900944374.21.llvm.15032468455968781876 },
    Symbol { offset: 55555558da58, size: 2, name: anon.c84bde45c13f7916e11f93c900944374.20.llvm.15032468455968781876 },
    Symbol { offset: 5555555e7420, size: 26a, name: _ZN95_$LT$$RF$mut$u20$serde_json..ser..Serializer$LT$W$C$F$GT$$u20$as$u20$serde..ser..Serializer$GT$13serialize_str17h4e2d2ef7d50f0054E.llvm.15032468455968781876 },
    Symbol { offset: 55555558da5b, size: 2, name: anon.c84bde45c13f7916e11f93c900944374.22.llvm.15032468455968781876 },
    Symbol { offset: 5555555e6b80, size: 11a, name: _ZN5serde3ser12SerializeMap15serialize_entry17h40fd93ccd2fb5d52E },
    Symbol { offset: 5555555e6ca0, size: 236, name: _ZN5serde3ser12SerializeMap15serialize_entry17h49b0016f4488ce4eE },
    Symbol { offset: 5555555a0ffc, size: 4, name: anon.c84bde45c13f7916e11f93c900944374.6.llvm.15032468455968781876 },
    Symbol { offset: 5555555e6ee0, size: 10a, name: _ZN5serde3ser12SerializeMap15serialize_entry17h4a0a417625270da6E },
    Symbol { offset: 5555555e6ff0, size: 182, name: _ZN5serde3ser12SerializeMap15serialize_entry17h6b3c6262df403f67E },
    Symbol { offset: 5555555e7180, size: 18b, name: _ZN5serde3ser12SerializeMap15serialize_entry17h81a582754ca2dd62E },
    Symbol { offset: 5555555e7310, size: 10a, name: _ZN5serde3ser12SerializeMap15serialize_entry17ha1c2ce4a0b20115dE },
    Symbol { offset: 5555555a1094, size: 4, name: .Lanon.35a0e620b4c6201806400c9c71204603.14 },
    Symbol { offset: 5555555a100c, size: 4, name: .Lanon.35a0e620b4c6201806400c9c71204603.12 },
    Symbol { offset: 5555555a08c0, size: 10, name: .Lanon.35a0e620b4c6201806400c9c71204603.15 },
    Symbol { offset: 5555555e7690, size: 49, name: _ZN42_$LT$$RF$T$u20$as$u20$core..fmt..Debug$GT$3fmt17h9386fa3faf35875eE },
    Symbol { offset: 5555555e76e0, size: 6c, name: _ZN5alloc7raw_vec11finish_grow17h578bfdebb9742009E.llvm.11703729905145466696 },
    Symbol { offset: 5555555e7750, size: f5, name: _ZN5alloc7raw_vec20RawVecInner$LT$A$GT$7reserve21do_reserve_and_handle17h8d390fe5f47ff6dfE },
    Symbol { offset: 555555694760, size: 18, name: anon.5c6b192177995a229df98ca4cc0f41aa.3.llvm.11703729905145466696 },
    Symbol { offset: 55555558da5d, size: 7b, name: anon.5c6b192177995a229df98ca4cc0f41aa.2.llvm.11703729905145466696 },
    Symbol { offset: 5555555e7850, size: a7, name: _ZN4core3ptr42drop_in_place$LT$std..io..error..Error$GT$17hc044a258f1880348E },
    Symbol { offset: 5555555e7900, size: 4a, name: _ZN4core3ptr46drop_in_place$LT$bincode..error..ErrorKind$GT$17hdd73cf9d2fc4f67fE },
    Symbol { offset: 5555555e7950, size: 1, name: _ZN4core5error5Error7provide17h901f3128c2b36346E },
    Symbol { offset: 5555555e7960, size: 15, name: _ZN4core5error5Error7type_id17he63dd112f97567c1E },
    Symbol { offset: 5555555e7980, size: 75, name: _ZN5serde2de5Error13invalid_value17h5b8eeff60f33967aE },
    Symbol { offset: 555555694778, size: 20, name: anon.1955af5b620f9e700b6d83fccbc8894b.2.llvm.15376861282697741803 },
    Symbol { offset: 5555555e7c10, size: 126, name: _ZN7bincode5error97_$LT$impl$u20$serde..de..Error$u20$for$u20$alloc..boxed..Box$LT$bincode..error..ErrorKind$GT$$GT$6custom17h611a39cc0c80e4c9E.llvm.15376861282697741803 },
    Symbol { offset: 5555555e7a00, size: 7c, name: _ZN5serde2de5Error14invalid_length17h610bb32b1d7e06d5E },
    Symbol { offset: 555555694798, size: 20, name: anon.1955af5b620f9e700b6d83fccbc8894b.4.llvm.15376861282697741803 },
    Symbol { offset: 5555555e7a80, size: 9, name: _ZN65_$LT$alloc..boxed..Box$LT$E$GT$$u20$as$u20$core..error..Error$GT$11description17h6664c5b7b5947aedE },
    Symbol { offset: 5555555e7a90, size: 18, name: _ZN65_$LT$alloc..boxed..Box$LT$E$GT$$u20$as$u20$core..error..Error$GT$5cause17hdaf7267bbfc3e597E },
    Symbol { offset: 5555555e7ab0, size: 3, name: _ZN65_$LT$alloc..boxed..Box$LT$E$GT$$u20$as$u20$core..error..Error$GT$6source17h4d147c8140f677c2E },
    Symbol { offset: 5555555e7ac0, size: 1, name: _ZN65_$LT$alloc..boxed..Box$LT$E$GT$$u20$as$u20$core..error..Error$GT$7provide17h757327b5f3d0e29eE },
    Symbol { offset: 5555555e7ad0, size: 129, name: _ZN67_$LT$alloc..boxed..Box$LT$T$C$A$GT$$u20$as$u20$core..fmt..Debug$GT$3fmt17h26a97d19f8c0b49eE },
    Symbol { offset: 5555555e7c00, size: 9, name: _ZN69_$LT$alloc..boxed..Box$LT$T$C$A$GT$$u20$as$u20$core..fmt..Display$GT$3fmt17h4681d9f68413314bE },
    Symbol { offset: 5555556948e8, size: 18, name: anon.1955af5b620f9e700b6d83fccbc8894b.26.llvm.15376861282697741803 },
    Symbol { offset: 5555555e7d40, size: 148, name: _ZN7bincode8internal9serialize17he75cdc03180d3022E },
    Symbol { offset: 5555556948d0, size: 18, name: anon.1955af5b620f9e700b6d83fccbc8894b.24.llvm.15376861282697741803 },
    Symbol { offset: 55555558db18, size: f, name: anon.1955af5b620f9e700b6d83fccbc8894b.0.llvm.15376861282697741803 },
    Symbol { offset: 55555558db27, size: b, name: anon.1955af5b620f9e700b6d83fccbc8894b.1.llvm.15376861282697741803 },
    Symbol { offset: 55555558db32, size: f, name: anon.1955af5b620f9e700b6d83fccbc8894b.3.llvm.15376861282697741803 },
    Symbol { offset: 55555558dbcd, size: 65, name: anon.1955af5b620f9e700b6d83fccbc8894b.23.llvm.15376861282697741803 },
    Symbol { offset: 55555558dc32, size: 75, name: anon.1955af5b620f9e700b6d83fccbc8894b.25.llvm.15376861282697741803 },
    Symbol { offset: 5555555e7e90, size: 1bd, name: _ZN3std2io5Write9write_all17hfe2c950c6f366ba1E },
    Symbol { offset: 555555694900, size: 18, name: anon.3d165d971a516d2719a6b785b91a32c8.3.llvm.6692438752788788640 },
    Symbol { offset: 555555694918, size: 18, name: anon.3d165d971a516d2719a6b785b91a32c8.5.llvm.6692438752788788640 },
    Symbol { offset: 5555555e8050, size: a4, name: _ZN4core3ptr42drop_in_place$LT$std..io..error..Error$GT$17hc044a258f1880348E.llvm.6692438752788788640 },
    Symbol { offset: 5555555e8100, size: 51, name: _ZN8codspeed5utils28running_with_codspeed_runner17hfaf433ae43b30b60E },
    Symbol { offset: 55555558dd48, size: c, name: anon.3d165d971a516d2719a6b785b91a32c8.14.llvm.6692438752788788640 },
    Symbol { offset: 5555555e8160, size: 51, name: _ZN8codspeed5utils15is_perf_enabled17h0f882ca869b752c2E },
    Symbol { offset: 55555558dcb8, size: 1c, name: anon.3d165d971a516d2719a6b785b91a32c8.2.llvm.6692438752788788640 },
    Symbol { offset: 55555558dcd4, size: 74, name: anon.3d165d971a516d2719a6b785b91a32c8.4.llvm.6692438752788788640 },
    Symbol { offset: 5555555a1028, size: 4, name: .Lanon.354d79035390566f5865c9b0e72c093f.4 },
    Symbol { offset: 555555694930, size: 18, name: anon.354d79035390566f5865c9b0e72c093f.2.llvm.3331492885244325834 },
    Symbol { offset: 55555558dd69, size: 27, name: anon.354d79035390566f5865c9b0e72c093f.1.llvm.3331492885244325834 },
    Symbol { offset: 5555555e82c0, size: 23, name: _ZN4core3fmt3num52_$LT$impl$u20$core..fmt..Debug$u20$for$u20$usize$GT$3fmt17h7abaade222174992E },
    Symbol { offset: 5555555a11a8, size: 8, name: .Lanon.743daa7b96ba70053fb8cb44df422e16.13 },
    Symbol { offset: 5555555e81c0, size: 26, name: _ZN42_$LT$$RF$T$u20$as$u20$core..fmt..Debug$GT$3fmt17h0cd69880a36c387bE },
    Symbol { offset: 5555555e81f0, size: 26, name: _ZN42_$LT$$RF$T$u20$as$u20$core..fmt..Debug$GT$3fmt17h9f48fac1be404c3aE },
    Symbol { offset: 5555555e8220, size: 9, name: _ZN42_$LT$$RF$T$u20$as$u20$core..fmt..Debug$GT$3fmt17hc5e0d3239e4af5c8E },
    Symbol { offset: 5555555e8230, size: 63, name: _ZN42_$LT$$RF$T$u20$as$u20$core..fmt..Debug$GT$3fmt17he9585a88ac111d61E },
    Symbol { offset: 5555555e82a0, size: 13, name: _ZN44_$LT$$RF$T$u20$as$u20$core..fmt..Display$GT$3fmt17h85228e23fa4197c3E },
    Symbol { offset: 5555555e82f0, size: 15, name: _ZN4core5error5Error7type_id17hddf72967614177d4E },
    Symbol { offset: 5555555e85e0, size: d, name: _ZN4core5error5Error11description17h29029d37611a28c8E },
    Symbol { offset: 5555555e85f0, size: d, name: _ZN4core5error5Error11description17h72ad920f73f77c3cE },
    Symbol { offset: 5555555e8600, size: 3, name: _ZN4core5error5Error5cause17h6f1f0a87c526c8b6E },
    Symbol { offset: 5555555e8610, size: 1, name: _ZN4core5error5Error7provide17h0914f6ddef5c0fb0E },
    Symbol { offset: 5555555e8620, size: 1, name: _ZN4core5error5Error7provide17h290e05c323c0e4f8E },
    Symbol { offset: 5555555e8630, size: 15, name: _ZN4core5error5Error7type_id17h43b037fbf26d2cd3E },
    Symbol { offset: 5555555e8a40, size: 14, name: _ZN75_$LT$anyhow..wrapper..MessageError$LT$M$GT$$u20$as$u20$core..fmt..Debug$GT$3fmt17h912e004577d6e268E },
    Symbol { offset: 5555555e8a60, size: 14, name: _ZN77_$LT$anyhow..wrapper..MessageError$LT$M$GT$$u20$as$u20$core..fmt..Display$GT$3fmt17ha664adcfa16c2ab3E },
    Symbol { offset: 5555555e8310, size: bc, name: _ZN4core3ptr103drop_in_place$LT$anyhow..error..ErrorImpl$LT$alloc..boxed..Box$LT$bincode..error..ErrorKind$GT$$GT$$GT$17h3ea1949fee618aa1E.llvm.8647758565097695058 },
    Symbol { offset: 5555555e8a80, size: 15f, name: _ZN85_$LT$std..sync..lazy_lock..LazyLock$LT$T$C$F$GT$$u20$as$u20$core..ops..drop..Drop$GT$4drop17h7828cf5f064e4a98E },
    Symbol { offset: 5555555e8430, size: a7, name: _ZN4core3ptr42drop_in_place$LT$std..io..error..Error$GT$17hc044a258f1880348E.llvm.8647758565097695058 },
    Symbol { offset: 5555555e84e0, size: 8c, name: _ZN4core3ptr71drop_in_place$LT$alloc..boxed..Box$LT$bincode..error..ErrorKind$GT$$GT$17hdf28aafd929c09a4E.llvm.8647758565097695058 },
    Symbol { offset: 5555555e83d0, size: 60, name: _ZN4core3ptr111drop_in_place$LT$anyhow..error..ErrorImpl$LT$anyhow..wrapper..MessageError$LT$alloc..string..String$GT$$GT$$GT$17he4b9d561c1b3d7d4E.llvm.8647758565097695058 },
    Symbol { offset: 5555555e8570, size: 46, name: _ZN4core3ptr74drop_in_place$LT$anyhow..error..ErrorImpl$LT$std..io..error..Error$GT$$GT$17h4e5acf755189b843E.llvm.8647758565097695058 },
    Symbol { offset: 5555555e85c0, size: 18, name: _ZN4core3ptr79drop_in_place$LT$anyhow..wrapper..MessageError$LT$alloc..string..String$GT$$GT$17h114661f438f0ab12E.llvm.8647758565097695058 },
    Symbol { offset: 5555555e8650, size: c, name: _ZN6anyhow5error10object_ref17hfbc80f04625bce97E.llvm.8647758565097695058 },
    Symbol { offset: 5555555e8660, size: c, name: _ZN6anyhow5error10object_ref17hfc7d275ac4723df3E.llvm.8647758565097695058 },
    Symbol { offset: 5555555e8670, size: c, name: _ZN6anyhow5error10object_ref17hfd222469c03925edE.llvm.8647758565097695058 },
    Symbol { offset: 5555555e8680, size: 3, name: _ZN6anyhow5error12no_backtrace17h1bdf72efcba67b04E.llvm.8647758565097695058 },
    Symbol { offset: 5555555e8690, size: b, name: _ZN6anyhow5error12object_boxed17h3a362b991b698622E.llvm.8647758565097695058 },
    Symbol { offset: 5555555e86a0, size: b, name: _ZN6anyhow5error12object_boxed17h6c806162ef58ee55E.llvm.8647758565097695058 },
    Symbol { offset: 5555555e86b0, size: b, name: _ZN6anyhow5error12object_boxed17h77a81126c98ffa5dE.llvm.8647758565097695058 },
    Symbol { offset: 5555555e86c0, size: 71, name: _ZN6anyhow5error31_$LT$impl$u20$anyhow..Error$GT$3msg17he5bbb8a1b5c5d3aeE },
    Symbol { offset: 5555555e87f0, size: b6, name: _ZN6anyhow5error31_$LT$impl$u20$anyhow..Error$GT$9construct17h3276808d9534d3b4E.llvm.8647758565097695058 },
    Symbol { offset: 5555555e8740, size: a1, name: _ZN6anyhow5error31_$LT$impl$u20$anyhow..Error$GT$9construct17h2ee4bb797b73b111E.llvm.8647758565097695058 },
    Symbol { offset: 555555694c58, size: 30, name: anon.7837d50d83cd1d988f54956d83839e9d.40.llvm.8647758565097695058 },
    Symbol { offset: 555555694cb8, size: 30, name: anon.7837d50d83cd1d988f54956d83839e9d.43.llvm.8647758565097695058 },
    Symbol { offset: 5555555e88b0, size: a1, name: _ZN6anyhow5error31_$LT$impl$u20$anyhow..Error$GT$9construct17hbc1d173925f5b836E.llvm.8647758565097695058 },
    Symbol { offset: 555555694c88, size: 30, name: anon.7837d50d83cd1d988f54956d83839e9d.42.llvm.8647758565097695058 },
    Symbol { offset: 5555555e8960, size: 64, name: _ZN6anyhow5error72_$LT$impl$u20$core..convert..From$LT$E$GT$$u20$for$u20$anyhow..Error$GT$4from17h355e588386e07fe9E },
    Symbol { offset: 5555555e89d0, size: 64, name: _ZN6anyhow5error72_$LT$impl$u20$core..convert..From$LT$E$GT$$u20$for$u20$anyhow..Error$GT$4from17hc6db9976b6b20c8aE },
    Symbol { offset: 555555694ce8, size: 10, name: anon.7837d50d83cd1d988f54956d83839e9d.49.llvm.8647758565097695058 },
    Symbol { offset: 555555694cf8, size: 18, name: anon.7837d50d83cd1d988f54956d83839e9d.51.llvm.8647758565097695058 },
    Symbol { offset: 55555558ddd5, size: 3c, name: anon.7837d50d83cd1d988f54956d83839e9d.48.llvm.8647758565097695058 },
    Symbol { offset: 55555558de11, size: 81, name: anon.7837d50d83cd1d988f54956d83839e9d.50.llvm.8647758565097695058 },
    Symbol { offset: 5555555e8be0, size: 1e0, name: _ZN3std2io18default_read_exact17h8338643c4a3f76abE },
    Symbol { offset: 555555694d10, size: 18, name: anon.ab7a1c4c538e53fb3e6e49be658786f9.1.llvm.1733884297564245001 },
    Symbol { offset: 555555694d28, size: 18, name: anon.ab7a1c4c538e53fb3e6e49be658786f9.3.llvm.1733884297564245001 },
    Symbol { offset: 5555555e8dc0, size: a4, name: _ZN4core3ptr42drop_in_place$LT$std..io..error..Error$GT$17hc044a258f1880348E.llvm.1733884297564245001 },
    Symbol { offset: 555555694d40, size: 10, name: anon.ab7a1c4c538e53fb3e6e49be658786f9.19.llvm.1733884297564245001 },
    Symbol { offset: 555555694d50, size: 20, name: anon.ab7a1c4c538e53fb3e6e49be658786f9.20.llvm.1733884297564245001 },
    Symbol { offset: 5555555e8e70, size: 493, name: _ZN8codspeed6shared1_77_$LT$impl$u20$serde..ser..Serialize$u20$for$u20$codspeed..shared..Command$GT$9serialize17h01af5e355bea2175E },
    Symbol { offset: 555555694d90, size: 20, name: anon.ab7a1c4c538e53fb3e6e49be658786f9.23.llvm.1733884297564245001 },
    Symbol { offset: 55555558dec0, size: 1b, name: anon.ab7a1c4c538e53fb3e6e49be658786f9.0.llvm.1733884297564245001 },
    Symbol { offset: 55555558dedb, size: 74, name: anon.ab7a1c4c538e53fb3e6e49be658786f9.2.llvm.1733884297564245001 },
    Symbol { offset: 55555558df4f, size: 3, name: anon.ab7a1c4c538e53fb3e6e49be658786f9.6.llvm.1733884297564245001 },
    Symbol { offset: 55555558df52, size: 3, name: anon.ab7a1c4c538e53fb3e6e49be658786f9.7.llvm.1733884297564245001 },
    Symbol { offset: 5555555a1028, size: 4, name: anon.ab7a1c4c538e53fb3e6e49be658786f9.13.llvm.1733884297564245001 },
    Symbol { offset: 55555558df55, size: 7, name: anon.ab7a1c4c538e53fb3e6e49be658786f9.14.llvm.1733884297564245001 },
    Symbol { offset: 55555558df5c, size: 18, name: anon.ab7a1c4c538e53fb3e6e49be658786f9.18.llvm.1733884297564245001 },
    Symbol { offset: 555555694d70, size: 20, name: anon.ab7a1c4c538e53fb3e6e49be658786f9.22.llvm.1733884297564245001 },
    Symbol { offset: 5555555a0ffc, size: 4, name: .Lanon.68b2846e25c66f4f0fd455d7aad76063.11 },
    Symbol { offset: 5555555a1010, size: 4, name: .Lanon.68b2846e25c66f4f0fd455d7aad76063.13 },
    Symbol { offset: 5555555a0e90, size: 20, name: anon.7bab8c3690ebe1396178895254dab145.2.llvm.3409493495239709999 },
    Symbol { offset: 5555555e9310, size: 18, name: _ZN4core3ptr42drop_in_place$LT$alloc..string..String$GT$17h7e5438ff300d1878E },
    Symbol { offset: 5555555e9400, size: 15, name: _ZN53_$LT$core..fmt..Error$u20$as$u20$core..fmt..Debug$GT$3fmt17h6736176c8e29474eE },
    Symbol { offset: 5555555e9420, size: 14, name: _ZN58_$LT$alloc..string..String$u20$as$u20$core..fmt..Debug$GT$3fmt17h3dbd93d1431a8f2aE },
    Symbol { offset: 5555555e9440, size: 123, name: _ZN58_$LT$alloc..string..String$u20$as$u20$core..fmt..Write$GT$10write_char17h13db4e3872bba170E },
    Symbol { offset: 5555555e9570, size: 67, name: _ZN58_$LT$alloc..string..String$u20$as$u20$core..fmt..Write$GT$9write_str17h3471f8bf4fd2c6acE },
    Symbol { offset: 5555555a0ffc, size: 4, name: .Lanon.8148d5820b8b8140f491f4695d3819c5.57 },
    Symbol { offset: 5555555e9330, size: ca, name: _ZN4core3ptr49drop_in_place$LT$serde_json..error..ErrorImpl$GT$17hf11163c8d1b1d60aE.llvm.13558583389649769270 },
    Symbol { offset: 5555555e95e0, size: 87, name: _ZN10serde_json5error5Error2io17h0a2f0c449eeda65cE },
    Symbol { offset: 5555555e9670, size: 259, name: _ZN67_$LT$serde_json..error..ErrorCode$u20$as$u20$core..fmt..Display$GT$3fmt17h911d3ca2e13fe59aE },
    Symbol { offset: 5555555e98d0, size: 175, name: _ZN61_$LT$serde_json..error..Error$u20$as$u20$core..fmt..Debug$GT$3fmt17h8ad490303d52ea8aE },
    Symbol { offset: 5555555e9a60, size: 18, name: _ZN4core3ptr42drop_in_place$LT$alloc..string..String$GT$17h7e5438ff300d1878E },
    Symbol { offset: 5555555e9a80, size: 123, name: _ZN58_$LT$alloc..string..String$u20$as$u20$core..fmt..Write$GT$10write_char17h13db4e3872bba170E },
    Symbol { offset: 5555555e9bb0, size: 67, name: _ZN58_$LT$alloc..string..String$u20$as$u20$core..fmt..Write$GT$9write_str17h3471f8bf4fd2c6acE },
    Symbol { offset: 5555555a0ffc, size: 4, name: .Lanon.1e74f6e8b373d96dd9450e26f523cbc8.27 },
    Symbol { offset: 5555555e9a50, size: 10, name: _ZN4core3fmt5Write9write_fmt17hf6c679b9d72b5743E },
    Symbol { offset: 5555555a0ffc, size: 4, name: .Lanon.42d943d128ff6595e0a664140790fef0.0 },
    Symbol { offset: 5555555a1010, size: 4, name: .Lanon.42d943d128ff6595e0a664140790fef0.2 },
    Symbol { offset: 55555558e2df, size: 100, name: _ZN10serde_json3ser6ESCAPE17hc0024500f4128677E },
    Symbol { offset: 55555558e2cf, size: 10, name: _ZN10serde_json3ser9Formatter17write_char_escape10HEX_DIGITS17hd320696970eb9c89E },
    Symbol { offset: 5555555a0ffc, size: 4, name: .Lanon.2a545d2e5a7cc518be5905de8575e372.4 },
    Symbol { offset: 5555555e9c20, size: 6c, name: _ZN5alloc7raw_vec11finish_grow17h19ebe9d2ae1b76cfE.llvm.893471791226256664 },
    Symbol { offset: 5555555e9c90, size: f5, name: _ZN5alloc7raw_vec20RawVecInner$LT$A$GT$7reserve21do_reserve_and_handle17ha5a5af79688575d0E },
    Symbol { offset: 555555694e88, size: 18, name: anon.e81c4f0a7c0af213e6655c76f50bcfb8.1.llvm.893471791226256664 },
    Symbol { offset: 55555558e3df, size: 7b, name: anon.e81c4f0a7c0af213e6655c76f50bcfb8.0.llvm.893471791226256664 },
    Symbol { offset: 5555555e9d90, size: 16f, name: _ZN3ryu6pretty8mantissa19write_mantissa_long17h5613d16a45eb5aecE },
    Symbol { offset: 55555558e45a, size: c8, name: _ZN3ryu11digit_table11DIGIT_TABLE17h0494b2393b69b49bE },
    Symbol { offset: 55555558e528, size: 1560, name: _ZN3ryu14d2s_full_table21DOUBLE_POW5_INV_SPLIT17h7eb8e9bb37d19d7dE },
    Symbol { offset: 55555558fa88, size: 1460, name: _ZN3ryu14d2s_full_table17DOUBLE_POW5_SPLIT17h8c6572d8c063fbd3E },
    Symbol { offset: 5555555e9f00, size: 935, name: _ZN3ryu6pretty8format6417h80ea87c27bc0bfb2E },
    Symbol { offset: 5555555a08c0, size: 10, name: .Lanon.58b654d910159386f99f7294c972efdc.32 },
    Symbol { offset: 5555555a0a00, size: 10, name: .Lanon.58b654d910159386f99f7294c972efdc.36 },
    Symbol { offset: 5555555a0910, size: 10, name: .Lanon.58b654d910159386f99f7294c972efdc.35 },
    Symbol { offset: 5555555a0c20, size: 10, name: .Lanon.58b654d910159386f99f7294c972efdc.42 },
    Symbol { offset: 5555555ea840, size: 1c3, name: _ZN4uuid3fmt17format_hyphenated17h3d990eb9916ba968E.llvm.2697741598065222841 },
    Symbol { offset: 555555694ea0, size: 10, name: anon.58b654d910159386f99f7294c972efdc.46.llvm.2697741598065222841 },
    Symbol { offset: 555555694eb0, size: 18, name: anon.58b654d910159386f99f7294c972efdc.48.llvm.2697741598065222841 },
    Symbol { offset: 555555590ee8, size: 2a, name: anon.58b654d910159386f99f7294c972efdc.45.llvm.2697741598065222841 },
    Symbol { offset: 555555590f12, size: 5e, name: anon.58b654d910159386f99f7294c972efdc.47.llvm.2697741598065222841 },
    Symbol { offset: 5555555eaa10, size: 35, name: _ZN4uuid3fmt59_$LT$impl$u20$core..fmt..Display$u20$for$u20$uuid..Uuid$GT$3fmt17h77c3e341eed3f1c7E },
    Symbol { offset: 5555555eaa50, size: c5, name: _ZN4uuid2v428_$LT$impl$u20$uuid..Uuid$GT$6new_v417hea1629e85a3a3918E },
    Symbol { offset: 5555555eaa10, size: 35, name: _ZN4uuid3fmt60_$LT$impl$u20$core..fmt..LowerHex$u20$for$u20$uuid..Uuid$GT$3fmt17h9ad8e5df8155aad9E },
    Symbol { offset: 55555569df10, size: 8, name: _ZN9getrandom3imp15getrandom_inner13HAS_GETRANDOM17hfc374476861814beE.0 },
    Symbol { offset: 55555569df08, size: 8, name: _ZN9getrandom8use_file10get_rng_fd2FD17hcef1c0b875c08decE.0 },
    Symbol { offset: 55555569e9e8, size: 28, name: _ZN9getrandom8use_file10get_rng_fd5MUTEX17h174c09ae89f30f54E },
    Symbol { offset: 5555555a1228, size: c, name: .Lanon.49415bbff813ed691fbb8eea34cd74fe.26 },
    Symbol { offset: 5555555a125b, size: d, name: .Lanon.49415bbff813ed691fbb8eea34cd74fe.25 },
    Symbol { offset: 5555555eab20, size: 1fc, name: _ZN62_$LT$getrandom..error..Error$u20$as$u20$core..fmt..Display$GT$3fmt17hf8e910f2f7f69869E },
    Symbol { offset: 5555555ead20, size: 2ec, name: _ZN9getrandom3imp15getrandom_inner17he64b4b34a3d4ca30E },
    Symbol { offset: 5555555eb010, size: 13, name: _ZN44_$LT$$RF$T$u20$as$u20$core..fmt..Display$GT$3fmt17h961447257585970aE },
    Symbol { offset: 5555555eb030, size: 9, name: _ZN44_$LT$$RF$T$u20$as$u20$core..fmt..Display$GT$3fmt17hb637168ef41a7ac2E },
    Symbol { offset: 5555555eb040, size: 9, name: _ZN44_$LT$$RF$T$u20$as$u20$core..fmt..Display$GT$3fmt17hebbfdf20836a3634E },
    Symbol { offset: 5555555eb050, size: e2, name: _ZN4core3ptr46drop_in_place$LT$bincode..error..ErrorKind$GT$17h11c9f285f905e0deE },
    Symbol { offset: 5555555a08c0, size: 10, name: .Lanon.3826f8c0dd8161e94fb65b9a0d504886.23 },
    Symbol { offset: 5555555eb140, size: 6, name: _ZN7bincode6config3int17cast_u64_to_usize17hb07a71105e3ff168E },
    Symbol { offset: 5555555eb150, size: 9e, name: _ZN64_$LT$bincode..error..ErrorKind$u20$as$u20$core..error..Error$GT$11description17hef2dbd2678d4d870E },
    Symbol { offset: 5555555eb1f0, size: 74, name: _ZN7bincode5error129_$LT$impl$u20$core..convert..From$LT$std..io..error..Error$GT$$u20$for$u20$alloc..boxed..Box$LT$bincode..error..ErrorKind$GT$$GT$4from17h6f38e7d1c87d3841E },
    Symbol { offset: 5555555eb270, size: 26a, name: _ZN64_$LT$bincode..error..ErrorKind$u20$as$u20$core..fmt..Display$GT$3fmt17hbadc6d850e637f7cE },
    Symbol { offset: 5555555eb4e0, size: 13, name: _ZN42_$LT$$RF$T$u20$as$u20$core..fmt..Debug$GT$3fmt17h6a8041201329b9ecE },
    Symbol { offset: 5555555eb500, size: 10, name: _ZN4core3fmt5Write9write_fmt17h41c9d07511fd124cE },
    Symbol { offset: 5555555a0fc0, size: 4, name: .Lanon.2660a61e2e59785f4562f3d9a5f8d936.45 },
    Symbol { offset: 5555555a11e0, size: 8, name: .Lanon.2660a61e2e59785f4562f3d9a5f8d936.43 },
    Symbol { offset: 5555555a08c0, size: 10, name: .Lanon.2660a61e2e59785f4562f3d9a5f8d936.58 },
    Symbol { offset: 5555555a0fd0, size: 4, name: .Lanon.2660a61e2e59785f4562f3d9a5f8d936.110 },
    Symbol { offset: 5555555a0fd4, size: 4, name: .Lanon.2660a61e2e59785f4562f3d9a5f8d936.112 },
    Symbol { offset: 5555555eb510, size: 269, name: _ZN60_$LT$serde..de..Unexpected$u20$as$u20$core..fmt..Display$GT$3fmt17h052c38c49401caa1E },
    Symbol { offset: 5555555eb7b0, size: 10f, name: _ZN66_$LT$serde..de..WithDecimalPoint$u20$as$u20$core..fmt..Display$GT$3fmt17hed204bcf79a841feE },
    Symbol { offset: 5555555eb780, size: 13, name: _ZN47_$LT$$RF$str$u20$as$u20$serde..de..Expected$GT$3fmt17h99a2f100d6935992E },
    Symbol { offset: 5555555eb7a0, size: 9, name: _ZN66_$LT$dyn$u20$serde..de..Expected$u20$as$u20$core..fmt..Display$GT$3fmt17h0ba93dc673d26169E },
    Symbol { offset: 5555555eb8c0, size: 6a, name: _ZN128_$LT$$LT$serde..de..WithDecimalPoint$u20$as$u20$core..fmt..Display$GT$..fmt..LookForDecimalPoint$u20$as$u20$core..fmt..Write$GT$9write_str17h566eb2555fb30fe7E },
    Symbol { offset: 5555555eb930, size: 12, name: _ZN128_$LT$$LT$serde..de..WithDecimalPoint$u20$as$u20$core..fmt..Display$GT$..fmt..LookForDecimalPoint$u20$as$u20$core..fmt..Write$GT$10write_char17hb2752ba385b92621E },
    Symbol { offset: 5555555eb780, size: 13, name: _ZN62_$LT$serde..de..value..Error$u20$as$u20$core..fmt..Display$GT$3fmt17hbca3bba33babcc1fE },
    Symbol { offset: 5555555eb950, size: 6c, name: _ZN5alloc7raw_vec11finish_grow17h5d0c9f81dad82d08E.llvm.17896638903930920052 },
    Symbol { offset: 5555555eb9c0, size: f5, name: _ZN5alloc7raw_vec20RawVecInner$LT$A$GT$7reserve21do_reserve_and_handle17hb744a2794358302aE },
    Symbol { offset: 555555695090, size: 18, name: anon.49d2b90922db7a5afbfd635476197d83.2.llvm.17896638903930920052 },
    Symbol { offset: 5555555ebac0, size: 9, name: _ZN6anyhow5error60_$LT$impl$u20$core..fmt..Debug$u20$for$u20$anyhow..Error$GT$3fmt17hc584c4e1e744f151E },
    Symbol { offset: 5555555ebad0, size: 8, name: _ZN6anyhow5error65_$LT$impl$u20$core..ops..drop..Drop$u20$for$u20$anyhow..Error$GT$4drop17h4857d91980a8e05eE },
    Symbol { offset: 5555555914ea, size: 7b, name: anon.49d2b90922db7a5afbfd635476197d83.1.llvm.17896638903930920052 },
    Symbol { offset: 5555555ebb00, size: 18, name: _ZN4core3ptr42drop_in_place$LT$alloc..string..String$GT$17hf1d409e13a647a25E },
    Symbol { offset: 5555555ebc50, size: 123, name: _ZN58_$LT$alloc..string..String$u20$as$u20$core..fmt..Write$GT$10write_char17h13db4e3872bba170E },
    Symbol { offset: 5555555ebd80, size: 67, name: _ZN58_$LT$alloc..string..String$u20$as$u20$core..fmt..Write$GT$9write_str17h3471f8bf4fd2c6acE },
    Symbol { offset: 5555555ebae0, size: 10, name: _ZN44_$LT$$RF$T$u20$as$u20$core..fmt..Display$GT$3fmt17h03260201d0fa6b1aE },
    Symbol { offset: 5555555ebaf0, size: 10, name: _ZN4core3fmt5Write9write_fmt17hae9dc57633361070E },
    Symbol { offset: 5555555ebb20, size: 130, name: _ZN4core3str21_$LT$impl$u20$str$GT$16trim_end_matches17h2543a5adbb9260deE },
    Symbol { offset: 5555555ebdf0, size: 14b, name: _ZN5alloc6string6String13replace_range17h76469a04ceb2b95eE },
    Symbol { offset: 5555555915db, size: 2a, name: anon.12dc8580697e72e3090325df583ac15c.6.llvm.9229608405451077665 },
    Symbol { offset: 5555556950c0, size: 18, name: anon.12dc8580697e72e3090325df583ac15c.8.llvm.9229608405451077665 },
    Symbol { offset: 5555556950d8, size: 18, name: anon.12dc8580697e72e3090325df583ac15c.9.llvm.9229608405451077665 },
    Symbol { offset: 5555556950a8, size: 18, name: anon.12dc8580697e72e3090325df583ac15c.2.llvm.9229608405451077665 },
    Symbol { offset: 555555591565, size: 76, name: anon.12dc8580697e72e3090325df583ac15c.1.llvm.9229608405451077665 },
    Symbol { offset: 555555591605, size: 76, name: anon.12dc8580697e72e3090325df583ac15c.7.llvm.9229608405451077665 },
    Symbol { offset: 5555555ebae0, size: 10, name: _ZN44_$LT$$RF$T$u20$as$u20$core..fmt..Display$GT$3fmt17h54b6ff59799a8023E },
    Symbol { offset: 5555555ebf40, size: 6, name: _ZN4core3fmt9Formatter9write_fmt17hdac197d06fcfd859E },
    Symbol { offset: 5555555ebf50, size: 18, name: _ZN4core3ptr42drop_in_place$LT$alloc..string..String$GT$17hf1d409e13a647a25E },
    Symbol { offset: 5555555ebf70, size: 15, name: _ZN53_$LT$core..fmt..Error$u20$as$u20$core..fmt..Debug$GT$3fmt17h6736176c8e29474eE },
    Symbol { offset: 5555555ebf90, size: 123, name: _ZN58_$LT$alloc..string..String$u20$as$u20$core..fmt..Write$GT$10write_char17h13db4e3872bba170E },
    Symbol { offset: 5555555ec0c0, size: 67, name: _ZN58_$LT$alloc..string..String$u20$as$u20$core..fmt..Write$GT$9write_str17h3471f8bf4fd2c6acE },
    Symbol { offset: 5555555ec130, size: 42, name: _ZN5alloc6string6String8truncate17haef83b3a5d9c3c2bE },
    Symbol { offset: 5555555ec180, size: 14, name: _ZN60_$LT$alloc..string..String$u20$as$u20$core..fmt..Display$GT$3fmt17h253a895d4ea9e2d1E },
    Symbol { offset: 5555555ec1a0, size: 10, name: _ZN75_$LT$$RF$mut$u20$W$u20$as$u20$core..fmt..Write..write_fmt..SpecWriteFmt$GT$14spec_write_fmt17hbf6df248088bf7bcE },
    Symbol { offset: 5555555a08c0, size: 10, name: .Lanon.5df154bf5e963b9c5f2ec8ddd9da4704.14 },
    Symbol { offset: 5555555ec1b0, size: 6, name: _ZN6anyhow5error9ErrorImpl5error17h24c8a0bb7c5f92bdE },
    Symbol { offset: 55555559175d, size: 18, name: anon.5df154bf5e963b9c5f2ec8ddd9da4704.11.llvm.16104855940793540875 },
    Symbol { offset: 5555556951d0, size: 18, name: anon.5df154bf5e963b9c5f2ec8ddd9da4704.13.llvm.16104855940793540875 },
    Symbol { offset: 5555555ec1c0, size: 481, name: _ZN6anyhow3fmt42_$LT$impl$u20$anyhow..error..ErrorImpl$GT$5debug17hfd005b11f217b677E },
    Symbol { offset: 555555591775, size: 62, name: anon.5df154bf5e963b9c5f2ec8ddd9da4704.12.llvm.16104855940793540875 },
    Symbol { offset: 5555555ec1b0, size: 6, name: _ZN6anyhow5error9ErrorImpl9error_mut17h47e1574cd0f48a93E },
    Symbol { offset: 5555555a08c0, size: 10, name: .Lanon.36af1f4c10d87113c7edf2842599f23d.6 },
    Symbol { offset: 5555555a1000, size: 4, name: .Lanon.36af1f4c10d87113c7edf2842599f23d.11 },
    Symbol { offset: 5555555ec650, size: d5, name: _ZN4core3fmt5Write10write_char17h0a62921b501c1617E },
    Symbol { offset: 5555555ec740, size: 299, name: _ZN67_$LT$anyhow..fmt..Indented$LT$T$GT$$u20$as$u20$core..fmt..Write$GT$9write_str17h0ed97b6c8e50876aE },
    Symbol { offset: 5555555ec730, size: 10, name: _ZN4core3fmt5Write9write_fmt17hea7ce23fd5135110E },
    Symbol { offset: 555555695270, size: 18, name: anon.83a51145534009a1f6f8101bf2c50810.5.llvm.646650606079041362 },
    Symbol { offset: 5555555ec9e0, size: 55, name: _ZN79_$LT$alloc..vec..drain..Drain$LT$T$C$A$GT$$u20$as$u20$core..ops..drop..Drop$GT$4drop17hcd33cfd9cfc01c31E },
    Symbol { offset: 5555555eca40, size: 4e0, name: _ZN81_$LT$alloc..vec..splice..Splice$LT$I$C$A$GT$$u20$as$u20$core..ops..drop..Drop$GT$4drop17hf2d5ad9d695988aaE },
    Symbol { offset: 5555555918ba, size: 77, name: anon.83a51145534009a1f6f8101bf2c50810.4.llvm.646650606079041362 },
    Symbol { offset: 5555555a08c0, size: 10, name: .Lanon.0d8159722d680327fcac3e4ddc7a6159.11 },
    Symbol { offset: 5555555a0fc8, size: 4, name: .Lanon.afd6ec4e4129dc55f2b4df24a5bd1307.9 },
    Symbol { offset: 5555555ed0c0, size: 1a0, name: _ZN4core3ptr45drop_in_place$LT$regex_lite..hir..HirKind$GT$17h2a534849ff3b45eeE },
    Symbol { offset: 5555555ed260, size: bf, name: _ZN4core3ptr64drop_in_place$LT$alloc..vec..Vec$LT$regex_lite..hir..Hir$GT$$GT$17ha392081244742e12E },
    Symbol { offset: 5555555ed320, size: 44, name: _ZN4core3ptr66drop_in_place$LT$alloc..boxed..Box$LT$regex_lite..hir..Hir$GT$$GT$17h209f7a4e3b54d1bbE },
    Symbol { offset: 5555555ed370, size: 109, name: _ZN10regex_lite3hir5parse6Parser4bump17ha439f187ef988476E },
    Symbol { offset: 5555555ed480, size: 14c, name: _ZN10regex_lite3hir5parse6Parser10bump_space17h4f924e60866f78c8E },
    Symbol { offset: 5555555ed5d0, size: ee, name: _ZN10regex_lite3hir5parse6Parser4peek17ha505e10d7ebb71dfE },
    Symbol { offset: 5555555ed6c0, size: 30e, name: _ZN10regex_lite3hir5parse6Parser10peek_space17hd6b239b35ccc0268E },
    Symbol { offset: 5555555f2470, size: 37c, name: _ZN10regex_lite3hir5parse6Parser13parse_decimal17h4a3c28849b527f14E },
    Symbol { offset: 5555555f0e90, size: 127c, name: _ZN10regex_lite3hir5parse6Parser12parse_escape17h72a6c2f9235fa7b6E },
    Symbol { offset: 5555555f27f0, size: 6d, name: _ZN10regex_lite3hir5parse6Parser16parse_class_item17hce187505d358377bE },
    Symbol { offset: 5555555f2900, size: 226, name: _ZN10regex_lite3hir5parse11posix_class17h3421f792c098e908E },
    Symbol { offset: 5555555a0f30, size: 20, name: .Lanon.888561ec7e5396c4ddf8a39ebf1ef609.112 },
    Symbol { offset: 5555555a0fb0, size: 4, name: .Lanon.888561ec7e5396c4ddf8a39ebf1ef609.91 },
    Symbol { offset: 5555555a1080, size: 4, name: .Lanon.888561ec7e5396c4ddf8a39ebf1ef609.84 },
    Symbol { offset: 5555555a0e50, size: 20, name: .Lanon.888561ec7e5396c4ddf8a39ebf1ef609.38 },
    Symbol { offset: 5555555a1210, size: 8, name: .Lanon.888561ec7e5396c4ddf8a39ebf1ef609.141 },
    Symbol { offset: 5555555f2b30, size: 51, name: _ZN10regex_lite3hir23is_escapeable_character17h6bb33f1e8dc55242E },
    Symbol { offset: 5555555f2110, size: 35c, name: _ZN10regex_lite3hir5parse6Parser33maybe_parse_special_word_boundary17hdf7098015a35414fE },
    Symbol { offset: 5555555a1064, size: 4, name: .Lanon.888561ec7e5396c4ddf8a39ebf1ef609.61 },
    Symbol { offset: 5555555a1070, size: 4, name: .Lanon.888561ec7e5396c4ddf8a39ebf1ef609.48 },
    Symbol { offset: 5555555a0fb8, size: 4, name: .Lanon.888561ec7e5396c4ddf8a39ebf1ef609.152 },
    Symbol { offset: 5555555a1068, size: 4, name: .Lanon.888561ec7e5396c4ddf8a39ebf1ef609.150 },
    Symbol { offset: 5555555a1004, size: 4, name: .Lanon.888561ec7e5396c4ddf8a39ebf1ef609.149 },
    Symbol { offset: 5555555a10d8, size: 8, name: .Lanon.888561ec7e5396c4ddf8a39ebf1ef609.144 },
    Symbol { offset: 5555555f2b90, size: 43, name: _ZN61_$LT$regex_lite..error..Error$u20$as$u20$core..fmt..Debug$GT$3fmt17h535e80bc455e121aE },
    Symbol { offset: 5555555ecf20, size: 1a0, name: _ZN4core3ptr41drop_in_place$LT$regex_lite..hir..Hir$GT$17h0b43cea035afe368E.llvm.7058583731029587686 },
    Symbol { offset: 5555555ed9d0, size: 34bb, name: _ZN10regex_lite3hir5parse6Parser11parse_inner17hc8699eee2e329aceE.llvm.7058583731029587686 },
    Symbol { offset: 5555555f2860, size: 98, name: _ZN10regex_lite3hir5parse17check_hir_nesting7recurse17h837ee1f51659a3c7E.llvm.7058583731029587686 },
    Symbol { offset: 555555592019, size: 1c, name: anon.888561ec7e5396c4ddf8a39ebf1ef609.8.llvm.7058583731029587686 },
    Symbol { offset: 5555555f2be0, size: 46, name: _ZN4core3ptr43drop_in_place$LT$regex_lite..nfa..State$GT$17hddf3af76c6552dbaE },
    Symbol { offset: 5555555f2c30, size: b1, name: _ZN4core3ptr66drop_in_place$LT$alloc..vec..Vec$LT$regex_lite..nfa..State$GT$$GT$17h439d4ce5ee498820E },
    Symbol { offset: 5555555f2cf0, size: 284, name: _ZN4core3ptr68drop_in_place$LT$core..cell..RefCell$LT$regex_lite..nfa..NFA$GT$$GT$17hbce5653d891a2a42E },
    Symbol { offset: 5555555f2f80, size: 105, name: _ZN4core3ptr99drop_in_place$LT$alloc..vec..Vec$LT$core..option..Option$LT$alloc..sync..Arc$LT$str$GT$$GT$$GT$$GT$17h09c1a54134dc389eE },
    Symbol { offset: 5555555f4060, size: 471, name: _ZN10regex_lite3nfa8Compiler9c_capture17h9af9ceaae7d58b5aE },
    Symbol { offset: 5555555f4630, size: 1e4, name: _ZN10regex_lite3nfa8Compiler3add17h531a737fe656df3bE },
    Symbol { offset: 5555555f4820, size: 16e, name: _ZN10regex_lite3nfa8Compiler5patch17ha7608f21f43147a2E },
    Symbol { offset: 5555555a08c0, size: 10, name: .Lanon.a7fcd8d9249c288c35f4a55be722337a.21 },
    Symbol { offset: 5555555f3360, size: ad2, name: _ZN10regex_lite3nfa8Compiler1c17h71b7aabd52f7d767E },
    Symbol { offset: 5555555f44e0, size: 145, name: _ZN10regex_lite3nfa8Compiler8c_concat17h7687fd49686f30d3E },
    Symbol { offset: 5555555f3e40, size: 21a, name: _ZN10regex_lite3nfa8Compiler9c_bounded17h9c0dcfa7c79b67adE },
    Symbol { offset: 5555555f3090, size: 2cb, name: _ZN10regex_lite3nfa3NFA3new17h628b93f35973cfaaE },
    Symbol { offset: 555555695698, size: 18, name: anon.a7fcd8d9249c288c35f4a55be722337a.3.llvm.13628524395977240114 },
    Symbol { offset: 555555592c9b, size: 63, name: anon.a7fcd8d9249c288c35f4a55be722337a.2.llvm.13628524395977240114 },
    Symbol { offset: 5555555f4b50, size: 1a0, name: _ZN4core3ptr45drop_in_place$LT$regex_lite..hir..HirKind$GT$17h2a534849ff3b45eeE },
    Symbol { offset: 5555555f4d80, size: bf, name: _ZN4core3ptr64drop_in_place$LT$alloc..vec..Vec$LT$regex_lite..hir..Hir$GT$$GT$17ha392081244742e12E },
    Symbol { offset: 5555555f4990, size: 1c0, name: _ZN4core3ptr41drop_in_place$LT$regex_lite..hir..Hir$GT$17h0b43cea035afe368E.llvm.15098126386816892269 },
    Symbol { offset: 5555555f5e10, size: 501, name: _ZN62_$LT$regex_lite..hir..Hir$u20$as$u20$core..ops..drop..Drop$GT$4drop17h171601323e8b5080E },
    Symbol { offset: 5555555f4cf0, size: 83, name: _ZN4core3ptr51drop_in_place$LT$regex_lite..hir..parse..Parser$GT$17h7412cd341d3ba3b7E.llvm.15098126386816892269 },
    Symbol { offset: 5555555f4e40, size: 259, name: _ZN10regex_lite3hir3Hir5parse17h82d85c3871d83bd4E },
    Symbol { offset: 5555555f50a0, size: 1bc, name: _ZN10regex_lite3hir3Hir11alternation17h981b397e84b5831cE },
    Symbol { offset: 5555555f5260, size: 87, name: _ZN10regex_lite3hir5Class3new17h1131390f26727466E },
    Symbol { offset: 555555695880, size: 18, name: anon.2baa79f77727a2c62e980dd26e64a5f9.1.llvm.15098126386816892269 },
    Symbol { offset: 5555555f58d0, size: 21b, name: _ZN10regex_lite3hir5Class12canonicalize17ha778a58711141c2bE.llvm.15098126386816892269 },
    Symbol { offset: 5555555f52f0, size: 93, name: _ZN10regex_lite3hir5Class3new17h2c6e21dcba6d6222E },
    Symbol { offset: 5555555f5390, size: 1e3, name: _ZN10regex_lite3hir5Class3new17h3db5c20d8c0caa27E },
    Symbol { offset: 5555555f5580, size: 86, name: _ZN10regex_lite3hir5Class3new17hc148ff699c91a305E },
    Symbol { offset: 5555556958c8, size: 18, name: anon.2baa79f77727a2c62e980dd26e64a5f9.7.llvm.15098126386816892269 },
    Symbol { offset: 5555556958b0, size: 18, name: anon.2baa79f77727a2c62e980dd26e64a5f9.6.llvm.15098126386816892269 },
    Symbol { offset: 5555555f5610, size: 2b4, name: _ZN10regex_lite3hir5Class6negate17h1818ad02f7f3f200E },
    Symbol { offset: 5555555f5af0, size: 315, name: _ZN10regex_lite3hir4Look8is_match17h6a83135b1c2c2a74E },
    Symbol { offset: 555555592ee4, size: 83, name: anon.2baa79f77727a2c62e980dd26e64a5f9.0.llvm.15098126386816892269 },
    Symbol { offset: 555555592f67, size: 67, name: anon.2baa79f77727a2c62e980dd26e64a5f9.4.llvm.15098126386816892269 },
    Symbol { offset: 5555555f6630, size: 1a0, name: _ZN4core3ptr45drop_in_place$LT$regex_lite..hir..HirKind$GT$17h2a534849ff3b45eeE },
    Symbol { offset: 5555555f6320, size: 16d, name: _ZN137_$LT$alloc..vec..Vec$LT$T$GT$$u20$as$u20$alloc..vec..spec_from_iter..SpecFromIter$LT$T$C$alloc..vec..into_iter..IntoIter$LT$T$GT$$GT$$GT$9from_iter17h309cd66b47e7dbd1E },
    Symbol { offset: 5555555f6490, size: 1a0, name: _ZN4core3ptr41drop_in_place$LT$regex_lite..hir..Hir$GT$17h0b43cea035afe368E.llvm.8375798135717281501 },
    Symbol { offset: 5555555f67d0, size: 133, name: _ZN5alloc3vec16Vec$LT$T$C$A$GT$14extend_trusted17h537424e99a0f6510E },
    Symbol { offset: 555555695b80, size: 18, name: anon.ab6f47d5064f865df7625676495cbf76.3.llvm.8375798135717281501 },
    Symbol { offset: 555555695b98, size: 18, name: anon.ab6f47d5064f865df7625676495cbf76.5.llvm.8375798135717281501 },
    Symbol { offset: 5555555f6910, size: 74, name: _ZN70_$LT$alloc..vec..Vec$LT$T$C$A$GT$$u20$as$u20$core..ops..drop..Drop$GT$4drop17h6bb4581fae174495E },
    Symbol { offset: 5555555f6990, size: 111, name: _ZN98_$LT$alloc..vec..Vec$LT$T$GT$$u20$as$u20$alloc..vec..spec_from_iter..SpecFromIter$LT$T$C$I$GT$$GT$9from_iter17h7e9a8fd3cb156f0fE },
    Symbol { offset: 5555555f6ab0, size: 111, name: _ZN98_$LT$alloc..vec..Vec$LT$T$GT$$u20$as$u20$alloc..vec..spec_from_iter..SpecFromIter$LT$T$C$I$GT$$GT$9from_iter17h99bbea7f453fd438E },
    Symbol { offset: 5555555f6bd0, size: b8, name: _ZN98_$LT$alloc..vec..Vec$LT$T$GT$$u20$as$u20$alloc..vec..spec_from_iter..SpecFromIter$LT$T$C$I$GT$$GT$9from_iter17hdecb5e8c6d65c6adE },
    Symbol { offset: 555555593038, size: 77, name: anon.ab6f47d5064f865df7625676495cbf76.2.llvm.8375798135717281501 },
    Symbol { offset: 5555555930af, size: 75, name: anon.ab6f47d5064f865df7625676495cbf76.4.llvm.8375798135717281501 },
    Symbol { offset: 5555555f6c90, size: 218, name: _ZN5alloc4sync16Arc$LT$T$C$A$GT$9drop_slow17h454046a6aeffce0dE },
    Symbol { offset: 5555555f6eb0, size: 2d, name: _ZN5alloc4sync16Arc$LT$T$C$A$GT$9drop_slow17h495bf934a72d7715E },
    Symbol { offset: 555555593124, size: 2b, name: anon.2c833a38327b2f6d0a66fc64cd3bb605.4.llvm.3647134840619886961 },
    Symbol { offset: 555555695bb0, size: 20, name: anon.2c833a38327b2f6d0a66fc64cd3bb605.3.llvm.3647134840619886961 },
    Symbol { offset: 555555695bd0, size: 18, name: anon.2c833a38327b2f6d0a66fc64cd3bb605.6.llvm.3647134840619886961 },
    Symbol { offset: 5555555f6f00, size: 1d7, name: _ZN71_$LT$core..hash..sip..Hasher$LT$S$GT$$u20$as$u20$core..hash..Hasher$GT$5write17hdeb740d8a9c973b0E.llvm.3647134840619886961 },
    Symbol { offset: 5555555f6ee0, size: 15, name: _ZN69_$LT$core..alloc..layout..LayoutError$u20$as$u20$core..fmt..Debug$GT$3fmt17hbaa65eea7f1a89d3E.llvm.3647134840619886961 },
    Symbol { offset: 5555555f70e0, size: 297, name: _ZN9hashbrown3map28HashMap$LT$K$C$V$C$S$C$A$GT$6insert17hf1d054724e2fcb5fE },
    Symbol { offset: 55555559314f, size: 74, name: anon.2c833a38327b2f6d0a66fc64cd3bb605.5.llvm.3647134840619886961 },
    Symbol { offset: 5555555f7380, size: 10, name: _ZN4core3ops8function6FnOnce9call_once17h9cb86e9ee8da658cE },
    Symbol { offset: 5555555f7390, size: b6, name: _ZN4core3ptr181drop_in_place$LT$hashbrown..scopeguard..ScopeGuard$LT$$RF$mut$u20$hashbrown..raw..RawTableInner$C$hashbrown..raw..RawTableInner..rehash_in_place..$u7b$$u7b$closure$u7d$$u7d$$GT$$GT$17h515c627afd6b9584E },
    Symbol { offset: 5555555f7450, size: 3d, name: _ZN4core3ptr196drop_in_place$LT$hashbrown..scopeguard..ScopeGuard$LT$hashbrown..raw..RawTableInner$C$hashbrown..raw..RawTableInner..prepare_resize$LT$alloc..alloc..Global$GT$..$u7b$$u7b$closure$u7d$$u7d$$GT$$GT$17ha76be6a548eb2badE },
    Symbol { offset: 5555555f7490, size: 6cc, name: _ZN9hashbrown3raw21RawTable$LT$T$C$A$GT$14reserve_rehash17h23d908ebdcda078eE },
    Symbol { offset: 5555555f7b60, size: 138, name: _ZN4core3ops8function6FnOnce40call_once$u7b$$u7b$vtable.shim$u7d$$u7d$17h144a71c02e812426E },
    Symbol { offset: 5555555f7ca0, size: 10, name: _ZN4core3ptr120drop_in_place$LT$$LT$regex_lite..string..Regex$u20$as$u20$core..clone..Clone$GT$..clone..$u7b$$u7b$closure$u7d$$u7d$$GT$17h2f9aeb8f8c685efbE },
    Symbol { offset: 5555555f7cb0, size: 1a0, name: _ZN4core3ptr41drop_in_place$LT$regex_lite..hir..Hir$GT$17h0b43cea035afe368E },
    Symbol { offset: 5555555f7e50, size: 1a0, name: _ZN4core3ptr45drop_in_place$LT$regex_lite..hir..HirKind$GT$17h2a534849ff3b45eeE },
    Symbol { offset: 5555555f7ff0, size: 284, name: _ZN4core3ptr76drop_in_place$LT$alloc..sync..ArcInner$LT$regex_lite..pikevm..PikeVM$GT$$GT$17ha9e3074e2dacee4fE },
    Symbol { offset: 5555555f8280, size: 105, name: _ZN4core3ptr99drop_in_place$LT$alloc..vec..Vec$LT$core..option..Option$LT$alloc..sync..Arc$LT$str$GT$$GT$$GT$$GT$17h09c1a54134dc389eE },
    Symbol { offset: 5555555a1094, size: 4, name: .Lanon.67ae73b40e129d10f17b191b9c9a12a1.3 },
    Symbol { offset: 5555555a100c, size: 4, name: .Lanon.67ae73b40e129d10f17b191b9c9a12a1.1 },
    Symbol { offset: 5555555a08c0, size: 10, name: .Lanon.67ae73b40e129d10f17b191b9c9a12a1.8 },
    Symbol { offset: 5555555a125a, size: 1, name: .Lanon.67ae73b40e129d10f17b191b9c9a12a1.21 },
    Symbol { offset: 5555555f8750, size: fe, name: _ZN10regex_lite6string12RegexBuilder5build28_$u7b$$u7b$closure$u7d$$u7d$17he8bf207c928fb7c5E },
    Symbol { offset: 5555555f8390, size: ff, name: _ZN10regex_lite6string5Regex3new17hf87747b4f27b6680E },
    Symbol { offset: 5555555f8490, size: 2ba, name: _ZN10regex_lite6string12RegexBuilder5build17h86fdb90b44d9c74eE },
    Symbol { offset: 5555555f8850, size: 23, name: _ZN4core3fmt3num50_$LT$impl$u20$core..fmt..Debug$u20$for$u20$u32$GT$3fmt17hc1ecbfcf2e19d62dE },
    Symbol { offset: 5555555f8880, size: 23, name: _ZN4core3fmt3num52_$LT$impl$u20$core..fmt..Debug$u20$for$u20$usize$GT$3fmt17h7abaade222174992E },
    Symbol { offset: 5555555f8910, size: 29, name: _ZN70_$LT$core..num..error..TryFromIntError$u20$as$u20$core..fmt..Debug$GT$3fmt17h1ec19825d3f66aafE },
    Symbol { offset: 5555555f9140, size: 7ca, name: _ZN10regex_lite6pikevm6PikeVM15epsilon_closure17hb333ac847752dbe4E },
    Symbol { offset: 5555555a1014, size: 4, name: .Lanon.02126c869fa86e087beef59b85293cb7.40 },
    Symbol { offset: 5555555f88b0, size: 5a, name: _ZN4core3ptr53drop_in_place$LT$regex_lite..pikevm..ActiveStates$GT$17h9969aca44f1b9fdaE.llvm.4847484110524873654 },
    Symbol { offset: 5555555f8940, size: 7f2, name: _ZN10regex_lite6pikevm6PikeVM6search17h9cfea1aa32ed8b8cE },
    Symbol { offset: 5555555f9910, size: 352, name: _ZN10regex_lite6pikevm12ActiveStates3new17he7053f8072fc5de0E.llvm.4847484110524873654 },
    Symbol { offset: 5555555f9c70, size: 737, name: _ZN4core5slice4sort6stable5drift4sort17h857ad5c19c8da18eE },
    Symbol { offset: 5555555fa3b0, size: 4cf, name: _ZN4core5slice4sort6shared9smallsort12sort8_stable17h1a353414a65c42a3E },
    Symbol { offset: 5555555a08c0, size: 10, name: .Lanon.a388e5f8016c3675091ee423b55ded4c.0 },
    Symbol { offset: 5555555fa880, size: be, name: _ZN4core5slice4sort6shared9smallsort25insertion_sort_shift_left17h03d962504840de47E },
    Symbol { offset: 5555555fa940, size: 56e, name: _ZN4core5slice4sort6shared9smallsort31small_sort_general_with_scratch17h489ab49e053d8c9dE },
    Symbol { offset: 5555555faeb0, size: 5d, name: _ZN63_$LT$regex_lite..error..Error$u20$as$u20$core..fmt..Display$GT$3fmt17hcc39f7c89aa5e16dE },
    Symbol { offset: 5555555faf10, size: 15, name: _ZN42_$LT$$RF$T$u20$as$u20$core..fmt..Debug$GT$3fmt17h39ec908cb63b693dE },
    Symbol { offset: 5555555faf30, size: 9, name: _ZN42_$LT$$RF$T$u20$as$u20$core..fmt..Debug$GT$3fmt17h7d4efbb55d3da8aaE },
    Symbol { offset: 5555555faf40, size: 13, name: _ZN42_$LT$$RF$T$u20$as$u20$core..fmt..Debug$GT$3fmt17he26aa9b9a30f523dE },
    Symbol { offset: 5555555faf60, size: 13, name: _ZN44_$LT$$RF$T$u20$as$u20$core..fmt..Display$GT$3fmt17h3a5663a17ea6d228E },
    Symbol { offset: 5555555faf80, size: 16e, name: _ZN4core4hash11BuildHasher8hash_one17hb82b6638ad9d6607E },
    Symbol { offset: 5555555fb0f0, size: 135, name: _ZN4core5slice4sort6stable14driftsort_main17h9dae56fe281b135bE },
    Symbol { offset: 5555555933cd, size: 100, name: anon.5ce6651e20f619fea04feaa3ab29b221.1.llvm.1690562103967592368 },
    Symbol { offset: 555555593531, size: 100, name: anon.5ce6651e20f619fea04feaa3ab29b221.4.llvm.1690562103967592368 },
    Symbol { offset: 555555593631, size: 6c, name: anon.5ce6651e20f619fea04feaa3ab29b221.5.llvm.1690562103967592368 },
    Symbol { offset: 555555695e58, size: 18, name: anon.5ce6651e20f619fea04feaa3ab29b221.3.llvm.1690562103967592368 },
    Symbol { offset: 555555695e70, size: 18, name: anon.5ce6651e20f619fea04feaa3ab29b221.6.llvm.1690562103967592368 },
    Symbol { offset: 5555555934cd, size: 64, name: anon.5ce6651e20f619fea04feaa3ab29b221.2.llvm.1690562103967592368 },
    Symbol { offset: 5555555fb230, size: 6c, name: _ZN5alloc7raw_vec11finish_grow17h22749841c4040bcbE.llvm.16565886190478399418 },
    Symbol { offset: 5555555fb2a0, size: b4, name: _ZN5alloc7raw_vec19RawVec$LT$T$C$A$GT$8grow_one17h021c2c0c58d6d71fE },
    Symbol { offset: 5555555fb360, size: b5, name: _ZN5alloc7raw_vec19RawVec$LT$T$C$A$GT$8grow_one17h1d3b491d55606a98E },
    Symbol { offset: 5555555fb420, size: b5, name: _ZN5alloc7raw_vec19RawVec$LT$T$C$A$GT$8grow_one17h40ac7f7ae9228ba3E },
    Symbol { offset: 5555555fb4e0, size: b4, name: _ZN5alloc7raw_vec19RawVec$LT$T$C$A$GT$8grow_one17h4baf385f6d9b015bE },
    Symbol { offset: 5555555fb5a0, size: b4, name: _ZN5alloc7raw_vec19RawVec$LT$T$C$A$GT$8grow_one17h5a6a84edc4d6f7b0E },
    Symbol { offset: 5555555fb660, size: b5, name: _ZN5alloc7raw_vec19RawVec$LT$T$C$A$GT$8grow_one17hd85c58fdc6b87b9bE },
    Symbol { offset: 5555555fb720, size: f5, name: _ZN5alloc7raw_vec20RawVecInner$LT$A$GT$7reserve21do_reserve_and_handle17ha2daf49c779c5eafE },
    Symbol { offset: 555555695e88, size: 18, name: anon.b43b67817a9c8c6bbfb29e407694048e.1.llvm.16565886190478399418 },
    Symbol { offset: 55555559369d, size: 7b, name: anon.b43b67817a9c8c6bbfb29e407694048e.0.llvm.16565886190478399418 },
    Symbol { offset: 5555555fb2a0, size: b4, name: _ZN5alloc7raw_vec19RawVec$LT$T$C$A$GT$8grow_one17h789467cebe6f01c3E },
    Symbol { offset: 5555555a1094, size: 4, name: .Lanon.13d03069079e1d8295e9691585b22122.8 },
    Symbol { offset: 5555555a100c, size: 4, name: .Lanon.13d03069079e1d8295e9691585b22122.7 },
    Symbol { offset: 5555555fb820, size: df, name: _ZN4core5slice4sort6shared5pivot11median3_rec17h49ebf3e9cb98ab95E },
    Symbol { offset: 5555555a08c0, size: 10, name: .Lanon.13d03069079e1d8295e9691585b22122.9 },
    Symbol { offset: 5555555fb900, size: 754, name: _ZN4core5slice4sort6stable9quicksort9quicksort17hc9f6de8129e6e14aE },
    Symbol { offset: 5555555fc054, size: 2e, name: _ZN4core9panicking13assert_failed17h140a33c804e0816aE },
    Symbol { offset: 5555555fc290, size: 1a0, name: _ZN4core3ptr45drop_in_place$LT$regex_lite..hir..HirKind$GT$17h2a534849ff3b45eeE },
    Symbol { offset: 5555555fc090, size: 55, name: _ZN4core3ptr167drop_in_place$LT$$LT$alloc..vec..drain..Drain$LT$T$C$A$GT$$u20$as$u20$core..ops..drop..Drop$GT$..drop..DropGuard$LT$regex_lite..hir..Hir$C$alloc..alloc..Global$GT$$GT$17hadf0eea4c360272eE.llvm.4045347955167671866 },
    Symbol { offset: 5555555fc0f0, size: 1a0, name: _ZN4core3ptr41drop_in_place$LT$regex_lite..hir..Hir$GT$17h0b43cea035afe368E.llvm.4045347955167671866 },
    Symbol { offset: 5555555fc430, size: dc, name: _ZN79_$LT$alloc..vec..drain..Drain$LT$T$C$A$GT$$u20$as$u20$core..ops..drop..Drop$GT$4drop17hd4ba310ff36e7b14E },
    Symbol { offset: 5555555fc880, size: 1d6, name: _ZN115_$LT$core..iter..adapters..filter_map..FilterMap$LT$I$C$F$GT$$u20$as$u20$core..iter..traits..iterator..Iterator$GT$4next17h5c5f7aadb252a6f8E },
    Symbol { offset: 5555555fcd20, size: 5a, name: _ZN4core3ptr168drop_in_place$LT$alloc..boxed..Box$LT$dyn$u20$core..iter..traits..iterator..Iterator$u2b$Item$u20$$u3d$$u20$clap_builder..builder..possible_value..PossibleValue$GT$$GT$17hf6c1d259cdc10a20E },
    Symbol { offset: 5555555fcd80, size: 49, name: _ZN4core3ptr415drop_in_place$LT$core..iter..adapters..filter_map..FilterMap$LT$core..iter..adapters..flatten..FlatMap$LT$core..slice..iter..Iter$LT$clap_builder..util..id..Id$GT$$C$alloc..vec..Vec$LT$clap_builder..util..id..Id$GT$$C$clap_builder..parser..validator..Validator..build_conflict_err..$u7b$$u7b$closure$u7d$$u7d$$GT$$C$clap_builder..parser..validator..Validator..build_conflict_err..$u7b$$u7b$closure$u7d$$u7d$$GT$$GT$17h9aad23cfce9a0fddE },
    Symbol { offset: 5555555fcdd0, size: 18, name: _ZN4core3ptr42drop_in_place$LT$alloc..string..String$GT$17hd6d205257de6c30dE },
    Symbol { offset: 5555555fcdf0, size: 113, name: _ZN4core3ptr51drop_in_place$LT$clap_builder..mkeymap..MKeyMap$GT$17h8cdf7013464c0061E },
    Symbol { offset: 5555555fd560, size: 2f, name: _ZN4core3ptr59drop_in_place$LT$clap_builder..builder..ext..Extensions$GT$17h6250317f4a1980b8E },
    Symbol { offset: 5555555fde50, size: c5, name: _ZN4core3ptr83drop_in_place$LT$alloc..vec..Vec$LT$clap_builder..builder..command..Command$GT$$GT$17hbcc6be51da7f59c0E },
    Symbol { offset: 5555555fe020, size: bc, name: _ZN4core3ptr86drop_in_place$LT$alloc..vec..Vec$LT$clap_builder..builder..arg_group..ArgGroup$GT$$GT$17h73eac3c678916fccE },
    Symbol { offset: 5555555fe290, size: 6a, name: _ZN4core3ptr97drop_in_place$LT$core..option..Option$LT$clap_builder..builder..value_parser..ValueParser$GT$$GT$17h896cf89adc29d282E },
    Symbol { offset: 5555555fdbd0, size: c6, name: _ZN4core3ptr75drop_in_place$LT$alloc..vec..Vec$LT$clap_builder..builder..arg..Arg$GT$$GT$17hce0657f7eb2bad80E },
    Symbol { offset: 5555555fe1e0, size: a2, name: _ZN4core3ptr96drop_in_place$LT$alloc..vec..Vec$LT$clap_builder..builder..possible_value..PossibleValue$GT$$GT$17h2da977e3cad7124cE },
    Symbol { offset: 5555555fe300, size: 15, name: _ZN53_$LT$core..fmt..Error$u20$as$u20$core..fmt..Debug$GT$3fmt17h6736176c8e29474eE },
    Symbol { offset: 5555555fe320, size: 123, name: _ZN58_$LT$alloc..string..String$u20$as$u20$core..fmt..Write$GT$10write_char17h13db4e3872bba170E },
    Symbol { offset: 5555555fe450, size: 67, name: _ZN58_$LT$alloc..string..String$u20$as$u20$core..fmt..Write$GT$9write_str17h3471f8bf4fd2c6acE },
    Symbol { offset: 555555607060, size: 1d5, name: _ZN89_$LT$clap_builder..util..flat_map..FlatMap$LT$K$C$V$GT$$u20$as$u20$core..clone..Clone$GT$5clone17hedcefa6131602adbE },
    Symbol { offset: 5555555fc510, size: 1d5, name: _ZN102_$LT$core..iter..adapters..map..Map$LT$I$C$F$GT$$u20$as$u20$core..iter..traits..iterator..Iterator$GT$4next17hf735045db9572ff8E.llvm.9287781225886421394 },
    Symbol { offset: 5555555fc6f0, size: 18f, name: _ZN104_$LT$core..iter..sources..from_fn..FromFn$LT$F$GT$$u20$as$u20$core..iter..traits..iterator..Iterator$GT$4next17h2e0924c69edb95c7E.llvm.9287781225886421394 },
    Symbol { offset: 5555555fca60, size: 68, name: _ZN132_$LT$alloc..vec..Vec$LT$T$C$A$GT$$u20$as$u20$alloc..vec..spec_extend..SpecExtend$LT$$RF$T$C$core..slice..iter..Iter$LT$T$GT$$GT$$GT$11spec_extend17hb48620575a70ee94E },
    Symbol { offset: 5555555fcad0, size: 174, name: _ZN137_$LT$alloc..vec..Vec$LT$T$GT$$u20$as$u20$alloc..vec..spec_from_iter..SpecFromIter$LT$T$C$alloc..vec..into_iter..IntoIter$LT$T$GT$$GT$$GT$9from_iter17hcf97cb17769785ebE },
    Symbol { offset: 5555555fd9d0, size: 82, name: _ZN4core3ptr65drop_in_place$LT$alloc..vec..Vec$LT$alloc..string..String$GT$$GT$17he3fc526f4bc110e4E.llvm.9287781225886421394 },
    Symbol { offset: 5555555fcc50, size: c3, name: _ZN4core3ptr106drop_in_place$LT$alloc..vec..Vec$LT$alloc..vec..Vec$LT$clap_builder..util..any_value..AnyValue$GT$$GT$$GT$17h3ed8dbed13fd4322E.llvm.9287781225886421394 },
    Symbol { offset: 5555555fdf20, size: 100, name: _ZN4core3ptr83drop_in_place$LT$alloc..vec..Vec$LT$clap_builder..util..any_value..AnyValue$GT$$GT$17h15a57a300a5d8834E.llvm.9287781225886421394 },
    Symbol { offset: 5555555fcf10, size: 643, name: _ZN4core3ptr52drop_in_place$LT$clap_builder..builder..arg..Arg$GT$17he9c0a80b4a99c6b8E.llvm.9287781225886421394 },
    Symbol { offset: 5555555fd590, size: 43d, name: _ZN4core3ptr60drop_in_place$LT$clap_builder..builder..command..Command$GT$17h085a707d824bb3aeE.llvm.9287781225886421394 },
    Symbol { offset: 5555555fda60, size: 82, name: _ZN4core3ptr70drop_in_place$LT$alloc..vec..Vec$LT$std..ffi..os_str..OsString$GT$$GT$17h1d058bcecc253de2E.llvm.9287781225886421394 },
    Symbol { offset: 5555555fdaf0, size: 87, name: _ZN4core3ptr73drop_in_place$LT$alloc..vec..Vec$LT$alloc..borrow..Cow$LT$str$GT$$GT$$GT$17ha20b34a2bd4c5b64E.llvm.9287781225886421394 },
    Symbol { offset: 5555555fdb80, size: 45, name: _ZN4core3ptr73drop_in_place$LT$clap_builder..builder..possible_value..PossibleValue$GT$17hf849e3b8c7416193E.llvm.9287781225886421394 },
    Symbol { offset: 5555555fdca0, size: 1b0, name: _ZN4core3ptr75drop_in_place$LT$clap_builder..parser..matches..matched_arg..MatchedArg$GT$17h446a62dc874f2d0cE.llvm.9287781225886421394 },
    Symbol { offset: 5555555fe0e0, size: f2, name: _ZN4core3ptr93drop_in_place$LT$alloc..vec..Vec$LT$alloc..vec..Vec$LT$std..ffi..os_str..OsString$GT$$GT$$GT$17h84d91d98f61ee896E.llvm.9287781225886421394 },
    Symbol { offset: 5555555fe4c0, size: 16e, name: _ZN5alloc3vec16Vec$LT$T$C$A$GT$14extend_trusted17hc6a15569e79ee6fcE },
    Symbol { offset: 5555555fe630, size: 144, name: _ZN5alloc3vec16Vec$LT$T$C$A$GT$16extend_desugared17he72627cf9d68a71bE },
    Symbol { offset: 555555695fb0, size: 18, name: anon.d4a322b4920787fc62e45f72958bd74b.13.llvm.9287781225886421394 },
    Symbol { offset: 5555555fe780, size: 171, name: _ZN5alloc3vec16Vec$LT$T$C$A$GT$16extend_desugared17hebbf35f4d57c3687E },
    Symbol { offset: 555555695f68, size: 18, name: anon.d4a322b4920787fc62e45f72958bd74b.9.llvm.9287781225886421394 },
    Symbol { offset: 555555695f80, size: 18, name: anon.d4a322b4920787fc62e45f72958bd74b.11.llvm.9287781225886421394 },
    Symbol { offset: 555555695f98, size: 18, name: anon.d4a322b4920787fc62e45f72958bd74b.12.llvm.9287781225886421394 },
    Symbol { offset: 5555555fe900, size: 1456, name: _ZN67_$LT$alloc..vec..Vec$LT$T$C$A$GT$$u20$as$u20$core..clone..Clone$GT$5clone17h23c69ca4f1038e31E },
    Symbol { offset: 5555556008b0, size: 1b62, name: _ZN67_$LT$alloc..vec..Vec$LT$T$C$A$GT$$u20$as$u20$core..clone..Clone$GT$5clone17ha43286c94b5cab7fE },
    Symbol { offset: 555555600140, size: 50f, name: _ZN67_$LT$alloc..vec..Vec$LT$T$C$A$GT$$u20$as$u20$core..clone..Clone$GT$5clone17h5e17004e0548f8ebE },
    Symbol { offset: 5555555ffd60, size: 3d3, name: _ZN67_$LT$alloc..vec..Vec$LT$T$C$A$GT$$u20$as$u20$core..clone..Clone$GT$5clone17h51fb627fabe15380E },
    Symbol { offset: 555555600650, size: 256, name: _ZN67_$LT$alloc..vec..Vec$LT$T$C$A$GT$$u20$as$u20$core..clone..Clone$GT$5clone17h8868c5f161859bd1E },
    Symbol { offset: 555555602420, size: 45, name: _ZN70_$LT$alloc..vec..Vec$LT$T$C$A$GT$$u20$as$u20$core..ops..drop..Drop$GT$4drop17h1f851433c7e22dccE },
    Symbol { offset: 555555602470, size: 45, name: _ZN70_$LT$alloc..vec..Vec$LT$T$C$A$GT$$u20$as$u20$core..ops..drop..Drop$GT$4drop17h8b71898ced585431E },
    Symbol { offset: 5555556024c0, size: 152, name: _ZN97_$LT$alloc..vec..Vec$LT$T$C$A$GT$$u20$as$u20$alloc..vec..spec_extend..SpecExtend$LT$T$C$I$GT$$GT$11spec_extend17hfe72fda6d1cd0c1eE },
    Symbol { offset: 555555602620, size: 36c, name: _ZN98_$LT$alloc..vec..Vec$LT$T$GT$$u20$as$u20$alloc..vec..spec_from_iter..SpecFromIter$LT$T$C$I$GT$$GT$9from_iter17h07e1f115e629c201E },
    Symbol { offset: 555555602990, size: 16b, name: _ZN98_$LT$alloc..vec..Vec$LT$T$GT$$u20$as$u20$alloc..vec..spec_from_iter..SpecFromIter$LT$T$C$I$GT$$GT$9from_iter17h0bccfd6a24cc4aafE },
    Symbol { offset: 555555602b00, size: 281, name: _ZN98_$LT$alloc..vec..Vec$LT$T$GT$$u20$as$u20$alloc..vec..spec_from_iter..SpecFromIter$LT$T$C$I$GT$$GT$9from_iter17h1ce18dc3bf54f946E },
    Symbol { offset: 555555602d90, size: 197, name: _ZN98_$LT$alloc..vec..Vec$LT$T$GT$$u20$as$u20$alloc..vec..spec_from_iter..SpecFromIter$LT$T$C$I$GT$$GT$9from_iter17h1fb5819f8c52aa1aE },
    Symbol { offset: 555555602f30, size: 2cb, name: _ZN98_$LT$alloc..vec..Vec$LT$T$GT$$u20$as$u20$alloc..vec..spec_from_iter..SpecFromIter$LT$T$C$I$GT$$GT$9from_iter17h279ceaba4d72b8edE },
    Symbol { offset: 555555603200, size: 280, name: _ZN98_$LT$alloc..vec..Vec$LT$T$GT$$u20$as$u20$alloc..vec..spec_from_iter..SpecFromIter$LT$T$C$I$GT$$GT$9from_iter17h27efbc7335f02e65E },
    Symbol { offset: 555555603480, size: 17c, name: _ZN98_$LT$alloc..vec..Vec$LT$T$GT$$u20$as$u20$alloc..vec..spec_from_iter..SpecFromIter$LT$T$C$I$GT$$GT$9from_iter17h2a152cdbce88b1d6E },
    Symbol { offset: 555555603600, size: 356, name: _ZN98_$LT$alloc..vec..Vec$LT$T$GT$$u20$as$u20$alloc..vec..spec_from_iter..SpecFromIter$LT$T$C$I$GT$$GT$9from_iter17h2b1cb7b5fd902d58E },
    Symbol { offset: 555555603960, size: 19d, name: _ZN98_$LT$alloc..vec..Vec$LT$T$GT$$u20$as$u20$alloc..vec..spec_from_iter..SpecFromIter$LT$T$C$I$GT$$GT$9from_iter17h3311ca6d51374a22E },
    Symbol { offset: 555555603b00, size: 10d, name: _ZN98_$LT$alloc..vec..Vec$LT$T$GT$$u20$as$u20$alloc..vec..spec_from_iter..SpecFromIter$LT$T$C$I$GT$$GT$9from_iter17h33416e5463343089E },
    Symbol { offset: 555555603c10, size: d7, name: _ZN98_$LT$alloc..vec..Vec$LT$T$GT$$u20$as$u20$alloc..vec..spec_from_iter..SpecFromIter$LT$T$C$I$GT$$GT$9from_iter17h3c5d5b0a2a27d3e7E },
    Symbol { offset: 555555603cf0, size: 22b, name: _ZN98_$LT$alloc..vec..Vec$LT$T$GT$$u20$as$u20$alloc..vec..spec_from_iter..SpecFromIter$LT$T$C$I$GT$$GT$9from_iter17h42eb036bda0aab19E },
    Symbol { offset: 555555603f20, size: 173, name: _ZN98_$LT$alloc..vec..Vec$LT$T$GT$$u20$as$u20$alloc..vec..spec_from_iter..SpecFromIter$LT$T$C$I$GT$$GT$9from_iter17h48ce9644027056fdE },
    Symbol { offset: 5555556040a0, size: 3b6, name: _ZN98_$LT$alloc..vec..Vec$LT$T$GT$$u20$as$u20$alloc..vec..spec_from_iter..SpecFromIter$LT$T$C$I$GT$$GT$9from_iter17h54826a4400ceecacE },
    Symbol { offset: 555555604460, size: 23b, name: _ZN98_$LT$alloc..vec..Vec$LT$T$GT$$u20$as$u20$alloc..vec..spec_from_iter..SpecFromIter$LT$T$C$I$GT$$GT$9from_iter17h648bc0c9e3b18a1bE },
    Symbol { offset: 5555556046a0, size: 17c, name: _ZN98_$LT$alloc..vec..Vec$LT$T$GT$$u20$as$u20$alloc..vec..spec_from_iter..SpecFromIter$LT$T$C$I$GT$$GT$9from_iter17h715a16c9ff28436cE },
    Symbol { offset: 555555604820, size: 3b1, name: _ZN98_$LT$alloc..vec..Vec$LT$T$GT$$u20$as$u20$alloc..vec..spec_from_iter..SpecFromIter$LT$T$C$I$GT$$GT$9from_iter17h8fbf57817cd0a728E },
    Symbol { offset: 555555604be0, size: f8, name: _ZN98_$LT$alloc..vec..Vec$LT$T$GT$$u20$as$u20$alloc..vec..spec_from_iter..SpecFromIter$LT$T$C$I$GT$$GT$9from_iter17h9453f07f3a04c1a1E },
    Symbol { offset: 555555604ce0, size: 324, name: _ZN98_$LT$alloc..vec..Vec$LT$T$GT$$u20$as$u20$alloc..vec..spec_from_iter..SpecFromIter$LT$T$C$I$GT$$GT$9from_iter17h950026fd0643c9f7E },
    Symbol { offset: 555555605010, size: 173, name: _ZN98_$LT$alloc..vec..Vec$LT$T$GT$$u20$as$u20$alloc..vec..spec_from_iter..SpecFromIter$LT$T$C$I$GT$$GT$9from_iter17h9b0167aa93defc05E },
    Symbol { offset: 555555605190, size: f8, name: _ZN98_$LT$alloc..vec..Vec$LT$T$GT$$u20$as$u20$alloc..vec..spec_from_iter..SpecFromIter$LT$T$C$I$GT$$GT$9from_iter17h9e1ae96353454dbfE },
    Symbol { offset: 555555605290, size: 297, name: _ZN98_$LT$alloc..vec..Vec$LT$T$GT$$u20$as$u20$alloc..vec..spec_from_iter..SpecFromIter$LT$T$C$I$GT$$GT$9from_iter17ha13ad37d9c2c8832E },
    Symbol { offset: 555555605530, size: 22b, name: _ZN98_$LT$alloc..vec..Vec$LT$T$GT$$u20$as$u20$alloc..vec..spec_from_iter..SpecFromIter$LT$T$C$I$GT$$GT$9from_iter17ha6e8e1ea49606146E },
    Symbol { offset: 555555605760, size: 289, name: _ZN98_$LT$alloc..vec..Vec$LT$T$GT$$u20$as$u20$alloc..vec..spec_from_iter..SpecFromIter$LT$T$C$I$GT$$GT$9from_iter17hae0a9647a75c4a21E },
    Symbol { offset: 5555556059f0, size: 28d, name: _ZN98_$LT$alloc..vec..Vec$LT$T$GT$$u20$as$u20$alloc..vec..spec_from_iter..SpecFromIter$LT$T$C$I$GT$$GT$9from_iter17hcac362a1e5cd1d44E },
    Symbol { offset: 555555605c80, size: 244, name: _ZN98_$LT$alloc..vec..Vec$LT$T$GT$$u20$as$u20$alloc..vec..spec_from_iter..SpecFromIter$LT$T$C$I$GT$$GT$9from_iter17hcaca5065ca85595bE },
    Symbol { offset: 555555605ed0, size: 590, name: _ZN98_$LT$alloc..vec..Vec$LT$T$GT$$u20$as$u20$alloc..vec..spec_from_iter..SpecFromIter$LT$T$C$I$GT$$GT$9from_iter17hd4d8cd16893aff2bE },
    Symbol { offset: 555555606460, size: 1bb, name: _ZN98_$LT$alloc..vec..Vec$LT$T$GT$$u20$as$u20$alloc..vec..spec_from_iter..SpecFromIter$LT$T$C$I$GT$$GT$9from_iter17hd738df835cbfcf60E },
    Symbol { offset: 555555606620, size: 1c7, name: _ZN98_$LT$alloc..vec..Vec$LT$T$GT$$u20$as$u20$alloc..vec..spec_from_iter..SpecFromIter$LT$T$C$I$GT$$GT$9from_iter17hdefa445535e7be71E },
    Symbol { offset: 5555556067f0, size: 866, name: _ZN98_$LT$alloc..vec..Vec$LT$T$GT$$u20$as$u20$alloc..vec..spec_from_iter..SpecFromIter$LT$T$C$I$GT$$GT$9from_iter17hfb74e2cb6cf4ed61E },
    Symbol { offset: 55555559389e, size: 77, name: anon.d4a322b4920787fc62e45f72958bd74b.8.llvm.9287781225886421394 },
    Symbol { offset: 555555593915, size: 75, name: anon.d4a322b4920787fc62e45f72958bd74b.10.llvm.9287781225886421394 },
    Symbol { offset: 555555603200, size: 280, name: _ZN98_$LT$alloc..vec..Vec$LT$T$GT$$u20$as$u20$alloc..vec..spec_from_iter..SpecFromIter$LT$T$C$I$GT$$GT$9from_iter17h67ba1e2f566ad6edE },
    Symbol { offset: 555555603200, size: 280, name: _ZN98_$LT$alloc..vec..Vec$LT$T$GT$$u20$as$u20$alloc..vec..spec_from_iter..SpecFromIter$LT$T$C$I$GT$$GT$9from_iter17h81b22bb0c1b98643E },
    Symbol { offset: 555555607240, size: 82, name: _ZN4core3ptr127drop_in_place$LT$alloc..vec..Vec$LT$$LP$$LP$usize$C$alloc..string..String$RP$$C$$RF$clap_builder..builder..arg..Arg$RP$$GT$$GT$17hc7535cddb307d0cbE },
    Symbol { offset: 5555556072d0, size: 82, name: _ZN4core3ptr150drop_in_place$LT$alloc..vec..Vec$LT$$LP$usize$C$clap_builder..builder..styled_str..StyledStr$C$$RF$clap_builder..builder..command..Command$RP$$GT$$GT$17h38509fed98cbb4fcE },
    Symbol { offset: 555555607360, size: 18, name: _ZN4core3ptr42drop_in_place$LT$alloc..string..String$GT$17hd6d205257de6c30dE },
    Symbol { offset: 555555607380, size: 113, name: _ZN4core3ptr51drop_in_place$LT$clap_builder..mkeymap..MKeyMap$GT$17h8cdf7013464c0061E },
    Symbol { offset: 5555556074a0, size: 120, name: _ZN4core3ptr59drop_in_place$LT$clap_builder..builder..ext..Extensions$GT$17h6250317f4a1980b8E },
    Symbol { offset: 5555556075c0, size: 41b, name: _ZN4core3ptr60drop_in_place$LT$clap_builder..builder..command..Command$GT$17h085a707d824bb3aeE },
    Symbol { offset: 555555607bd0, size: c5, name: _ZN4core3ptr83drop_in_place$LT$alloc..vec..Vec$LT$clap_builder..builder..command..Command$GT$$GT$17hbcc6be51da7f59c0E },
    Symbol { offset: 555555607ca0, size: bc, name: _ZN4core3ptr86drop_in_place$LT$alloc..vec..Vec$LT$clap_builder..builder..arg_group..ArgGroup$GT$$GT$17h73eac3c678916fccE },
    Symbol { offset: 555555607e10, size: 6a, name: _ZN4core3ptr97drop_in_place$LT$core..option..Option$LT$clap_builder..builder..value_parser..ValueParser$GT$$GT$17h896cf89adc29d282E },
    Symbol { offset: 5555556079e0, size: 82, name: _ZN4core3ptr65drop_in_place$LT$alloc..vec..Vec$LT$alloc..string..String$GT$$GT$17he3fc526f4bc110e4E },
    Symbol { offset: 555555607a70, size: 87, name: _ZN4core3ptr73drop_in_place$LT$alloc..vec..Vec$LT$alloc..borrow..Cow$LT$str$GT$$GT$$GT$17ha20b34a2bd4c5b64E },
    Symbol { offset: 555555607b00, size: c6, name: _ZN4core3ptr75drop_in_place$LT$alloc..vec..Vec$LT$clap_builder..builder..arg..Arg$GT$$GT$17hce0657f7eb2bad80E },
    Symbol { offset: 555555607d60, size: a2, name: _ZN4core3ptr96drop_in_place$LT$alloc..vec..Vec$LT$clap_builder..builder..possible_value..PossibleValue$GT$$GT$17h2da977e3cad7124cE },
    Symbol { offset: 555555607e80, size: 15, name: _ZN53_$LT$core..fmt..Error$u20$as$u20$core..fmt..Debug$GT$3fmt17h6736176c8e29474eE },
    Symbol { offset: 555555607ea0, size: 123, name: _ZN58_$LT$alloc..string..String$u20$as$u20$core..fmt..Write$GT$10write_char17h13db4e3872bba170E },
    Symbol { offset: 555555607fd0, size: 67, name: _ZN58_$LT$alloc..string..String$u20$as$u20$core..fmt..Write$GT$9write_str17h3471f8bf4fd2c6acE },
    Symbol { offset: 555555608040, size: 74f, name: _ZN5alloc3str21_$LT$impl$u20$str$GT$7replace17h157b3cc8d8fe3cbeE },
    Symbol { offset: 555555608790, size: 14, name: _ZN60_$LT$alloc..string..String$u20$as$u20$core..fmt..Display$GT$3fmt17h253a895d4ea9e2d1E },
    Symbol { offset: 5555556087b0, size: 147, name: _ZN62_$LT$anstyle..style..Style$u20$as$u20$core..cmp..PartialEq$GT$2eq17hb5d51874be968b0cE },
    Symbol { offset: 555555608900, size: 10, name: _ZN75_$LT$$RF$mut$u20$W$u20$as$u20$core..fmt..Write..write_fmt..SpecWriteFmt$GT$14spec_write_fmt17h39cb919f9ef5719bE },
    Symbol { offset: 555555608910, size: 1d5, name: _ZN81_$LT$core..str..pattern..CharSearcher$u20$as$u20$core..str..pattern..Searcher$GT$10next_match17h06e5f2dd80a2a38eE },
    Symbol { offset: 55555560a740, size: 1e63, name: _ZN12clap_builder6output13help_template12HelpTemplate14write_all_args17h9702788f6e2a160cE },
    Symbol { offset: 55555560a5b0, size: 182, name: _ZN12clap_builder6output13help_template12HelpTemplate16write_after_help17h32b0abb6e417d564E },
    Symbol { offset: 55555560a440, size: 16f, name: _ZN12clap_builder6output13help_template12HelpTemplate17write_before_help17ha2e332b189bd2792E },
    Symbol { offset: 555555610ac0, size: 342, name: _ZN12clap_builder6output13help_template15option_sort_key17h066425bbffe895d6E },
    Symbol { offset: 55555560c5b0, size: 1039, name: _ZN12clap_builder6output13help_template12HelpTemplate10write_args17h59bb7adca82eac97E },
    Symbol { offset: 555555610a90, size: 2d, name: _ZN12clap_builder6output13help_template19positional_sort_key17hf7d00a981fbcb297E },
    Symbol { offset: 55555560a260, size: 1d3, name: _ZN12clap_builder6output13help_template12HelpTemplate11write_about17h7892c249829bbe13E },
    Symbol { offset: 55555560f770, size: 1047, name: _ZN12clap_builder6output13help_template12HelpTemplate17write_subcommands17h0c98860bacb53c41E },
    Symbol { offset: 5555555a0fc8, size: 4, name: .Lanon.f89ea7ba07072980603967822c8f93a2.47 },
    Symbol { offset: 5555555a1198, size: 8, name: .Lanon.f89ea7ba07072980603967822c8f93a2.52 },
    Symbol { offset: 55555560f250, size: 520, name: _ZN12clap_builder6output13help_template12HelpTemplate22write_flat_subcommands17h63ce2a271d27d3f1E },
    Symbol { offset: 55555560e350, size: ef9, name: _ZN12clap_builder6output13help_template12HelpTemplate9spec_vals17hbe3b82ee164f6350E },
    Symbol { offset: 5555555a08c0, size: 10, name: .Lanon.f89ea7ba07072980603967822c8f93a2.72 },
    Symbol { offset: 55555560d5f0, size: d55, name: _ZN12clap_builder6output13help_template12HelpTemplate4help17hf93e88225d03a8d8E },
    Symbol { offset: 5555555a08e0, size: 10, name: .Lanon.f89ea7ba07072980603967822c8f93a2.75 },
    Symbol { offset: 5555556107c0, size: 2ce, name: _ZN12clap_builder6output13help_template12HelpTemplate12sc_spec_vals17h2c99d64dacfde763E },
    Symbol { offset: 555555608e00, size: 331, name: _ZN12clap_builder6output13help_template12HelpTemplate3new17h3c9d59496b1cc98aE },
    Symbol { offset: 555555608af0, size: 309, name: _ZN12clap_builder6output13help_template8AutoHelp10write_help17h717b0038194cd7bbE },
    Symbol { offset: 555555609140, size: 1120, name: _ZN12clap_builder6output13help_template12HelpTemplate20write_templated_help17h01fabdc306235d41E },
    Symbol { offset: 555555593fba, size: 7, name: anon.f89ea7ba07072980603967822c8f93a2.109.llvm.9246867484639433851 },
    Symbol { offset: 555555610e10, size: 16e, name: _ZN12clap_builder6output13help_template9parse_env17hbfc24dfd04889cadE.llvm.9246867484639433851 },
    Symbol { offset: 555555593fc1, size: 5, name: anon.f89ea7ba07072980603967822c8f93a2.110.llvm.9246867484639433851 },
    Symbol { offset: 555555593d5e, size: 62, name: anon.f89ea7ba07072980603967822c8f93a2.22.llvm.9246867484639433851 },
    Symbol { offset: 555555610f80, size: bb, name: _ZN49_$LT$T$u20$as$u20$alloc..string..SpecToString$GT$14spec_to_string17h0d40481fe5d332c6E },
    Symbol { offset: 555555611190, size: 5f, name: _ZN4core3ptr100drop_in_place$LT$alloc..boxed..Box$LT$clap_builder..parser..matches..arg_matches..SubCommand$GT$$GT$17hb5564219b0f6b0b1E },
    Symbol { offset: 555555611e20, size: 149, name: _ZN4core3ptr75drop_in_place$LT$clap_builder..parser..matches..arg_matches..ArgMatches$GT$17h2c968ea20157ab57E },
    Symbol { offset: 5555556111f0, size: 5f, name: _ZN4core3ptr130drop_in_place$LT$core..option..Option$LT$$LP$alloc..string..String$C$core..option..Option$LT$alloc..string..String$GT$$RP$$GT$$GT$17h34adca02ae595b5aE },
    Symbol { offset: 555555611270, size: fd, name: _ZN4core3ptr47drop_in_place$LT$clap_builder..error..Error$GT$17h446c1ada455939ceE },
    Symbol { offset: 555555611370, size: 113, name: _ZN4core3ptr51drop_in_place$LT$clap_builder..mkeymap..MKeyMap$GT$17h8cdf7013464c0061E },
    Symbol { offset: 555555611490, size: 120, name: _ZN4core3ptr59drop_in_place$LT$clap_builder..builder..ext..Extensions$GT$17h6250317f4a1980b8E },
    Symbol { offset: 5555556115b0, size: 41b, name: _ZN4core3ptr60drop_in_place$LT$clap_builder..builder..command..Command$GT$17h085a707d824bb3aeE },
    Symbol { offset: 555555611f70, size: c5, name: _ZN4core3ptr83drop_in_place$LT$alloc..vec..Vec$LT$clap_builder..builder..command..Command$GT$$GT$17hbcc6be51da7f59c0E },
    Symbol { offset: 555555612040, size: bc, name: _ZN4core3ptr86drop_in_place$LT$alloc..vec..Vec$LT$clap_builder..builder..arg_group..ArgGroup$GT$$GT$17h73eac3c678916fccE },
    Symbol { offset: 5555556122d0, size: 6a, name: _ZN4core3ptr97drop_in_place$LT$core..option..Option$LT$clap_builder..builder..value_parser..ValueParser$GT$$GT$17h896cf89adc29d282E },
    Symbol { offset: 5555556119d0, size: ac, name: _ZN4core3ptr62drop_in_place$LT$clap_builder..parser..parser..ParseResult$GT$17hb6f2c975d7c371b2E },
    Symbol { offset: 555555611a80, size: 86, name: _ZN4core3ptr63drop_in_place$LT$clap_builder..parser..validator..Validator$GT$17h997bffff087539beE },
    Symbol { offset: 555555611b10, size: 82, name: _ZN4core3ptr65drop_in_place$LT$alloc..vec..Vec$LT$alloc..string..String$GT$$GT$17he3fc526f4bc110e4E },
    Symbol { offset: 555555611ba0, size: a6, name: _ZN4core3ptr66drop_in_place$LT$clap_builder..parser..arg_matcher..ArgMatcher$GT$17h5f3f5a181657582cE },
    Symbol { offset: 555555612100, size: 83, name: _ZN4core3ptr89drop_in_place$LT$core..option..Option$LT$clap_builder..parser..parser..PendingArg$GT$$GT$17hcdb996485852528aE },
    Symbol { offset: 555555611c50, size: 61, name: _ZN4core3ptr69drop_in_place$LT$clap_builder..builder..value_parser..ValueParser$GT$17h13633bd068aa22d1E },
    Symbol { offset: 555555611cc0, size: 82, name: _ZN4core3ptr70drop_in_place$LT$alloc..vec..Vec$LT$std..ffi..os_str..OsString$GT$$GT$17h1d058bcecc253de2E },
    Symbol { offset: 555555611d50, size: c6, name: _ZN4core3ptr75drop_in_place$LT$alloc..vec..Vec$LT$clap_builder..builder..arg..Arg$GT$$GT$17hce0657f7eb2bad80E },
    Symbol { offset: 555555612190, size: 86, name: _ZN4core3ptr92drop_in_place$LT$clap_builder..util..graph..ChildGraph$LT$clap_builder..util..id..Id$GT$$GT$17haac2a21f7fa86a74E },
    Symbol { offset: 555555612220, size: a2, name: _ZN4core3ptr96drop_in_place$LT$alloc..vec..Vec$LT$clap_builder..builder..possible_value..PossibleValue$GT$$GT$17h2da977e3cad7124cE },
    Symbol { offset: 555555612340, size: bf, name: _ZN50_$LT$u8$u20$as$u20$alloc..string..SpecToString$GT$14spec_to_string17h8aec06541802d0b2E },
    Symbol { offset: 5555556125c0, size: 81, name: _ZN87_$LT$T$u20$as$u20$alloc..slice..$LT$impl$u20$$u5b$T$u5d$$GT$..to_vec_in..ConvertVec$GT$6to_vec17hc75bfb0cb94321b9E },
    Symbol { offset: 555555617ff0, size: 2cf, name: _ZN12clap_builder6parser6parser6Parser19possible_subcommand17h8ae1cee5ed5fb513E },
    Symbol { offset: 555555619b60, size: 562, name: _ZN12clap_builder6parser6parser6Parser15parse_opt_value17h622b07afafceaee3E },
    Symbol { offset: 55555561a630, size: 1a06, name: _ZN12clap_builder6parser6parser6Parser5react17hcd7d810db49a86f9E },
    Symbol { offset: 55555561a3a0, size: 282, name: _ZN12clap_builder6parser6parser6Parser15resolve_pending17h8a0089b4876b3ed4E },
    Symbol { offset: 5555556182c0, size: 189a, name: _ZN12clap_builder6parser6parser6Parser21parse_help_subcommand17hf88274c86424eb75E },
    Symbol { offset: 55555561c040, size: 333, name: _ZN12clap_builder6parser6parser6Parser7add_env17hca5353507dec6e66E },
    Symbol { offset: 55555561c380, size: 5d9, name: _ZN12clap_builder6parser6parser6Parser12add_defaults17h2152d0f7b689d836E },
    Symbol { offset: 55555561a0d0, size: 2c8, name: _ZN12clap_builder6parser6parser6Parser15push_arg_values17h44f5f3849af7e34eE },
    Symbol { offset: 55555561c960, size: 5b4, name: _ZN12clap_builder6parser6parser6Parser16start_custom_arg17hde52aed8d2243bbbE },
    Symbol { offset: 5555555a125a, size: 1, name: .Lanon.d00062142d192b4fbf027233e1350b17.13 },
    Symbol { offset: 5555555a1010, size: 4, name: .Lanon.d00062142d192b4fbf027233e1350b17.46 },
    Symbol { offset: 555555696550, size: 30, name: anon.d00062142d192b4fbf027233e1350b17.0.llvm.1496091775482650854 },
    Symbol { offset: 55555559418c, size: 37, name: anon.d00062142d192b4fbf027233e1350b17.1.llvm.1496091775482650854 },
    Symbol { offset: 5555556965b0, size: 20, name: anon.d00062142d192b4fbf027233e1350b17.6.llvm.1496091775482650854 },
    Symbol { offset: 555555696580, size: 18, name: anon.d00062142d192b4fbf027233e1350b17.3.llvm.1496091775482650854 },
    Symbol { offset: 5555556965e8, size: 18, name: anon.d00062142d192b4fbf027233e1350b17.12.llvm.1496091775482650854 },
    Symbol { offset: 555555611040, size: 147, name: _ZN4core3ops8function5impls79_$LT$impl$u20$core..ops..function..FnMut$LT$A$GT$$u20$for$u20$$RF$mut$u20$F$GT$8call_mut17hba21555b2bda6010E },
    Symbol { offset: 555555611250, size: 18, name: _ZN4core3ptr42drop_in_place$LT$alloc..string..String$GT$17hd6d205257de6c30dE.llvm.1496091775482650854 },
    Symbol { offset: 555555612400, size: 15, name: _ZN53_$LT$core..fmt..Error$u20$as$u20$core..fmt..Debug$GT$3fmt17h6736176c8e29474eE.llvm.1496091775482650854 },
    Symbol { offset: 555555612420, size: 123, name: _ZN58_$LT$alloc..string..String$u20$as$u20$core..fmt..Write$GT$10write_char17h13db4e3872bba170E.llvm.1496091775482650854 },
    Symbol { offset: 555555612550, size: 67, name: _ZN58_$LT$alloc..string..String$u20$as$u20$core..fmt..Write$GT$9write_str17h3471f8bf4fd2c6acE.llvm.1496091775482650854 },
    Symbol { offset: 555555612650, size: 599a, name: _ZN12clap_builder6parser6parser6Parser16get_matches_with17h88a32d59bec855aaE },
    Symbol { offset: 5555555941c3, size: 76, name: anon.d00062142d192b4fbf027233e1350b17.2.llvm.1496091775482650854 },
    Symbol { offset: 5555555942c1, size: 75, name: anon.d00062142d192b4fbf027233e1350b17.11.llvm.1496091775482650854 },
    Symbol { offset: 55555561cf20, size: 5f, name: _ZN4core3ptr100drop_in_place$LT$alloc..boxed..Box$LT$clap_builder..parser..matches..arg_matches..SubCommand$GT$$GT$17hb5564219b0f6b0b1E },
    Symbol { offset: 55555561df70, size: 149, name: _ZN4core3ptr75drop_in_place$LT$clap_builder..parser..matches..arg_matches..ArgMatches$GT$17h2c968ea20157ab57E },
    Symbol { offset: 55555561cf80, size: 82, name: _ZN4core3ptr38drop_in_place$LT$clap_lex..RawArgs$GT$17h229ab5d5cfa62f65E },
    Symbol { offset: 55555561d010, size: fd, name: _ZN4core3ptr47drop_in_place$LT$clap_builder..error..Error$GT$17h446c1ada455939ceE },
    Symbol { offset: 55555561d110, size: 113, name: _ZN4core3ptr51drop_in_place$LT$clap_builder..mkeymap..MKeyMap$GT$17h8cdf7013464c0061E },
    Symbol { offset: 55555561d230, size: 632, name: _ZN4core3ptr52drop_in_place$LT$clap_builder..builder..arg..Arg$GT$17he9c0a80b4a99c6b8E },
    Symbol { offset: 55555561d870, size: 120, name: _ZN4core3ptr59drop_in_place$LT$clap_builder..builder..ext..Extensions$GT$17h6250317f4a1980b8E },
    Symbol { offset: 55555561d990, size: 41b, name: _ZN4core3ptr60drop_in_place$LT$clap_builder..builder..command..Command$GT$17h085a707d824bb3aeE },
    Symbol { offset: 55555561e0c0, size: c5, name: _ZN4core3ptr83drop_in_place$LT$alloc..vec..Vec$LT$clap_builder..builder..command..Command$GT$$GT$17hbcc6be51da7f59c0E },
    Symbol { offset: 55555561e190, size: bc, name: _ZN4core3ptr86drop_in_place$LT$alloc..vec..Vec$LT$clap_builder..builder..arg_group..ArgGroup$GT$$GT$17h73eac3c678916fccE },
    Symbol { offset: 55555561e370, size: 6a, name: _ZN4core3ptr97drop_in_place$LT$core..option..Option$LT$clap_builder..builder..value_parser..ValueParser$GT$$GT$17h896cf89adc29d282E },
    Symbol { offset: 55555561ddb0, size: 5a, name: _ZN4core3ptr63drop_in_place$LT$clap_builder..builder..arg_group..ArgGroup$GT$17he8d80217f2cf512cE },
    Symbol { offset: 55555561de10, size: 82, name: _ZN4core3ptr65drop_in_place$LT$alloc..vec..Vec$LT$alloc..string..String$GT$$GT$17he3fc526f4bc110e4E },
    Symbol { offset: 55555561dec0, size: a6, name: _ZN4core3ptr66drop_in_place$LT$clap_builder..parser..arg_matcher..ArgMatcher$GT$17h5f3f5a181657582cE },
    Symbol { offset: 55555561e250, size: 83, name: _ZN4core3ptr89drop_in_place$LT$core..option..Option$LT$clap_builder..parser..parser..PendingArg$GT$$GT$17hcdb996485852528aE },
    Symbol { offset: 55555561e3e0, size: 15, name: _ZN53_$LT$core..fmt..Error$u20$as$u20$core..fmt..Debug$GT$3fmt17h6736176c8e29474eE },
    Symbol { offset: 55555561e400, size: 123, name: _ZN58_$LT$alloc..string..String$u20$as$u20$core..fmt..Write$GT$10write_char17h13db4e3872bba170E },
    Symbol { offset: 55555561e530, size: 67, name: _ZN58_$LT$alloc..string..String$u20$as$u20$core..fmt..Write$GT$9write_str17h3471f8bf4fd2c6acE },
    Symbol { offset: 55555561e5a0, size: 14, name: _ZN60_$LT$alloc..string..String$u20$as$u20$core..fmt..Display$GT$3fmt17h253a895d4ea9e2d1E },
    Symbol { offset: 55555561e6b0, size: 503, name: _ZN12clap_builder7builder7command7Command11subcommands17hc800ef26c0ec95d6E },
    Symbol { offset: 55555561f140, size: 132, name: _ZN12clap_builder7builder7command7Command5about17h803b57315e799497E },
    Symbol { offset: 5555555a0f10, size: 20, name: .Lanon.469e0eff00662c4a4ecd91a9c53c812e.51 },
    Symbol { offset: 5555555a08c0, size: 10, name: .Lanon.469e0eff00662c4a4ecd91a9c53c812e.71 },
    Symbol { offset: 55555561dea0, size: 18, name: _ZN4core3ptr65drop_in_place$LT$clap_builder..builder..styled_str..StyledStr$GT$17hdf2180b6513b2eb7E.llvm.8997612217501246831 },
    Symbol { offset: 55555561e2e0, size: 86, name: _ZN4core3ptr92drop_in_place$LT$clap_builder..util..graph..ChildGraph$LT$clap_builder..util..id..Id$GT$$GT$17haac2a21f7fa86a74E.llvm.8997612217501246831 },
    Symbol { offset: 55555561e5c0, size: e8, name: _ZN12clap_builder7builder7command7Command12arg_internal17h512cc4d4d4a423faE },
    Symbol { offset: 55555561f780, size: 50, name: _ZN12clap_builder7builder7command7Command16_build_recursive17h11c40d53843a685fE.llvm.8997612217501246831 },
    Symbol { offset: 555555624d90, size: 8f2, name: _ZN12clap_builder7builder7command7Command25_build_bin_names_internal17h50c335b6aa750a7fE.llvm.8997612217501246831 },
    Symbol { offset: 55555561ebc0, size: 449, name: _ZN12clap_builder7builder7command7Command15get_matches_mut17ha4fe3c5a9066014aE },
    Symbol { offset: 55555561f280, size: 4fb, name: _ZN12clap_builder7builder7command7Command9_do_parse17hc3ae357edb16da8bE },
    Symbol { offset: 55555561f7d0, size: 4d7b, name: _ZN12clap_builder7builder7command7Command11_build_self17h4e8b67606fdcc2d3E },
    Symbol { offset: 555555696a50, size: 30, name: anon.469e0eff00662c4a4ecd91a9c53c812e.54.llvm.8997612217501246831 },
    Symbol { offset: 55555561f010, size: 124, name: _ZN12clap_builder7builder7command7Command13render_usage_17h9100cf0608d2f9baE },
    Symbol { offset: 555555625e80, size: 37c, name: _ZN12clap_builder7builder7command7Command20unroll_args_in_group17he61d925b15974e13E },
    Symbol { offset: 5555555a102c, size: 4, name: anon.469e0eff00662c4a4ecd91a9c53c812e.42.llvm.8997612217501246831 },
    Symbol { offset: 555555624550, size: 832, name: _ZN12clap_builder7builder7command7Command17_build_subcommand17h1141e76dc641b0d9E },
    Symbol { offset: 555555594786, size: 1, name: anon.469e0eff00662c4a4ecd91a9c53c812e.28.llvm.8997612217501246831 },
    Symbol { offset: 555555625690, size: 376, name: _ZN12clap_builder7builder7command7Command12format_group17hdef175c54285ef87E },
    Symbol { offset: 555555625a10, size: 7e, name: _ZN12clap_builder7builder7command7Command4find17hcf73902a2814c027E },
    Symbol { offset: 555555625a90, size: 3e8, name: _ZN12clap_builder7builder7command7Command14required_graph17h4318e3dda4373ddfE },
    Symbol { offset: 555555696ac8, size: 18, name: anon.469e0eff00662c4a4ecd91a9c53c812e.63.llvm.8997612217501246831 },
    Symbol { offset: 5555555949bd, size: 63, name: anon.469e0eff00662c4a4ecd91a9c53c812e.64.llvm.8997612217501246831 },
    Symbol { offset: 555555626200, size: 5d5, name: _ZN12clap_builder7builder7command7Command19unroll_arg_requires17h5c373a35215ac5a8E },
    Symbol { offset: 5555556267e0, size: 7c, name: _ZN12clap_builder7builder7command7Command17find_short_subcmd17h25b0c38e61df339cE },
    Symbol { offset: 555555626860, size: 13e, name: _ZN12clap_builder7builder7command7Command16find_long_subcmd17h76503875e0213f26E },
    Symbol { offset: 5555556269a0, size: 182, name: _ZN12clap_builder7builder7command7Command14write_help_err17he34d8f3ff6a88d97E },
    Symbol { offset: 555555626b30, size: 93, name: _ZN121_$LT$clap_builder..builder..command..Command$u20$as$u20$core..ops..index..Index$LT$$RF$clap_builder..util..id..Id$GT$$GT$5index17h47065d51b04e99b2E },
    Symbol { offset: 555555594714, size: 72, name: anon.469e0eff00662c4a4ecd91a9c53c812e.14.llvm.8997612217501246831 },
    Symbol { offset: 555555594859, size: 1, name: anon.469e0eff00662c4a4ecd91a9c53c812e.53.llvm.8997612217501246831 },
    Symbol { offset: 555555594950, size: 6d, name: anon.469e0eff00662c4a4ecd91a9c53c812e.62.llvm.8997612217501246831 },
    Symbol { offset: 555555594a20, size: 18, name: _ZN12clap_builder7builder7command7Command36get_external_subcommand_value_parser7DEFAULT17h6d5532420657ca91E },
    Symbol { offset: 5555555a08c0, size: 10, name: .Lanon.87cc830ffeafbd79495586486cec1a8d.21 },
    Symbol { offset: 555555626bd0, size: 1fe, name: _ZN102_$LT$core..iter..adapters..map..Map$LT$I$C$F$GT$$u20$as$u20$core..iter..traits..iterator..Iterator$GT$4fold17h5ffb06cb1b58cb93E },
    Symbol { offset: 555555696b70, size: 30, name: anon.87cc830ffeafbd79495586486cec1a8d.0.llvm.8824339095754753228 },
    Symbol { offset: 555555594a38, size: 37, name: anon.87cc830ffeafbd79495586486cec1a8d.1.llvm.8824339095754753228 },
    Symbol { offset: 555555696bb8, size: 20, name: anon.87cc830ffeafbd79495586486cec1a8d.4.llvm.8824339095754753228 },
    Symbol { offset: 555555696ba0, size: 18, name: anon.87cc830ffeafbd79495586486cec1a8d.3.llvm.8824339095754753228 },
    Symbol { offset: 555555696c10, size: 18, name: anon.87cc830ffeafbd79495586486cec1a8d.20.llvm.8824339095754753228 },
    Symbol { offset: 555555626dd0, size: 30b, name: _ZN102_$LT$core..iter..adapters..map..Map$LT$I$C$F$GT$$u20$as$u20$core..iter..traits..iterator..Iterator$GT$4fold17ha8313adb2652adafE },
    Symbol { offset: 555555696bd8, size: 18, name: anon.87cc830ffeafbd79495586486cec1a8d.10.llvm.8824339095754753228 },
    Symbol { offset: 555555696bf0, size: 20, name: anon.87cc830ffeafbd79495586486cec1a8d.13.llvm.8824339095754753228 },
    Symbol { offset: 5555556270e0, size: 1cb, name: _ZN102_$LT$core..iter..adapters..map..Map$LT$I$C$F$GT$$u20$as$u20$core..iter..traits..iterator..Iterator$GT$8try_fold17h4a77fb9b79fea9c1E },
    Symbol { offset: 5555556272b0, size: 302, name: _ZN102_$LT$core..iter..adapters..map..Map$LT$I$C$F$GT$$u20$as$u20$core..iter..traits..iterator..Iterator$GT$8try_fold17h8e3e1943768dfe4dE },
    Symbol { offset: 5555556275c0, size: 23e, name: _ZN102_$LT$core..iter..adapters..map..Map$LT$I$C$F$GT$$u20$as$u20$core..iter..traits..iterator..Iterator$GT$8try_fold17hb1ebef5a1e940c4aE },
    Symbol { offset: 555555627800, size: 266, name: _ZN102_$LT$core..iter..adapters..map..Map$LT$I$C$F$GT$$u20$as$u20$core..iter..traits..iterator..Iterator$GT$8try_fold17hc12e0ef9cf781412E },
    Symbol { offset: 555555627a70, size: 18, name: _ZN4core3ptr42drop_in_place$LT$alloc..string..String$GT$17hd6d205257de6c30dE.llvm.8824339095754753228 },
    Symbol { offset: 555555627a90, size: 15, name: _ZN53_$LT$core..fmt..Error$u20$as$u20$core..fmt..Debug$GT$3fmt17h6736176c8e29474eE.llvm.8824339095754753228 },
    Symbol { offset: 555555627ab0, size: 123, name: _ZN58_$LT$alloc..string..String$u20$as$u20$core..fmt..Write$GT$10write_char17h13db4e3872bba170E.llvm.8824339095754753228 },
    Symbol { offset: 555555627be0, size: 67, name: _ZN58_$LT$alloc..string..String$u20$as$u20$core..fmt..Write$GT$9write_str17h3471f8bf4fd2c6acE.llvm.8824339095754753228 },
    Symbol { offset: 555555594a6f, size: 76, name: anon.87cc830ffeafbd79495586486cec1a8d.2.llvm.8824339095754753228 },
    Symbol { offset: 5555555a0c20, size: 10, name: anon.87cc830ffeafbd79495586486cec1a8d.6.llvm.8824339095754753228 },
    Symbol { offset: 555555594aea, size: 75, name: anon.87cc830ffeafbd79495586486cec1a8d.9.llvm.8824339095754753228 },
    Symbol { offset: 555555594b5f, size: 1, name: anon.87cc830ffeafbd79495586486cec1a8d.11.llvm.8824339095754753228 },
    Symbol { offset: 555555594b60, size: 1, name: anon.87cc830ffeafbd79495586486cec1a8d.12.llvm.8824339095754753228 },
    Symbol { offset: 555555594b61, size: 70, name: anon.87cc830ffeafbd79495586486cec1a8d.19.llvm.8824339095754753228 },
    Symbol { offset: 555555627c50, size: 50, name: _ZN102_$LT$core..iter..adapters..map..Map$LT$I$C$F$GT$$u20$as$u20$core..iter..traits..iterator..Iterator$GT$4next17hc99e45eb4aa0dd10E },
    Symbol { offset: 555555627ca0, size: 1e, name: _ZN102_$LT$core..iter..adapters..map..Map$LT$I$C$F$GT$$u20$as$u20$core..iter..traits..iterator..Iterator$GT$9size_hint17hbe23d1b7801e1121E },
    Symbol { offset: 555555627cc0, size: 18, name: _ZN4core3ptr238drop_in_place$LT$alloc..boxed..convert..$LT$impl$u20$core..convert..From$LT$alloc..string..String$GT$$u20$for$u20$alloc..boxed..Box$LT$dyn$u20$core..error..Error$u2b$core..marker..Send$u2b$core..marker..Sync$GT$$GT$..from..StringError$GT$17ha567625391c429f5E },
    Symbol { offset: 555555627ce0, size: 82, name: _ZN4core3ptr65drop_in_place$LT$alloc..vec..Vec$LT$alloc..string..String$GT$$GT$17he3fc526f4bc110e4E },
    Symbol { offset: 555555627d70, size: 92, name: _ZN4core4iter6traits8iterator8Iterator10advance_by17hb0c1f25ad55d3b9fE },
    Symbol { offset: 555555627e10, size: d5, name: _ZN4core4iter6traits8iterator8Iterator3nth17h35033fe758dd8e6eE },
    Symbol { offset: 555555627ef0, size: 3, name: _ZN4core5error5Error6source17h5cc713e931a4caa3E },
    Symbol { offset: 555555627f00, size: 1, name: _ZN4core5error5Error7provide17h381e4025c15a20e3E },
    Symbol { offset: 555555627f10, size: 1, name: _ZN4core5error5Error7provide17hd8c682db8e9516dbE },
    Symbol { offset: 555555627f20, size: 1, name: _ZN4core5error5Error7provide17hfc8cfc8cf2813c30E },
    Symbol { offset: 555555627f30, size: 15, name: _ZN53_$LT$core..fmt..Error$u20$as$u20$core..fmt..Debug$GT$3fmt17h6736176c8e29474eE },
    Symbol { offset: 555555627f50, size: 123, name: _ZN58_$LT$alloc..string..String$u20$as$u20$core..fmt..Write$GT$10write_char17h13db4e3872bba170E },
    Symbol { offset: 555555628080, size: 67, name: _ZN58_$LT$alloc..string..String$u20$as$u20$core..fmt..Write$GT$9write_str17h3471f8bf4fd2c6acE },
    Symbol { offset: 5555556280f0, size: 14, name: _ZN60_$LT$alloc..string..String$u20$as$u20$core..fmt..Display$GT$3fmt17h253a895d4ea9e2d1E },
    Symbol { offset: 555555628110, size: 43, name: _ZN68_$LT$core..num..error..ParseIntError$u20$as$u20$core..fmt..Debug$GT$3fmt17h9d974530281c97f3E },
    Symbol { offset: 5555555a1054, size: 4, name: .Lanon.6d9f56c789a1c27dce2f21341bb217c7.12 },
    Symbol { offset: 555555628160, size: 1d, name: _ZN70_$LT$core..num..error..ParseIntError$u20$as$u20$core..error..Error$GT$11description17hf7118da03d3f31b7E },
    Symbol { offset: 555555628180, size: 29, name: _ZN70_$LT$core..num..error..TryFromIntError$u20$as$u20$core..fmt..Debug$GT$3fmt17h1ec19825d3f66aafE },
    Symbol { offset: 5555556281b0, size: d, name: _ZN72_$LT$core..num..error..TryFromIntError$u20$as$u20$core..error..Error$GT$11description17h5edb59429c92c0edE },
    Symbol { offset: 555555629240, size: 104c, name: _ZN140_$LT$clap_builder..builder..value_parser..RangedI64ValueParser$LT$T$GT$$u20$as$u20$clap_builder..builder..value_parser..TypedValueParser$GT$9parse_ref17hd23fe48c878ff011E },
    Symbol { offset: 5555555a11f0, size: 8, name: .Lanon.6d9f56c789a1c27dce2f21341bb217c7.37 },
    Symbol { offset: 5555555a1218, size: 8, name: .Lanon.6d9f56c789a1c27dce2f21341bb217c7.39 },
    Symbol { offset: 555555696d18, size: 40, name: anon.6d9f56c789a1c27dce2f21341bb217c7.23.llvm.3860672434725087571 },
    Symbol { offset: 555555696d98, size: 40, name: anon.6d9f56c789a1c27dce2f21341bb217c7.25.llvm.3860672434725087571 },
    Symbol { offset: 555555696dd8, size: 40, name: anon.6d9f56c789a1c27dce2f21341bb217c7.26.llvm.3860672434725087571 },
    Symbol { offset: 555555696d58, size: 40, name: anon.6d9f56c789a1c27dce2f21341bb217c7.24.llvm.3860672434725087571 },
    Symbol { offset: 5555556281c0, size: a7, name: _ZN73_$LT$P$u20$as$u20$clap_builder..builder..value_parser..AnyValueParser$GT$9parse_ref17h35f50404d56ca88dE },
    Symbol { offset: 555555628270, size: 118, name: _ZN73_$LT$P$u20$as$u20$clap_builder..builder..value_parser..AnyValueParser$GT$9parse_ref17h45226ca48e12692eE.llvm.3860672434725087571 },
    Symbol { offset: 555555628390, size: a8, name: _ZN73_$LT$P$u20$as$u20$clap_builder..builder..value_parser..AnyValueParser$GT$9parse_ref17h6463531968b99362E.llvm.3860672434725087571 },
    Symbol { offset: 55555562a290, size: 36f, name: _ZN126_$LT$clap_builder..builder..value_parser..BoolValueParser$u20$as$u20$clap_builder..builder..value_parser..TypedValueParser$GT$9parse_ref17h0709f1972ad3f84cE },
    Symbol { offset: 555555628440, size: 179, name: _ZN73_$LT$P$u20$as$u20$clap_builder..builder..value_parser..AnyValueParser$GT$9parse_ref17h7040f0340fe78278E.llvm.3860672434725087571 },
    Symbol { offset: 555555629060, size: 1dc, name: _ZN129_$LT$clap_builder..builder..value_parser..PathBufValueParser$u20$as$u20$clap_builder..builder..value_parser..TypedValueParser$GT$5parse17h36a8e204ef9f45cfE },
    Symbol { offset: 5555556285c0, size: 169, name: _ZN73_$LT$P$u20$as$u20$clap_builder..builder..value_parser..AnyValueParser$GT$9parse_ref17h9072230b8a3e0248E.llvm.3860672434725087571 },
    Symbol { offset: 555555628e60, size: 1fa, name: _ZN128_$LT$clap_builder..builder..value_parser..StringValueParser$u20$as$u20$clap_builder..builder..value_parser..TypedValueParser$GT$5parse17h98c3882d7fdf9593E },
    Symbol { offset: 555555628730, size: a7, name: _ZN73_$LT$P$u20$as$u20$clap_builder..builder..value_parser..AnyValueParser$GT$10parse_ref_17h0b9b1adc96407152E },
    Symbol { offset: 5555556287e0, size: 169, name: _ZN73_$LT$P$u20$as$u20$clap_builder..builder..value_parser..AnyValueParser$GT$10parse_ref_17h246cc61f5872e629E.llvm.3860672434725087571 },
    Symbol { offset: 555555628950, size: a8, name: _ZN73_$LT$P$u20$as$u20$clap_builder..builder..value_parser..AnyValueParser$GT$10parse_ref_17h65ab26747534e6cbE.llvm.3860672434725087571 },
    Symbol { offset: 555555628a00, size: 179, name: _ZN73_$LT$P$u20$as$u20$clap_builder..builder..value_parser..AnyValueParser$GT$10parse_ref_17hc32b94fe54c27f98E.llvm.3860672434725087571 },
    Symbol { offset: 555555628b80, size: 118, name: _ZN73_$LT$P$u20$as$u20$clap_builder..builder..value_parser..AnyValueParser$GT$10parse_ref_17hccb1eb6f1dd59adaE.llvm.3860672434725087571 },
    Symbol { offset: 555555628ca0, size: 15, name: _ZN73_$LT$P$u20$as$u20$clap_builder..builder..value_parser..AnyValueParser$GT$7type_id17h17b0e0dc96d38102E.llvm.3860672434725087571 },
    Symbol { offset: 555555628cc0, size: 15, name: _ZN73_$LT$P$u20$as$u20$clap_builder..builder..value_parser..AnyValueParser$GT$7type_id17h79c2cc42be266903E },
    Symbol { offset: 555555628ce0, size: 15, name: _ZN73_$LT$P$u20$as$u20$clap_builder..builder..value_parser..AnyValueParser$GT$7type_id17h9408602b24de66ceE.llvm.3860672434725087571 },
    Symbol { offset: 555555628d00, size: 15, name: _ZN73_$LT$P$u20$as$u20$clap_builder..builder..value_parser..AnyValueParser$GT$7type_id17hb4991b9aab119030E.llvm.3860672434725087571 },
    Symbol { offset: 555555628d20, size: 15, name: _ZN73_$LT$P$u20$as$u20$clap_builder..builder..value_parser..AnyValueParser$GT$7type_id17hf6cc3da8e03e2680E.llvm.3860672434725087571 },
    Symbol { offset: 555555628d40, size: 3, name: _ZN73_$LT$P$u20$as$u20$clap_builder..builder..value_parser..AnyValueParser$GT$15possible_values17h24a098b9524efd42E },
    Symbol { offset: 555555628d50, size: 4e, name: _ZN73_$LT$P$u20$as$u20$clap_builder..builder..value_parser..AnyValueParser$GT$15possible_values17h5665835672602a5cE.llvm.3860672434725087571 },
    Symbol { offset: 555555628da0, size: 3, name: _ZN73_$LT$P$u20$as$u20$clap_builder..builder..value_parser..AnyValueParser$GT$15possible_values17h982756c9dab6d9a8E.llvm.3860672434725087571 },
    Symbol { offset: 555555628db0, size: d, name: _ZN73_$LT$P$u20$as$u20$clap_builder..builder..value_parser..AnyValueParser$GT$9clone_any17h3bf977ec071da821E.llvm.3860672434725087571 },
    Symbol { offset: 555555628dc0, size: d, name: _ZN73_$LT$P$u20$as$u20$clap_builder..builder..value_parser..AnyValueParser$GT$9clone_any17h489bb4e835c20452E.llvm.3860672434725087571 },
    Symbol { offset: 555555628dd0, size: 68, name: _ZN73_$LT$P$u20$as$u20$clap_builder..builder..value_parser..AnyValueParser$GT$9clone_any17h502bc8ca80683b33E },
    Symbol { offset: 555555628e40, size: d, name: _ZN73_$LT$P$u20$as$u20$clap_builder..builder..value_parser..AnyValueParser$GT$9clone_any17h8d9b6a624e68bfe5E.llvm.3860672434725087571 },
    Symbol { offset: 555555628e50, size: d, name: _ZN73_$LT$P$u20$as$u20$clap_builder..builder..value_parser..AnyValueParser$GT$9clone_any17he56caad3180703f0E.llvm.3860672434725087571 },
    Symbol { offset: 55555562a600, size: 1b, name: _ZN79_$LT$u32$u20$as$u20$clap_builder..builder..value_parser..ValueParserFactory$GT$12value_parser17h5337a2d4ea196deeE },
    Symbol { offset: 55555562a620, size: 13, name: _ZN79_$LT$i64$u20$as$u20$clap_builder..builder..value_parser..ValueParserFactory$GT$12value_parser17h3ca813e584879affE },
    Symbol { offset: 555555628da0, size: 3, name: _ZN73_$LT$P$u20$as$u20$clap_builder..builder..value_parser..AnyValueParser$GT$15possible_values17hcf634c793fe196deE.llvm.3860672434725087571 },
    Symbol { offset: 555555628da0, size: 3, name: _ZN73_$LT$P$u20$as$u20$clap_builder..builder..value_parser..AnyValueParser$GT$15possible_values17hfe8d43dc3f155bc9E.llvm.3860672434725087571 },
    Symbol { offset: 55555562a620, size: 13, name: _ZN79_$LT$u64$u20$as$u20$clap_builder..builder..value_parser..ValueParserFactory$GT$12value_parser17hed1e725c403d2c55E },
    Symbol { offset: 55555562ac80, size: 120, name: _ZN4core3ptr59drop_in_place$LT$clap_builder..builder..ext..Extensions$GT$17h6250317f4a1980b8E },
    Symbol { offset: 55555562a640, size: 632, name: _ZN4core3ptr52drop_in_place$LT$clap_builder..builder..arg..Arg$GT$17he9c0a80b4a99c6b8E.llvm.17390379896768929180 },
    Symbol { offset: 55555562ada0, size: ce, name: _ZN79_$LT$alloc..vec..drain..Drain$LT$T$C$A$GT$$u20$as$u20$core..ops..drop..Drop$GT$4drop17ha59c957bda96cfa8E },
    Symbol { offset: 55555562ae70, size: 4fb, name: _ZN81_$LT$alloc..vec..splice..Splice$LT$I$C$A$GT$$u20$as$u20$core..ops..drop..Drop$GT$4drop17h574959797721d063E },
    Symbol { offset: 55555562b4b0, size: 95, name: _ZN86_$LT$alloc..vec..into_iter..IntoIter$LT$T$C$A$GT$$u20$as$u20$core..ops..drop..Drop$GT$4drop17h9504c614cbeca253E },
    Symbol { offset: 55555562b370, size: 95, name: _ZN86_$LT$alloc..vec..into_iter..IntoIter$LT$T$C$A$GT$$u20$as$u20$core..ops..drop..Drop$GT$4drop17h2b6733fb2d766b38E },
    Symbol { offset: 55555562b410, size: 95, name: _ZN86_$LT$alloc..vec..into_iter..IntoIter$LT$T$C$A$GT$$u20$as$u20$core..ops..drop..Drop$GT$4drop17h4b45b8667c167a3dE },
    Symbol { offset: 555555595026, size: 63, name: anon.6e2eef3e12cf217590d9324e955c5d86.12.llvm.17390379896768929180 },
    Symbol { offset: 555555697088, size: 18, name: anon.6e2eef3e12cf217590d9324e955c5d86.13.llvm.17390379896768929180 },
    Symbol { offset: 55555562b550, size: 27c, name: _ZN12clap_builder6parser7matches11arg_matches10ArgMatches8get_flag17h63bc9abf1fe31a3aE },
    Symbol { offset: 55555562b7d0, size: 1ad, name: _ZN12clap_builder6parser7matches11arg_matches10ArgMatches11try_get_one17h4cb661ca8ede4159E },
    Symbol { offset: 55555562b980, size: 64, name: _ZN12clap_builder7mkeymap7MKeyMap4push17h6ecd08ffab3c7640E },
    Symbol { offset: 5555556970a0, size: 18, name: anon.6e2eef3e12cf217590d9324e955c5d86.15.llvm.17390379896768929180 },
    Symbol { offset: 5555556970b8, size: 18, name: anon.6e2eef3e12cf217590d9324e955c5d86.16.llvm.17390379896768929180 },
    Symbol { offset: 55555562b9f0, size: 339, name: _ZN12clap_builder7mkeymap7MKeyMap6_build17h0a9f84feab680512E },
    Symbol { offset: 555555594f54, size: 7d, name: anon.6e2eef3e12cf217590d9324e955c5d86.7.llvm.17390379896768929180 },
    Symbol { offset: 555555595089, size: 6a, name: anon.6e2eef3e12cf217590d9324e955c5d86.14.llvm.17390379896768929180 },
    Symbol { offset: 55555562bd30, size: 24, name: _ZN4core3ptr47drop_in_place$LT$std..io..stdio..StderrLock$GT$17h02125937a8d42bb0E.llvm.11750586362588205305 },
    Symbol { offset: 55555562bd60, size: 82, name: _ZN4core3ptr65drop_in_place$LT$alloc..vec..Vec$LT$alloc..string..String$GT$$GT$17he3fc526f4bc110e4E.llvm.11750586362588205305 },
    Symbol { offset: 55555562bdf0, size: 207, name: _ZN4core5slice4sort6stable5merge5merge17h24f74ea2f21e7a4fE },
    Symbol { offset: 55555562c000, size: 213, name: _ZN4core5slice4sort6stable5merge5merge17h8010f473ac86a5d4E },
    Symbol { offset: 55555562c220, size: 213, name: _ZN4core5slice4sort6stable5merge5merge17h9e6c9870bab9a581E },
    Symbol { offset: 55555562c440, size: 638, name: _ZN4core5slice4sort6stable9quicksort9quicksort17h642d4346dc0d25beE },
    Symbol { offset: 55555562ca80, size: 6a0, name: _ZN4core5slice4sort6stable9quicksort9quicksort17h9b70c4fa45f75e1eE },
    Symbol { offset: 55555562d120, size: 690, name: _ZN4core5slice4sort6stable9quicksort9quicksort17hec83114cf201cf9aE },
    Symbol { offset: 55555562d7b0, size: 1da, name: _ZN5alloc5slice29_$LT$impl$u20$$u5b$T$u5d$$GT$6repeat17h1ca20d105f19d192E },
    Symbol { offset: 555555595186, size: 11, name: anon.a704fb1d44944412ed2ea39a0876a6ad.5.llvm.11750586362588205305 },
    Symbol { offset: 5555556971a0, size: 18, name: anon.a704fb1d44944412ed2ea39a0876a6ad.9.llvm.11750586362588205305 },
    Symbol { offset: 555555697188, size: 18, name: anon.a704fb1d44944412ed2ea39a0876a6ad.7.llvm.11750586362588205305 },
    Symbol { offset: 55555562da40, size: a1, name: _ZN80_$LT$clap_builder..parser..error..MatchesError$u20$as$u20$core..fmt..Display$GT$3fmt17h90a54d6c93f28453E },
    Symbol { offset: 5555556971b8, size: 20, name: anon.a704fb1d44944412ed2ea39a0876a6ad.15.llvm.11750586362588205305 },
    Symbol { offset: 5555556971d8, size: 18, name: anon.a704fb1d44944412ed2ea39a0876a6ad.17.llvm.11750586362588205305 },
    Symbol { offset: 55555562d990, size: ab, name: _ZN12clap_builder6parser5error12MatchesError6unwrap17h4bc30bc209520331E },
    Symbol { offset: 55555562daf0, size: 51, name: _ZN12clap_builder6output3fmt9Colorizer12with_content17hdc25d2c928120647E },
    Symbol { offset: 55555562db50, size: c3, name: _ZN12clap_builder6output3fmt9Colorizer5print17hdcd008c1340e9f91E },
    Symbol { offset: 555555595197, size: 75, name: anon.a704fb1d44944412ed2ea39a0876a6ad.6.llvm.11750586362588205305 },
    Symbol { offset: 55555559520c, size: 2b, name: anon.a704fb1d44944412ed2ea39a0876a6ad.13.llvm.11750586362588205305 },
    Symbol { offset: 555555595237, size: 3, name: anon.a704fb1d44944412ed2ea39a0876a6ad.14.llvm.11750586362588205305 },
    Symbol { offset: 55555559523a, size: 6f, name: anon.a704fb1d44944412ed2ea39a0876a6ad.16.llvm.11750586362588205305 },
    Symbol { offset: 55555562bd30, size: 24, name: _ZN4core3ptr47drop_in_place$LT$std..io..stdio..StdoutLock$GT$17h8e3838aa8899a11eE.llvm.11750586362588205305 },
    Symbol { offset: 55555562d990, size: ab, name: _ZN12clap_builder6parser5error12MatchesError6unwrap17hf81a4cbffbc5c995E },
    Symbol { offset: 55555562de30, size: a7, name: _ZN4core3ptr144drop_in_place$LT$clap_builder..util..flat_map..FlatMap$LT$clap_builder..util..id..Id$C$alloc..vec..Vec$LT$clap_builder..util..id..Id$GT$$GT$$GT$17h013032e53e7179efE },
    Symbol { offset: 55555562df00, size: 82, name: _ZN4core3ptr65drop_in_place$LT$alloc..vec..Vec$LT$alloc..string..String$GT$$GT$17he3fc526f4bc110e4E },
    Symbol { offset: 55555562df90, size: a2, name: _ZN4core3ptr96drop_in_place$LT$alloc..vec..Vec$LT$clap_builder..builder..possible_value..PossibleValue$GT$$GT$17h2da977e3cad7124cE },
    Symbol { offset: 555555630a20, size: 3c1, name: _ZN12clap_builder6parser9validator9Conflicts16gather_conflicts17hd2146ad957ef8f59E },
    Symbol { offset: 55555562dc20, size: 20d, name: _ZN4core3ops8function5impls79_$LT$impl$u20$core..ops..function..FnMut$LT$A$GT$$u20$for$u20$$RF$mut$u20$F$GT$8call_mut17h8f3ca904d97550e1E },
    Symbol { offset: 555555697220, size: 30, name: anon.9b11a2399c90cc0be6c79a5407fbb2d8.0.llvm.14054754358263018937 },
    Symbol { offset: 555555595354, size: 37, name: anon.9b11a2399c90cc0be6c79a5407fbb2d8.1.llvm.14054754358263018937 },
    Symbol { offset: 555555697298, size: 20, name: anon.9b11a2399c90cc0be6c79a5407fbb2d8.8.llvm.14054754358263018937 },
    Symbol { offset: 555555697250, size: 18, name: anon.9b11a2399c90cc0be6c79a5407fbb2d8.3.llvm.14054754358263018937 },
    Symbol { offset: 555555595574, size: 63, name: anon.9b11a2399c90cc0be6c79a5407fbb2d8.27.llvm.14054754358263018937 },
    Symbol { offset: 555555697318, size: 18, name: anon.9b11a2399c90cc0be6c79a5407fbb2d8.33.llvm.14054754358263018937 },
    Symbol { offset: 55555562dee0, size: 18, name: _ZN4core3ptr42drop_in_place$LT$alloc..string..String$GT$17hd6d205257de6c30dE.llvm.14054754358263018937 },
    Symbol { offset: 55555562e040, size: 15, name: _ZN53_$LT$core..fmt..Error$u20$as$u20$core..fmt..Debug$GT$3fmt17h6736176c8e29474eE.llvm.14054754358263018937 },
    Symbol { offset: 55555562e060, size: 123, name: _ZN58_$LT$alloc..string..String$u20$as$u20$core..fmt..Write$GT$10write_char17h13db4e3872bba170E.llvm.14054754358263018937 },
    Symbol { offset: 55555562e190, size: 67, name: _ZN58_$LT$alloc..string..String$u20$as$u20$core..fmt..Write$GT$9write_str17h3471f8bf4fd2c6acE.llvm.14054754358263018937 },
    Symbol { offset: 555555697280, size: 18, name: anon.9b11a2399c90cc0be6c79a5407fbb2d8.7.llvm.14054754358263018937 },
    Symbol { offset: 555555697268, size: 18, name: anon.9b11a2399c90cc0be6c79a5407fbb2d8.5.llvm.14054754358263018937 },
    Symbol { offset: 55555562e200, size: 2812, name: _ZN12clap_builder6parser9validator9Validator8validate17h3e27356f6975d549E },
    Symbol { offset: 5555556973f0, size: 18, name: anon.9b11a2399c90cc0be6c79a5407fbb2d8.47.llvm.14054754358263018937 },
    Symbol { offset: 5555555a0c20, size: 10, name: anon.9b11a2399c90cc0be6c79a5407fbb2d8.14.llvm.14054754358263018937 },
    Symbol { offset: 555555630df0, size: 6da, name: _ZN12clap_builder6parser9validator23gather_direct_conflicts17h8ac6a7e24cf63bd7E },
    Symbol { offset: 555555697408, size: 18, name: anon.9b11a2399c90cc0be6c79a5407fbb2d8.48.llvm.14054754358263018937 },
    Symbol { offset: 555555697438, size: 18, name: anon.9b11a2399c90cc0be6c79a5407fbb2d8.50.llvm.14054754358263018937 },
    Symbol { offset: 555555697420, size: 18, name: anon.9b11a2399c90cc0be6c79a5407fbb2d8.49.llvm.14054754358263018937 },
    Symbol { offset: 55555559538b, size: 76, name: anon.9b11a2399c90cc0be6c79a5407fbb2d8.2.llvm.14054754358263018937 },
    Symbol { offset: 555555595401, size: 76, name: anon.9b11a2399c90cc0be6c79a5407fbb2d8.4.llvm.14054754358263018937 },
    Symbol { offset: 555555595477, size: 83, name: anon.9b11a2399c90cc0be6c79a5407fbb2d8.6.llvm.14054754358263018937 },
    Symbol { offset: 5555555955d7, size: 73, name: anon.9b11a2399c90cc0be6c79a5407fbb2d8.28.llvm.14054754358263018937 },
    Symbol { offset: 5555555956b8, size: 6d, name: anon.9b11a2399c90cc0be6c79a5407fbb2d8.46.llvm.14054754358263018937 },
    Symbol { offset: 5555555a0fc8, size: 4, name: .Lanon.a56d05db9c55dfe0b260ac65480b1d44.11 },
    Symbol { offset: 555555631600, size: 288, name: _ZN4core3str21_$LT$impl$u20$str$GT$12trim_matches17h1c950d0dad5619a2E },
    Symbol { offset: 5555556319c0, size: 1d5, name: _ZN81_$LT$core..str..pattern..CharSearcher$u20$as$u20$core..str..pattern..Searcher$GT$10next_match17h06e5f2dd80a2a38eE },
    Symbol { offset: 555555633dc0, size: 45c, name: _ZN12clap_builder6output8textwrap15wrap_algorithms11LineWrapper4wrap17h8b64500f3885b480E },
    Symbol { offset: 5555556333c0, size: 67, name: _ZN81_$LT$clap_builder..builder..styled_str..StyledStr$u20$as$u20$core..fmt..Write$GT$9write_str17hecb1012c825ab9f7E },
    Symbol { offset: 555555633430, size: 123, name: _ZN81_$LT$clap_builder..builder..styled_str..StyledStr$u20$as$u20$core..fmt..Write$GT$10write_char17h494c4bae9d8b5efdE },
    Symbol { offset: 5555556314d0, size: 15, name: _ZN36_$LT$T$u20$as$u20$core..any..Any$GT$7type_id17h352adeb97ea45f2dE },
    Symbol { offset: 5555556314f0, size: 14, name: _ZN44_$LT$$RF$T$u20$as$u20$core..fmt..Display$GT$3fmt17h34c0cc280d1b0a76E },
    Symbol { offset: 555555631510, size: 60, name: _ZN44_$LT$$RF$T$u20$as$u20$core..fmt..Display$GT$3fmt17h398980a0053d95deE },
    Symbol { offset: 555555631570, size: 5d, name: _ZN44_$LT$$RF$T$u20$as$u20$core..fmt..Display$GT$3fmt17h5e3d690afa158d70E },
    Symbol { offset: 5555556315d0, size: 10, name: _ZN4core3fmt5Write9write_fmt17h59b7b15462d87773E },
    Symbol { offset: 5555556315e0, size: 18, name: _ZN4core3ptr65drop_in_place$LT$clap_builder..builder..styled_str..StyledStr$GT$17hdf2180b6513b2eb7E.llvm.14536144630470599887 },
    Symbol { offset: 555555631890, size: 130, name: _ZN4core3str21_$LT$impl$u20$str$GT$16trim_end_matches17h1489edc9a19ee570E.llvm.14536144630470599887 },
    Symbol { offset: 555555631ba0, size: 65, name: _ZN12clap_builder7builder10styled_str9StyledStr8push_str17h249df173f0e24bb0E },
    Symbol { offset: 555555697528, size: 18, name: anon.a56d05db9c55dfe0b260ac65480b1d44.16.llvm.14536144630470599887 },
    Symbol { offset: 555555631c10, size: 94a, name: _ZN12clap_builder7builder10styled_str9StyledStr19replace_newline_var17h159a80743e9988a0E },
    Symbol { offset: 555555632560, size: 69d, name: _ZN12clap_builder7builder10styled_str9StyledStr6indent17hc791be9b21536935E },
    Symbol { offset: 555555632c00, size: 677, name: _ZN12clap_builder7builder10styled_str9StyledStr4wrap17h207905e854bdeee8E },
    Symbol { offset: 555555633280, size: 10, name: _ZN12clap_builder7builder10styled_str9StyledStr13display_width17h17ade8b916e285f7E },
    Symbol { offset: 555555633290, size: 6d, name: _ZN12clap_builder7builder10styled_str9StyledStr11push_styled17h7de19bb6b4c1e35bE },
    Symbol { offset: 555555633300, size: b4, name: _ZN99_$LT$clap_builder..builder..styled_str..StyledStr$u20$as$u20$core..convert..From$LT$$RF$str$GT$$GT$4from17h3540e23cb63b1339E },
    Symbol { offset: 555555633560, size: 2f7, name: _ZN12clap_builder6output4help10write_help17h5ff51cf2ed9de68aE },
    Symbol { offset: 555555633860, size: 103, name: _ZN12clap_builder6output5usage5Usage3new17h67e3d84bd578b2aeE },
    Symbol { offset: 555555595988, size: 62, name: anon.a56d05db9c55dfe0b260ac65480b1d44.23.llvm.14536144630470599887 },
    Symbol { offset: 555555633970, size: 2b1, name: _ZN12clap_builder6output5usage5Usage23create_usage_with_title17h7f175877b092aa68E },
    Symbol { offset: 555555633c30, size: 187, name: _ZN12clap_builder6output5usage5Usage21create_usage_no_title17h625ca6b05ccbe8c7E },
    Symbol { offset: 555555634220, size: 2e2, name: _ZN12clap_builder6output8textwrap4wrap17h04b056b8dfc58a59E },
    Symbol { offset: 555555595898, size: 76, name: anon.a56d05db9c55dfe0b260ac65480b1d44.7.llvm.14536144630470599887 },
    Symbol { offset: 55555559590e, size: 75, name: anon.a56d05db9c55dfe0b260ac65480b1d44.15.llvm.14536144630470599887 },
    Symbol { offset: 555555595a78, size: 18, name: _ZN91_$LT$$RF$clap_builder..builder..styled_str..StyledStr$u20$as$u20$core..default..Default$GT$7default7DEFAULT17h45d5f358b67bcc57E },
    Symbol { offset: 555555634d00, size: f2, name: _ZN4core3ptr93drop_in_place$LT$alloc..vec..Vec$LT$alloc..vec..Vec$LT$std..ffi..os_str..OsString$GT$$GT$$GT$17h84d91d98f61ee896E },
    Symbol { offset: 555555634770, size: c3, name: _ZN4core3ptr106drop_in_place$LT$alloc..vec..Vec$LT$alloc..vec..Vec$LT$clap_builder..util..any_value..AnyValue$GT$$GT$$GT$17h3ed8dbed13fd4322E },
    Symbol { offset: 555555634840, size: 3b, name: _ZN4core3ptr141drop_in_place$LT$alloc..sync..Weak$LT$dyn$u20$core..any..Any$u2b$core..marker..Send$u2b$core..marker..Sync$C$$RF$alloc..alloc..Global$GT$$GT$17h4ba9194bc4e9fc48E },
    Symbol { offset: 555555634960, size: a6, name: _ZN4core3ptr66drop_in_place$LT$clap_builder..parser..arg_matcher..ArgMatcher$GT$17h5f3f5a181657582cE },
    Symbol { offset: 555555634c70, size: 83, name: _ZN4core3ptr89drop_in_place$LT$core..option..Option$LT$clap_builder..parser..parser..PendingArg$GT$$GT$17hcdb996485852528aE },
    Symbol { offset: 555555634510, size: 15, name: _ZN36_$LT$T$u20$as$u20$core..any..Any$GT$7type_id17h0ad9f2b1fd835b1bE },
    Symbol { offset: 555555634530, size: 15, name: _ZN36_$LT$T$u20$as$u20$core..any..Any$GT$7type_id17hdb231659df61b82cE },
    Symbol { offset: 555555634550, size: 5f, name: _ZN4core3ptr100drop_in_place$LT$alloc..boxed..Box$LT$clap_builder..parser..matches..arg_matches..SubCommand$GT$$GT$17hb5564219b0f6b0b1E.llvm.13923871662077467809 },
    Symbol { offset: 555555634aa0, size: 99, name: _ZN4core3ptr75drop_in_place$LT$clap_builder..parser..matches..arg_matches..ArgMatches$GT$17h2c968ea20157ab57E.llvm.13923871662077467809 },
    Symbol { offset: 5555556345b0, size: 1c0, name: _ZN4core3ptr103drop_in_place$LT$core..option..Option$LT$clap_builder..parser..matches..matched_arg..MatchedArg$GT$$GT$17h635664aa86876db0E.llvm.13923871662077467809 },
    Symbol { offset: 555555634880, size: e0, name: _ZN4core3ptr149drop_in_place$LT$clap_builder..util..flat_map..FlatMap$LT$clap_builder..util..id..Id$C$clap_builder..parser..matches..matched_arg..MatchedArg$GT$$GT$17h370b95324273c1f8E.llvm.13923871662077467809 },
    Symbol { offset: 555555634a10, size: 82, name: _ZN4core3ptr70drop_in_place$LT$alloc..vec..Vec$LT$std..ffi..os_str..OsString$GT$$GT$17h1d058bcecc253de2E.llvm.13923871662077467809 },
    Symbol { offset: 555555634b40, size: 2b, name: _ZN4core3ptr75drop_in_place$LT$clap_builder..parser..matches..arg_matches..SubCommand$GT$17he114fe02efce8555E.llvm.13923871662077467809 },
    Symbol { offset: 555555634b70, size: 100, name: _ZN4core3ptr83drop_in_place$LT$alloc..vec..Vec$LT$clap_builder..util..any_value..AnyValue$GT$$GT$17h15a57a300a5d8834E.llvm.13923871662077467809 },
    Symbol { offset: 555555634e00, size: 84, name: _ZN5alloc4sync16Arc$LT$T$C$A$GT$9drop_slow17hef26df32993e2a10E },
    Symbol { offset: 555555634e90, size: 6c, name: _ZN5alloc7raw_vec11finish_grow17h0ec8b2ba57b18c8dE.llvm.13923871662077467809 },
    Symbol { offset: 555555634f00, size: b8, name: _ZN5alloc7raw_vec19RawVec$LT$T$C$A$GT$8grow_one17h006f4be951ff4e81E },
    Symbol { offset: 555555634fc0, size: b7, name: _ZN5alloc7raw_vec19RawVec$LT$T$C$A$GT$8grow_one17h0e724f011dbc116aE },
    Symbol { offset: 555555635080, size: b5, name: _ZN5alloc7raw_vec19RawVec$LT$T$C$A$GT$8grow_one17h11f59b90d5f11076E },
    Symbol { offset: 555555635140, size: b4, name: _ZN5alloc7raw_vec19RawVec$LT$T$C$A$GT$8grow_one17h3a7797160d1e4dd1E },
    Symbol { offset: 555555635200, size: b8, name: _ZN5alloc7raw_vec19RawVec$LT$T$C$A$GT$8grow_one17h5298867d8f484ccfE },
    Symbol { offset: 5555556352c0, size: b8, name: _ZN5alloc7raw_vec19RawVec$LT$T$C$A$GT$8grow_one17h67d6431bbcadee90E },
    Symbol { offset: 555555635380, size: b8, name: _ZN5alloc7raw_vec19RawVec$LT$T$C$A$GT$8grow_one17h852f85785964a860E },
    Symbol { offset: 555555635440, size: b4, name: _ZN5alloc7raw_vec19RawVec$LT$T$C$A$GT$8grow_one17hb9f3296e6e6eaad6E },
    Symbol { offset: 555555635500, size: b4, name: _ZN5alloc7raw_vec19RawVec$LT$T$C$A$GT$8grow_one17hd9f2f35030f2c573E },
    Symbol { offset: 5555556355c0, size: f5, name: _ZN5alloc7raw_vec20RawVecInner$LT$A$GT$7reserve21do_reserve_and_handle17hc8aacb32b51e3070E },
    Symbol { offset: 5555556975d0, size: 18, name: anon.6dcf0ef773f6add70b038b6b1ccab08a.1.llvm.13923871662077467809 },
    Symbol { offset: 5555556356c0, size: 20, name: _ZN77_$LT$alloc..raw_vec..RawVec$LT$T$C$A$GT$$u20$as$u20$core..ops..drop..Drop$GT$4drop17hd8cb936b078f6a03E },
    Symbol { offset: 555555595b33, size: 22, name: anon.6dcf0ef773f6add70b038b6b1ccab08a.3.llvm.13923871662077467809 },
    Symbol { offset: 5555556975e8, size: 18, name: anon.6dcf0ef773f6add70b038b6b1ccab08a.5.llvm.13923871662077467809 },
    Symbol { offset: 5555556356e0, size: c0, name: _ZN12clap_builder7builder3ext10Extensions6update17ha1bbd7c01c10177aE },
    Symbol { offset: 5555556357a0, size: a0, name: _ZN12clap_builder6parser11arg_matcher10ArgMatcher10into_inner17h621e1a9950b7f1bfE },
    Symbol { offset: 555555635840, size: 854, name: _ZN12clap_builder6parser11arg_matcher10ArgMatcher21fill_in_global_values17h8473a459d11c0dd0E.llvm.13923871662077467809 },
    Symbol { offset: 5555556360a0, size: f4, name: _ZN12clap_builder6parser11arg_matcher10ArgMatcher10subcommand17hb98585d3d7a996b9E },
    Symbol { offset: 5555556361a0, size: 148, name: _ZN12clap_builder6parser11arg_matcher10ArgMatcher14check_explicit17h5001e8f4abf32875E },
    Symbol { offset: 5555556362f0, size: 1f5, name: _ZN12clap_builder6parser11arg_matcher10ArgMatcher16start_custom_arg17h084be6d67bde5aa5E },
    Symbol { offset: 555555636bd0, size: ea, name: _ZN12clap_builder6parser7matches11matched_arg10MatchedArg13new_val_group17h0a57291a160f9431E.llvm.13923871662077467809 },
    Symbol { offset: 5555556364f0, size: 131, name: _ZN12clap_builder6parser11arg_matcher10ArgMatcher18start_custom_group17h5cbadb602ecb894aE },
    Symbol { offset: 555555636630, size: 181, name: _ZN12clap_builder6parser11arg_matcher10ArgMatcher28start_occurrence_of_external17h21badb414f5d8c5dE },
    Symbol { offset: 555555595bc3, size: 63, name: anon.6dcf0ef773f6add70b038b6b1ccab08a.6.llvm.13923871662077467809 },
    Symbol { offset: 555555697648, size: 18, name: anon.6dcf0ef773f6add70b038b6b1ccab08a.12.llvm.13923871662077467809 },
    Symbol { offset: 5555556367c0, size: 2c7, name: _ZN12clap_builder6parser11arg_matcher10ArgMatcher10add_val_to17h12f682fc3141ab20E },
    Symbol { offset: 555555636a90, size: f8, name: _ZN12clap_builder6parser11arg_matcher10ArgMatcher12add_index_to17he5df39a9c048c65cE },
    Symbol { offset: 555555697660, size: 18, name: anon.6dcf0ef773f6add70b038b6b1ccab08a.13.llvm.13923871662077467809 },
    Symbol { offset: 555555697618, size: 18, name: anon.6dcf0ef773f6add70b038b6b1ccab08a.9.llvm.13923871662077467809 },
    Symbol { offset: 555555697630, size: 18, name: anon.6dcf0ef773f6add70b038b6b1ccab08a.10.llvm.13923871662077467809 },
    Symbol { offset: 555555636b90, size: 3a, name: _ZN12clap_builder6parser7matches11matched_arg10MatchedArg5first17h32aea7a0bc2fb1fcE },
    Symbol { offset: 555555697678, size: 18, name: anon.6dcf0ef773f6add70b038b6b1ccab08a.14.llvm.13923871662077467809 },
    Symbol { offset: 555555697690, size: 18, name: anon.6dcf0ef773f6add70b038b6b1ccab08a.15.llvm.13923871662077467809 },
    Symbol { offset: 555555636cc0, size: 7e, name: _ZN12clap_builder6parser7matches11matched_arg10MatchedArg8num_vals17h72b8efaec2be7590E },
    Symbol { offset: 555555636d40, size: 73, name: _ZN12clap_builder6parser7matches11matched_arg10MatchedArg13infer_type_id17hf60d8fa9a4606710E },
    Symbol { offset: 555555595ab8, size: 7b, name: anon.6dcf0ef773f6add70b038b6b1ccab08a.0.llvm.13923871662077467809 },
    Symbol { offset: 555555595b55, size: 6e, name: anon.6dcf0ef773f6add70b038b6b1ccab08a.4.llvm.13923871662077467809 },
    Symbol { offset: 555555595c26, size: 75, name: anon.6dcf0ef773f6add70b038b6b1ccab08a.7.llvm.13923871662077467809 },
    Symbol { offset: 555555595c9b, size: 7d, name: anon.6dcf0ef773f6add70b038b6b1ccab08a.11.llvm.13923871662077467809 },
    Symbol { offset: 555555635080, size: b5, name: _ZN5alloc7raw_vec19RawVec$LT$T$C$A$GT$8grow_one17h30d09012e1f1f09eE },
    Symbol { offset: 555555635140, size: b4, name: _ZN5alloc7raw_vec19RawVec$LT$T$C$A$GT$8grow_one17h3e62ec268abd3665E },
    Symbol { offset: 555555635080, size: b5, name: _ZN5alloc7raw_vec19RawVec$LT$T$C$A$GT$8grow_one17h798f64bf1ac0315fE },
    Symbol { offset: 555555635080, size: b5, name: _ZN5alloc7raw_vec19RawVec$LT$T$C$A$GT$8grow_one17hb124e4a2c149664cE },
    Symbol { offset: 555555635140, size: b4, name: _ZN5alloc7raw_vec19RawVec$LT$T$C$A$GT$8grow_one17hb74d943d87f62566E },
    Symbol { offset: 555555635440, size: b4, name: _ZN5alloc7raw_vec19RawVec$LT$T$C$A$GT$8grow_one17hc32c81d933dfbc9eE },
    Symbol { offset: 555555635440, size: b4, name: _ZN5alloc7raw_vec19RawVec$LT$T$C$A$GT$8grow_one17hce5db77af5681c10E },
    Symbol { offset: 555555634f00, size: b8, name: _ZN5alloc7raw_vec19RawVec$LT$T$C$A$GT$8grow_one17h23eeda34266e7f6bE },
    Symbol { offset: 555555634f00, size: b8, name: _ZN5alloc7raw_vec19RawVec$LT$T$C$A$GT$8grow_one17h2ac0e454f0463eb1E },
    Symbol { offset: 555555635200, size: b8, name: _ZN5alloc7raw_vec19RawVec$LT$T$C$A$GT$8grow_one17h93bfce41c6eadd3dE },
    Symbol { offset: 555555635200, size: b8, name: _ZN5alloc7raw_vec19RawVec$LT$T$C$A$GT$8grow_one17hcbf3d58eba724438E },
    Symbol { offset: 5555556373f0, size: 120, name: _ZN4core3ptr59drop_in_place$LT$clap_builder..builder..ext..Extensions$GT$17h6250317f4a1980b8E },
    Symbol { offset: 5555556375c0, size: 14, name: _ZN60_$LT$alloc..string..String$u20$as$u20$core..fmt..Display$GT$3fmt17h253a895d4ea9e2d1E },
    Symbol { offset: 5555555a100c, size: 4, name: .Lanon.409535bb723d0dd00ae50f84864144dc.17 },
    Symbol { offset: 5555555a1094, size: 4, name: .Lanon.409535bb723d0dd00ae50f84864144dc.19 },
    Symbol { offset: 5555555a1010, size: 4, name: .Lanon.409535bb723d0dd00ae50f84864144dc.31 },
    Symbol { offset: 5555555a102c, size: 4, name: .Lanon.409535bb723d0dd00ae50f84864144dc.63 },
    Symbol { offset: 555555636dc0, size: 621, name: _ZN4core3ptr52drop_in_place$LT$clap_builder..builder..arg..Arg$GT$17he9c0a80b4a99c6b8E.llvm.15815658538356960411 },
    Symbol { offset: 555555637510, size: 82, name: _ZN4core3ptr65drop_in_place$LT$alloc..vec..Vec$LT$alloc..string..String$GT$$GT$17he3fc526f4bc110e4E.llvm.15815658538356960411 },
    Symbol { offset: 5555556375a0, size: 18, name: _ZN4core3ptr65drop_in_place$LT$clap_builder..builder..styled_str..StyledStr$GT$17hdf2180b6513b2eb7E.llvm.15815658538356960411 },
    Symbol { offset: 5555556375e0, size: ce, name: _ZN12clap_builder7builder3arg3Arg11value_names17hb3e12819e47202efE },
    Symbol { offset: 555555697720, size: 18, name: anon.409535bb723d0dd00ae50f84864144dc.11.llvm.15815658538356960411 },
    Symbol { offset: 5555555962e0, size: 18, name: _ZN12clap_builder7builder3arg3Arg16get_value_parser7DEFAULT17hd865ca0075b23b97E },
    Symbol { offset: 5555556376b0, size: 319, name: _ZN12clap_builder7builder3arg3Arg6_build17h1611ba96fbfa81c8E },
    Symbol { offset: 5555556379d0, size: 18a, name: _ZN12clap_builder7builder3arg3Arg16name_no_brackets17h520d6c3994cd050bE },
    Symbol { offset: 555555595eec, size: 1, name: anon.409535bb723d0dd00ae50f84864144dc.35.llvm.15815658538356960411 },
    Symbol { offset: 555555697768, size: 18, name: anon.409535bb723d0dd00ae50f84864144dc.29.llvm.15815658538356960411 },
    Symbol { offset: 555555637b60, size: cbc, name: _ZN12clap_builder7builder3arg3Arg18stylize_arg_suffix17hf8bede15fc20da05E },
    Symbol { offset: 555555596028, size: 60, name: anon.409535bb723d0dd00ae50f84864144dc.49.llvm.15815658538356960411 },
    Symbol { offset: 555555697738, size: 30, name: anon.409535bb723d0dd00ae50f84864144dc.27.llvm.15815658538356960411 },
    Symbol { offset: 555555638820, size: 389, name: _ZN70_$LT$clap_builder..builder..arg..Arg$u20$as$u20$core..fmt..Display$GT$3fmt17h043130e39dc9ebd6E },
    Symbol { offset: 555555638bb0, size: 67, name: _ZN81_$LT$clap_builder..builder..styled_str..StyledStr$u20$as$u20$core..fmt..Write$GT$9write_str17hecb1012c825ab9f7E.llvm.15815658538356960411 },
    Symbol { offset: 555555638c20, size: 123, name: _ZN81_$LT$clap_builder..builder..styled_str..StyledStr$u20$as$u20$core..fmt..Write$GT$10write_char17h494c4bae9d8b5efdE.llvm.15815658538356960411 },
    Symbol { offset: 555555638d50, size: 2bf, name: _ZN106_$LT$clap_builder..error..format..KindFormatter$u20$as$u20$clap_builder..error..format..ErrorFormatter$GT$12format_error17h5a967b57dad41d2eE },
    Symbol { offset: 5555556978d0, size: 30, name: anon.409535bb723d0dd00ae50f84864144dc.112.llvm.15815658538356960411 },
    Symbol { offset: 5555555a08c0, size: 10, name: anon.409535bb723d0dd00ae50f84864144dc.108.llvm.15815658538356960411 },
    Symbol { offset: 55555559608c, size: d, name: anon.409535bb723d0dd00ae50f84864144dc.109.llvm.15815658538356960411 },
    Symbol { offset: 5555555962a6, size: 33, name: anon.409535bb723d0dd00ae50f84864144dc.131.llvm.15815658538356960411 },
    Symbol { offset: 55555559615f, size: 26, name: anon.409535bb723d0dd00ae50f84864144dc.124.llvm.15815658538356960411 },
    Symbol { offset: 555555596245, size: 30, name: anon.409535bb723d0dd00ae50f84864144dc.129.llvm.15815658538356960411 },
    Symbol { offset: 55555559610b, size: 17, name: anon.409535bb723d0dd00ae50f84864144dc.122.llvm.15815658538356960411 },
    Symbol { offset: 555555596122, size: 3d, name: anon.409535bb723d0dd00ae50f84864144dc.123.llvm.15815658538356960411 },
    Symbol { offset: 5555555961cf, size: 2a, name: anon.409535bb723d0dd00ae50f84864144dc.127.llvm.15815658538356960411 },
    Symbol { offset: 5555555960c5, size: 2d, name: anon.409535bb723d0dd00ae50f84864144dc.120.llvm.15815658538356960411 },
    Symbol { offset: 5555555960f2, size: 19, name: anon.409535bb723d0dd00ae50f84864144dc.121.llvm.15815658538356960411 },
    Symbol { offset: 555555596185, size: 26, name: anon.409535bb723d0dd00ae50f84864144dc.125.llvm.15815658538356960411 },
    Symbol { offset: 5555555961ab, size: 24, name: anon.409535bb723d0dd00ae50f84864144dc.126.llvm.15815658538356960411 },
    Symbol { offset: 555555596275, size: 31, name: anon.409535bb723d0dd00ae50f84864144dc.130.llvm.15815658538356960411 },
    Symbol { offset: 5555555961f9, size: 4c, name: anon.409535bb723d0dd00ae50f84864144dc.128.llvm.15815658538356960411 },
    Symbol { offset: 555555639010, size: 37a, name: _ZN12clap_builder5error6format20format_error_message17hcbc654d447b610e9E },
    Symbol { offset: 555555639390, size: 216, name: _ZN12clap_builder5error6format13get_help_flag17hdaae58c3121b1ebcE },
    Symbol { offset: 5555556395b0, size: 1a0, name: _ZN12clap_builder6output8textwrap4core13display_width17h5ab9e98f65afea58E },
    Symbol { offset: 555555595d80, size: 83, name: anon.409535bb723d0dd00ae50f84864144dc.10.llvm.15815658538356960411 },
    Symbol { offset: 555555595e03, size: 75, name: anon.409535bb723d0dd00ae50f84864144dc.28.llvm.15815658538356960411 },
    Symbol { offset: 555555596099, size: 6, name: anon.409535bb723d0dd00ae50f84864144dc.111.llvm.15815658538356960411 },
    Symbol { offset: 555555639760, size: 5a, name: _ZN4core3ptr118drop_in_place$LT$alloc..boxed..Box$LT$dyn$u20$core..error..Error$u2b$core..marker..Send$u2b$core..marker..Sync$GT$$GT$17habf0768de7ad6f93E },
    Symbol { offset: 5555556397c0, size: 5f, name: _ZN4core3ptr130drop_in_place$LT$core..option..Option$LT$$LP$alloc..string..String$C$core..option..Option$LT$alloc..string..String$GT$$RP$$GT$$GT$17h34adca02ae595b5aE },
    Symbol { offset: 555555639980, size: 82, name: _ZN4core3ptr65drop_in_place$LT$alloc..vec..Vec$LT$alloc..string..String$GT$$GT$17he3fc526f4bc110e4E },
    Symbol { offset: 555555639750, size: 9, name: _ZN42_$LT$$RF$T$u20$as$u20$core..fmt..Debug$GT$3fmt17h06c4c1e054e0b1d1E },
    Symbol { offset: 555555639820, size: 18, name: _ZN4core3ptr39drop_in_place$LT$std..path..PathBuf$GT$17hd796bbdc25981935E.llvm.14773156567859404580 },
    Symbol { offset: 555555639840, size: 44, name: _ZN4core3ptr47drop_in_place$LT$clap_builder..error..Error$GT$17h446c1ada455939ceE.llvm.14773156567859404580 },
    Symbol { offset: 555555639890, size: e3, name: _ZN4core3ptr52drop_in_place$LT$clap_builder..error..ErrorInner$GT$17ha219cb1d9f9f58dfE.llvm.14773156567859404580 },
    Symbol { offset: 555555639a10, size: 1b0, name: _ZN4core3ptr75drop_in_place$LT$clap_builder..parser..matches..matched_arg..MatchedArg$GT$17h446a62dc874f2d0cE.llvm.14773156567859404580 },
    Symbol { offset: 555555639c70, size: f2, name: _ZN4core3ptr93drop_in_place$LT$alloc..vec..Vec$LT$alloc..vec..Vec$LT$std..ffi..os_str..OsString$GT$$GT$$GT$17h84d91d98f61ee896E.llvm.14773156567859404580 },
    Symbol { offset: 555555639bc0, size: a4, name: _ZN4core3ptr81drop_in_place$LT$core..result..Result$LT$$LP$$RP$$C$std..io..error..Error$GT$$GT$17h2ab4ac2e58e0643dE.llvm.14773156567859404580 },
    Symbol { offset: 555555639d70, size: 3, name: _ZN4core5error5Error5cause17h8dc0f368d02cab6dE },
    Symbol { offset: 555555639d80, size: 15, name: _ZN4core5error5Error7type_id17h3f94a10eab273b74E },
    Symbol { offset: 555555639da0, size: 1cc, name: _ZN12clap_builder5error14Error$LT$F$GT$8with_cmd17h817ee4a5f34257e3E },
    Symbol { offset: 5555555962f8, size: 62, name: anon.24ff92d6b1c512aeec81336a8d2ba21e.8.llvm.14773156567859404580 },
    Symbol { offset: 555555697a98, size: 18, name: anon.24ff92d6b1c512aeec81336a8d2ba21e.25.llvm.14773156567859404580 },
    Symbol { offset: 555555639f70, size: 2d, name: _ZN12clap_builder5error14Error$LT$F$GT$4exit17hea6a8ce5a7658e2dE },
    Symbol { offset: 555555639fa0, size: 127, name: _ZN12clap_builder5error14Error$LT$F$GT$5print17hf2ddf501b22e6e28E.llvm.14773156567859404580 },
    Symbol { offset: 55555563a0d0, size: 1cb, name: _ZN12clap_builder5error14Error$LT$F$GT$7for_app17h1bc08cc01aa14322E },
    Symbol { offset: 55555563a2a0, size: 26d, name: _ZN12clap_builder5error14Error$LT$F$GT$17argument_conflict17h8c936cf28dffdf35E },
    Symbol { offset: 55555563a720, size: 1f7, name: _ZN12clap_builder5error14Error$LT$F$GT$13invalid_value17hc2911b66491f598aE },
    Symbol { offset: 55555563a510, size: 201, name: _ZN12clap_builder5error14Error$LT$F$GT$9no_equals17h86d3c2d3c66a21d8E },
    Symbol { offset: 55555563a920, size: 201, name: _ZN12clap_builder5error14Error$LT$F$GT$23unrecognized_subcommand17hd58bddcbf363a92fE },
    Symbol { offset: 55555563ab30, size: 23b, name: _ZN12clap_builder5error14Error$LT$F$GT$25missing_required_argument17hadb00f88cd9155aeE },
    Symbol { offset: 55555563ad70, size: 26d, name: _ZN12clap_builder5error14Error$LT$F$GT$18missing_subcommand17hadea0bc168c42aeaE },
    Symbol { offset: 55555563afe0, size: 1c8, name: _ZN12clap_builder5error14Error$LT$F$GT$12invalid_utf817hc84b772abd111ba4E },
    Symbol { offset: 55555563b1b0, size: 24b, name: _ZN12clap_builder5error14Error$LT$F$GT$15too_many_values17hb3037e11daaffc18E },
    Symbol { offset: 55555563b400, size: 201, name: _ZN12clap_builder5error14Error$LT$F$GT$14too_few_values17hda5e9973a9bce452E },
    Symbol { offset: 55555563b610, size: 293, name: _ZN12clap_builder5error14Error$LT$F$GT$16value_validation17h5ec696c7151d4974E },
    Symbol { offset: 55555563b8b0, size: 201, name: _ZN12clap_builder5error14Error$LT$F$GT$22wrong_number_of_values17hc14172f2101b72caE },
    Symbol { offset: 55555563bac0, size: 320, name: _ZN12clap_builder5error14Error$LT$F$GT$16unknown_argument17h497380033002356eE },
    Symbol { offset: 55555563bde0, size: 2e1, name: _ZN12clap_builder5error14Error$LT$F$GT$23unnecessary_double_dash17he675381e470aca27E },
    Symbol { offset: 55555563c0d0, size: 252, name: _ZN12clap_builder5error7Message6format17h525f6fedd896036cE },
    Symbol { offset: 55555563c330, size: 40, name: _ZN12clap_builder5error7Message9formatted17h5c6cd9233da1b8acE },
    Symbol { offset: 555555697960, size: 20, name: anon.24ff92d6b1c512aeec81336a8d2ba21e.10.llvm.14773156567859404580 },
    Symbol { offset: 555555697980, size: 20, name: anon.24ff92d6b1c512aeec81336a8d2ba21e.11.llvm.14773156567859404580 },
    Symbol { offset: 5555556979a0, size: 20, name: anon.24ff92d6b1c512aeec81336a8d2ba21e.12.llvm.14773156567859404580 },
    Symbol { offset: 5555556979c0, size: 20, name: anon.24ff92d6b1c512aeec81336a8d2ba21e.13.llvm.14773156567859404580 },
    Symbol { offset: 5555556979e0, size: 20, name: anon.24ff92d6b1c512aeec81336a8d2ba21e.14.llvm.14773156567859404580 },
    Symbol { offset: 555555697a00, size: 20, name: anon.24ff92d6b1c512aeec81336a8d2ba21e.15.llvm.14773156567859404580 },
    Symbol { offset: 55555563c370, size: 1f8, name: _ZN12clap_builder4util8flat_map20FlatMap$LT$K$C$V$GT$6insert17h7d7574f3fbc480faE },
    Symbol { offset: 555555697a38, size: 18, name: anon.24ff92d6b1c512aeec81336a8d2ba21e.21.llvm.14773156567859404580 },
    Symbol { offset: 555555697a50, size: 18, name: anon.24ff92d6b1c512aeec81336a8d2ba21e.22.llvm.14773156567859404580 },
    Symbol { offset: 555555697a20, size: 18, name: anon.24ff92d6b1c512aeec81336a8d2ba21e.20.llvm.14773156567859404580 },
    Symbol { offset: 55555563c570, size: 26a, name: _ZN12clap_builder4util8flat_map20FlatMap$LT$K$C$V$GT$6insert17hbdcf293e35d65a4fE },
    Symbol { offset: 55555563c7e0, size: 177, name: _ZN12clap_builder4util8flat_map20FlatMap$LT$K$C$V$GT$16extend_unchecked17h8a05ba5cd91d89acE },
    Symbol { offset: 555555697b28, size: 18, name: anon.24ff92d6b1c512aeec81336a8d2ba21e.31.llvm.14773156567859404580 },
    Symbol { offset: 55555563c960, size: 1dd, name: _ZN12clap_builder4util8flat_map20FlatMap$LT$K$C$V$GT$6remove17h4d100b887889c8c6E },
    Symbol { offset: 555555697a68, size: 18, name: anon.24ff92d6b1c512aeec81336a8d2ba21e.23.llvm.14773156567859404580 },
    Symbol { offset: 555555697a80, size: 18, name: anon.24ff92d6b1c512aeec81336a8d2ba21e.24.llvm.14773156567859404580 },
    Symbol { offset: 555555697ab0, size: 18, name: anon.24ff92d6b1c512aeec81336a8d2ba21e.26.llvm.14773156567859404580 },
    Symbol { offset: 55555563cb40, size: 142, name: _ZN12clap_builder4util8flat_map18Entry$LT$K$C$V$GT$9or_insert17h296c702cf5bd55adE },
    Symbol { offset: 555555697ac8, size: 18, name: anon.24ff92d6b1c512aeec81336a8d2ba21e.27.llvm.14773156567859404580 },
    Symbol { offset: 555555697ae0, size: 18, name: anon.24ff92d6b1c512aeec81336a8d2ba21e.28.llvm.14773156567859404580 },
    Symbol { offset: 555555697af8, size: 18, name: anon.24ff92d6b1c512aeec81336a8d2ba21e.29.llvm.14773156567859404580 },
    Symbol { offset: 555555697b10, size: 18, name: anon.24ff92d6b1c512aeec81336a8d2ba21e.30.llvm.14773156567859404580 },
    Symbol { offset: 555555697b40, size: 18, name: anon.24ff92d6b1c512aeec81336a8d2ba21e.32.llvm.14773156567859404580 },
    Symbol { offset: 55555559635a, size: 70, name: anon.24ff92d6b1c512aeec81336a8d2ba21e.19.llvm.14773156567859404580 },
    Symbol { offset: 55555563a2a0, size: 26d, name: _ZN12clap_builder5error14Error$LT$F$GT$19subcommand_conflict17h88246c2fdc74623dE },
    Symbol { offset: 555555639820, size: 18, name: _ZN4core3ptr42drop_in_place$LT$alloc..string..String$GT$17hd6d205257de6c30dE.llvm.14773156567859404580 },
    Symbol { offset: 555555639820, size: 18, name: _ZN4core3ptr47drop_in_place$LT$std..ffi..os_str..OsString$GT$17h062ef9cf74b44880E.llvm.14773156567859404580 },
    Symbol { offset: 55555563ced0, size: 82, name: _ZN4core3ptr127drop_in_place$LT$alloc..vec..Vec$LT$$LP$$LP$usize$C$alloc..string..String$RP$$C$$RF$clap_builder..builder..arg..Arg$RP$$GT$$GT$17hc7535cddb307d0cbE },
    Symbol { offset: 55555563cf60, size: 82, name: _ZN4core3ptr150drop_in_place$LT$alloc..vec..Vec$LT$$LP$usize$C$clap_builder..builder..styled_str..StyledStr$C$$RF$clap_builder..builder..command..Command$RP$$GT$$GT$17h38509fed98cbb4fcE },
    Symbol { offset: 55555563cff0, size: 15c, name: _ZN4core5slice4sort6shared5pivot11median3_rec17h9af05b954df0e606E },
    Symbol { offset: 55555563d150, size: 155, name: _ZN4core5slice4sort6shared5pivot11median3_rec17he84b7e86039ff455E },
    Symbol { offset: 5555555a0c20, size: 10, name: anon.ef2098692bd3b92a41bce418068f984f.0.llvm.6144304332173156340 },
    Symbol { offset: 55555563cc90, size: 181, name: _ZN104_$LT$core..iter..adapters..cloned..Cloned$LT$I$GT$$u20$as$u20$core..iter..traits..iterator..Iterator$GT$4next17h461f7db9bff1b079E },
    Symbol { offset: 55555563ce20, size: a9, name: _ZN104_$LT$core..iter..adapters..cloned..Cloned$LT$I$GT$$u20$as$u20$core..iter..traits..iterator..Iterator$GT$4next17ha8b643243e286916E },
    Symbol { offset: 55555563d2b0, size: 14f, name: _ZN4core5slice4sort6shared5pivot11median3_rec17hfe12899b3c9e6358E.llvm.6144304332173156340 },
    Symbol { offset: 55555563d400, size: 135, name: _ZN4core5slice4sort6shared5pivot12choose_pivot17h1b6d27d4be656eaeE },
    Symbol { offset: 55555563d540, size: 14c, name: _ZN4core5slice4sort6shared5pivot12choose_pivot17h9be96d1088376cb0E },
    Symbol { offset: 55555563d690, size: 150, name: _ZN4core5slice4sort6shared5pivot12choose_pivot17hdf2940fe74221f6fE },
    Symbol { offset: 55555563d7e0, size: 134, name: _ZN4core5slice4sort6stable14driftsort_main17h2cb4205551e6a6daE },
    Symbol { offset: 55555563dbe0, size: 5d4, name: _ZN4core5slice4sort6stable5drift4sort17h0c2aa8502d7c87a4E },
    Symbol { offset: 55555563d920, size: 15d, name: _ZN4core5slice4sort6stable14driftsort_main17h59885575a40cb549E },
    Symbol { offset: 55555563e7f0, size: 62f, name: _ZN4core5slice4sort6stable5drift4sort17h9b67578c984192b0E },
    Symbol { offset: 55555563da80, size: 15d, name: _ZN4core5slice4sort6stable14driftsort_main17hcb37a476531ba0f9E },
    Symbol { offset: 55555563e1c0, size: 62f, name: _ZN4core5slice4sort6stable5drift4sort17h2022f7fdb0782f62E },
    Symbol { offset: 5555555a100c, size: 4, name: .Lanon.f112ae569857b6685d39b3568e26d33a.14 },
    Symbol { offset: 5555555a1094, size: 4, name: .Lanon.f112ae569857b6685d39b3568e26d33a.16 },
    Symbol { offset: 5555556403f0, size: 13, name: _ZN68_$LT$clap_builder..builder..str..Str$u20$as$u20$core..fmt..Debug$GT$3fmt17h5b9c7f1a3fa84a8fE },
    Symbol { offset: 5555555a08c0, size: 10, name: .Lanon.f112ae569857b6685d39b3568e26d33a.25 },
    Symbol { offset: 5555555a0ff0, size: 4, name: .Lanon.f112ae569857b6685d39b3568e26d33a.22 },
    Symbol { offset: 55555563ee20, size: 1a8, name: _ZN104_$LT$core..iter..adapters..copied..Copied$LT$I$GT$$u20$as$u20$core..iter..traits..iterator..Iterator$GT$4fold17h26ae25833f59d420E },
    Symbol { offset: 555555697bb0, size: 18, name: anon.f112ae569857b6685d39b3568e26d33a.24.llvm.13795077942256327412 },
    Symbol { offset: 55555563f270, size: 45, name: _ZN4core3ptr73drop_in_place$LT$clap_builder..builder..possible_value..PossibleValue$GT$17hf849e3b8c7416193E.llvm.13795077942256327412 },
    Symbol { offset: 55555563efd0, size: 15, name: _ZN36_$LT$T$u20$as$u20$core..any..Any$GT$7type_id17h6a62834b70985760E },
    Symbol { offset: 55555563eff0, size: 15, name: _ZN42_$LT$$RF$T$u20$as$u20$core..fmt..Debug$GT$3fmt17h577f262c959504bcE },
    Symbol { offset: 55555563f010, size: 2b, name: _ZN42_$LT$$RF$T$u20$as$u20$core..fmt..Debug$GT$3fmt17h8ef65b358ff814e0E },
    Symbol { offset: 55555563f040, size: 13, name: _ZN44_$LT$$RF$T$u20$as$u20$core..fmt..Display$GT$3fmt17h682c7ad3debb5c04E },
    Symbol { offset: 55555563f060, size: 13, name: _ZN44_$LT$$RF$T$u20$as$u20$core..fmt..Display$GT$3fmt17hccc9e7ef1c1b44dfE },
    Symbol { offset: 55555563f080, size: 1e7, name: _ZN4core3ops8function5impls79_$LT$impl$u20$core..ops..function..FnMut$LT$A$GT$$u20$for$u20$$RF$mut$u20$F$GT$8call_mut17h17a70a35ec54e73bE },
    Symbol { offset: 55555563f2c0, size: 3, name: _ZN4core5error5Error5cause17h145d68f9e5181f32E },
    Symbol { offset: 55555563f2d0, size: 3, name: _ZN4core5error5Error5cause17hce2e871c4c4ae541E },
    Symbol { offset: 55555563f2e0, size: 15, name: _ZN4core5error5Error7type_id17h3b7cf1e559b90979E },
    Symbol { offset: 55555563f300, size: 15, name: _ZN4core5error5Error7type_id17hd38e27edce578886E },
    Symbol { offset: 55555563f320, size: 487, name: _ZN5alloc3str17join_generic_copy17h4e90c8a71bc2e695E },
    Symbol { offset: 55555563f7b0, size: 49b, name: _ZN5alloc3str17join_generic_copy17h752f3d5915571b1cE },
    Symbol { offset: 55555563fc50, size: 49b, name: _ZN5alloc3str17join_generic_copy17hf715b25a963db2edE },
    Symbol { offset: 5555556400f0, size: 14, name: _ZN64_$LT$alloc..borrow..Cow$LT$B$GT$$u20$as$u20$core..fmt..Debug$GT$3fmt17h020726222e2543d6E },
    Symbol { offset: 555555640110, size: 14, name: _ZN66_$LT$alloc..borrow..Cow$LT$B$GT$$u20$as$u20$core..fmt..Display$GT$3fmt17h772c4fdbd900d26cE },
    Symbol { offset: 555555640130, size: 86, name: _ZN79_$LT$std..ffi..os_str..OsString$u20$as$u20$core..convert..From$LT$$RF$T$GT$$GT$4from17h54bd3a97e196e50dE },
    Symbol { offset: 5555556401c0, size: 165, name: _ZN12clap_builder7builder14possible_value13PossibleValue7matches17h4281ed9ddd46c608E },
    Symbol { offset: 555555640330, size: b4, name: _ZN123_$LT$I$u20$as$u20$clap_builder..builder..resettable..IntoResettable$LT$clap_builder..builder..styled_str..StyledStr$GT$$GT$15into_resettable17he4f73fea6eebe357E },
    Symbol { offset: 5555555964e2, size: 75, name: anon.f112ae569857b6685d39b3568e26d33a.23.llvm.13795077942256327412 },
    Symbol { offset: 5555555a1010, size: 4, name: anon.f112ae569857b6685d39b3568e26d33a.45.llvm.13795077942256327412 },
    Symbol { offset: 5555555a08c0, size: 10, name: .Lanon.57e7e8bacb11dfe46cfccc0aa0f2647d.16 },
    Symbol { offset: 555555640600, size: 18, name: _ZN4core3ptr42drop_in_place$LT$alloc..string..String$GT$17hd6d205257de6c30dE },
    Symbol { offset: 555555640620, size: 82, name: _ZN4core3ptr87drop_in_place$LT$clap_builder..util..flat_set..FlatSet$LT$alloc..string..String$GT$$GT$17h3c077fcd7010b02cE },
    Symbol { offset: 555555640a50, size: 26e, name: _ZN4core5slice4sort6shared9smallsort12sort4_stable17h6c518f477132835fE },
    Symbol { offset: 555555640cc0, size: 233, name: _ZN4core5slice4sort6shared9smallsort12sort4_stable17had030f69bcb926a6E },
    Symbol { offset: 555555640f00, size: 260, name: _ZN4core5slice4sort6shared9smallsort12sort4_stable17hb160ec5c9362166dE },
    Symbol { offset: 555555642160, size: 15, name: _ZN53_$LT$core..fmt..Error$u20$as$u20$core..fmt..Debug$GT$3fmt17h6736176c8e29474eE },
    Symbol { offset: 555555642180, size: 123, name: _ZN58_$LT$alloc..string..String$u20$as$u20$core..fmt..Write$GT$10write_char17h13db4e3872bba170E },
    Symbol { offset: 5555556422b0, size: 67, name: _ZN58_$LT$alloc..string..String$u20$as$u20$core..fmt..Write$GT$9write_str17h3471f8bf4fd2c6acE },
    Symbol { offset: 555555640410, size: 15, name: _ZN36_$LT$T$u20$as$u20$core..any..Any$GT$7type_id17h1a2663d71528bd2fE },
    Symbol { offset: 555555640430, size: 15, name: _ZN36_$LT$T$u20$as$u20$core..any..Any$GT$7type_id17h1f48e145faee9855E },
    Symbol { offset: 555555640450, size: 14, name: _ZN44_$LT$$RF$T$u20$as$u20$core..fmt..Display$GT$3fmt17h3c8954201c04ab38E },
    Symbol { offset: 555555640470, size: 10, name: _ZN44_$LT$$RF$T$u20$as$u20$core..fmt..Display$GT$3fmt17h86c7bc535b10f5f7E },
    Symbol { offset: 555555640480, size: 10, name: _ZN4core3fmt5Write9write_fmt17hb2b38185aa8333c7E },
    Symbol { offset: 555555640490, size: 166, name: _ZN4core3ops8function5impls79_$LT$impl$u20$core..ops..function..FnMut$LT$A$GT$$u20$for$u20$$RF$mut$u20$F$GT$8call_mut17h0e6b1436d36b86deE },
    Symbol { offset: 5555556406b0, size: 134, name: _ZN4core5slice4sort6shared9smallsort11insert_tail17h232870a8454eb6bdE.llvm.18272423429892007616 },
    Symbol { offset: 5555556407f0, size: 134, name: _ZN4core5slice4sort6shared9smallsort11insert_tail17h830da913366e1c8fE.llvm.18272423429892007616 },
    Symbol { offset: 555555640930, size: 115, name: _ZN4core5slice4sort6shared9smallsort11insert_tail17hdfe1702727ee0808E.llvm.18272423429892007616 },
    Symbol { offset: 555555641160, size: 54e, name: _ZN4core5slice4sort6shared9smallsort31small_sort_general_with_scratch17hc26216f77deb780fE },
    Symbol { offset: 5555556416b0, size: 4e4, name: _ZN4core5slice4sort6shared9smallsort31small_sort_general_with_scratch17hdb0a96d8e0c1b9b5E },
    Symbol { offset: 555555641ba0, size: 54c, name: _ZN4core5slice4sort6shared9smallsort31small_sort_general_with_scratch17hdd686036f159fb3aE },
    Symbol { offset: 5555556420f0, size: 68, name: _ZN53_$LT$T$u20$as$u20$core..slice..cmp..SliceContains$GT$14slice_contains17h39d91e7e1d339850E },
    Symbol { offset: 555555697c30, size: 18, name: anon.57e7e8bacb11dfe46cfccc0aa0f2647d.14.llvm.18272423429892007616 },
    Symbol { offset: 555555697c48, size: 18, name: anon.57e7e8bacb11dfe46cfccc0aa0f2647d.18.llvm.18272423429892007616 },
    Symbol { offset: 555555642320, size: 152, name: _ZN117_$LT$clap_builder..util..flat_set..FlatSet$LT$T$GT$$u20$as$u20$core..iter..traits..collect..FromIterator$LT$T$GT$$GT$9from_iter17hc5db23900abe964fE },
    Symbol { offset: 555555642480, size: 451, name: _ZN117_$LT$clap_builder..util..flat_set..FlatSet$LT$T$GT$$u20$as$u20$core..iter..traits..collect..FromIterator$LT$T$GT$$GT$9from_iter17he5acac3ca469eee5E },
    Symbol { offset: 555555596646, size: 75, name: anon.57e7e8bacb11dfe46cfccc0aa0f2647d.13.llvm.18272423429892007616 },
    Symbol { offset: 5555555966bb, size: 70, name: anon.57e7e8bacb11dfe46cfccc0aa0f2647d.17.llvm.18272423429892007616 },
    Symbol { offset: 5555556428e0, size: 103, name: _ZN13terminal_size4unix13terminal_size17h36cfae79f4ed6234E },
    Symbol { offset: 5555556429f0, size: 13, name: _ZN42_$LT$$RF$T$u20$as$u20$core..fmt..Debug$GT$3fmt17h0c241a3946be0dc1E },
    Symbol { offset: 5555555a1094, size: 4, name: .Lanon.83d536dbdd150f32083c1ea3854205ca.7 },
    Symbol { offset: 5555555a100c, size: 4, name: .Lanon.83d536dbdd150f32083c1ea3854205ca.5 },
    Symbol { offset: 555555642a60, size: 26, name: _ZN42_$LT$$RF$T$u20$as$u20$core..fmt..Debug$GT$3fmt17he1e46241c218cc8aE },
    Symbol { offset: 5555555a08c0, size: 10, name: .Lanon.83d536dbdd150f32083c1ea3854205ca.10 },
    Symbol { offset: 555555642a10, size: 49, name: _ZN42_$LT$$RF$T$u20$as$u20$core..fmt..Debug$GT$3fmt17hd99df2538ec85c6bE },
    Symbol { offset: 555555642a86, size: 2e, name: _ZN4core9panicking13assert_failed17h001e00ff54159f04E },
    Symbol { offset: 555555642ac0, size: 91, name: _ZN67_$LT$std..ffi..os_str..OsStr$u20$as$u20$clap_lex..ext..OsStrExt$GT$8contains17h5e099995b9e3c087E },
    Symbol { offset: 555555697cb0, size: 18, name: anon.83d536dbdd150f32083c1ea3854205ca.9.llvm.14971110674999524433 },
    Symbol { offset: 555555642b60, size: 35, name: _ZN67_$LT$std..ffi..os_str..OsStr$u20$as$u20$clap_lex..ext..OsStrExt$GT$12strip_prefix17h5062f3365c8f85c4E },
    Symbol { offset: 555555642ba0, size: 56, name: _ZN67_$LT$std..ffi..os_str..OsStr$u20$as$u20$clap_lex..ext..OsStrExt$GT$5split17h1ba6205864a1557cE },
    Symbol { offset: 555555642c00, size: f1, name: _ZN67_$LT$std..ffi..os_str..OsStr$u20$as$u20$clap_lex..ext..OsStrExt$GT$10split_once17h734f1b0b5bd2b395E },
    Symbol { offset: 555555697ce0, size: 18, name: anon.83d536dbdd150f32083c1ea3854205ca.12.llvm.14971110674999524433 },
    Symbol { offset: 555555697cf8, size: 18, name: anon.83d536dbdd150f32083c1ea3854205ca.13.llvm.14971110674999524433 },
    Symbol { offset: 555555642d00, size: 6b, name: _ZN79_$LT$clap_lex..ext..Split$u20$as$u20$core..iter..traits..iterator..Iterator$GT$4next17h82854dbda7afebcdE },
    Symbol { offset: 555555697c60, size: 10, name: anon.83d536dbdd150f32083c1ea3854205ca.1.llvm.14971110674999524433 },
    Symbol { offset: 555555697d10, size: 18, name: anon.83d536dbdd150f32083c1ea3854205ca.14.llvm.14971110674999524433 },
    Symbol { offset: 55555559672b, size: 9, name: anon.83d536dbdd150f32083c1ea3854205ca.0.llvm.14971110674999524433 },
    Symbol { offset: 555555596734, size: 61, name: anon.83d536dbdd150f32083c1ea3854205ca.8.llvm.14971110674999524433 },
    Symbol { offset: 555555642d70, size: 23, name: _ZN4core3fmt3num52_$LT$impl$u20$core..fmt..Debug$u20$for$u20$usize$GT$3fmt17h7abaade222174992E },
    Symbol { offset: 555555642da0, size: 63, name: _ZN64_$LT$core..str..error..Utf8Error$u20$as$u20$core..fmt..Debug$GT$3fmt17hc3bfda3fc8f6bdd8E },
    Symbol { offset: 555555642e10, size: 31, name: _ZN8clap_lex7RawArgs4next17h468946739d6b2e20E },
    Symbol { offset: 555555642e50, size: 31, name: _ZN8clap_lex7RawArgs7next_os17h01038520781505c6E },
    Symbol { offset: 555555642e90, size: 1f, name: _ZN8clap_lex7RawArgs4peek17h9a74bb841d208386E },
    Symbol { offset: 555555642eb0, size: 38, name: _ZN8clap_lex7RawArgs9remaining17h0941ce365614fa08E },
    Symbol { offset: 555555642ef0, size: 48, name: _ZN8clap_lex7RawArgs4seek17h6e21b31b998eb80aE },
    Symbol { offset: 555555642f40, size: 16, name: _ZN8clap_lex9ParsedArg9is_escape17h2d1d680866edfc8bE },
    Symbol { offset: 555555642f60, size: e1, name: _ZN8clap_lex9ParsedArg18is_negative_number17h304e7d672209a122E },
    Symbol { offset: 555555643050, size: c0, name: _ZN8clap_lex9ParsedArg7to_long17ha93e947e20681e42E },
    Symbol { offset: 555555643110, size: 28, name: _ZN8clap_lex9ParsedArg7is_long17hcc7d8671c91ac292E },
    Symbol { offset: 555555643140, size: 13d, name: _ZN8clap_lex9ParsedArg8to_short17hbe7161940fe29689E },
    Symbol { offset: 555555643280, size: 2a, name: _ZN8clap_lex9ParsedArg8is_short17hdce223ce1f1c76c1E },
    Symbol { offset: 5555556432b0, size: 50, name: _ZN8clap_lex9ParsedArg8to_value17h785032c27b695c61E },
    Symbol { offset: 555555643300, size: 19, name: _ZN8clap_lex9ParsedArg7display17h092fbe9659b226ceE },
    Symbol { offset: 555555643320, size: 8f, name: _ZN8clap_lex10ShortFlags10advance_by17hca84aa098d4b4b02E },
    Symbol { offset: 5555556433b0, size: 10, name: _ZN8clap_lex10ShortFlags8is_empty17h40227e62359a61e6E },
    Symbol { offset: 5555556433c0, size: ae, name: _ZN8clap_lex10ShortFlags18is_negative_number17h9adbbada3ec5a77eE },
    Symbol { offset: 555555643470, size: dd, name: _ZN8clap_lex10ShortFlags9next_flag17h0f6c6cee53d89911E },
    Symbol { offset: 555555643550, size: 8d, name: _ZN8clap_lex10ShortFlags13next_value_os17he765375b42b3ffc1E },
    Symbol { offset: 5555556435e0, size: dd, name: _ZN79_$LT$clap_lex..ShortFlags$u20$as$u20$core..iter..traits..iterator..Iterator$GT$4next17hf557056be6264258E },
    Symbol { offset: 5555556436c0, size: 13, name: _ZN44_$LT$$RF$T$u20$as$u20$core..fmt..Display$GT$3fmt17hb4bcc36f06b363d4E },
    Symbol { offset: 5555555a08c0, size: 10, name: .Lanon.3a8be763536670b3dea5ce0c8c9f9dec.45 },
    Symbol { offset: 5555556436e0, size: d0, name: _ZN7anstyle5color13DisplayBuffer9write_str17hba7d41187e848301E },
    Symbol { offset: 5555556437b0, size: e2, name: _ZN7anstyle5color13DisplayBuffer10write_code17h45dab08f0fd0f8e3E },
    Symbol { offset: 5555556438a0, size: 631, name: _ZN7anstyle5style5Style6fmt_to17hf86c366c6f74e01aE },
    Symbol { offset: 555555643ee0, size: 6, name: _ZN67_$LT$anstyle..style..StyleDisplay$u20$as$u20$core..fmt..Display$GT$3fmt17h91da961ceb392ee9E },
    Symbol { offset: 555555643ef0, size: 1a, name: _ZN36_$LT$T$u20$as$u20$core..any..Any$GT$7type_id17h15a99ad6fa19ea84E },
    Symbol { offset: 555555643f10, size: 1a, name: _ZN36_$LT$T$u20$as$u20$core..any..Any$GT$7type_id17ha7d93e114b1d1dacE },
    Symbol { offset: 5555555a100c, size: 4, name: .Lanon.9ba542688b8e296d0080271b2a3eb5fb.139 },
    Symbol { offset: 5555555a1094, size: 4, name: .Lanon.9ba542688b8e296d0080271b2a3eb5fb.140 },
    Symbol { offset: 555555643f30, size: 15, name: _ZN42_$LT$$RF$T$u20$as$u20$core..fmt..Debug$GT$3fmt17h33588e308e4e0824E },
    Symbol { offset: 555555643f50, size: 2d, name: _ZN42_$LT$$RF$T$u20$as$u20$core..fmt..Debug$GT$3fmt17h4d64995e45ae3235E },
    Symbol { offset: 555555643f80, size: 2d, name: _ZN42_$LT$$RF$T$u20$as$u20$core..fmt..Debug$GT$3fmt17h6ee17d06866f47f8E },
    Symbol { offset: 555555643fb0, size: 74, name: _ZN42_$LT$$RF$T$u20$as$u20$core..fmt..Debug$GT$3fmt17hba6f6560d5921ca2E },
    Symbol { offset: 555555644030, size: 1a, name: _ZN42_$LT$$RF$T$u20$as$u20$core..fmt..Debug$GT$3fmt17hc092e40a8d735e6fE },
    Symbol { offset: 555555644050, size: 2d, name: _ZN42_$LT$$RF$T$u20$as$u20$core..fmt..Debug$GT$3fmt17hd7bfd816cbb7ea89E },
    Symbol { offset: 555555644080, size: 18, name: _ZN42_$LT$$RF$T$u20$as$u20$core..fmt..Debug$GT$3fmt17he9206c47331b624cE },
    Symbol { offset: 5555556440a0, size: 7b, name: _ZN44_$LT$$RF$T$u20$as$u20$core..fmt..Display$GT$3fmt17h1529f64c0f9b353fE },
    Symbol { offset: 555555644120, size: 18, name: _ZN44_$LT$$RF$T$u20$as$u20$core..fmt..Display$GT$3fmt17he7a76e7114bf10d3E },
    Symbol { offset: 555555644140, size: 2a, name: _ZN4core3fmt3num50_$LT$impl$u20$core..fmt..Debug$u20$for$u20$i32$GT$3fmt17h4e402c08dfbc55c7E },
    Symbol { offset: 555555644170, size: 2a, name: _ZN4core3fmt3num52_$LT$impl$u20$core..fmt..Debug$u20$for$u20$usize$GT$3fmt17h7abaade222174992E },
    Symbol { offset: 5555556441a0, size: f6, name: _ZN4core3fmt5Write10write_char17h19b07edce3a70564E },
    Symbol { offset: 555555646040, size: a4, name: _ZN4core3ptr42drop_in_place$LT$std..io..error..Error$GT$17he7548b4c96d240f5E },
    Symbol { offset: 5555556442a0, size: 192, name: _ZN4core3fmt5Write10write_char17h2b17f3c14b06bf1aE },
    Symbol { offset: 555555644440, size: f6, name: _ZN4core3fmt5Write10write_char17h4a482e3b0d0152bdE },
    Symbol { offset: 555555644540, size: 142, name: _ZN4core3fmt5Write10write_char17h606739a9ff32e7b7E },
    Symbol { offset: 555555644690, size: 105, name: _ZN4core3fmt5Write10write_char17h9bdf2b9906fedae4E },
    Symbol { offset: 555555650810, size: da, name: _ZN5alloc7raw_vec20RawVecInner$LT$A$GT$7reserve21do_reserve_and_handle17h670a9f23f7f6b510E },
    Symbol { offset: 5555556447a0, size: 15, name: _ZN4core3fmt5Write9write_fmt17h043340bf94e6921aE },
    Symbol { offset: 5555556447c0, size: 15, name: _ZN4core3fmt5Write9write_fmt17h205b03c948deeea3E },
    Symbol { offset: 5555556447e0, size: 15, name: _ZN4core3fmt5Write9write_fmt17h4f6d78fd0ee2779cE },
    Symbol { offset: 555555644800, size: 15, name: _ZN4core3fmt5Write9write_fmt17hd22c06cbf5bd9365E },
    Symbol { offset: 555555644820, size: 15, name: _ZN4core3fmt5Write9write_fmt17hf0d9e068c70895c6E },
    Symbol { offset: 555555644840, size: 15, name: _ZN4core3fmt5Write9write_fmt17hfcdf34c3bdca6217E },
    Symbol { offset: 555555644860, size: 109, name: _ZN4core3num21_$LT$impl$u20$u64$GT$16from_ascii_radix17h3267784428f24dd8E },
    Symbol { offset: 555555644970, size: 174, name: _ZN4core3num23_$LT$impl$u20$usize$GT$16from_ascii_radix17h975fd71a36bab2e3E },
    Symbol { offset: 55555566f630, size: 1da, name: _ZN3std3sys2fs4unix8readlink17h9c8c6556630c0d34E },
    Symbol { offset: 555555644af0, size: 1b, name: _ZN4core3ops8function2Fn4call17h68b7e05501b05d6eE },
    Symbol { offset: 55555566f810, size: d4, name: _ZN3std3sys2fs4unix12canonicalize17h003b96f633afb820E },
    Symbol { offset: 55555566f8f0, size: 2c8, name: _ZN3std3sys2fs4unix9try_statx17h9829f7719a7500f0E },
    Symbol { offset: 555555644b10, size: d8, name: _ZN4core3ops8function2Fn4call17hef9e0cb4ab4204abE },
    Symbol { offset: 555555644bf0, size: a, name: _ZN4core3ops8function6FnOnce40call_once$u7b$$u7b$vtable.shim$u7d$$u7d$17h070d8cfa6f3af5e9E },
    Symbol { offset: 55555566ab50, size: 14c, name: _ZN3std3sys9backtrace10_print_fmt28_$u7b$$u7b$closure$u7d$$u7d$17h5f2b45e1c9b2f198E },
    Symbol { offset: 555555644c00, size: 99, name: _ZN4core3ops8function6FnOnce40call_once$u7b$$u7b$vtable.shim$u7d$$u7d$17h3b1836714060e601E },
    Symbol { offset: 55555566af50, size: 119, name: _ZN3std3sys9backtrace15output_filename17h095cb4e9ea829c87E },
    Symbol { offset: 555555645090, size: 2d, name: _ZN4core3ptr118drop_in_place$LT$$LT$std..backtrace..Backtrace$u20$as$u20$core..fmt..Display$GT$..fmt..$u7b$$u7b$closure$u7d$$u7d$$GT$17h60397d870bf821dbE },
    Symbol { offset: 555555644ca0, size: 87, name: _ZN4core3ops8function6FnOnce40call_once$u7b$$u7b$vtable.shim$u7d$$u7d$17h3d85acfa00f4a637E },
    Symbol { offset: 555555644d30, size: 11, name: _ZN4core3ops8function6FnOnce40call_once$u7b$$u7b$vtable.shim$u7d$$u7d$17h4cfdcc9aadb0a73cE },
    Symbol { offset: 555555644d50, size: 1e, name: _ZN4core3ops8function6FnOnce40call_once$u7b$$u7b$vtable.shim$u7d$$u7d$17h5beb73cf84614bb5E },
    Symbol { offset: 555555669820, size: 27c, name: _ZN3std4sync6poison4once4Once9call_once28_$u7b$$u7b$closure$u7d$$u7d$17h084b1677c2f2a746E },
    Symbol { offset: 555555644d70, size: 1e, name: _ZN4core3ops8function6FnOnce40call_once$u7b$$u7b$vtable.shim$u7d$$u7d$17h62d94533df7f21aaE },
    Symbol { offset: 55555566cd30, size: 251, name: _ZN3std9backtrace6helper12lazy_resolve28_$u7b$$u7b$closure$u7d$$u7d$28_$u7b$$u7b$closure$u7d$$u7d$17h6ee7fd4e9047121aE },
    Symbol { offset: 555555644d90, size: 1e, name: _ZN4core3ops8function6FnOnce40call_once$u7b$$u7b$vtable.shim$u7d$$u7d$17h6bd6d586792b9fbaE },
    Symbol { offset: 555555669aa0, size: 1de, name: _ZN3std4sync6poison4once4Once9call_once28_$u7b$$u7b$closure$u7d$$u7d$17h93ab614b47dc146dE },
    Symbol { offset: 555555644db0, size: 82, name: _ZN4core3ops8function6FnOnce40call_once$u7b$$u7b$vtable.shim$u7d$$u7d$17h8b38724a51f93b8fE },
    Symbol { offset: 555555646a90, size: 26, name: _ZN4core3ptr77drop_in_place$LT$std..panicking..begin_panic_handler..FormatStringPayload$GT$17habfcd3ba83f08d1eE },
    Symbol { offset: 555555644e40, size: 88, name: _ZN4core3ops8function6FnOnce40call_once$u7b$$u7b$vtable.shim$u7d$$u7d$17ha4f9de4c30777a9fE },
    Symbol { offset: 555555644ed0, size: d, name: _ZN4core3ops8function6FnOnce40call_once$u7b$$u7b$vtable.shim$u7d$$u7d$17ha658793c13c94eb5E },
    Symbol { offset: 555555663270, size: 155, name: _ZN3std9backtrace9Backtrace6create28_$u7b$$u7b$closure$u7d$$u7d$17h3ff673e3bc098c66E },
    Symbol { offset: 555555644ee0, size: 11, name: _ZN4core3ops8function6FnOnce40call_once$u7b$$u7b$vtable.shim$u7d$$u7d$17hda18066a3eaa7f4fE },
    Symbol { offset: 555555644f00, size: a, name: _ZN4core3ops8function6FnOnce40call_once$u7b$$u7b$vtable.shim$u7d$$u7d$17hdd452b4828c9b19cE },
    Symbol { offset: 55555566aca0, size: 298, name: _ZN3std3sys9backtrace10_print_fmt28_$u7b$$u7b$closure$u7d$$u7d$28_$u7b$$u7b$closure$u7d$$u7d$17hc1bbb2be2d8fdf68E },
    Symbol { offset: 555555644f10, size: 49, name: _ZN4core3ops8function6FnOnce40call_once$u7b$$u7b$vtable.shim$u7d$$u7d$17hed2b2b7439ce0869E },
    Symbol { offset: 555555644f60, size: ab, name: _ZN4core3ops8function6FnOnce40call_once$u7b$$u7b$vtable.shim$u7d$$u7d$17hf8e862da970a516cE },
    Symbol { offset: 555555645010, size: 31, name: _ZN4core3ops8function6FnOnce9call_once17h4277bc41dcad3080E },
    Symbol { offset: 555555645050, size: 31, name: _ZN4core3ops8function6FnOnce9call_once17hbba1cfca2ff62155E },
    Symbol { offset: 5555556450c0, size: 17, name: _ZN4core3ptr119drop_in_place$LT$std..io..default_write_fmt..Adapter$LT$std..io..cursor..Cursor$LT$$RF$mut$u20$$u5b$u8$u5d$$GT$$GT$$GT$17h41ce6725cb488ff2E },
    Symbol { offset: 5555556450e0, size: 62, name: _ZN4core3ptr123drop_in_place$LT$addr2line..Context$LT$gimli..read..endian_slice..EndianSlice$LT$gimli..endianity..LittleEndian$GT$$GT$$GT$17h8403f5b5343d30ecE },
    Symbol { offset: 5555556452a0, size: dd, name: _ZN4core3ptr130drop_in_place$LT$addr2line..unit..ResUnits$LT$gimli..read..endian_slice..EndianSlice$LT$gimli..endianity..LittleEndian$GT$$GT$$GT$17h53a6bdbbfad35fe9E },
    Symbol { offset: 555555645380, size: dd, name: _ZN4core3ptr130drop_in_place$LT$addr2line..unit..SupUnits$LT$gimli..read..endian_slice..EndianSlice$LT$gimli..endianity..LittleEndian$GT$$GT$$GT$17hf3df7faf6b2a5d32E },
    Symbol { offset: 555555645150, size: f3, name: _ZN4core3ptr129drop_in_place$LT$addr2line..unit..ResUnit$LT$gimli..read..endian_slice..EndianSlice$LT$gimli..endianity..LittleEndian$GT$$GT$$GT$17h7342008494b0f0ccE },
    Symbol { offset: 555555645bf0, size: 9f, name: _ZN4core3ptr181drop_in_place$LT$core..option..Option$LT$gimli..read..line..IncompleteLineProgram$LT$gimli..read..endian_slice..EndianSlice$LT$gimli..endianity..LittleEndian$GT$$C$usize$GT$$GT$$GT$17h82c0fe46d027eab5E },
    Symbol { offset: 555555646d10, size: f9, name: _ZN4core3ptr92drop_in_place$LT$core..result..Result$LT$addr2line..line..Lines$C$gimli..read..Error$GT$$GT$17h852519832365cbbfE },
    Symbol { offset: 555555645c90, size: e5, name: _ZN4core3ptr184drop_in_place$LT$core..result..Result$LT$addr2line..function..Functions$LT$gimli..read..endian_slice..EndianSlice$LT$gimli..endianity..LittleEndian$GT$$GT$$C$gimli..read..Error$GT$$GT$17h26c2fb439f2ee553E },
    Symbol { offset: 555555645e20, size: ae, name: _ZN4core3ptr231drop_in_place$LT$core..result..Result$LT$core..option..Option$LT$alloc..boxed..Box$LT$addr2line..unit..DwoUnit$LT$gimli..read..endian_slice..EndianSlice$LT$gimli..endianity..LittleEndian$GT$$GT$$GT$$GT$$C$gimli..read..Error$GT$$GT$17h628e898bb229f61cE },
    Symbol { offset: 555555645250, size: 4b, name: _ZN4core3ptr129drop_in_place$LT$addr2line..unit..SupUnit$LT$gimli..read..endian_slice..EndianSlice$LT$gimli..endianity..LittleEndian$GT$$GT$$GT$17hf851c68c21a64fc7E },
    Symbol { offset: 555555645460, size: 5c, name: _ZN4core3ptr130drop_in_place$LT$gimli..read..dwarf..Dwarf$LT$gimli..read..endian_slice..EndianSlice$LT$gimli..endianity..LittleEndian$GT$$GT$$GT$17h0c93c59d36616469E },
    Symbol { offset: 555555646540, size: dd, name: _ZN4core3ptr60drop_in_place$LT$gimli..read..abbrev..AbbreviationsCache$GT$17hca29b48f79ccdd8cE },
    Symbol { offset: 5555556454c0, size: 69, name: _ZN4core3ptr131drop_in_place$LT$alloc..boxed..Box$LT$dyn$u20$core..ops..function..FnOnce$LT$$LP$$RP$$GT$$u2b$Output$u20$$u3d$$u20$$LP$$RP$$GT$$GT$17h3641335b5b807fb4E },
    Symbol { offset: 555555645530, size: 61, name: _ZN4core3ptr135drop_in_place$LT$std..sync..poison..PoisonError$LT$std..sync..poison..mutex..MutexGuard$LT$std..sync..barrier..BarrierState$GT$$GT$$GT$17h6e1f6fdc711b6091E },
    Symbol { offset: 5555556455a0, size: 4b, name: _ZN4core3ptr137drop_in_place$LT$gimli..read..dwarf..Unit$LT$gimli..read..endian_slice..EndianSlice$LT$gimli..endianity..LittleEndian$GT$$C$usize$GT$$GT$17h28ef1b4b63fe8adfE },
    Symbol { offset: 5555556455f0, size: 63, name: _ZN4core3ptr138drop_in_place$LT$addr2line..function..LazyFunction$LT$gimli..read..endian_slice..EndianSlice$LT$gimli..endianity..LittleEndian$GT$$GT$$GT$17ha655929ef2834b13E },
    Symbol { offset: 555555645660, size: c6, name: _ZN4core3ptr152drop_in_place$LT$alloc..vec..Vec$LT$addr2line..unit..ResUnit$LT$gimli..read..endian_slice..EndianSlice$LT$gimli..endianity..LittleEndian$GT$$GT$$GT$$GT$17h9e27ee3591c33b89E },
    Symbol { offset: 555555645730, size: f5, name: _ZN4core3ptr152drop_in_place$LT$alloc..vec..Vec$LT$addr2line..unit..SupUnit$LT$gimli..read..endian_slice..EndianSlice$LT$gimli..endianity..LittleEndian$GT$$GT$$GT$$GT$17h9099ff0bcac7ebccE },
    Symbol { offset: 555555645830, size: 5c, name: _ZN4core3ptr159drop_in_place$LT$alloc..sync..ArcInner$LT$gimli..read..dwarf..Dwarf$LT$gimli..read..endian_slice..EndianSlice$LT$gimli..endianity..LittleEndian$GT$$GT$$GT$$GT$17h885c75a5acd26a2eE },
    Symbol { offset: 555555645890, size: bc, name: _ZN4core3ptr161drop_in_place$LT$alloc..vec..Vec$LT$addr2line..function..LazyFunction$LT$gimli..read..endian_slice..EndianSlice$LT$gimli..endianity..LittleEndian$GT$$GT$$GT$$GT$17hd517f36973f12f1cE },
    Symbol { offset: 555555645950, size: b8, name: _ZN4core3ptr164drop_in_place$LT$$u5b$alloc..boxed..Box$LT$dyn$u20$core..ops..function..FnOnce$LT$$LP$$RP$$GT$$u2b$Output$u20$$u3d$$u20$$LP$$RP$$u2b$core..marker..Send$GT$$u5d$$GT$17hfc8d8a4ba1eed7faE },
    Symbol { offset: 555555645a10, size: 6c, name: _ZN4core3ptr172drop_in_place$LT$core..result..Result$LT$addr2line..Context$LT$gimli..read..endian_slice..EndianSlice$LT$gimli..endianity..LittleEndian$GT$$GT$$C$gimli..read..Error$GT$$GT$17h05bc5477d85310e4E },
    Symbol { offset: 555555645a80, size: af, name: _ZN4core3ptr173drop_in_place$LT$alloc..boxed..Box$LT$$u5b$addr2line..function..LazyFunction$LT$gimli..read..endian_slice..EndianSlice$LT$gimli..endianity..LittleEndian$GT$$GT$$u5d$$GT$$GT$17hc0dcdcbbf1e0a5d1E },
    Symbol { offset: 555555645b30, size: 3b, name: _ZN4core3ptr175drop_in_place$LT$std..sync..reentrant_lock..ReentrantLockGuard$LT$core..cell..RefCell$LT$std..io..buffered..linewriter..LineWriter$LT$std..io..stdio..StdoutRaw$GT$$GT$$GT$$GT$17h73b78ef6ee6573f0E },
    Symbol { offset: 555555645b70, size: 71, name: _ZN4core3ptr177drop_in_place$LT$alloc..vec..Vec$LT$alloc..boxed..Box$LT$dyn$u20$core..ops..function..FnOnce$LT$$LP$$RP$$GT$$u2b$Output$u20$$u3d$$u20$$LP$$RP$$u2b$core..marker..Send$GT$$GT$$GT$17hd19bfb813e24fb83E },
    Symbol { offset: 555555645d80, size: 68, name: _ZN4core3ptr193drop_in_place$LT$alloc..vec..into_iter..IntoIter$LT$alloc..boxed..Box$LT$dyn$u20$core..ops..function..FnOnce$LT$$LP$$RP$$GT$$u2b$Output$u20$$u3d$$u20$$LP$$RP$$u2b$core..marker..Send$GT$$GT$$GT$17h91880703be25023aE },
    Symbol { offset: 555555645df0, size: 25, name: _ZN4core3ptr199drop_in_place$LT$core..result..Result$LT$core..option..Option$LT$alloc..sync..Arc$LT$std..sync..poison..mutex..Mutex$LT$alloc..vec..Vec$LT$u8$GT$$GT$$GT$$GT$$C$std..thread..local..AccessError$GT$$GT$17h270f3e39260d1988E },
    Symbol { offset: 555555645ed0, size: 1e, name: _ZN4core3ptr238drop_in_place$LT$alloc..boxed..convert..$LT$impl$u20$core..convert..From$LT$alloc..string..String$GT$$u20$for$u20$alloc..boxed..Box$LT$dyn$u20$core..error..Error$u2b$core..marker..Send$u2b$core..marker..Sync$GT$$GT$..from..StringError$GT$17h0a0eeee720ef2dbbE },
    Symbol { offset: 555555645ef0, size: 96, name: _ZN4core3ptr275drop_in_place$LT$gimli..read..line..LineRows$LT$gimli..read..endian_slice..EndianSlice$LT$gimli..endianity..LittleEndian$GT$$C$gimli..read..line..IncompleteLineProgram$LT$gimli..read..endian_slice..EndianSlice$LT$gimli..endianity..LittleEndian$GT$$C$usize$GT$$C$usize$GT$$GT$17h156475ce9884866bE },
    Symbol { offset: 555555645f90, size: 83, name: _ZN4core3ptr280drop_in_place$LT$$LT$alloc..collections..btree..map..IntoIter$LT$K$C$V$C$A$GT$$u20$as$u20$core..ops..drop..Drop$GT$..drop..DropGuard$LT$u64$C$core..result..Result$LT$alloc..sync..Arc$LT$gimli..read..abbrev..Abbreviations$GT$$C$gimli..read..Error$GT$$C$alloc..alloc..Global$GT$$GT$17head685537876b317E },
    Symbol { offset: 55555564f7f0, size: 406, name: _ZN5alloc11collections5btree3map25IntoIter$LT$K$C$V$C$A$GT$10dying_next17hd86f0d843cad3973E },
    Symbol { offset: 555555646020, size: 1e, name: _ZN4core3ptr42drop_in_place$LT$alloc..string..String$GT$17h7fc22f80bf3e0365E },
    Symbol { offset: 5555556460f0, size: 5c, name: _ZN4core3ptr44drop_in_place$LT$std..backtrace..Capture$GT$17h0375211dcbc72697E },
    Symbol { offset: 555555646220, size: e7, name: _ZN4core3ptr51drop_in_place$LT$std..backtrace..BacktraceFrame$GT$17h9b08c20baac4a2a0E },
    Symbol { offset: 555555646150, size: 1e, name: _ZN4core3ptr46drop_in_place$LT$alloc..vec..Vec$LT$u8$GT$$GT$17h2295e2b653d963a7E },
    Symbol { offset: 555555646170, size: 64, name: _ZN4core3ptr46drop_in_place$LT$std..io..stdio..StdinLock$GT$17h53192374a7bef973E },
    Symbol { offset: 5555556461e0, size: 1e, name: _ZN4core3ptr47drop_in_place$LT$std..ffi..os_str..OsString$GT$17hf0ec83bb9efa9a42E },
    Symbol { offset: 555555646200, size: 1e, name: _ZN4core3ptr48drop_in_place$LT$alloc..ffi..c_str..NulError$GT$17h2fd00a4fd7052c99E },
    Symbol { offset: 555555646310, size: 8e, name: _ZN4core3ptr52drop_in_place$LT$std..backtrace..BacktraceSymbol$GT$17h6581cbee995099a5E },
    Symbol { offset: 5555556463a0, size: 13d, name: _ZN4core3ptr55drop_in_place$LT$gimli..read..abbrev..Abbreviations$GT$17he5a67c267b7e6116E },
    Symbol { offset: 55555564f3e0, size: 406, name: _ZN5alloc11collections5btree3map25IntoIter$LT$K$C$V$C$A$GT$10dying_next17h0b45c8a0ffdb7857E },
    Symbol { offset: 5555556464e0, size: 58, name: _ZN4core3ptr55drop_in_place$LT$std..thread..spawnhook..SpawnHooks$GT$17h140705e624936f44E },
    Symbol { offset: 555555646620, size: 8c, name: _ZN4core3ptr65drop_in_place$LT$alloc..vec..Vec$LT$alloc..string..String$GT$$GT$17he64301ad1fe07053E },
    Symbol { offset: 5555556466b0, size: 49, name: _ZN4core3ptr65drop_in_place$LT$std..backtrace_rs..symbolize..gimli..Library$GT$17hf9eb7a7b8f35b645E },
    Symbol { offset: 555555646700, size: 73, name: _ZN4core3ptr65drop_in_place$LT$std..sys..pal..unix..stack_overflow..Handler$GT$17h55d5bf8708bdfa0bE },
    Symbol { offset: 55555569eb08, size: 8, name: _ZN3std3sys3pal4unix14stack_overflow3imp9PAGE_SIZE17h08b9af82374e43f3E.0 },
    Symbol { offset: 555555646780, size: 42, name: _ZN4core3ptr66drop_in_place$LT$std..backtrace_rs..backtrace..libunwind..Bomb$GT$17he5ce97b5c8369e5bE },
    Symbol { offset: 5555556467d0, size: 25, name: _ZN4core3ptr69drop_in_place$LT$std..backtrace_rs..symbolize..gimli..elf..Object$GT$17h70b9028ece002166E },
    Symbol { offset: 555555646800, size: 8c, name: _ZN4core3ptr70drop_in_place$LT$alloc..vec..Vec$LT$std..ffi..os_str..OsString$GT$$GT$17hc0efe34eb1113072E },
    Symbol { offset: 555555646890, size: dd, name: _ZN4core3ptr70drop_in_place$LT$std..backtrace_rs..symbolize..gimli..stash..Stash$GT$17h3cda65fa33f5918dE },
    Symbol { offset: 555555646970, size: 90, name: _ZN4core3ptr73drop_in_place$LT$alloc..vec..Vec$LT$addr2line..line..LineSequence$GT$$GT$17h2a8ba00b2fdbd378E },
    Symbol { offset: 555555646a00, size: 82, name: _ZN4core3ptr77drop_in_place$LT$alloc..boxed..Box$LT$$u5b$alloc..string..String$u5d$$GT$$GT$17h98674a386ca742e1E },
    Symbol { offset: 555555646ac0, size: 107, name: _ZN4core3ptr81drop_in_place$LT$$LP$usize$C$std..backtrace_rs..symbolize..gimli..Mapping$RP$$GT$17h3c829c1253266c07E },
    Symbol { offset: 555555646bd0, size: 12, name: _ZN4core3ptr81drop_in_place$LT$core..result..Result$LT$$LP$$RP$$C$std..io..error..Error$GT$$GT$17h787b96879b3b5772E },
    Symbol { offset: 555555646bf0, size: 2f, name: _ZN4core3ptr81drop_in_place$LT$std..io..buffered..bufreader..BufReader$LT$std..fs..File$GT$$GT$17h4d262595971ab202E },
    Symbol { offset: 555555646c20, size: 1d, name: _ZN4core3ptr86drop_in_place$LT$core..result..Result$LT$std..fs..File$C$std..io..error..Error$GT$$GT$17h63cf366ababc0f63E },
    Symbol { offset: 555555646c40, size: 54, name: _ZN4core3ptr90drop_in_place$LT$std..io..buffered..bufwriter..BufWriter$LT$W$GT$..flush_buf..BufGuard$GT$17h5252b5aff0765fc8E },
    Symbol { offset: 555555646ca0, size: 31, name: _ZN4core3ptr91drop_in_place$LT$core..result..Result$LT$alloc..string..String$C$std..env..VarError$GT$$GT$17ha8909b56176e297bE },
    Symbol { offset: 555555646ce0, size: 23, name: _ZN4core3ptr91drop_in_place$LT$std..sync..poison..rwlock..RwLockReadGuard$LT$std..panicking..Hook$GT$$GT$17hdfe2d6654ea19b97E },
    Symbol { offset: 555555646e10, size: fa, name: _ZN4core3ptr95drop_in_place$LT$std..io..buffered..linewriter..LineWriter$LT$std..io..stdio..StdoutRaw$GT$$GT$17h17bde788e166d203E },
    Symbol { offset: 555555664c40, size: 24d, name: _ZN3std2io8buffered9bufwriter18BufWriter$LT$W$GT$9flush_buf17h07e497946e4518b3E },
    Symbol { offset: 555555646f10, size: 94, name: _ZN4core3str11validations15next_code_point17hb53fa198177ab0ceE },
    Symbol { offset: 555555646fb0, size: 74, name: _ZN4core3str21_$LT$impl$u20$str$GT$10split_once17hd2688da551ca01b2E },
    Symbol { offset: 555555658d10, size: 1d8, name: _ZN81_$LT$core..str..pattern..CharSearcher$u20$as$u20$core..str..pattern..Searcher$GT$10next_match17h06e5f2dd80a2a38eE },
    Symbol { offset: 555555647030, size: 2ac, name: _ZN4core3str21_$LT$impl$u20$str$GT$12trim_matches17h454bcd5ef61e1d0bE },
    Symbol { offset: 5555556472e0, size: 180, name: _ZN4core3str21_$LT$impl$u20$str$GT$18trim_start_matches17hca7c0ed12ad47fe2E },
    Symbol { offset: 555555647460, size: 8e, name: _ZN4core3str4iter22SplitInternal$LT$P$GT$9next_back17hb964a0c9c33c22bcE },
    Symbol { offset: 555555658f80, size: 1b3, name: _ZN88_$LT$core..str..pattern..CharSearcher$u20$as$u20$core..str..pattern..ReverseSearcher$GT$15next_match_back17h5fb142c5c9fc4999E },
    Symbol { offset: 5555556474f0, size: f2, name: _ZN4core3str7pattern13simd_contains28_$u7b$$u7b$closure$u7d$$u7d$17h32e9e9ce2e9fe7d4E },
    Symbol { offset: 5555556475f0, size: 8, name: _ZN4core5error5Error5cause17hdcd37cd101a897c5E },
    Symbol { offset: 555555647600, size: 6, name: _ZN4core5error5Error7provide17h0d317387783de3a1E },
    Symbol { offset: 555555647610, size: 1a, name: _ZN4core5error5Error7type_id17h61c1a9fc7b1d62efE },
    Symbol { offset: 555555647630, size: 8, name: _ZN4core5panic12PanicPayload6as_str17h022fd5cd9b76175bE },
    Symbol { offset: 555555647640, size: b2, name: _ZN4core5slice4sort6shared5pivot11median3_rec17h0a031035748e820fE },
    Symbol { offset: 555555647700, size: b3, name: _ZN4core5slice4sort6shared5pivot11median3_rec17h0b5dbecd13306e27E },
    Symbol { offset: 5555556477c0, size: b2, name: _ZN4core5slice4sort6shared5pivot11median3_rec17h14e753ed116e0f42E },
    Symbol { offset: 555555647880, size: 103, name: _ZN4core5slice4sort6shared5pivot11median3_rec17h1e431042df8bbdddE },
    Symbol { offset: 555555647990, size: ac, name: _ZN4core5slice4sort6shared5pivot11median3_rec17h54040defd20b2f59E },
    Symbol { offset: 555555647a40, size: b3, name: _ZN4core5slice4sort6shared5pivot11median3_rec17hc39dc6de912c62a3E },
    Symbol { offset: 555555647b00, size: 16a, name: _ZN4core5slice4sort6shared9smallsort12sort4_stable17h13ac6e8efccc3409E },
    Symbol { offset: 555555647c70, size: 376, name: _ZN4core5slice4sort6shared9smallsort12sort8_stable17h8f4edf004f4742caE },
    Symbol { offset: 555555647ff0, size: 56a, name: _ZN4core5slice4sort6shared9smallsort18small_sort_general17he1ae1d73cbfcc484E },
    Symbol { offset: 555555648560, size: 92, name: _ZN4core5slice4sort6shared9smallsort25insertion_sort_shift_left17h0d4d0059a94f0a74E },
    Symbol { offset: 555555648600, size: c0, name: _ZN4core5slice4sort6shared9smallsort25insertion_sort_shift_left17h9c2aada1eb0420d8E },
    Symbol { offset: 55555564a8c0, size: 6e2, name: _ZN4core5slice4sort6stable5drift4sort17he3b1106fbcef37eeE },
    Symbol { offset: 555555649af0, size: 6d7, name: _ZN4core5slice4sort6stable5drift4sort17hacaaa154793fc177E },
    Symbol { offset: 55555564a1d0, size: 6e3, name: _ZN4core5slice4sort6stable5drift4sort17hc49b739548e049c6E },
    Symbol { offset: 555555649450, size: 69d, name: _ZN4core5slice4sort6stable5drift4sort17h07eb7ecae275b654E },
    Symbol { offset: 555555648db0, size: 69d, name: _ZN4core5slice4sort6stable5drift4sort17h0237f9e067c2e865E },
    Symbol { offset: 55555564e4d0, size: 462, name: _ZN4core5slice4sort8unstable9quicksort9quicksort17h36baedeb96d67e60E },
    Symbol { offset: 55555564e9a0, size: e, name: _ZN50_$LT$$BP$mut$u20$T$u20$as$u20$core..fmt..Debug$GT$3fmt17h09fb88b57dfbfcbfE },
    Symbol { offset: 55555564e9b0, size: 15, name: _ZN52_$LT$$RF$mut$u20$T$u20$as$u20$core..fmt..Display$GT$3fmt17h6d630c80594d5964E },
    Symbol { offset: 55555564e9d0, size: 84b, name: _ZN55_$LT$$RF$str$u20$as$u20$core..str..pattern..Pattern$GT$15is_contained_in17hd2c8571dab7a675eE },
    Symbol { offset: 55555564f220, size: 19, name: _ZN58_$LT$alloc..string..String$u20$as$u20$core..fmt..Debug$GT$3fmt17h3dbd93d1431a8f2aE },
    Symbol { offset: 55555564f240, size: 127, name: _ZN58_$LT$alloc..string..String$u20$as$u20$core..fmt..Write$GT$10write_char17h13db4e3872bba170E },
    Symbol { offset: 55555564f370, size: 67, name: _ZN58_$LT$alloc..string..String$u20$as$u20$core..fmt..Write$GT$9write_str17h3471f8bf4fd2c6acE },
    Symbol { offset: 55555564ff00, size: 46, name: _ZN5alloc5alloc15exchange_malloc17h25a694104f40c5fcE },
    Symbol { offset: 55555564ff50, size: 76, name: _ZN5alloc7raw_vec11finish_grow17hc04868b4c8acc361E },
    Symbol { offset: 5555556508f0, size: 2e9, name: _ZN5gimli4read4line13parse_file_v517hd9693875c19b93dfE },
    Symbol { offset: 555555650fc0, size: a33, name: _ZN5gimli4read4line15parse_attribute17h9c259d0c0587e1e5E },
    Symbol { offset: 555555650be0, size: 3d2, name: _ZN5gimli4read4line15FileEntryFormat5parse17heb6bd1977e147822E },
    Symbol { offset: 555555651a00, size: e1, name: _ZN5gimli4read4line18parse_directory_v517h179895d58dd0b393E },
    Symbol { offset: 555555651af0, size: 256, name: _ZN5gimli4read4line27FileEntry$LT$R$C$Offset$GT$5parse17h09f6e0b141a8200fE },
    Symbol { offset: 555555651d50, size: 1454, name: _ZN5gimli4read4unit15parse_attribute17he5bfac4d5517299cE },
    Symbol { offset: 5555556579c0, size: 108, name: _ZN5gimli4read6reader6Reader17read_sized_offset17h6ba5b053b73dc522E },
    Symbol { offset: 555555657860, size: ae, name: _ZN5gimli4read6reader6Reader11read_offset17h3fa77fee082dfb30E },
    Symbol { offset: 5555556531b0, size: 5bc, name: _ZN5gimli4read4unit15skip_attributes17h51eeebf69c9cdcfcE },
    Symbol { offset: 555555653770, size: 562, name: _ZN5gimli4read4unit18Attribute$LT$R$GT$5value17hcaef8ebeca546cf6E },
    Symbol { offset: 555555654010, size: 60, name: _ZN5gimli4read4unit32AttributeValue$LT$R$C$Offset$GT$11udata_value17hbcd8fa614dfdb5d0E },
    Symbol { offset: 555555659140, size: 55, name: _ZN90_$LT$gimli..read..unit..AttributeValue$LT$R$C$Offset$GT$$u20$as$u20$core..clone..Clone$GT$5clone17h7ff71f5dfd45c4a4E },
    Symbol { offset: 555555653ce0, size: 32d, name: _ZN5gimli4read4unit22EntriesCursor$LT$R$GT$10next_entry17hcde5e11afad59493E },
    Symbol { offset: 555555654070, size: 63a, name: _ZN5gimli4read4unit33DebugInfoUnitHeadersIter$LT$R$GT$4next17h877279f51e95c82aE },
    Symbol { offset: 5555556546b0, size: 25d1, name: _ZN5gimli4read5dwarf13Unit$LT$R$GT$3new17ha47ce75270b274b2E },
    Symbol { offset: 555555656c90, size: 1e3, name: _ZN5gimli4read5dwarf14Dwarf$LT$R$GT$11attr_string17hc4312b0e9613f08aE },
    Symbol { offset: 555555657910, size: af, name: _ZN5gimli4read6reader6Reader12read_uleb12817hfd11e62fde83b2abE },
    Symbol { offset: 555555656e80, size: 9de, name: _ZN5gimli4read5index18UnitIndex$LT$R$GT$5parse17h6fe305840898bc8aE },
    Symbol { offset: 555555657ad0, size: 29e, name: _ZN5gimli4read7aranges30ArangeHeader$LT$R$C$Offset$GT$5parse17had6855f630d21a04E },
    Symbol { offset: 555555657d70, size: f2e, name: _ZN5gimli4read8rnglists20RngListIter$LT$R$GT$4next17h61cbd166145637efE },
    Symbol { offset: 555555658ca0, size: 19, name: _ZN60_$LT$alloc..string..String$u20$as$u20$core..fmt..Display$GT$3fmt17h253a895d4ea9e2d1E },
    Symbol { offset: 555555658cc0, size: 44, name: _ZN64_$LT$alloc..ffi..c_str..NulError$u20$as$u20$core..fmt..Debug$GT$3fmt17h53a5fa9634df040aE },
    Symbol { offset: 5555555a11a8, size: 8, name: .Lanon.9ba542688b8e296d0080271b2a3eb5fb.138 },
    Symbol { offset: 555555658ef0, size: 82, name: _ZN87_$LT$T$u20$as$u20$alloc..slice..$LT$impl$u20$$u5b$T$u5d$$GT$..to_vec_in..ConvertVec$GT$6to_vec17h2aea88894ab77008E },
    Symbol { offset: 5555556591a0, size: 153, name: _ZN9addr2line16Context$LT$R$GT$9find_unit17h8fcd20a750ed9c6cE },
    Symbol { offset: 555555659300, size: 486, name: _ZN9addr2line4line11render_file17h0515ced6e2827fa7E },
    Symbol { offset: 555555659790, size: 2666, name: _ZN9addr2line4line9LazyLines6borrow17h1674bf678613ccf7E },
    Symbol { offset: 55555565be00, size: 518, name: _ZN9addr2line4unit16ResUnit$LT$R$GT$25find_function_or_location17hf548ee1882c225abE },
    Symbol { offset: 55555565c320, size: 19ce, name: _ZN9addr2line4unit16ResUnit$LT$R$GT$25find_function_or_location28_$u7b$$u7b$closure$u7d$$u7d$17hee8b33cd5b612d24E },
    Symbol { offset: 55555565f850, size: 19d, name: _ZN9addr2line8function9name_attr17h4c46df5bf8df77afE },
    Symbol { offset: 55555565e680, size: 11c5, name: _ZN9addr2line8function17Function$LT$R$GT$14parse_children17h9a7d91a5ff6ccb2dE },
    Symbol { offset: 55555565dcf0, size: 57d, name: _ZN9addr2line6lookup30LoopingLookup$LT$T$C$L$C$F$GT$10new_lookup17h7e2d413194fb62cbE },
    Symbol { offset: 55555565e270, size: 404, name: _ZN9addr2line8function10name_entry17hf29f3f0b10711643E },
    Symbol { offset: 55555565f9f0, size: 46, name: _ZN3std2rt15handle_rt_panic17h9105c578c50848ffE },
    Symbol { offset: 5555556675e0, size: 12d, name: _ZN3std2io5Write9write_fmt17h561a66a0340b6995E },
    Symbol { offset: 55555565fa40, size: 47, name: _ZN3std2rt7cleanup17h8cc1f4f2ce2c81c1E },
    Symbol { offset: 55555569ea10, size: 4, name: _ZN3std2rt7cleanup7CLEANUP17h1796c4ada6a6c57fE },
    Symbol { offset: 5555555a1239, size: a, name: .Lanon.9ba542688b8e296d0080271b2a3eb5fb.829 },
    Symbol { offset: 55555569eb19, size: 1, name: _ZN3std3sys3pal4unix24ON_BROKEN_PIPE_FLAG_USED17h372269a3a9a30552E.0 },
    Symbol { offset: 5555555540a0, size: 8, name: _ZN3std3sys3pal4unix14stack_overflow3imp5GUARD29_$u7b$$u7b$constant$u7d$$u7d$28_$u7b$$u7b$closure$u7d$$u7d$3VAL17h3a2adbfd45e56303E.0 },
    Symbol { offset: 5555555540a8, size: 8, name: _ZN3std3sys3pal4unix14stack_overflow3imp5GUARD29_$u7b$$u7b$constant$u7d$$u7d$28_$u7b$$u7b$closure$u7d$$u7d$3VAL17h3a2adbfd45e56303E.1 },
    Symbol { offset: 55555569eb18, size: 1, name: _ZN3std3sys3pal4unix14stack_overflow3imp13NEED_ALTSTACK17h259dbc33c1d355c2E.0 },
    Symbol { offset: 55555566d360, size: 384, name: _ZN3std3sys3pal4unix14stack_overflow3imp12make_handler17h200b70bc6b88337dE },
    Symbol { offset: 55555569eb10, size: 8, name: _ZN3std3sys3pal4unix14stack_overflow3imp13MAIN_ALTSTACK17hc820af32abd66ac6E.0 },
    Symbol { offset: 55555566d160, size: f0, name: _ZN3std3sys3pal4unix14stack_overflow3imp14signal_handler17h5c559957849c4cb9E },
    Symbol { offset: 55555569eb20, size: 8, name: _ZN3std3sys4args4unix3imp4ARGC17habae266d7bf1b235E.0 },
    Symbol { offset: 55555569eb28, size: 8, name: _ZN3std3sys4args4unix3imp4ARGV17h4897dbe49d7f8837E.0 },
    Symbol { offset: 55555569eaf8, size: 8, name: _ZN3std6thread8ThreadId3new7COUNTER17hf69a6e6e03c62ba3E },
    Symbol { offset: 55555569eb00, size: 8, name: _ZN3std6thread11main_thread4MAIN17hcc37fb92de3ea64dE.0 },
    Symbol { offset: 55555569eb40, size: 8, name: _ZN3std3sys10exit_guard18unique_thread_exit17EXITING_THREAD_ID17hee5cda89f643fe71E },
    Symbol { offset: 555555660f80, size: 3b, name: _ZN3std6thread8ThreadId3new9exhausted17he28d5ef02be2772eE },
    Symbol { offset: 5555555a1040, size: 4, name: .Lanon.9ba542688b8e296d0080271b2a3eb5fb.780 },
    Symbol { offset: 555555554090, size: 8, name: _ZN3std9panicking11panic_count17LOCAL_PANIC_COUNT29_$u7b$$u7b$constant$u7d$$u7d$28_$u7b$$u7b$closure$u7d$$u7d$3VAL17hfd921ba03a31328fE.0 },
    Symbol { offset: 555555554098, size: 1, name: _ZN3std9panicking11panic_count17LOCAL_PANIC_COUNT29_$u7b$$u7b$constant$u7d$$u7d$28_$u7b$$u7b$closure$u7d$$u7d$3VAL17hfd921ba03a31328fE.1 },
    Symbol { offset: 5555556601e0, size: 43, name: _ZN3std6thread6scoped9ScopeData8overflow17h7d9921572e56bdc5E },
    Symbol { offset: 555555670ad0, size: 105, name: _ZN3std3sys12thread_local5guard3key6enable17hcc9b114abc9c8dc9E },
    Symbol { offset: 555555660330, size: 8b, name: _ZN3std6thread7current16try_with_current17h9d8b1ee5b7e14201E },
    Symbol { offset: 55555566d250, size: 110, name: _ZN3std3sys3pal4unix14stack_overflow3imp14signal_handler28_$u7b$$u7b$closure$u7d$$u7d$17hd955422799cec8b2E },
    Symbol { offset: 5555555a108c, size: 4, name: .Lanon.9ba542688b8e296d0080271b2a3eb5fb.235 },
    Symbol { offset: 555555660400, size: 16f, name: _ZN3std6thread7current12init_current17h5b86e59cf23c363bE },
    Symbol { offset: 555555670940, size: 5d, name: _ZN3std3sys12thread_local6native5eager7destroy17h4a568e4193c7bee5E },
    Symbol { offset: 5555555a0ff8, size: 4, name: .Lanon.9ba542688b8e296d0080271b2a3eb5fb.796 },
    Symbol { offset: 55555566ea20, size: c9, name: _ZN3std3sys3pal4unix4time8Timespec3now17he0e91844bf6f21a2E },
    Symbol { offset: 55555566eaf0, size: cb, name: _ZN3std3sys3pal4unix4time8Timespec12sub_timespec17h7b0e3b91866b52c1E },
    Symbol { offset: 5555555a1234, size: 5, name: .Lanon.9ba542688b8e296d0080271b2a3eb5fb.236 },
    Symbol { offset: 5555555a1028, size: 4, name: .Lanon.9ba542688b8e296d0080271b2a3eb5fb.241 },
    Symbol { offset: 5555556641f0, size: 182, name: _ZN3std2fs24buffer_capacity_required17hab2fdb567adeceadE },
    Symbol { offset: 555555666b60, size: 30d, name: _ZN3std2io19default_read_to_end17h7ca4c35d13705ffeE },
    Symbol { offset: 5555555a0cb0, size: 10, name: .Lanon.9ba542688b8e296d0080271b2a3eb5fb.812 },
    Symbol { offset: 55555566db10, size: 3c7, name: _ZN3std3sys3pal4unix6thread7cgroups8quota_v128_$u7b$$u7b$closure$u7d$$u7d$17hc5284007578bb891E },
    Symbol { offset: 55555569ea20, size: 1, name: _ZN3std9backtrace9Backtrace7enabled7ENABLED17hba74e8f9a2bd9c2dE.0 },
    Symbol { offset: 5555556630d0, size: 193, name: _ZN3std9backtrace9Backtrace6create17h51905b6f377b383bE },
    Symbol { offset: 55555569eabc, size: 8, name: _ZN3std3sys9backtrace4lock4LOCK17h645255f7380ded9eE },
    Symbol { offset: 555555670d80, size: 46, name: _ZN3std12backtrace_rs9backtrace9libunwind5trace8trace_fn17h4af376efa74da882E },
    Symbol { offset: 55555566c7a0, size: 3b1, name: _ZN3std12backtrace_rs5print17BacktraceFrameFmt21print_raw_with_column17hf1978358a9a5b310E },
    Symbol { offset: 55555569eb30, size: c, name: _ZN3std3sys3env4unix8ENV_LOCK17hf667a0a74da4ab11E },
    Symbol { offset: 55555566f310, size: 15b, name: _ZN3std3sys3env4unix6getenv28_$u7b$$u7b$closure$u7d$$u7d$17h4356c1fea84fde45E },
    Symbol { offset: 55555566a720, size: b8, name: _ZN3std3sys3pal6common14small_c_string24run_with_cstr_allocating17hef3ae4ea53f5e55dE },
    Symbol { offset: 55555566ebc0, size: b7, name: _ZN3std3sys3pal4unix17decode_error_kind17hfd0fddd80bf85f26E },
    Symbol { offset: 5555555a125a, size: 1, name: .Lanon.9ba542688b8e296d0080271b2a3eb5fb.29 },
    Symbol { offset: 55555566a510, size: 93, name: _ZN3std3sys3pal6common14small_c_string24run_with_cstr_allocating17h1c8f6ef1329eea31E },
    Symbol { offset: 5555556647d0, size: 46a, name: _ZN3std2fs10DirBuilder14create_dir_all17h6c5eb20f04d60251E },
    Symbol { offset: 55555566f600, size: 30, name: _ZN3std3sys2fs4unix10DirBuilder5mkdir28_$u7b$$u7b$closure$u7d$$u7d$17had3f32e51e832156E },
    Symbol { offset: 55555566a5b0, size: aa, name: _ZN3std3sys3pal6common14small_c_string24run_with_cstr_allocating17h93a82700ef7b0403E },
    Symbol { offset: 555555668650, size: 25e, name: _ZN62_$LT$std..path..Components$u20$as$u20$core..cmp..PartialEq$GT$2eq17h3664336cb1d276bcE },
    Symbol { offset: 5555555a08c0, size: 10, name: .Lanon.9ba542688b8e296d0080271b2a3eb5fb.325 },
    Symbol { offset: 5555555a1054, size: 4, name: .Lanon.9ba542688b8e296d0080271b2a3eb5fb.387 },
    Symbol { offset: 5555555a1034, size: 4, name: .Lanon.9ba542688b8e296d0080271b2a3eb5fb.385 },
    Symbol { offset: 5555555a109c, size: 4, name: .Lanon.9ba542688b8e296d0080271b2a3eb5fb.390 },
    Symbol { offset: 555555665780, size: 6b, name: _ZN3std2io5impls74_$LT$impl$u20$std..io..Write$u20$for$u20$alloc..vec..Vec$LT$u8$C$A$GT$$GT$5write17h70ef2d190f9bdea9E },
    Symbol { offset: 5555556657f0, size: 15a, name: _ZN3std2io5impls74_$LT$impl$u20$std..io..Write$u20$for$u20$alloc..vec..Vec$LT$u8$C$A$GT$$GT$14write_vectored17hb06c1e25beee6017E },
    Symbol { offset: 555555665950, size: 8, name: _ZN3std2io5impls74_$LT$impl$u20$std..io..Write$u20$for$u20$alloc..vec..Vec$LT$u8$C$A$GT$$GT$17is_write_vectored17hb400afa19aab5e35E },
    Symbol { offset: 555555665960, size: 67, name: _ZN3std2io5impls74_$LT$impl$u20$std..io..Write$u20$for$u20$alloc..vec..Vec$LT$u8$C$A$GT$$GT$9write_all17h5c84bca3bcf628acE },
    Symbol { offset: 5555556659d0, size: 13c, name: _ZN3std2io5impls74_$LT$impl$u20$std..io..Write$u20$for$u20$alloc..vec..Vec$LT$u8$C$A$GT$$GT$18write_all_vectored17h4a122b3f8b8bda63E },
    Symbol { offset: 555555665b10, size: 8, name: _ZN3std2io5impls74_$LT$impl$u20$std..io..Write$u20$for$u20$alloc..vec..Vec$LT$u8$C$A$GT$$GT$5flush17h65b568d92fa007f7E },
    Symbol { offset: 5555556672e0, size: 1cb, name: _ZN3std2io5Write18write_all_vectored17h3c4f43077b8d4a23E },
    Symbol { offset: 55555569ea28, size: 38, name: _ZN3std2io5stdio5stdin8INSTANCE17h36e3d1f12e603492E },
    Symbol { offset: 55555566a2f6, size: 55, name: _ZN3std4sync9once_lock17OnceLock$LT$T$GT$10initialize17h8b512493707c3c4aE },
    Symbol { offset: 55555569ea60, size: 40, name: _ZN3std2io5stdio6STDOUT17h167959fd73a1a394E },
    Symbol { offset: 55555566a2a1, size: 55, name: _ZN3std4sync9once_lock17OnceLock$LT$T$GT$10initialize17h2392bf50f07ef956E },
    Symbol { offset: 55555569ea21, size: 1, name: _ZN3std2io5stdio19OUTPUT_CAPTURE_USED17h246f146d28ee32b6E.0 },
    Symbol { offset: 5555555540c0, size: 10, name: _ZN3std2io5stdio14OUTPUT_CAPTURE29_$u7b$$u7b$constant$u7d$$u7d$28_$u7b$$u7b$closure$u7d$$u7d$3VAL17h1a3a73a5543fe63eE },
    Symbol { offset: 5555556709a0, size: 1f, name: _ZN3std3sys12thread_local6native5eager7destroy17ha1cdc068323d37e4E },
    Symbol { offset: 555555666740, size: 250, name: _ZN3std2io5stdio31print_to_buffer_if_capture_used17h0fc85bc4808f7347E },
    Symbol { offset: 555555667710, size: 12d, name: _ZN3std2io5Write9write_fmt17hfb552b13b10253dcE },
    Symbol { offset: 555555666e70, size: f5, name: _ZN3std2io19default_read_to_end16small_probe_read17h88093c2a54b1148bE },
    Symbol { offset: 555555666f70, size: 98, name: _ZN81_$LT$std..io..default_write_fmt..Adapter$LT$T$GT$$u20$as$u20$core..fmt..Write$GT$9write_str17h163c7118a25ac3b8E },
    Symbol { offset: 555555667010, size: f2, name: _ZN81_$LT$std..io..default_write_fmt..Adapter$LT$T$GT$$u20$as$u20$core..fmt..Write$GT$9write_str17h5b52f91221b750f5E },
    Symbol { offset: 555555667110, size: 50, name: _ZN81_$LT$std..io..default_write_fmt..Adapter$LT$T$GT$$u20$as$u20$core..fmt..Write$GT$9write_str17h9d99316a2a396702E },
    Symbol { offset: 555555667160, size: 67, name: _ZN81_$LT$std..io..default_write_fmt..Adapter$LT$T$GT$$u20$as$u20$core..fmt..Write$GT$9write_str17he49d96955a49e170E },
    Symbol { offset: 5555556671d0, size: 50, name: _ZN81_$LT$std..io..default_write_fmt..Adapter$LT$T$GT$$u20$as$u20$core..fmt..Write$GT$9write_str17he5cb547b4dab3268E },
    Symbol { offset: 555555667220, size: b9, name: _ZN3std2io5Write9write_all17hfdbe1690329cbb85E },
    Symbol { offset: 5555556674b0, size: 12d, name: _ZN3std2io5Write9write_fmt17h2089d1c6c542767eE },
    Symbol { offset: 55555569eab8, size: 1, name: _ZN3std5panic14SHOULD_CAPTURE17h0880af9339129151E },
    Symbol { offset: 555555667910, size: 14d, name: _ZN3std4path10Components15len_before_body17hafc171aa8eb80194E },
    Symbol { offset: 555555667df0, size: ea, name: _ZN3std4path10Components25parse_next_component_back17hf70057fb296c601aE },
    Symbol { offset: 55555566cfc0, size: be, name: _ZN61_$LT$std..path..Component$u20$as$u20$core..cmp..PartialEq$GT$2eq17hc57a21ac99340e46E },
    Symbol { offset: 55555566d140, size: 15, name: _ZN3std3sys3pal4unix2os4exit17h1bc7fb1aa8c0612bE },
    Symbol { offset: 55555566fd10, size: 55e, name: _ZN3std3sys6random5linux9getrandom17hd9898d5b4ec595f1E },
    Symbol { offset: 55555566a1cd, size: 59, name: _ZN3std4sync9once_lock17OnceLock$LT$T$GT$10initialize17h06976520ae46f9b7E },
    Symbol { offset: 5555556742b8, size: 3f01, name: _ZN3std12backtrace_rs9symbolize5gimli5Cache11with_global17hf3fcb02b685aeefaE },
    Symbol { offset: 555555669c80, size: 87, name: _ZN3std4sync6poison4once4Once15call_once_force28_$u7b$$u7b$closure$u7d$$u7d$17h60558ec46706fbe7E },
    Symbol { offset: 555555669d10, size: ab, name: _ZN3std4sync6poison4once4Once15call_once_force28_$u7b$$u7b$closure$u7d$$u7d$17h91b65117b940796cE },
    Symbol { offset: 555555669dc0, size: 88, name: _ZN3std4sync6poison4once4Once15call_once_force28_$u7b$$u7b$closure$u7d$$u7d$17h981ea6cb6d7ba1f2E },
    Symbol { offset: 555555669e50, size: 49, name: _ZN3std4sync6poison4once4Once15call_once_force28_$u7b$$u7b$closure$u7d$$u7d$17ha8fd905eb0b2f405E },
    Symbol { offset: 555555669ea0, size: 32, name: _ZN76_$LT$std..sync..poison..PoisonError$LT$T$GT$$u20$as$u20$core..fmt..Debug$GT$3fmt17hcf310265a1cb644eE },
    Symbol { offset: 55555566a226, size: 7b, name: _ZN3std4sync9once_lock17OnceLock$LT$T$GT$10initialize17h0b158d8d767417c5E },
    Symbol { offset: 55555569eb4c, size: 8, name: _ZN3std3sys6random5linux9getrandom6DEVICE17h917d8b762b662e46E },
    Symbol { offset: 55555566a440, size: c3, name: _ZN3std3sys3pal6common14small_c_string24run_with_cstr_allocating17h19a0b2523abb9979E },
    Symbol { offset: 55555566f4c0, size: 13e, name: _ZN3std3sys2fs4unix4File6open_c17ha15054cdd5a2ceffE },
    Symbol { offset: 55555566a660, size: bd, name: _ZN3std3sys3pal6common14small_c_string24run_with_cstr_allocating17hd8920f75963f46d4E },
    Symbol { offset: 55555566a850, size: 58, name: _ZN3std3sys9backtrace13BacktraceLock5print17hafb9d5969adc39a0E },
    Symbol { offset: 55555566ab30, size: 1f, name: _ZN3std3sys9backtrace10_print_fmt28_$u7b$$u7b$closure$u7d$$u7d$17h54fd42bf9c73c249E },
    Symbol { offset: 55555566c1a0, size: d2, name: _ZN3std9panicking19begin_panic_handler28_$u7b$$u7b$closure$u7d$$u7d$17h159b61b27f96a9c2E },
    Symbol { offset: 5555555a1090, size: 4, name: .Lanon.9ba542688b8e296d0080271b2a3eb5fb.586 },
    Symbol { offset: 55555566b2f0, size: 46, name: _ZN103_$LT$std..sys..thread_local..abort_on_dtor_unwind..DtorUnwindGuard$u20$as$u20$core..ops..drop..Drop$GT$4drop17h06725b4f736eef5eE },
    Symbol { offset: 5555555a0910, size: 10, name: .Lanon.9ba542688b8e296d0080271b2a3eb5fb.40 },
    Symbol { offset: 55555569eac8, size: 8, name: _ZN3std5alloc4HOOK17h6419bb8a35243978E },
    Symbol { offset: 55555566b340, size: 158, name: _ZN3std5alloc24default_alloc_error_hook17h9d915082fe2a7333E },
    Symbol { offset: 55555566b989, size: 18e, name: _ZN3std9panicking12default_hook28_$u7b$$u7b$closure$u7d$$u7d$17hae2e97a5c4b2b777E },
    Symbol { offset: 55555566bb20, size: 2e0, name: _ZN3std9panicking12default_hook28_$u7b$$u7b$closure$u7d$$u7d$28_$u7b$$u7b$closure$u7d$$u7d$17h1d937a3e1c6b042dE },
    Symbol { offset: 55555569df18, size: 1, name: _ZN3std9panicking12default_hook28_$u7b$$u7b$closure$u7d$$u7d$11FIRST_PANIC17h344470d8555919a7E },
    Symbol { offset: 55555566c160, size: 10, name: _ZN99_$LT$std..panicking..begin_panic_handler..StaticStrPayload$u20$as$u20$core..panic..PanicPayload$GT$3get17hbeb2faf219e70c8bE },
    Symbol { offset: 55555566c170, size: d, name: _ZN99_$LT$std..panicking..begin_panic_handler..StaticStrPayload$u20$as$u20$core..panic..PanicPayload$GT$6as_str17h7533090c44773266E },
    Symbol { offset: 55555566cb60, size: 1cb, name: _ZN3std12backtrace_rs5print17BacktraceFrameFmt14print_fileline17hbaa978449716309cE },
    Symbol { offset: 5555555a0b80, size: 10, name: .Lanon.9ba542688b8e296d0080271b2a3eb5fb.679 },
    Symbol { offset: 55555566cf90, size: 2d, name: _ZN62_$LT$std..io..error..ErrorKind$u20$as$u20$core..fmt..Debug$GT$3fmt17hea670263d63b1087E },
    Symbol { offset: 55555566d080, size: 35, name: _ZN64_$LT$std..path..StripPrefixError$u20$as$u20$core..fmt..Debug$GT$3fmt17haf31af66e1ec4e13E },
    Symbol { offset: 5555555a0a20, size: 10, name: .Lanon.9ba542688b8e296d0080271b2a3eb5fb.744 },
    Symbol { offset: 55555566d0c0, size: 4c, name: _ZN3std3sys3pal4unix4weak18DlsymWeak$LT$F$GT$10initialize17h8d0c9e230dce0f35E },
    Symbol { offset: 5555555a1243, size: 17, name: .Lanon.9ba542688b8e296d0080271b2a3eb5fb.1122 },
    Symbol { offset: 55555569e878, size: 8, name: _ZN3std3sys3pal4unix6thread14min_stack_size5DLSYM17hbe92ddcfd0026438E.2 },
    Symbol { offset: 5555555a11c0, size: 8, name: .Lanon.9ba542688b8e296d0080271b2a3eb5fb.751 },
    Symbol { offset: 55555566f470, size: 46, name: _ZN3std3sys10exit_guard18unique_thread_exit17h2f96313b56ec48dcE },
    Symbol { offset: 55555566d990, size: fc, name: _ZN3std3sys3pal4unix6thread6Thread3new12thread_start17h1822d22fde68314fE },
    Symbol { offset: 5555555a1048, size: 4, name: .Lanon.9ba542688b8e296d0080271b2a3eb5fb.790 },
    Symbol { offset: 55555566dee0, size: b31, name: _ZN3std3sys3pal4unix6thread7cgroups15find_mountpoint17h679cc1c2c2fccd2cE },
    Symbol { offset: 55555566ec90, size: 11, name: _ZN3std3sys11personality3gcc14find_eh_action28_$u7b$$u7b$closure$u7d$$u7d$17hc83ce98a73021e5cE },
    Symbol { offset: 55555566ecb0, size: 11, name: _ZN3std3sys11personality3gcc14find_eh_action28_$u7b$$u7b$closure$u7d$$u7d$17ha45f1a9a417df297E },
    Symbol { offset: 55555569eb48, size: 1, name: _ZN3std3sys2fs4unix9try_statx17STATX_SAVED_STATE17hf4556d05799fddccE.0 },
    Symbol { offset: 55555569df19, size: 1, name: _ZN3std3sys6random5linux9getrandom19GETRANDOM_AVAILABLE17h256594a69255353bE.0 },
    Symbol { offset: 55555569df1a, size: 1, name: _ZN3std3sys6random5linux9getrandom23GRND_INSECURE_AVAILABLE17h9bb10a6c2c0c10dfE.0 },
    Symbol { offset: 55555569eb49, size: 1, name: _ZN3std3sys6random5linux9getrandom13URANDOM_READY17h85220a0c53ec83a8E.0 },
    Symbol { offset: 5555555a1268, size: 2, name: .Lanon.9ba542688b8e296d0080271b2a3eb5fb.120 },
    Symbol { offset: 555555670340, size: 8, name: _ZN64_$LT$std..sys..stdio..unix..Stderr$u20$as$u20$std..io..Write$GT$17is_write_vectored17hda05ef289e5d0a6dE },
    Symbol { offset: 555555670350, size: 8, name: _ZN64_$LT$std..sys..stdio..unix..Stderr$u20$as$u20$std..io..Write$GT$5flush17hc989850da49e9225E },
    Symbol { offset: 55555569df20, size: 8, name: _rust_extern_with_linkage___dso_handle },
    Symbol { offset: 55555569df28, size: 10, name: _ZN3std3sys12thread_local5guard3key6enable5DTORS17he5abafc5d09f101fE },
    Symbol { offset: 555555670be0, size: 147, name: _ZN3std3sys12thread_local5guard3key6enable3run17ha9a467cb310039daE },
    Symbol { offset: 555555670dd0, size: 106, name: _ZN3std12backtrace_rs9symbolize5gimli5stash5Stash8allocate17ha7b2db550c018d55E },
    Symbol { offset: 555555670ed6, size: 3135, name: _ZN3std12backtrace_rs9symbolize5gimli7Context3new17hdf1c7feb9ae6a9dfE },
    Symbol { offset: 555555679a40, size: 370, name: _ZN3std12backtrace_rs9symbolize5gimli3elf6Object7section17h96a14479efd8daa4E },
    Symbol { offset: 5555555a0d30, size: 10, name: .Lanon.9ba542688b8e296d0080271b2a3eb5fb.1091 },
    Symbol { offset: 555555674010, size: 2a8, name: _ZN3std12backtrace_rs9symbolize5gimli4mmap17h0eeeb05fffa95ac9E },
    Symbol { offset: 55555569df38, size: 940, name: _ZN3std12backtrace_rs9symbolize5gimli5Cache11with_global14MAPPINGS_CACHE17h09222c36cc89d9fcE },
    Symbol { offset: 55555567a4b0, size: 416, name: _ZN3std12backtrace_rs9symbolize5gimli20libs_dl_iterate_phdr8callback17hf68a8c298f706dedE },
    Symbol { offset: 555555679330, size: 704, name: _ZN3std12backtrace_rs9symbolize5gimli3elf6Object5parse17hddac159ef186a75cE },
    Symbol { offset: 555555679e70, size: 183, name: _ZN3std12backtrace_rs9symbolize5gimli3elf6Object8build_id17hd513148975b8e7a0E },
    Symbol { offset: 55555567a110, size: 395, name: _ZN3std12backtrace_rs9symbolize5gimli3elf15locate_build_id17hc193ce1fd4165febE },
    Symbol { offset: 5555556781c0, size: d19, name: _ZN3std12backtrace_rs9symbolize5gimli3elf62_$LT$impl$u20$std..backtrace_rs..symbolize..gimli..Mapping$GT$9new_debug17heb786e91ad96ad54E },
    Symbol { offset: 555555678ee0, size: 450, name: _ZN3std12backtrace_rs9symbolize5gimli3elf62_$LT$impl$u20$std..backtrace_rs..symbolize..gimli..Mapping$GT$18load_dwarf_package17hd3055551e7c2140bE },
    Symbol { offset: 555555679db0, size: b4, name: _ZN3std12backtrace_rs9symbolize5gimli3elf6Object13search_symtab17h334972a17d86aa96E },
    Symbol { offset: 55555569eb54, size: 1, name: _ZN3std12backtrace_rs9symbolize5gimli3elf17debug_path_exists17DEBUG_PATH_EXISTS17h9d507f3b2f357ecdE.0 },
    Symbol { offset: 55555567a000, size: 105, name: _ZN3std12backtrace_rs9symbolize5gimli3elf15decompress_zlib17h969432bb0c89a4b9E },
    Symbol { offset: 55555567b0c0, size: bf, name: _ZN114_$LT$std..backtrace_rs..symbolize..gimli..parse_running_mmaps..MapsEntry$u20$as$u20$core..str..traits..FromStr$GT$8from_str28_$u7b$$u7b$closure$u7d$$u7d$17h060fd3b382b4ffe8E },
    Symbol { offset: 5555555a0dd0, size: 10, name: .Lanon.9ba542688b8e296d0080271b2a3eb5fb.687 },
    Symbol { offset: 5555555a08d0, size: 10, name: .Lanon.9ba542688b8e296d0080271b2a3eb5fb.695 },
    Symbol { offset: 5555555a10a8, size: 8, name: .Lanon.9ba542688b8e296d0080271b2a3eb5fb.707 },
    Symbol { offset: 5555555a1190, size: 8, name: .Lanon.9ba542688b8e296d0080271b2a3eb5fb.715 },
    Symbol { offset: 555555665130, size: 2e7, name: _ZN3std2io5error83_$LT$impl$u20$core..fmt..Debug$u20$for$u20$std..io..error..repr_bitpacked..Repr$GT$3fmt17h4b4fb75f960fb51cE },
    Symbol { offset: 555555666540, size: 128, name: _ZN61_$LT$std..io..stdio..StderrLock$u20$as$u20$std..io..Write$GT$9write_all17h006efce2b24ab97cE },
    Symbol { offset: 555555665f80, size: 288, name: _ZN61_$LT$std..io..stdio..StdoutLock$u20$as$u20$std..io..Write$GT$9write_all17h124e724465a803c2E },
    Symbol { offset: 55555566b7e7, size: 1a2, name: _ZN3std9panicking12default_hook17h3db1b505cfc4eb79E },
    Symbol { offset: 555555664520, size: 1ef, name: _ZN3std2fs11OpenOptions5_open17hde61930d447f72d3E },
    Symbol { offset: 55555564fd00, size: a0, name: _ZN5alloc4sync16Arc$LT$T$C$A$GT$9drop_slow17h6a24e91b8a0dff21E },
    Symbol { offset: 55555564fda0, size: 67, name: _ZN5alloc4sync16Arc$LT$T$C$A$GT$9drop_slow17h8422373a999d8beeE },
    Symbol { offset: 55555569eaf0, size: 8, name: _ZN3std9panicking11panic_count18GLOBAL_PANIC_COUNT17he72f51399c537ba0E },
    Symbol { offset: 55555566be50, size: 1d, name: _ZN3std9panicking11panic_count17is_zero_slow_path17h93d4206a805079bdE },
    Symbol { offset: 55555564fc00, size: 4e, name: _ZN5alloc4sync16Arc$LT$T$C$A$GT$9drop_slow17h0a06fd4e05d85d5aE },
    Symbol { offset: 55555564fc50, size: 56, name: _ZN5alloc4sync16Arc$LT$T$C$A$GT$9drop_slow17h36bf26753956958fE },
    Symbol { offset: 555555660570, size: dd, name: _ZN76_$LT$std..thread..spawnhook..SpawnHooks$u20$as$u20$core..ops..drop..Drop$GT$4drop17hac680f435d010254E },
    Symbol { offset: 55555564fe10, size: ed, name: _ZN5alloc4sync16Arc$LT$T$C$A$GT$9drop_slow17hf30731108507f6f0E },
    Symbol { offset: 555555670860, size: d7, name: _ZN3std3sys4sync6rwlock5futex6RwLock22wake_writer_or_readers17h9d1fd2e5395e69e1E },
    Symbol { offset: 5555556486c0, size: 160, name: _ZN4core5slice4sort6stable14driftsort_main17h4f31c087e98163bfE },
    Symbol { offset: 555555648820, size: 158, name: _ZN4core5slice4sort6stable14driftsort_main17h5ec73e94468e5cd8E },
    Symbol { offset: 555555648980, size: 158, name: _ZN4core5slice4sort6stable14driftsort_main17hd4a8d5e06126e738E },
    Symbol { offset: 555555648ae0, size: 158, name: _ZN4core5slice4sort6stable14driftsort_main17hdaacefc17bdcf8f3E },
    Symbol { offset: 555555648c40, size: 169, name: _ZN4core5slice4sort6stable14driftsort_main17he67d38f1f0a3c5dfE },
    Symbol { offset: 55555564c400, size: a2f, name: _ZN4core5slice4sort6stable9quicksort9quicksort17ha8d2daaff5d214efE },
    Symbol { offset: 55555564b9a0, size: a5f, name: _ZN4core5slice4sort6stable9quicksort9quicksort17h996b59459a13306aE },
    Symbol { offset: 55555564d840, size: a9a, name: _ZN4core5slice4sort6stable9quicksort9quicksort17hf0322a71719ebf1fE },
    Symbol { offset: 55555564ce30, size: a04, name: _ZN4core5slice4sort6stable9quicksort9quicksort17hba8f6c5d5dd98850E },
    Symbol { offset: 55555564afb0, size: 9ef, name: _ZN4core5slice4sort6stable9quicksort9quicksort17h8442949fb0bffa80E },
    Symbol { offset: 55555564e2e0, size: db, name: _ZN4core5slice4sort8unstable7ipnsort17ha39d80c5ec2323caE },
    Symbol { offset: 55555564e3c0, size: 106, name: _ZN4core5slice4sort8unstable8heapsort8heapsort17ha53c30c8e0ef115eE },
    Symbol { offset: 55555564e932, size: 30, name: _ZN4core9panicking13assert_failed17h6b7fe04743dd603fE },
    Symbol { offset: 55555564e962, size: 30, name: _ZN4core9panicking13assert_failed17hdba3a023e40856c3E },
    Symbol { offset: 55555564fcb0, size: 4a, name: _ZN5alloc4sync16Arc$LT$T$C$A$GT$9drop_slow17h39d56c0d62006135E },
    Symbol { offset: 55555564ffd0, size: b7, name: _ZN5alloc7raw_vec19RawVec$LT$T$C$A$GT$8grow_one17h0f74a1674a9e0523E },
    Symbol { offset: 555555650090, size: b3, name: _ZN5alloc7raw_vec19RawVec$LT$T$C$A$GT$8grow_one17h10a23fd0872560c3E },
    Symbol { offset: 555555650150, size: b4, name: _ZN5alloc7raw_vec19RawVec$LT$T$C$A$GT$8grow_one17h10ebc9c95a102119E },
    Symbol { offset: 555555650210, size: b6, name: _ZN5alloc7raw_vec19RawVec$LT$T$C$A$GT$8grow_one17h16a00ca779bf486dE },
    Symbol { offset: 5555556502d0, size: b3, name: _ZN5alloc7raw_vec19RawVec$LT$T$C$A$GT$8grow_one17h189214c374267fb5E },
    Symbol { offset: 555555650390, size: b3, name: _ZN5alloc7raw_vec19RawVec$LT$T$C$A$GT$8grow_one17h1cee2166311e09e6E },
    Symbol { offset: 555555650450, size: b7, name: _ZN5alloc7raw_vec19RawVec$LT$T$C$A$GT$8grow_one17h6882cd36302a57e9E },
    Symbol { offset: 555555650510, size: b7, name: _ZN5alloc7raw_vec19RawVec$LT$T$C$A$GT$8grow_one17ha5e1662447508e21E },
    Symbol { offset: 5555556505d0, size: b3, name: _ZN5alloc7raw_vec19RawVec$LT$T$C$A$GT$8grow_one17hb3ee9a95430c2072E },
    Symbol { offset: 555555650690, size: b6, name: _ZN5alloc7raw_vec19RawVec$LT$T$C$A$GT$8grow_one17hb8e9c694a177c732E },
    Symbol { offset: 555555650750, size: b4, name: _ZN5alloc7raw_vec19RawVec$LT$T$C$A$GT$8grow_one17he2333703c711bc7aE },
    Symbol { offset: 55555566ec80, size: a, name: _ZN3std3sys3pal4unix14abort_internal17h6de20db1dabd0368E },
    Symbol { offset: 555555670480, size: 223, name: _ZN3std3sys4sync4once5futex4Once4call17hc350b5daaffc59b3E },
    Symbol { offset: 55555565fa90, size: 727, name: _ZN3std2rt19lang_start_internal17ha8ef919ae4984948E },
    Symbol { offset: 555555554088, size: 8, name: _ZN3std6thread7current2id2ID17h7db2101f282e5fa4E },
    Symbol { offset: 5555556601c0, size: 11, name: _ZN3std6thread6scoped9ScopeData29increment_num_running_threads17h6ff48f13848fa9f5E },
    Symbol { offset: 555555660230, size: 41, name: _ZN3std6thread6scoped9ScopeData29decrement_num_running_threads17h14dd2471513a43fbE },
    Symbol { offset: 555555660280, size: a3, name: _ZN3std6thread7current11set_current17hb93be68ab12a58b0E },
    Symbol { offset: 5555555540f8, size: 8, name: _ZN3std6thread7current7CURRENT17h4e783fac72fd69c2E },
    Symbol { offset: 5555556610c0, size: d0, name: _ZN3std6thread6Thread3new17h1e1b0882db767f60E },
    Symbol { offset: 5555556603c0, size: 35, name: _ZN3std6thread7current7current17h124f03a83cbbed7cE },
    Symbol { offset: 555555660650, size: 2fc, name: _ZN3std6thread9spawnhook15run_spawn_hooks17h8f0f9603a1f2a090E },
    Symbol { offset: 5555555540e8, size: 10, name: _ZN3std6thread9spawnhook11SPAWN_HOOKS29_$u7b$$u7b$constant$u7d$$u7d$28_$u7b$$u7b$closure$u7d$$u7d$3VAL17h4207ed9bd428b113E },
    Symbol { offset: 5555556709c0, size: 10d, name: _ZN3std3sys12thread_local11destructors10linux_like8register17hbfaaaa8174d4d0f0E },
    Symbol { offset: 555555660950, size: 27f, name: _ZN3std6thread9spawnhook15ChildSpawnHooks3run17h57b1ab0a34b062ffE },
    Symbol { offset: 555555660c10, size: 53, name: _ZN3std6thread5local18panic_access_error17haac738843e300904E },
    Symbol { offset: 555555660bd0, size: 32, name: _ZN68_$LT$std..thread..local..AccessError$u20$as$u20$core..fmt..Debug$GT$3fmt17hbff762e14df5205cE },
    Symbol { offset: 555555660c70, size: 74, name: _ZN3std6thread7Builder4name17h33680cdf96ba26beE },
    Symbol { offset: 555555660cf0, size: b, name: _ZN3std6thread9yield_now17h5ec1329af0087febE },
    Symbol { offset: 555555660d00, size: d1, name: _ZN3std6thread5sleep17ha6e93796dc1526dbE },
    Symbol { offset: 555555660de0, size: 46, name: _ZN65_$LT$std..thread..PanicGuard$u20$as$u20$core..ops..drop..Drop$GT$4drop17h2968683eefbfbd70E },
    Symbol { offset: 555555660e30, size: 110, name: _ZN3std6thread4park17h608d5a0c4bd0e89fE },
    Symbol { offset: 555555660f40, size: 32, name: _ZN3std6thread8ThreadId3new17hdf5175a409569747E },
    Symbol { offset: 555555660fc0, size: f5, name: _ZN118_$LT$std..thread..thread_name_string..ThreadNameString$u20$as$u20$core..convert..From$LT$alloc..string..String$GT$$GT$4from17h1258ba312b61e5b5E },
    Symbol { offset: 555555661190, size: b5, name: _ZN3std6thread6Thread4park17h8be4bd6c4bef28ccE },
    Symbol { offset: 555555661250, size: f4, name: _ZN3std6thread6Thread12park_timeout17hcfb596287cc5b9f4E },
    Symbol { offset: 555555661350, size: 3c, name: _ZN3std6thread6Thread5cname17hfd09de3c5a806b76E },
    Symbol { offset: 555555661390, size: 1b02, name: _ZN3std6thread21available_parallelism17hd91b7cd09c36abe3E },
    Symbol { offset: 55555566b1c0, size: 130, name: _ZN3std3sys2fs6exists17hc97bd82527fada2cE },
    Symbol { offset: 5555556688b0, size: c1, name: _ZN3std4path7PathBuf3pop17ha27433acc619b4c9E },
    Symbol { offset: 555555669020, size: 1f1, name: _ZN3std4path4Path12_starts_with17hf6758a65668e265fE },
    Symbol { offset: 555555664380, size: fa, name: _ZN51_$LT$$RF$std..fs..File$u20$as$u20$std..io..Read$GT$14read_to_string17hb1563eed71000da0E },
    Symbol { offset: 55555566c6c0, size: d6, name: _ZN79_$LT$std..backtrace_rs..symbolize..SymbolName$u20$as$u20$core..fmt..Display$GT$3fmt17h997ed81802f2cd0fE },
    Symbol { offset: 5555556638f0, size: 1da, name: _ZN3std3env11current_dir17h2d3897870c48da9aE },
    Symbol { offset: 555555662ea0, size: 223, name: _ZN3std9backtrace9Backtrace7capture17hb3e7e1447f8dfa14E },
    Symbol { offset: 555555663b70, size: 169, name: _ZN3std3env7_var_os17h0495f0815c952e44E },
    Symbol { offset: 555555670360, size: f7, name: _ZN3std3sys4sync5mutex5futex5Mutex14lock_contended17h62a1561aafc30ee1E },
    Symbol { offset: 5555556633d0, size: 514, name: _ZN64_$LT$std..backtrace..Backtrace$u20$as$u20$core..fmt..Display$GT$3fmt17h407aded97e19fca4E },
    Symbol { offset: 5555556706b0, size: 1af, name: _ZN3std3sys4sync6rwlock5futex6RwLock14read_contended17h694e64af3f33451eE },
    Symbol { offset: 555555663ad0, size: 99, name: _ZN3std3env4_var17h22fbfdc381fa63f8E },
    Symbol { offset: 555555663ce0, size: 1b8, name: _ZN3std3env11current_exe17hacf3e91bb1916d9fE },
    Symbol { offset: 555555663ea0, size: 239, name: _ZN3std3env7args_os17hb25bf4acb3c6e8bdE },
    Symbol { offset: 5555556640e0, size: 1f, name: _ZN62_$LT$std..ffi..os_str..Display$u20$as$u20$core..fmt..Debug$GT$3fmt17h8548b44fc544ee2eE },
    Symbol { offset: 555555664100, size: e4, name: _ZN64_$LT$std..ffi..os_str..Display$u20$as$u20$core..fmt..Display$GT$3fmt17h95e4287f53111669E },
    Symbol { offset: 555555664480, size: 4d, name: _ZN47_$LT$std..fs..File$u20$as$u20$std..io..Read$GT$4read17hf284bf5a26c6d9d2E },
    Symbol { offset: 5555556644d0, size: 4d, name: _ZN48_$LT$std..fs..File$u20$as$u20$std..io..Write$GT$5write17h1544c2442f4ba1d6E },
    Symbol { offset: 5555556692f0, size: 192, name: _ZN3std4path4Path5_join17h3f790f31de26b70dE },
    Symbol { offset: 555555664710, size: b7, name: _ZN3std2fs10DirBuilder7_create17h1b45a740b7df27e7E },
    Symbol { offset: 555555669580, size: e1, name: _ZN3std4path4Path6is_dir17hc18b17a1f237b385E },
    Symbol { offset: 555555668290, size: 3b5, name: _ZN95_$LT$std..path..Components$u20$as$u20$core..iter..traits..double_ended..DoubleEndedIterator$GT$9next_back17hf49c6d439bd75fc4E },
    Symbol { offset: 555555667a60, size: 385, name: _ZN3std4path10Components7as_path17he3077725ece9d5fbE },
    Symbol { offset: 555555664e90, size: 13b, name: _ZN3std2io8buffered9bufwriter18BufWriter$LT$W$GT$14write_all_cold17hd8ddc4ed7db7e536E },
    Symbol { offset: 555555664fd0, size: b, name: _ZN58_$LT$std..io..error..Error$u20$as$u20$core..fmt..Debug$GT$3fmt17hddad94abc0471e03E },
    Symbol { offset: 555555664fe0, size: 144, name: _ZN3std2io5error5Error3new17hd3c5e87eba616f03E },
    Symbol { offset: 555555665420, size: 270, name: _ZN60_$LT$std..io..error..Error$u20$as$u20$core..fmt..Display$GT$3fmt17h8f4b4c77661b5509E },
    Symbol { offset: 555555665690, size: 81, name: _ZN60_$LT$std..io..error..Error$u20$as$u20$core..error..Error$GT$11description17h276e899469d57ce4E },
    Symbol { offset: 555555665720, size: 21, name: _ZN60_$LT$std..io..error..Error$u20$as$u20$core..error..Error$GT$5cause17h5ef44dde5857f254E },
    Symbol { offset: 555555665750, size: 21, name: _ZN60_$LT$std..io..error..Error$u20$as$u20$core..error..Error$GT$6source17h5757b7115835f6c5E },
    Symbol { offset: 555555665b20, size: 25, name: _ZN3std2io5stdio5stdin17h522f8646cbcfeff3E },
    Symbol { offset: 555555665b50, size: 25, name: _ZN3std2io5stdio6stdout17h24077edea8269616E },
    Symbol { offset: 555555665b80, size: 1c, name: _ZN57_$LT$std..io..stdio..Stdout$u20$as$u20$std..io..Write$GT$5flush17ha472da5353fc43dbE },
    Symbol { offset: 555555665ba0, size: 16a, name: _ZN61_$LT$$RF$std..io..stdio..Stdout$u20$as$u20$std..io..Write$GT$5flush17h9ca1900efff6aec6E },
    Symbol { offset: 555555665d10, size: 26a, name: _ZN61_$LT$$RF$std..io..stdio..Stdout$u20$as$u20$std..io..Write$GT$9write_fmt17h0db0b57af9df0c8aE },
    Symbol { offset: 555555666210, size: ba, name: _ZN3std2io5stdio6Stderr4lock17hd1bb9c5be3b5fdefE },
    Symbol { offset: 5555556662d0, size: 26a, name: _ZN61_$LT$$RF$std..io..stdio..Stderr$u20$as$u20$std..io..Write$GT$9write_fmt17h6f566e7a34bb93d3E },
    Symbol { offset: 555555666670, size: c3, name: _ZN3std2io5stdio22try_set_output_capture17hd4b0216193717702E },
    Symbol { offset: 55555569eaa0, size: 18, name: _ZN3std2io5stdio6stderr8INSTANCE17hf9addec0979cb736E },
    Symbol { offset: 555555666990, size: e8, name: _ZN3std2io5stdio6_print17h915f3273edec6464E },
    Symbol { offset: 555555666a80, size: d6, name: _ZN3std2io5stdio7_eprint17h24e2b5fb5581b2f3E },
    Symbol { offset: 555555667840, size: c9, name: _ZN3std5panic19get_backtrace_style17hf22aa94dc7be5a6eE },
    Symbol { offset: 555555667ee0, size: 3a2, name: _ZN80_$LT$std..path..Components$u20$as$u20$core..iter..traits..iterator..Iterator$GT$4next17h2c14b7897081e5e1E },
    Symbol { offset: 55555566fbc0, size: 14d, name: _ZN3std3sys6os_str5bytes5Slice21check_public_boundary9slow_path17h79546775e81af34bE },
    Symbol { offset: 555555668980, size: 34e, name: _ZN3std4path7PathBuf14_set_extension17h23f0cae1114e6dd7E },
    Symbol { offset: 555555668cd0, size: 5f, name: _ZN3std4path4Path9file_name17h1fd5491166767303E },
    Symbol { offset: 555555668d30, size: 2ed, name: _ZN3std4path4Path13_strip_prefix17hc60a3c2bf32b245aE },
    Symbol { offset: 555555669220, size: c1, name: _ZN3std4path4Path9file_stem17hd9e1cd373b97033dE },
    Symbol { offset: 555555669490, size: e1, name: _ZN3std4path4Path7is_file17h5253bb5eb0022126E },
    Symbol { offset: 55555566b070, size: 148, name: _ZN3std3sys2fs8metadata17h012189a03f551c9aE },
    Symbol { offset: 555555669670, size: b, name: _ZN57_$LT$std..path..Display$u20$as$u20$core..fmt..Display$GT$3fmt17he0167703036885c8E },
    Symbol { offset: 555555669680, size: 14, name: _ZN3std7process4exit17h2f22ed21bfeb17bbE },
    Symbol { offset: 5555556696a0, size: a, name: _ZN3std7process5abort17h74511507ccd5ab25E },
    Symbol { offset: 5555556696b0, size: b, name: _ZN3std7process2id17h6eb04a9fc9eafa8bE },
    Symbol { offset: 5555556696c0, size: 15f, name: _ZN3std4sync4mpmc7context7Context3new17he7c0011d1c4eac03E },
    Symbol { offset: 555555554020, size: 1, name: _ZN3std4sync4mpmc5waker17current_thread_id5DUMMY29_$u7b$$u7b$constant$u7d$$u7d$28_$u7b$$u7b$closure$u7d$$u7d$3VAL17h24ab788f88a1cd3eE },
    Symbol { offset: 555555669ee0, size: 2ed, name: _ZN3std4sync7barrier7Barrier4wait17h061bf34d65e6ac54E },
    Symbol { offset: 55555566a350, size: f, name: _ZN3std4time7Instant3now17h6036b261e8d122edE },
    Symbol { offset: 55555566a360, size: 39, name: _ZN3std4time7Instant14duration_since17h60861f16add11f5dE },
    Symbol { offset: 55555566a3a0, size: 53, name: _ZN3std4time7Instant7elapsed17hff32a7e69fef8150E },
    Symbol { offset: 55555566a400, size: 3e, name: _ZN60_$LT$std..time..Instant$u20$as$u20$core..ops..arith..Sub$GT$3sub17h9c075e1189fa0b2fE },
    Symbol { offset: 55555566a7e0, size: 63, name: _ZN3std3sys9backtrace4lock17h9c8d4bcc3fc8f220E },
    Symbol { offset: 55555566a8b0, size: 271, name: _ZN98_$LT$std..sys..backtrace..BacktraceLock..print..DisplayBacktrace$u20$as$u20$core..fmt..Display$GT$3fmt17h46a716bba2450163E },
    Symbol { offset: 55555566c5f0, size: cf, name: _ZN3std12backtrace_rs9symbolize6Symbol4name17h57ff458302c7430cE },
    Symbol { offset: 55555566af40, size: 9, name: _ZN3std3sys9backtrace26__rust_end_short_backtrace17h5b56844d75e766fcE },
    Symbol { offset: 55555566b4a0, size: 5d, name: _RNvCs691rhTbG0Ee_7___rustc11___rdl_alloc },
    Symbol { offset: 55555566b500, size: b, name: _RNvCs691rhTbG0Ee_7___rustc13___rdl_dealloc },
    Symbol { offset: 55555566b510, size: a7, name: _RNvCs691rhTbG0Ee_7___rustc13___rdl_realloc },
    Symbol { offset: 55555566b5c0, size: 8c, name: _RNvCs691rhTbG0Ee_7___rustc18___rdl_alloc_zeroed },
    Symbol { offset: 55555566b650, size: c7, name: _RNvCs691rhTbG0Ee_7___rustc17___rust_drop_panic },
    Symbol { offset: 55555566b720, size: c7, name: _RNvCs691rhTbG0Ee_7___rustc24___rust_foreign_exception },
    Symbol { offset: 55555569ead0, size: 20, name: _ZN3std9panicking4HOOK17h3330761aea924fb2E },
    Symbol { offset: 55555566c280, size: 83, name: _ZN3std9panicking14payload_as_str17hc20bc10c6236f70fE },
    Symbol { offset: 55555566be00, size: 48, name: _ZN3std9panicking11panic_count8increase17h6d60c59d2d10d72eE },
    Symbol { offset: 55555566be6d, size: 43, name: _ZN3std9panicking3try7cleanup17h4f490ddeca09e89cE },
    Symbol { offset: 55555566beb0, size: 1d, name: _RNvCs691rhTbG0Ee_7___rustc17rust_begin_unwind },
    Symbol { offset: 55555566bed0, size: 12a, name: _ZN102_$LT$std..panicking..begin_panic_handler..FormatStringPayload$u20$as$u20$core..panic..PanicPayload$GT$8take_box17h9fe4b4681316a900E },
    Symbol { offset: 55555566c000, size: a9, name: _ZN102_$LT$std..panicking..begin_panic_handler..FormatStringPayload$u20$as$u20$core..panic..PanicPayload$GT$3get17h86980894e1a04e09E },
    Symbol { offset: 55555566c0b0, size: 58, name: _ZN95_$LT$std..panicking..begin_panic_handler..FormatStringPayload$u20$as$u20$core..fmt..Display$GT$3fmt17hde1d5ce5b72237a1E },
    Symbol { offset: 55555566c110, size: 50, name: _ZN99_$LT$std..panicking..begin_panic_handler..StaticStrPayload$u20$as$u20$core..panic..PanicPayload$GT$8take_box17h9f692f74f3e46aa8E },
    Symbol { offset: 55555566c180, size: 18, name: _ZN92_$LT$std..panicking..begin_panic_handler..StaticStrPayload$u20$as$u20$core..fmt..Display$GT$3fmt17h8196b3a4bceae169E },
    Symbol { offset: 55555566c303, size: 279, name: _ZN3std9panicking20rust_panic_with_hook17h409da73ddef13937E },
    Symbol { offset: 55555566c580, size: 6f, name: _RNvCs691rhTbG0Ee_7___rustc10rust_panic },
    Symbol { offset: 55555566d110, size: 26, name: _ZN3std3sys3pal4unix5futex10futex_wake17hf8d313f7ba9f1baeE },
    Symbol { offset: 55555566d6f0, size: 29c, name: _ZN3std3sys3pal4unix6thread6Thread3new17hdb19f87c63e0e024E },
    Symbol { offset: 55555566da90, size: 61, name: _ZN3std3sys3pal4unix6thread6Thread8set_name17h4d381d99d2a8fd31E },
    Symbol { offset: 55555566db00, size: e, name: _ZN77_$LT$std..sys..pal..unix..thread..Thread$u20$as$u20$core..ops..drop..Drop$GT$4drop17hb579d24ba385c22aE },
    Symbol { offset: 55555566ecd0, size: 616, name: rust_eh_personality },
    Symbol { offset: 55555566f2f0, size: 17, name: _ZN3std3sys4args4unix3imp15ARGV_INIT_ARRAY12init_wrapper17ha2ca0aed27ecc9d1E },
    Symbol { offset: 555555670270, size: 30, name: _ZN3std3sys6random5linux19hashmap_random_keys17hf5f98782b412ab19E },
    Symbol { offset: 5555556702a0, size: 50, name: _ZN64_$LT$std..sys..stdio..unix..Stderr$u20$as$u20$std..io..Write$GT$5write17hea69813d10fc5b47E },
    Symbol { offset: 5555556702f0, size: 4f, name: _ZN64_$LT$std..sys..stdio..unix..Stderr$u20$as$u20$std..io..Write$GT$14write_vectored17hd08e9801a56c11c6E },
    Symbol { offset: 555555670460, size: 1f, name: _ZN3std3sys4sync5mutex5futex5Mutex4wake17h582e9d66664dd268E },
    Symbol { offset: 555555670d30, size: 21, name: _ZN3std5alloc8rust_oom17hc6bae85804c44578E },
    Symbol { offset: 555555670d60, size: 13, name: _RNvCs691rhTbG0Ee_7___rustc8___rg_oom },
    Symbol { offset: 55555567a8d0, size: 7e3, name: _ZN114_$LT$std..backtrace_rs..symbolize..gimli..parse_running_mmaps..MapsEntry$u20$as$u20$core..str..traits..FromStr$GT$8from_str17hb7bcfb091db228b3E },
    Symbol { offset: 55555569b6c0, size: 8, name: _ZN3std3sys4args4unix3imp15ARGV_INIT_ARRAY17h05c1a498d5608d1eE },
    Symbol { offset: 55555569ea18, size: 8, name: _ZN3std6thread7Builder16spawn_unchecked_28_$u7b$$u7b$closure$u7d$$u7d$3MIN17hacac2fe9f76e4b6dE },
    Symbol { offset: 5555555540b0, size: 10, name: _ZN3std4sync4mpmc7context7Context4with7CONTEXT29_$u7b$$u7b$constant$u7d$$u7d$28_$u7b$$u7b$closure$u7d$$u7d$3VAL17h0e24ed330a3ab221E },
    Symbol { offset: 5555555540d0, size: 18, name: _ZN3std4hash6random11RandomState3new4KEYS29_$u7b$$u7b$constant$u7d$$u7d$28_$u7b$$u7b$closure$u7d$$u7d$3VAL17h7d75c4b6714d2d2dE },
    Symbol { offset: 5555556502d0, size: b3, name: _ZN5alloc7raw_vec19RawVec$LT$T$C$A$GT$8grow_one17h4f6c7e1d0a538992E },
    Symbol { offset: 555555650390, size: b3, name: _ZN5alloc7raw_vec19RawVec$LT$T$C$A$GT$8grow_one17h566e32e1f21188d5E },
    Symbol { offset: 555555650150, size: b4, name: _ZN5alloc7raw_vec19RawVec$LT$T$C$A$GT$8grow_one17h97c9420940a466c0E },
    Symbol { offset: 555555650390, size: b3, name: _ZN5alloc7raw_vec19RawVec$LT$T$C$A$GT$8grow_one17hb2209c37c9b4231bE },
    Symbol { offset: 5555556502d0, size: b3, name: _ZN5alloc7raw_vec19RawVec$LT$T$C$A$GT$8grow_one17hb6ce9080d194f851E },
    Symbol { offset: 5555556502d0, size: b3, name: _ZN5alloc7raw_vec19RawVec$LT$T$C$A$GT$8grow_one17hdd31563d5e240d8aE },
    Symbol { offset: 5555556502d0, size: b3, name: _ZN5alloc7raw_vec19RawVec$LT$T$C$A$GT$8grow_one17hecf6441981b50172E },
    Symbol { offset: 55555566a360, size: 39, name: _ZN3std4time7Instant25saturating_duration_since17h78e9106f31df1e75E },
    Symbol { offset: 55555564ffd0, size: b7, name: _ZN5alloc7raw_vec19RawVec$LT$T$C$A$GT$8grow_one17h529b48438c95a50fE },
    Symbol { offset: 55555564ffd0, size: b7, name: _ZN5alloc7raw_vec19RawVec$LT$T$C$A$GT$8grow_one17h85eaf003d2163eb1E },
    Symbol { offset: 55555564ffd0, size: b7, name: _ZN5alloc7raw_vec19RawVec$LT$T$C$A$GT$8grow_one17ha6d86d91f95e251dE },
    Symbol { offset: 55555564ffd0, size: b7, name: _ZN5alloc7raw_vec19RawVec$LT$T$C$A$GT$8grow_one17hb5468a2665c6f266E },
    Symbol { offset: 555555650510, size: b7, name: _ZN5alloc7raw_vec19RawVec$LT$T$C$A$GT$8grow_one17hc5b042a0e20b5396E },
    Symbol { offset: 555555650450, size: b7, name: _ZN5alloc7raw_vec19RawVec$LT$T$C$A$GT$8grow_one17hc5e7c874e131478dE },
    Symbol { offset: 5555556505d0, size: b3, name: _ZN5alloc7raw_vec19RawVec$LT$T$C$A$GT$8grow_one17hc72e5b1088c9c1c6E },
    Symbol { offset: 555555650090, size: b3, name: _ZN5alloc7raw_vec19RawVec$LT$T$C$A$GT$8grow_one17hcb88e56ba134a3faE },
    Symbol { offset: 55555564ffd0, size: b7, name: _ZN5alloc7raw_vec19RawVec$LT$T$C$A$GT$8grow_one17hf9839fd3ee1c746fE },
    Symbol { offset: 555555650090, size: b3, name: _ZN5alloc7raw_vec19RawVec$LT$T$C$A$GT$8grow_one17hfcb40064a526712bE },
    Symbol { offset: 555555666210, size: ba, name: _ZN3std2io5stdio6Stdout4lock17ha5f5a44ac91123e6E },
    Symbol { offset: 5555556644d0, size: 4d, name: _ZN73_$LT$std..os..unix..net..stream..UnixStream$u20$as$u20$std..io..Write$GT$5write17hf94ae5675625321eE },
    Symbol { offset: 5555556644d0, size: 4d, name: _ZN59_$LT$std..process..ChildStdin$u20$as$u20$std..io..Write$GT$5write17h120b32ec692791ebE },
    Symbol { offset: 55555567b180, size: 69, name: _ZN4core3ptr49drop_in_place$LT$panic_unwind..imp..Exception$GT$17h10d68088710b83ecE },
    Symbol { offset: 55555567b1f0, size: 8d, name: _ZN4core3ptr74drop_in_place$LT$alloc..boxed..Box$LT$panic_unwind..imp..Exception$GT$$GT$17h58591d5cc9a1ab54E },
    Symbol { offset: 55555559a624, size: 1, name: _ZN12panic_unwind3imp6CANARY17h7e39f969d39b00d1E },
    Symbol { offset: 55555567b390, size: 18, name: _ZN12panic_unwind3imp5panic17exception_cleanup17h06c84346a78cc9f5E },
    Symbol { offset: 55555567b280, size: 52, name: _RNvCs691rhTbG0Ee_7___rustc20___rust_panic_cleanup },
    Symbol { offset: 55555567b2e0, size: a5, name: _RNvCs691rhTbG0Ee_7___rustc18___rust_start_panic },
    Symbol { offset: 5555555a1094, size: 4, name: .Lanon.a7a54b18178085eb95e9c240ea5dbc78.9 },
    Symbol { offset: 5555555a100c, size: 4, name: .Lanon.a7a54b18178085eb95e9c240ea5dbc78.7 },
    Symbol { offset: 5555555a1028, size: 4, name: .Lanon.a7a54b18178085eb95e9c240ea5dbc78.39 },
    Symbol { offset: 55555567b3b0, size: 4f, name: _ZN68_$LT$$RF$$u5b$u8$u5d$$u20$as$u20$object..read..read_ref..ReadRef$GT$19read_bytes_at_until17h6a2ea114740a5c13E },
    Symbol { offset: 5555555a1054, size: 4, name: .Lanon.dccf4e39257b506e50a5b3d119613f6f.47 },
    Symbol { offset: 55555567b400, size: 1c5, name: _ZN6memchr4arch6x86_646memchr10memchr_raw9find_sse217hcd747fbd30471addE },
    Symbol { offset: 55555569e880, size: 8, name: _ZN6memchr4arch6x86_646memchr10memchr_raw2FN17h7d3649e519c92257E },
    Symbol { offset: 55555567b5d0, size: 1d5, name: _ZN6memchr4arch6x86_646memchr10memchr_raw6detect17h09b74f15f965cd7eE },
    Symbol { offset: 55555567bb00, size: 80, name: _ZN9addr2line4line16has_windows_root17h63c423c1ec19bcf9E },
    Symbol { offset: 55555567b7a5, size: 64, name: _ZN132_$LT$alloc..vec..Vec$LT$T$C$A$GT$$u20$as$u20$alloc..vec..spec_extend..SpecExtend$LT$$RF$T$C$core..slice..iter..Iter$LT$T$GT$$GT$$GT$11spec_extend17hcf5ccbed4852be19E },
    Symbol { offset: 55555567b809, size: 31, name: _ZN5alloc7raw_vec20RawVecInner$LT$A$GT$7reserve21do_reserve_and_handle17h385d5fc7c124abf1E },
    Symbol { offset: 55555567b83a, size: 12a, name: _ZN9addr2line4line5Lines13find_location17h5bb34830575d6fd0E },
    Symbol { offset: 55555567b964, size: 19c, name: _ZN9addr2line4line9path_push17h6564d479abc5ea34E },
    Symbol { offset: 5555555a1028, size: 4, name: .Lanon.d1b1d82483a86a8fde26702e316c5062.1796 },
    Symbol { offset: 5555555a0e90, size: 20, name: .Lanon.d1b1d82483a86a8fde26702e316c5062.9 },
    Symbol { offset: 5555555a11c0, size: 8, name: .Lanon.d1b1d82483a86a8fde26702e316c5062.31 },
    Symbol { offset: 55555567bb80, size: 7d, name: _ZN5alloc11collections5btree3map25BTreeMap$LT$K$C$V$C$A$GT$3get17h598b51201eb59dbaE },
    Symbol { offset: 55555567bbfd, size: ab, name: _ZN5alloc11collections5btree3map25BTreeMap$LT$K$C$V$C$A$GT$5entry17h5a23632b8136014dE },
    Symbol { offset: 55555567bca8, size: cc, name: _ZN5alloc11collections5btree3map5entry28VacantEntry$LT$K$C$V$C$A$GT$12insert_entry17h9b85edb010cf211bE },
    Symbol { offset: 55555567c1c1, size: 269, name: _ZN5alloc11collections5btree4node210Handle$LT$alloc..collections..btree..node..NodeRef$LT$alloc..collections..btree..node..marker..Mut$C$K$C$V$C$alloc..collections..btree..node..marker..Leaf$GT$$C$alloc..collections..btree..node..marker..Edge$GT$16insert_recursing17h6e4a298f328e8670E },
    Symbol { offset: 55555567ca42, size: 34, name: _ZN5alloc5boxed16Box$LT$T$C$A$GT$13new_uninit_in17h5c05aec4e0940d95E },
    Symbol { offset: 55555567bd74, size: 9e, name: _ZN5alloc11collections5btree4node115NodeRef$LT$alloc..collections..btree..node..marker..Mut$C$K$C$V$C$alloc..collections..btree..node..marker..Leaf$GT$16push_with_handle17he1630ed679d4c016E },
    Symbol { offset: 55555567cbb0, size: 47, name: _ZN5alloc7raw_vec20RawVecInner$LT$A$GT$10deallocate17h06eec048b34db7f5E },
    Symbol { offset: 55555567be12, size: c5, name: _ZN5alloc11collections5btree4node119NodeRef$LT$alloc..collections..btree..node..marker..Mut$C$K$C$V$C$alloc..collections..btree..node..marker..Internal$GT$4push17h07a6ec1443103262E },
    Symbol { offset: 55555567ca76, size: 34, name: _ZN5alloc5boxed16Box$LT$T$C$A$GT$13new_uninit_in17h87b663a45a11670eE },
    Symbol { offset: 55555567bed7, size: 147, name: _ZN5alloc11collections5btree4node171Handle$LT$alloc..collections..btree..node..NodeRef$LT$alloc..collections..btree..node..marker..Mut$C$K$C$V$C$NodeType$GT$$C$alloc..collections..btree..node..marker..KV$GT$15split_leaf_data17h321cb2b603380857E },
    Symbol { offset: 55555567c01e, size: 9c, name: _ZN5alloc11collections5btree4node208Handle$LT$alloc..collections..btree..node..NodeRef$LT$alloc..collections..btree..node..marker..Mut$C$K$C$V$C$alloc..collections..btree..node..marker..Leaf$GT$$C$alloc..collections..btree..node..marker..KV$GT$5split17h8c2a42b0c7751fd4E },
    Symbol { offset: 55555567c0ba, size: 107, name: _ZN5alloc11collections5btree4node210Handle$LT$alloc..collections..btree..node..NodeRef$LT$alloc..collections..btree..node..marker..Mut$C$K$C$V$C$alloc..collections..btree..node..marker..Leaf$GT$$C$alloc..collections..btree..node..marker..Edge$GT$10insert_fit17h07f3bc221bc89d6fE },
    Symbol { offset: 55555567c42a, size: 18a, name: _ZN5alloc11collections5btree4node210Handle$LT$alloc..collections..btree..node..NodeRef$LT$alloc..collections..btree..node..marker..Mut$C$K$C$V$C$alloc..collections..btree..node..marker..Leaf$GT$$C$alloc..collections..btree..node..marker..Edge$GT$6insert17h2f3c43429806e928E },
    Symbol { offset: 55555567c88d, size: 1b5, name: _ZN5alloc11collections5btree4node214Handle$LT$alloc..collections..btree..node..NodeRef$LT$alloc..collections..btree..node..marker..Mut$C$K$C$V$C$alloc..collections..btree..node..marker..Internal$GT$$C$alloc..collections..btree..node..marker..Edge$GT$6insert17h1aed7c866c954bfeE },
    Symbol { offset: 55555567c5b4, size: 18a, name: _ZN5alloc11collections5btree4node212Handle$LT$alloc..collections..btree..node..NodeRef$LT$alloc..collections..btree..node..marker..Mut$C$K$C$V$C$alloc..collections..btree..node..marker..Internal$GT$$C$alloc..collections..btree..node..marker..KV$GT$5split17hbcd4eda6b6dbd241E },
    Symbol { offset: 55555567c73e, size: 14f, name: _ZN5alloc11collections5btree4node214Handle$LT$alloc..collections..btree..node..NodeRef$LT$alloc..collections..btree..node..marker..Mut$C$K$C$V$C$alloc..collections..btree..node..marker..Internal$GT$$C$alloc..collections..btree..node..marker..Edge$GT$10insert_fit17h6a50e5e0e1447a15E },
    Symbol { offset: 55555567caaa, size: 78, name: _ZN5alloc7raw_vec11finish_grow17h64eb04e0aa211b72E },
    Symbol { offset: 55555567cb22, size: 47, name: _ZN5alloc7raw_vec19RawVec$LT$T$C$A$GT$8grow_one17hba58adb5ff742c28E },
    Symbol { offset: 55555567cbf7, size: f3, name: _ZN5alloc7raw_vec20RawVecInner$LT$A$GT$14grow_amortized17h4ef16fb9008c9989E },
    Symbol { offset: 55555567cb69, size: 47, name: _ZN5alloc7raw_vec19RawVec$LT$T$C$A$GT$8grow_one17hecb32e87807d5090E },
    Symbol { offset: 55555567ccea, size: b4, name: _ZN5alloc7raw_vec20RawVecInner$LT$A$GT$15try_allocate_in17h4f7e38587b6f6112E },
    Symbol { offset: 55555567cd9e, size: 6, name: _ZN70_$LT$alloc..vec..Vec$LT$T$C$A$GT$$u20$as$u20$core..ops..drop..Drop$GT$4drop17h3cad85dcbc7cf70aE },
    Symbol { offset: 55555567cda4, size: 22, name: _ZN73_$LT$$u5b$A$u5d$$u20$as$u20$core..slice..cmp..SlicePartialEq$LT$B$GT$$GT$5equal17h6d28515a6594dd55E },
    Symbol { offset: 55555567cdc6, size: 15, name: _ZN77_$LT$alloc..raw_vec..RawVec$LT$T$C$A$GT$$u20$as$u20$core..ops..drop..Drop$GT$4drop17h207b169ff2d583b0E },
    Symbol { offset: 55555567cddb, size: 101, name: _ZN5gimli4read6abbrev13Abbreviations6insert17h60a9271c63d9b209E },
    Symbol { offset: 55555567cedc, size: 8b, name: _ZN5gimli4read6abbrev12Abbreviation3new17h6c3521af4c3686f9E },
    Symbol { offset: 55555567cf67, size: 16d, name: _ZN5gimli4read6abbrev10Attributes4push17hf0a41d164d76125dE },
    Symbol { offset: 55555567d0d4, size: 3c, name: _ZN75_$LT$gimli..read..abbrev..Attributes$u20$as$u20$core..ops..deref..Deref$GT$5deref17h15022a6a01c1b6e3E },
    Symbol { offset: 55555567cd9e, size: 6, name: _ZN70_$LT$alloc..vec..Vec$LT$T$C$A$GT$$u20$as$u20$core..ops..drop..Drop$GT$4drop17he78ffeecac60e956E },
    Symbol { offset: 55555567bed7, size: 147, name: _ZN5alloc11collections5btree4node171Handle$LT$alloc..collections..btree..node..NodeRef$LT$alloc..collections..btree..node..marker..Mut$C$K$C$V$C$NodeType$GT$$C$alloc..collections..btree..node..marker..KV$GT$15split_leaf_data17hca34a28c28802ddeE },
    Symbol { offset: 55555567d110, size: 30e, name: _ZN104_$LT$core..iter..sources..from_fn..FromFn$LT$F$GT$$u20$as$u20$core..iter..traits..iterator..Iterator$GT$4next17hfadbf926ac3a5466E },
    Symbol { offset: 55555567dc51, size: 1b, name: _ZN81_$LT$core..str..iter..Chars$u20$as$u20$core..iter..traits..iterator..Iterator$GT$5count17hec967fd046e9122eE },
    Symbol { offset: 55555567d49f, size: 1a, name: _ZN45_$LT$$LP$$RP$$u20$as$u20$core..fmt..Debug$GT$3fmt17hb5124022a727dda6E },
    Symbol { offset: 55555567d8e8, size: 369, name: _ZN80_$LT$core..str..pattern..StrSearcher$u20$as$u20$core..str..pattern..Searcher$GT$4next17hd621983bafb03bd5E },
    Symbol { offset: 55555567d66b, size: 14e, name: _ZN4core3str4iter22SplitInternal$LT$P$GT$4next17h118ce86856e16885E },
    Symbol { offset: 5555555a0910, size: 10, name: .Lanon.061845d3c3704435161bc38ba186afc3.8 },
    Symbol { offset: 55555567d889, size: 1a, name: _ZN53_$LT$core..fmt..Error$u20$as$u20$core..fmt..Debug$GT$3fmt17h6736176c8e29474eE },
    Symbol { offset: 55555567d8a3, size: 45, name: _ZN68_$LT$core..num..error..ParseIntError$u20$as$u20$core..fmt..Debug$GT$3fmt17h9d974530281c97f3E },
    Symbol { offset: 5555555a1054, size: 4, name: .Lanon.061845d3c3704435161bc38ba186afc3.22 },
    Symbol { offset: 5555556800e6, size: 6e0, name: _ZN14rustc_demangle2v07Printer10print_path17hbd8c36db6060b33fE },
    Symbol { offset: 55555567eb43, size: fe, name: _ZN14rustc_demangle2v010HexNibbles14try_parse_uint17h94b7640e82bcab0aE },
    Symbol { offset: 55555567ec41, size: 31, name: _ZN14rustc_demangle2v010basic_type17h9f185ab0feea733cE },
    Symbol { offset: 55555567ec72, size: 9f, name: _ZN14rustc_demangle2v06Parser11hex_nibbles17ha785dbba0085b7e9E },
    Symbol { offset: 55555567ed11, size: a7, name: _ZN14rustc_demangle2v06Parser10integer_6217h5918be41e14fd766E },
    Symbol { offset: 55555567edb8, size: 74, name: _ZN14rustc_demangle2v06Parser14opt_integer_6217h29066bdf5734d43eE },
    Symbol { offset: 55555567ee2c, size: 54, name: _ZN14rustc_demangle2v06Parser9namespace17hbddc6a31e204523eE },
    Symbol { offset: 55555567ee80, size: 7e, name: _ZN14rustc_demangle2v06Parser7backref17h6f9cbe61094e2b00E },
    Symbol { offset: 55555567eefe, size: 1cd, name: _ZN14rustc_demangle2v06Parser5ident17h87b87b192557e458E },
    Symbol { offset: 55555567f0cb, size: 56, name: _ZN14rustc_demangle2v07Printer17skipping_printing17h8d5b8904b5d3f058E },
    Symbol { offset: 55555567f121, size: ee, name: _ZN14rustc_demangle2v07Printer13print_backref17had0c092bdcfae283E },
    Symbol { offset: 55555568119d, size: 674, name: _ZN14rustc_demangle2v07Printer11print_const17ha28eb73837bd7900E },
    Symbol { offset: 5555555a0a60, size: 10, name: .Lanon.061845d3c3704435161bc38ba186afc3.118 },
    Symbol { offset: 55555567f20f, size: e1, name: _ZN14rustc_demangle2v07Printer13print_backref17hb169648227df0ce0E },
    Symbol { offset: 5555556807c6, size: 504, name: _ZN14rustc_demangle2v07Printer10print_type17h84a64b46d619a741E },
    Symbol { offset: 55555567f2f0, size: ee, name: _ZN14rustc_demangle2v07Printer13print_backref17hdc88e431424dcf59E },
    Symbol { offset: 55555567f3de, size: 207, name: _ZN14rustc_demangle2v07Printer26print_quoted_escaped_chars17ha98ea7397491aa4cE },
    Symbol { offset: 55555567f5e5, size: f1, name: _ZN14rustc_demangle2v07Printer25print_lifetime_from_index17h1d82ab64a55481a7E },
    Symbol { offset: 55555567f6d6, size: 17e, name: _ZN14rustc_demangle2v07Printer9in_binder17h053fc539f69cfa09E },
    Symbol { offset: 5555555a1098, size: 4, name: .Lanon.061845d3c3704435161bc38ba186afc3.122 },
    Symbol { offset: 55555567fa79, size: 224, name: _ZN14rustc_demangle2v07Printer14print_sep_list17h8d37e40ee2bcb49eE },
    Symbol { offset: 55555567f854, size: 183, name: _ZN14rustc_demangle2v07Printer9in_binder17h22631f68a940ccbeE },
    Symbol { offset: 555555680cca, size: 38c, name: _ZN14rustc_demangle2v07Printer10print_type28_$u7b$$u7b$closure$u7d$$u7d$17h8c0736a3fd85efdfE },
    Symbol { offset: 55555567f9d7, size: a2, name: _ZN14rustc_demangle2v07Printer14print_sep_list17h130f62317590bc5cE },
    Symbol { offset: 555555681056, size: 147, name: _ZN14rustc_demangle2v07Printer30print_path_maybe_open_generics17haed12602d40460adE },
    Symbol { offset: 55555567fc9d, size: 97, name: _ZN14rustc_demangle2v07Printer14print_sep_list17h956ccee43e03a97bE },
    Symbol { offset: 55555567fd34, size: 1d1, name: _ZN14rustc_demangle2v07Printer14print_sep_list17h96721ee52d3c7424E },
    Symbol { offset: 55555567ff05, size: 9d, name: _ZN14rustc_demangle2v07Printer14print_sep_list17h9b8d9f98c725f4ecE },
    Symbol { offset: 55555567ffa2, size: 144, name: _ZN14rustc_demangle2v07Printer14print_sep_list17hd805fff0621ac6dbE },
    Symbol { offset: 5555555a1020, size: 4, name: .Lanon.061845d3c3704435161bc38ba186afc3.132 },
    Symbol { offset: 5555555a0fe4, size: 4, name: .Lanon.061845d3c3704435161bc38ba186afc3.129 },
    Symbol { offset: 5555555a1018, size: 4, name: .Lanon.061845d3c3704435161bc38ba186afc3.137 },
    Symbol { offset: 5555555a0fd8, size: 4, name: .Lanon.061845d3c3704435161bc38ba186afc3.134 },
    Symbol { offset: 5555555a10f8, size: 8, name: .Lanon.061845d3c3704435161bc38ba186afc3.140 },
    Symbol { offset: 5555555a0fe0, size: 4, name: .Lanon.061845d3c3704435161bc38ba186afc3.144 },
    Symbol { offset: 555555681811, size: 169, name: _ZN14rustc_demangle2v07Printer16print_const_uint17h064c8604778f0e69E },
    Symbol { offset: 5555555a1010, size: 4, name: .Lanon.061845d3c3704435161bc38ba186afc3.147 },
    Symbol { offset: 55555568197a, size: 384, name: _ZN14rustc_demangle2v07Printer23print_const_str_literal17hf36db53d5803ae7dE },
    Symbol { offset: 5555555a08c0, size: 10, name: .Lanon.061845d3c3704435161bc38ba186afc3.158 },
    Symbol { offset: 555555682a4a, size: 1a, name: _ZN71_$LT$rustc_demangle..SizeLimitExhausted$u20$as$u20$core..fmt..Debug$GT$3fmt17hec3428fd6c49e178E },
    Symbol { offset: 5555555a0ff0, size: 4, name: .Lanon.061845d3c3704435161bc38ba186afc3.19 },
    Symbol { offset: 55555567d871, size: 18, name: _ZN50_$LT$$RF$mut$u20$T$u20$as$u20$core..fmt..Debug$GT$3fmt17h8c65a419c53f9d4dE },
    Symbol { offset: 55555567d44e, size: 18, name: _ZN42_$LT$$RF$T$u20$as$u20$core..fmt..Debug$GT$3fmt17ha496a8c71e00bc03E },
    Symbol { offset: 55555567d41e, size: 30, name: _ZN42_$LT$$RF$T$u20$as$u20$core..fmt..Debug$GT$3fmt17h1b8ee3ab654f8904E },
    Symbol { offset: 55555567d466, size: 2b, name: _ZN42_$LT$$RF$T$u20$as$u20$core..fmt..Debug$GT$3fmt17hcc65f483d4a509cfE },
    Symbol { offset: 55555567d491, size: e, name: _ZN44_$LT$$RF$T$u20$as$u20$core..fmt..Display$GT$3fmt17h5d60816cf98c50f9E },
    Symbol { offset: 55555568289c, size: 43, name: _ZN68_$LT$rustc_demangle..DemangleStyle$u20$as$u20$core..fmt..Display$GT$3fmt17hda20823edba765e5E },
    Symbol { offset: 55555567d4b9, size: 6d, name: _ZN48_$LT$$u5b$T$u5d$$u20$as$u20$core..fmt..Debug$GT$3fmt17hfd8dce5ae4f54cffE },
    Symbol { offset: 55555567d526, size: ba, name: _ZN4core3fmt5Write10write_char17h0cbb9946e8fbd844E },
    Symbol { offset: 5555556828df, size: 2b, name: _ZN83_$LT$rustc_demangle..SizeLimitedFmtAdapter$LT$F$GT$$u20$as$u20$core..fmt..Write$GT$9write_str17h2df3350c4ef6ad9aE },
    Symbol { offset: 55555567d5e0, size: 15, name: _ZN4core3fmt5Write9write_fmt17h1aa0fc05028cef44E },
    Symbol { offset: 55555567d5f5, size: 76, name: _ZN4core3str21_$LT$impl$u20$str$GT$18trim_start_matches17h554917e79ffb81b7E },
    Symbol { offset: 55555567d7b9, size: b8, name: _ZN4core6escape14escape_unicode17h4841460ecaaaccecE },
    Symbol { offset: 55555567dc6c, size: acb, name: _ZN71_$LT$rustc_demangle..legacy..Demangle$u20$as$u20$core..fmt..Display$GT$3fmt17h5a77a002e9a12872E },
    Symbol { offset: 55555567e737, size: 40c, name: _ZN64_$LT$rustc_demangle..v0..Ident$u20$as$u20$core..fmt..Display$GT$3fmt17hbe037180ebb91ddfE },
    Symbol { offset: 555555681cfe, size: b49, name: _ZN14rustc_demangle8demangle17he72e7f5569f8f002E },
    Symbol { offset: 555555682847, size: 55, name: _ZN14rustc_demangle12try_demangle17h2b094a4f037404a1E },
    Symbol { offset: 55555568290a, size: 140, name: _ZN63_$LT$rustc_demangle..Demangle$u20$as$u20$core..fmt..Display$GT$3fmt17h2b79cedd9036d902E },
    Symbol { offset: 555555682a70, size: 42, name: _ZN9hashbrown3raw11Fallibility17capacity_overflow17hb6c51339c548b2acE },
    Symbol { offset: 555555682ac0, size: 18, name: _ZN9hashbrown3raw11Fallibility9alloc_err17hb27a050813e1a7bbE },
    Symbol { offset: 555555682ba1, size: 455, name: _ZN11miniz_oxide7inflate4core9init_tree17h553c919e6806e51cE },
    Symbol { offset: 555555682ff6, size: 43a, name: _ZN11miniz_oxide7inflate4core8transfer17h377de62ed2bd1250E },
    Symbol { offset: 555555683430, size: 1cf, name: _ZN11miniz_oxide7inflate4core11apply_match17hc44600e5c6d39296E },
    Symbol { offset: 5555555a0e70, size: 20, name: .Lanon.15f0ac86678c7f30d7b53467dd2fda46.45 },
    Symbol { offset: 555555682ad8, size: 7e, name: _ZN4core5slice29_$LT$impl$u20$$u5b$T$u5d$$GT$11copy_within17h5e30c2d8bb1bcff3E },
    Symbol { offset: 555555682b56, size: 4b, name: _ZN4core5slice5index5range17h520f52bfcb23a7c2E },
    Symbol { offset: 5555556835ff, size: 1a3b, name: _ZN11miniz_oxide7inflate4core10decompress17hce48230e011c9d91E },
    Symbol { offset: 555555685040, size: 3e1, name: _ZN6adler27Adler3211write_slice17hc7666613ea080d08E },
    Symbol { offset: 5555555a1094, size: 4, name: .Lanon.38cf5e84a9682489615e8b34a43bde4a.7 },
    Symbol { offset: 5555555a100c, size: 4, name: .Lanon.38cf5e84a9682489615e8b34a43bde4a.5 },
    Symbol { offset: 555555685430, size: 15, name: _ZN4core3fmt5Write9write_fmt17h1ae16778873cceccE },
    Symbol { offset: 555555685450, size: 1e, name: _ZN4core3ptr42drop_in_place$LT$alloc..string..String$GT$17h01d23767156fe9b7E },
    Symbol { offset: 5555556854f0, size: a5, name: _ZN5alloc7raw_vec20RawVecInner$LT$A$GT$7reserve21do_reserve_and_handle17h366b06ffbd67de15E },
    Symbol { offset: 555555685470, size: 1a, name: _ZN53_$LT$core..fmt..Error$u20$as$u20$core..fmt..Debug$GT$3fmt17h6736176c8e29474eE },
    Symbol { offset: 555555685490, size: 1a, name: _ZN69_$LT$core..alloc..layout..LayoutError$u20$as$u20$core..fmt..Debug$GT$3fmt17hbaa65eea7f1a89d3E },
    Symbol { offset: 5555556854b0, size: 37, name: _ZN5alloc7raw_vec17capacity_overflow17h1b4b301db4b7931fE },
    Symbol { offset: 5555556855a0, size: 76, name: _ZN5alloc7raw_vec11finish_grow17h61e850b4706b9540E },
    Symbol { offset: 555555685f20, size: 5c, name: _ZN58_$LT$alloc..string..String$u20$as$u20$core..fmt..Write$GT$9write_str17h3471f8bf4fd2c6acE },
    Symbol { offset: 555555685f80, size: 11c, name: _ZN58_$LT$alloc..string..String$u20$as$u20$core..fmt..Write$GT$10write_char17h13db4e3872bba170E },
    Symbol { offset: 555555685616, size: 17, name: _ZN5alloc7raw_vec12handle_error17h891236e332f51b87E },
    Symbol { offset: 55555568562d, size: 13, name: _ZN5alloc5alloc18handle_alloc_error17h29c279d8237d34e5E },
    Symbol { offset: 555555685640, size: e, name: _ZN256_$LT$alloc..boxed..convert..$LT$impl$u20$core..convert..From$LT$alloc..string..String$GT$$u20$for$u20$alloc..boxed..Box$LT$dyn$u20$core..error..Error$u2b$core..marker..Send$u2b$core..marker..Sync$GT$$GT$..from..StringError$u20$as$u20$core..error..Error$GT$11description17h2530c666fb478694E },
    Symbol { offset: 555555685650, size: 19, name: _ZN256_$LT$alloc..boxed..convert..$LT$impl$u20$core..convert..From$LT$alloc..string..String$GT$$u20$for$u20$alloc..boxed..Box$LT$dyn$u20$core..error..Error$u2b$core..marker..Send$u2b$core..marker..Sync$GT$$GT$..from..StringError$u20$as$u20$core..fmt..Display$GT$3fmt17h45702c79a1faa6e0E },
    Symbol { offset: 555555685670, size: 19, name: _ZN254_$LT$alloc..boxed..convert..$LT$impl$u20$core..convert..From$LT$alloc..string..String$GT$$u20$for$u20$alloc..boxed..Box$LT$dyn$u20$core..error..Error$u2b$core..marker..Send$u2b$core..marker..Sync$GT$$GT$..from..StringError$u20$as$u20$core..fmt..Debug$GT$3fmt17h245021bb6de39f1dE },
    Symbol { offset: 555555685690, size: 6, name: _ZN93_$LT$alloc..collections..btree..mem..replace..PanicGuard$u20$as$u20$core..ops..drop..Drop$GT$4drop17h7926798457b17142E },
    Symbol { offset: 5555556856a0, size: 137, name: _ZN72_$LT$$RF$str$u20$as$u20$alloc..ffi..c_str..CString..new..SpecNewImpl$GT$13spec_new_impl17h3b6a56c9872207e6E },
    Symbol { offset: 5555556857e0, size: 12d, name: _ZN5alloc3ffi5c_str7CString19_from_vec_unchecked17h3e136e712b77954eE },
    Symbol { offset: 555555685ab0, size: 253, name: _ZN5alloc6string6String15from_utf8_lossy17hab6f1da2a0276508E },
    Symbol { offset: 555555685910, size: 19e, name: _ZN5alloc3fmt6format12format_inner17h8a62f782d788077eE },
    Symbol { offset: 555555685d10, size: c2, name: _ZN5alloc6string6String11try_reserve17h8f59d3e890b45184E },
    Symbol { offset: 555555685de0, size: 90, name: _ZN60_$LT$alloc..string..String$u20$as$u20$core..clone..Clone$GT$5clone17ha172155c8a66ece7E },
    Symbol { offset: 555555685e70, size: a7, name: _ZN98_$LT$alloc..string..String$u20$as$u20$core..convert..From$LT$alloc..borrow..Cow$LT$str$GT$$GT$$GT$4from17h2089deafa1a55da5E },
    Symbol { offset: 5555556860a0, size: 69, name: _ZN5alloc4sync32arcinner_layout_for_value_layout17hddc63a5d7e5923f5E },
    Symbol { offset: 555555686109, size: 60, name: _ZN5alloc3vec16Vec$LT$T$C$A$GT$6insert13assert_failed17h82030a7baf303c1fE },
    Symbol { offset: 555555686169, size: 60, name: _ZN5alloc3vec16Vec$LT$T$C$A$GT$6remove13assert_failed17hfc3b932606881249E },
    Symbol { offset: 5555556856a0, size: 137, name: _ZN81_$LT$$RF$$u5b$u8$u5d$$u20$as$u20$alloc..ffi..c_str..CString..new..SpecNewImpl$GT$13spec_new_impl17he4bfcf6b7da8c708E },
    Symbol { offset: 55555559dca8, size: 28b0, name: _ZN4core3num7dec2flt5table17POWER_OF_FIVE_12817h094cc14f81773113E },
    Symbol { offset: 555555686b10, size: 184, name: _ZN4core3num7dec2flt6lemire13compute_float17h65f4ef8d72b9eb31E },
    Symbol { offset: 55555559c750, size: 4c, name: _ZN4core3num7flt2dec8strategy6dragon9POW5TO25617h6e45cf7ddafbfbffE },
    Symbol { offset: 55555559c700, size: 8, name: _ZN4core3num7flt2dec8strategy6dragon8POW5TO1617h6827a808e26c6a83E },
    Symbol { offset: 55555559c708, size: c, name: _ZN4core3num7flt2dec8strategy6dragon8POW5TO3217hc2e056b576777612E },
    Symbol { offset: 55555559c714, size: 14, name: _ZN4core3num7flt2dec8strategy6dragon8POW5TO6417h969669ed66a4de7eE },
    Symbol { offset: 55555559c728, size: 28, name: _ZN4core3num7flt2dec8strategy6dragon9POW5TO12817h53281e36976a30e1E },
    Symbol { offset: 5555556898c0, size: 1b7, name: _ZN4core3num7flt2dec8strategy5grisu16format_exact_opt14possibly_round17h513b2c2928f672d9E },
    Symbol { offset: 555555689c40, size: 1ef, name: _ZN71_$LT$core..ops..range..Range$LT$Idx$GT$$u20$as$u20$core..fmt..Debug$GT$3fmt17hd332746cc7553454E },
    Symbol { offset: 555555690d30, size: 110, name: _ZN4core3fmt3num3imp21_$LT$impl$u20$u64$GT$4_fmt17h4a953e1cbeafa7deE },
    Symbol { offset: 5555555a0910, size: 10, name: .Lanon.bb011cbb562d8a675bdbb272ca3f2021.147 },
    Symbol { offset: 555555689fb0, size: 228, name: _ZN4core4char7methods22_$LT$impl$u20$char$GT$16escape_debug_ext17hde9de3d9b738cd1bE },
    Symbol { offset: 5555555a08c0, size: 10, name: .Lanon.bb011cbb562d8a675bdbb272ca3f2021.150 },
    Symbol { offset: 555555690f40, size: 18, name: _ZN44_$LT$$RF$T$u20$as$u20$core..fmt..Display$GT$3fmt17hcd558d34095317afE },
    Symbol { offset: 555555690f20, size: 15, name: _ZN42_$LT$$RF$T$u20$as$u20$core..fmt..Debug$GT$3fmt17hb467a72b24c06cc6E },
    Symbol { offset: 5555555a1010, size: 4, name: .Lanon.bb011cbb562d8a675bdbb272ca3f2021.308 },
    Symbol { offset: 5555555a1000, size: 4, name: .Lanon.bb011cbb562d8a675bdbb272ca3f2021.257 },
    Symbol { offset: 55555568afd0, size: 3e0, name: _ZN4core3fmt5float29float_to_decimal_common_exact17h2fae940eede76b6bE },
    Symbol { offset: 55555568c7d0, size: 25a, name: _ZN4core3fmt9Formatter19pad_formatted_parts17h1df8b6c7411274e9E },
    Symbol { offset: 55555568b3b0, size: 2de, name: _ZN4core3fmt5float32float_to_decimal_common_shortest17h554fc4e1d6bdd5b6E },
    Symbol { offset: 55555568b690, size: 387, name: _ZN4core3fmt3num14parse_u64_into17hc2dfca421961d743E },
    Symbol { offset: 55555568ba40, size: 181, name: _ZN4core3fmt3num8fmt_u12817h6265a5569201e4a9E },
    Symbol { offset: 55555568bbd0, size: 15, name: _ZN4core3fmt5Write9write_fmt17h5c9380b63a66aaf9E },
    Symbol { offset: 55555568c330, size: 54, name: _ZN4core3fmt9Formatter12pad_integral12write_prefix17ha8e9531eb095ab51E },
    Symbol { offset: 55555568ca30, size: 259, name: _ZN4core3fmt9Formatter21write_formatted_parts17hfe79a55c5839ac94E },
    Symbol { offset: 5555555a125a, size: 1, name: .Lanon.bb011cbb562d8a675bdbb272ca3f2021.352 },
    Symbol { offset: 5555555a0f70, size: 20, name: .Lanon.bb011cbb562d8a675bdbb272ca3f2021.378 },
    Symbol { offset: 55555568f490, size: 113, name: _ZN4core7unicode9printable5check17hf0ffd31f697a423cE },
    Symbol { offset: 555555690bc0, size: 114, name: _ZN4core3fmt3num3imp21_$LT$impl$u20$u32$GT$4_fmt17he57d6a6dcb78f0c2E },
    Symbol { offset: 555555690e40, size: d8, name: _ZN42_$LT$$RF$T$u20$as$u20$core..fmt..Debug$GT$3fmt17h5381dd9e9543787fE },
    Symbol { offset: 5555555a0654, size: d4, name: _ZN4core7unicode12unicode_data10alphabetic17SHORT_OFFSET_RUNS17hfd484268c8f81f85E },
    Symbol { offset: 55555559b420, size: 5eb, name: _ZN4core7unicode12unicode_data10alphabetic7OFFSETS17h57d01095e2abc3baE },
    Symbol { offset: 5555555a0728, size: 88, name: _ZN4core7unicode12unicode_data15grapheme_extend17SHORT_OFFSET_RUNS17h4467a9ec82a7692fE },
    Symbol { offset: 55555559ba0b, size: 2ef, name: _ZN4core7unicode12unicode_data15grapheme_extend7OFFSETS17h179f01fc20cf8fd7E },
    Symbol { offset: 5555555a07b0, size: a8, name: _ZN4core7unicode12unicode_data1n17SHORT_OFFSET_RUNS17h6960ce2c54d0f190E },
    Symbol { offset: 55555559bcfa, size: 121, name: _ZN4core7unicode12unicode_data1n7OFFSETS17h1aa06a056b30d3e8E },
    Symbol { offset: 55555568a4c5, size: 5c, name: _ZN4core9panicking18panic_bounds_check17hda0827d94e974e71E },
    Symbol { offset: 5555556861d0, size: 101, name: _ZN4core3num7dec2flt11decimal_seq10DecimalSeq5round17hf99320c56c745e44E },
    Symbol { offset: 5555556862e0, size: 230, name: _ZN4core3num7dec2flt11decimal_seq10DecimalSeq10left_shift17h92dea2f2ce50f576E },
    Symbol { offset: 55555568dac0, size: a, name: _ZN4core5slice5index26slice_start_index_len_fail17h0596e605fb4610d0E },
    Symbol { offset: 555555686510, size: 1f7, name: _ZN4core3num7dec2flt11decimal_seq10DecimalSeq11right_shift17h2ed000ba492c6672E },
    Symbol { offset: 555555686710, size: 3f8, name: _ZN4core3num7dec2flt11decimal_seq17parse_decimal_seq17h13639ec2c346ac49E },
    Symbol { offset: 55555568dad0, size: a, name: _ZN4core5slice5index24slice_end_index_len_fail17hb6890d29d4255062E },
    Symbol { offset: 555555686ca0, size: 4c7, name: _ZN4core3num7dec2flt5parse12parse_number17h62841297b6f280e3E },
    Symbol { offset: 555555687170, size: 38, name: _ZN74_$LT$core..num..dec2flt..ParseFloatError$u20$as$u20$core..fmt..Display$GT$3fmt17h2565232960a77601E },
    Symbol { offset: 55555568c390, size: 439, name: _ZN4core3fmt9Formatter3pad17hdd21642e7502b13fE },
    Symbol { offset: 55555568a3f0, size: 3c, name: _ZN4core9panicking5panic17h4a11c031239f36a8E },
    Symbol { offset: 55555568a549, size: 30, name: _ZN4core9panicking13assert_failed17h87568c70b5354ac1E },
    Symbol { offset: 5555556871b0, size: 28d, name: _ZN4core3num7flt2dec8strategy6dragon9mul_pow1017h6e9762fc7149f73aE },
    Symbol { offset: 55555568fba0, size: 353, name: _ZN4core3num6bignum8Big32x4010mul_digits17h4b90874b37b62714E },
    Symbol { offset: 55555568f6d0, size: 4c5, name: _ZN4core3num6bignum8Big32x408mul_pow217had3b3fa58d741b77E },
    Symbol { offset: 555555687440, size: e14, name: _ZN4core3num7flt2dec8strategy6dragon15format_shortest17h667d5a19b39eaf05E },
    Symbol { offset: 555555688260, size: bbb, name: _ZN4core3num7flt2dec8strategy6dragon12format_exact17h3fb18632c5a650a6E },
    Symbol { offset: 55555559c8c0, size: 510, name: _ZN4core3num7flt2dec8strategy5grisu12CACHED_POW1017hc3d2754a144706bcE },
    Symbol { offset: 555555688e20, size: 699, name: _ZN4core3num7flt2dec8strategy5grisu19format_shortest_opt17hc32ff21d821d80b8E },
    Symbol { offset: 555555690460, size: 37, name: _ZN4core9panicking11panic_const23panic_const_div_by_zero17h1a56129937414368E },
    Symbol { offset: 5555556894c0, size: 3fa, name: _ZN4core3num7flt2dec8strategy5grisu16format_exact_opt17hd5874b6ab0934c01E },
    Symbol { offset: 555555689a80, size: 16d, name: _ZN4core3num7flt2dec17digits_to_dec_str17h72b34971d7122599E },
    Symbol { offset: 555555689bf0, size: 1a, name: _ZN72_$LT$core..num..error..TryFromIntError$u20$as$u20$core..fmt..Display$GT$3fmt17h23a5c0f5b13e18fbE },
    Symbol { offset: 555555689c10, size: 2d, name: _ZN70_$LT$core..num..error..ParseIntError$u20$as$u20$core..fmt..Display$GT$3fmt17ha6bc6f6cebd21587E },
    Symbol { offset: 55555568a380, size: 20, name: _ZN4core9panicking9panic_fmt17hc8737e8cca20a7c8E },
    Symbol { offset: 55555568bc10, size: 207, name: _ZN4core3fmt5write17h275e5980d7008551E },
    Symbol { offset: 55555568be20, size: 50f, name: _ZN4core3fmt9Formatter12pad_integral17h5d7264772a4edb89E },
    Symbol { offset: 555555689e30, size: 77, name: _ZN54_$LT$core..any..TypeId$u20$as$u20$core..fmt..Debug$GT$3fmt17h0f3f4f47efa6dbadE },
    Symbol { offset: 555555690920, size: b6, name: _ZN4core3fmt3num54_$LT$impl$u20$core..fmt..LowerHex$u20$for$u20$i128$GT$3fmt17h60a9e0e6ac6671feE },
    Symbol { offset: 55555568ee90, size: 195, name: _ZN87_$LT$core..str..lossy..Utf8Chunks$u20$as$u20$core..iter..traits..iterator..Iterator$GT$4next17hb8397047fd79c394E },
    Symbol { offset: 55555568dd60, size: 5ca, name: _ZN4core3str5count14do_count_chars17h544f3673519241fcE },
    Symbol { offset: 55555568d6a0, size: cd, name: _ZN43_$LT$char$u20$as$u20$core..fmt..Display$GT$3fmt17h182976fc04369872E },
    Symbol { offset: 555555689eb0, size: 1e, name: _ZN60_$LT$core..cell..BorrowError$u20$as$u20$core..fmt..Debug$GT$3fmt17hd337d75e4e71692cE },
    Symbol { offset: 555555689ed0, size: 1e, name: _ZN63_$LT$core..cell..BorrowMutError$u20$as$u20$core..fmt..Debug$GT$3fmt17hdcb61d89f7c95453E },
    Symbol { offset: 555555689ef0, size: 53, name: _ZN4core4cell22panic_already_borrowed17he89d368eee27c9a6E },
    Symbol { offset: 555555689f50, size: 53, name: _ZN4core4cell30panic_already_mutably_borrowed17h95c7d326eb19a92aE },
    Symbol { offset: 555555690620, size: 7a, name: _ZN4core3fmt3num53_$LT$impl$u20$core..fmt..LowerHex$u20$for$u20$i16$GT$3fmt17hd750e44ed3a99a89E },
    Symbol { offset: 555555691240, size: fa, name: _ZN4core7unicode12unicode_data15grapheme_extend11lookup_slow17hc9c748a107542a78E },
    Symbol { offset: 55555568f5b0, size: 11d, name: _ZN4core7unicode9printable12is_printable17h3daa9dacf23b3515E },
    Symbol { offset: 55555568a1e0, size: 11b, name: _ZN4core3ffi5c_str4CStr19from_bytes_with_nul17hc3d1440fb2d39e10E },
    Symbol { offset: 55555568db50, size: 208, name: _ZN4core3str8converts9from_utf817h643f4cdf3dbea228E },
    Symbol { offset: 55555568aa10, size: 186, name: _ZN4core3fmt8builders11DebugStruct5field17h0c93207c4d9e6aeaE },
    Symbol { offset: 5555556909e0, size: 95, name: _ZN4core3fmt3num3imp51_$LT$impl$u20$core..fmt..Display$u20$for$u20$u8$GT$3fmt17h83e05673aa4b319aE },
    Symbol { offset: 55555568a6c0, size: 76, name: _ZN4core6result13unwrap_failed17h727108008d9f4c9bE },
    Symbol { offset: 55555568dae0, size: a, name: _ZN4core5slice5index22slice_index_order_fail17h262318a3b4cad0daE },
    Symbol { offset: 555555690b80, size: 14, name: _ZN4core3fmt3num3imp52_$LT$impl$u20$core..fmt..Display$u20$for$u20$u32$GT$3fmt17heae17e31cadbc382E },
    Symbol { offset: 55555568a300, size: 19, name: _ZN4core6option13unwrap_failed17h62317944fa5dc382E },
    Symbol { offset: 55555568a320, size: 5b, name: _ZN4core6option13expect_failed17h1fcc4e32848a6083E },
    Symbol { offset: 55555568a3a0, size: 45, name: _ZN4core9panicking18panic_nounwind_fmt17hc3cf3432011a3c3fE },
    Symbol { offset: 55555568a521, size: 14, name: _ZN4core9panicking19panic_cannot_unwind17hb8732afd89555502E },
    Symbol { offset: 55555568a430, size: 42, name: _ZN4core9panicking14panic_nounwind17h0c59dc9f7f043eadE },
    Symbol { offset: 55555568a480, size: 45, name: _ZN4core9panicking26panic_nounwind_nobacktrace17hd3a2723694bc24f5E },
    Symbol { offset: 555555690ce0, size: 15, name: _ZN4core3fmt3num3imp52_$LT$impl$u20$core..fmt..Display$u20$for$u20$u64$GT$3fmt17hc038dffd7e2f7fd6E },
    Symbol { offset: 555555690820, size: 79, name: _ZN4core3fmt3num53_$LT$impl$u20$core..fmt..LowerHex$u20$for$u20$i64$GT$3fmt17h26299beddca396b9E },
    Symbol { offset: 55555568a535, size: 14, name: _ZN4core9panicking16panic_in_cleanup17h51d1753fd07771d1E },
    Symbol { offset: 55555568a579, size: 13e, name: _ZN4core9panicking19assert_failed_inner17h1eff0b41c54ffee0E },
    Symbol { offset: 55555568bbf0, size: 15, name: _ZN59_$LT$core..fmt..Arguments$u20$as$u20$core..fmt..Display$GT$3fmt17hc4d45641ca639cb6E },
    Symbol { offset: 55555568a740, size: 267, name: _ZN68_$LT$core..fmt..builders..PadAdapter$u20$as$u20$core..fmt..Write$GT$9write_str17hb28e218747fd0591E },
    Symbol { offset: 55555568a9b0, size: 5f, name: _ZN68_$LT$core..fmt..builders..PadAdapter$u20$as$u20$core..fmt..Write$GT$10write_char17hdfdcf0d77aaeab52E },
    Symbol { offset: 55555568aba0, size: a4, name: _ZN4core3fmt8builders11DebugStruct21finish_non_exhaustive17h0d4e365f6c36b335E },
    Symbol { offset: 55555568ac50, size: 5c, name: _ZN4core3fmt8builders11DebugStruct6finish17heb12b5c3a04a811fE },
    Symbol { offset: 55555568acb0, size: 126, name: _ZN4core3fmt8builders10DebugTuple5field17h3f399b20f0a94869E },
    Symbol { offset: 55555568ade0, size: 87, name: _ZN4core3fmt8builders10DebugTuple6finish17hfc18502d12f6584bE },
    Symbol { offset: 55555568ae70, size: 112, name: _ZN4core3fmt8builders8DebugSet5entry17h14b9a5c774dcc77eE },
    Symbol { offset: 55555568af90, size: 34, name: _ZN4core3fmt8builders9DebugList6finish17h36cf362e84b5c024E },
    Symbol { offset: 55555568ba20, size: 1c, name: _ZN4core3fmt3num53_$LT$impl$u20$core..fmt..Display$u20$for$u20$u128$GT$3fmt17he6792768fd65592eE },
    Symbol { offset: 55555568cc90, size: 15, name: _ZN4core3fmt9Formatter9write_str17hf87901323e3d7ac9E },
    Symbol { offset: 55555568ccb0, size: e, name: _ZN4core3fmt9Formatter4fill17h9329695f24fbc94cE },
    Symbol { offset: 55555568ccc0, size: 31, name: _ZN4core3fmt9Formatter12debug_struct17h6c85e2ff3306615eE },
    Symbol { offset: 55555568cd00, size: aa, name: _ZN4core3fmt9Formatter26debug_struct_field1_finish17h93d22cbd6eba9f8cE },
    Symbol { offset: 55555568cdb0, size: c4, name: _ZN4core3fmt9Formatter26debug_struct_field2_finish17h2a9dd21c6fe9c8e7E },
    Symbol { offset: 55555568ce80, size: 48, name: _ZN4core3fmt9Formatter11debug_tuple17haac6330874d9b83bE },
    Symbol { offset: 55555568ced0, size: 13a, name: _ZN4core3fmt9Formatter25debug_tuple_field1_finish17h06aa1c014801bdacE },
    Symbol { offset: 55555568d010, size: 19f, name: _ZN4core3fmt9Formatter25debug_tuple_field2_finish17hd39d01c0992321e7E },
    Symbol { offset: 55555568d1b0, size: 37, name: _ZN4core3fmt9Formatter10debug_list17h091d7ad5d6835b04E },
    Symbol { offset: 55555568d1f0, size: 15, name: _ZN57_$LT$core..fmt..Formatter$u20$as$u20$core..fmt..Write$GT$10write_char17h045e1435224ec613E },
    Symbol { offset: 55555568d210, size: 38, name: _ZN43_$LT$bool$u20$as$u20$core..fmt..Display$GT$3fmt17h748b986ef6174281E },
    Symbol { offset: 55555568d250, size: 386, name: _ZN40_$LT$str$u20$as$u20$core..fmt..Debug$GT$3fmt17h065f2d040dacb1c0E },
    Symbol { offset: 55555568f030, size: a, name: _ZN4core3str16slice_error_fail17h9f974238edffa500E },
    Symbol { offset: 55555568d5e0, size: 17, name: _ZN42_$LT$str$u20$as$u20$core..fmt..Display$GT$3fmt17hc34a6706652b50c1E },
    Symbol { offset: 55555568d600, size: 97, name: _ZN41_$LT$char$u20$as$u20$core..fmt..Debug$GT$3fmt17h1ff3c78b6c7cbe75E },
    Symbol { offset: 55555568d770, size: b2, name: _ZN4core3fmt17pointer_fmt_inner17hbc08c16cf0101593E },
    Symbol { offset: 55555568d830, size: ea, name: _ZN4core5slice6memchr14memchr_aligned17hadcf7d2ba6241b51E },
    Symbol { offset: 55555568d920, size: 121, name: _ZN4core5slice6memchr7memrchr17hbff69479afdce0a9E },
    Symbol { offset: 55555568da50, size: 26, name: _ZN4core5slice4sort6stable5drift11sqrt_approx17hafe01fb2b90a9983E },
    Symbol { offset: 55555568da80, size: 3b, name: _ZN4core5slice4sort6shared9smallsort22panic_on_ord_violation17h5323cfd9f2ada983E },
    Symbol { offset: 555555690f60, size: 67, name: _ZN4core5slice5index26slice_start_index_len_fail8do_panic7runtime17h5899ba195655148cE },
    Symbol { offset: 555555690fd0, size: 67, name: _ZN4core5slice5index24slice_end_index_len_fail8do_panic7runtime17h95aad8cf8a7f5738E },
    Symbol { offset: 555555691040, size: 67, name: _ZN4core5slice5index22slice_index_order_fail8do_panic7runtime17hfc089304f84e3e4fE },
    Symbol { offset: 55555568daf0, size: 37, name: _ZN4core5slice5index29slice_end_index_overflow_fail17hb8bc3d156926761cE },
    Symbol { offset: 55555568db30, size: 13, name: _ZN4core5slice29_$LT$impl$u20$$u5b$T$u5d$$GT$15copy_from_slice17len_mismatch_fail17hcb07c599de0a38a3E },
    Symbol { offset: 5555556910b0, size: 67, name: _ZN4core5slice29_$LT$impl$u20$$u5b$T$u5d$$GT$15copy_from_slice17len_mismatch_fail8do_panic7runtime17h8aa0062f604789efE },
    Symbol { offset: 55555568e330, size: b8, name: _ZN4core3str5count23char_count_general_case17ha3b0fb726fb1ffe2E },
    Symbol { offset: 55555568e3f0, size: b5, name: _ZN66_$LT$core..str..error..Utf8Error$u20$as$u20$core..fmt..Display$GT$3fmt17h3e58a5118bfa1168E },
    Symbol { offset: 55555568e4b0, size: 546, name: _ZN4core3str7pattern11StrSearcher3new17h9d2eddef2ce308f0E },
    Symbol { offset: 55555568ea00, size: 48f, name: _ZN60_$LT$core..str..lossy..Debug$u20$as$u20$core..fmt..Debug$GT$3fmt17hc950941d346f9952E },
    Symbol { offset: 5555556905a0, size: 75, name: _ZN4core3fmt3num52_$LT$impl$u20$core..fmt..UpperHex$u20$for$u20$i8$GT$3fmt17h5cf2757b663a479cE },
    Symbol { offset: 55555568f040, size: 3e7, name: _ZN4core3str19slice_error_fail_rt17hdfd3754cf92ad503E },
    Symbol { offset: 55555568f430, size: 1e, name: _ZN4core3str21_$LT$impl$u20$str$GT$18split_at_unchecked17he5910ccc6c1aefccE },
    Symbol { offset: 55555568f450, size: 38, name: _ZN72_$LT$core..time..TryFromFloatSecsError$u20$as$u20$core..fmt..Display$GT$3fmt17h653121cc99c4a6a7E },
    Symbol { offset: 555555690720, size: 76, name: _ZN4core3fmt3num53_$LT$impl$u20$core..fmt..LowerHex$u20$for$u20$i32$GT$3fmt17h37ee6c74f16648a0E },
    Symbol { offset: 555555690520, size: 75, name: _ZN4core3fmt3num52_$LT$impl$u20$core..fmt..LowerHex$u20$for$u20$i8$GT$3fmt17h8da71132a00b59b6E },
    Symbol { offset: 55555568ff00, size: 55a, name: _ZN4core3num7dec2flt60_$LT$impl$u20$core..str..traits..FromStr$u20$for$u20$f64$GT$8from_str17h6f13875f6a305a42E },
    Symbol { offset: 555555690a80, size: ff, name: _ZN4core3fmt3num3imp52_$LT$impl$u20$core..fmt..Display$u20$for$u20$i16$GT$3fmt17ha0a383598e4bb3f1E },
    Symbol { offset: 5555556907a0, size: 76, name: _ZN4core3fmt3num53_$LT$impl$u20$core..fmt..UpperHex$u20$for$u20$i32$GT$3fmt17hbdc79dec00e7b550E },
    Symbol { offset: 5555556904a0, size: 37, name: _ZN4core9panicking11panic_const23panic_const_rem_by_zero17hbf6b2c15f9ad1e19E },
    Symbol { offset: 5555556904e0, size: 3a, name: _ZN4core3fmt5float52_$LT$impl$u20$core..fmt..Display$u20$for$u20$f64$GT$3fmt17hd6cab9f20b78f052E },
    Symbol { offset: 5555556906a0, size: 7a, name: _ZN4core3fmt3num53_$LT$impl$u20$core..fmt..UpperHex$u20$for$u20$i16$GT$3fmt17h45172e814c54772aE },
    Symbol { offset: 5555556908a0, size: 79, name: _ZN4core3fmt3num53_$LT$impl$u20$core..fmt..UpperHex$u20$for$u20$i64$GT$3fmt17h92a9aa4f3aa04d0bE },
    Symbol { offset: 555555690ba0, size: 1b, name: _ZN4core3fmt3num3imp52_$LT$impl$u20$core..fmt..Display$u20$for$u20$i32$GT$3fmt17h863d77ac4b43588eE },
    Symbol { offset: 555555690d00, size: 23, name: _ZN4core3fmt3num3imp52_$LT$impl$u20$core..fmt..Display$u20$for$u20$i64$GT$3fmt17hde631ae64c57a835E },
    Symbol { offset: 555555691120, size: fa, name: _ZN4core7unicode12unicode_data10alphabetic6lookup17h918f85a5a51ce970E },
    Symbol { offset: 555555691220, size: 17, name: _ZN4core7unicode12unicode_data2cc6lookup17ha15477199a7efaeaE },
    Symbol { offset: 555555691340, size: fa, name: _ZN4core7unicode12unicode_data1n6lookup17he053efda91b32dbeE },
    Symbol { offset: 55555559be1b, size: 100, name: _ZN4core7unicode12unicode_data11white_space14WHITESPACE_MAP17hd5253c4819e76a22E },
    Symbol { offset: 555555690920, size: b6, name: _ZN4core3fmt3num54_$LT$impl$u20$core..fmt..LowerHex$u20$for$u20$u128$GT$3fmt17he2535aa0c2a97276E },
    Symbol { offset: 555555690520, size: 75, name: _ZN4core3fmt3num52_$LT$impl$u20$core..fmt..LowerHex$u20$for$u20$u8$GT$3fmt17h8810de32be60e7b5E },
    Symbol { offset: 5555556905a0, size: 75, name: _ZN4core3fmt3num52_$LT$impl$u20$core..fmt..UpperHex$u20$for$u20$u8$GT$3fmt17h3d7187c1920aca52E },
    Symbol { offset: 555555690820, size: 79, name: _ZN4core3fmt3num55_$LT$impl$u20$core..fmt..LowerHex$u20$for$u20$usize$GT$3fmt17hc37455d4f37246bfE },
    Symbol { offset: 5555556908a0, size: 79, name: _ZN4core3fmt3num55_$LT$impl$u20$core..fmt..UpperHex$u20$for$u20$usize$GT$3fmt17hca522266251e2e8dE },
    Symbol { offset: 555555690620, size: 7a, name: _ZN4core3fmt3num53_$LT$impl$u20$core..fmt..LowerHex$u20$for$u20$u16$GT$3fmt17h897dea8a982c9770E },
    Symbol { offset: 5555556906a0, size: 7a, name: _ZN4core3fmt3num53_$LT$impl$u20$core..fmt..UpperHex$u20$for$u20$u16$GT$3fmt17h6d8b5e17e307a256E },
    Symbol { offset: 555555690720, size: 76, name: _ZN4core3fmt3num53_$LT$impl$u20$core..fmt..LowerHex$u20$for$u20$u32$GT$3fmt17haf9a59fdde49fc3aE },
    Symbol { offset: 5555556907a0, size: 76, name: _ZN4core3fmt3num53_$LT$impl$u20$core..fmt..UpperHex$u20$for$u20$u32$GT$3fmt17hfdb3aac080b97f7cE },
    Symbol { offset: 555555690820, size: 79, name: _ZN4core3fmt3num55_$LT$impl$u20$core..fmt..LowerHex$u20$for$u20$isize$GT$3fmt17h6955eedffca517b0E },
    Symbol { offset: 5555556908a0, size: 79, name: _ZN4core3fmt3num55_$LT$impl$u20$core..fmt..UpperHex$u20$for$u20$isize$GT$3fmt17hbc0e65e2e451fd9fE },
    Symbol { offset: 555555690820, size: 79, name: _ZN4core3fmt3num53_$LT$impl$u20$core..fmt..LowerHex$u20$for$u20$u64$GT$3fmt17h0f555d52b38295f7E },
    Symbol { offset: 5555556908a0, size: 79, name: _ZN4core3fmt3num53_$LT$impl$u20$core..fmt..UpperHex$u20$for$u20$u64$GT$3fmt17h9627c19e7a86531aE },
    Symbol { offset: 55555568cc90, size: 15, name: _ZN57_$LT$core..fmt..Formatter$u20$as$u20$core..fmt..Write$GT$9write_str17h24d2655088b9ad0bE },
    Symbol { offset: 55555568ae70, size: 112, name: _ZN4core3fmt8builders9DebugList5entry17h0d06b4ba5482333fE },
    Symbol { offset: 555555690ce0, size: 15, name: _ZN4core3fmt3num3imp54_$LT$impl$u20$core..fmt..Display$u20$for$u20$usize$GT$3fmt17hb9928f289d6fcf72E },
    Symbol { offset: 555555690d00, size: 23, name: _ZN4core3fmt3num3imp54_$LT$impl$u20$core..fmt..Display$u20$for$u20$isize$GT$3fmt17hf46c573ad4aeeb87E },
    Symbol { offset: 555555691440, size: 76, name: round },
]
