---
source: src/run/runner/wall_time/perf/perf_map.rs
expression: module_symbols.symbols
---
[
    Symbol { offset: 5573e59ab390, size: 20, name: __abi_tag },
    Symbol { offset: 5573e59fef70, size: 26, name: _start },
    Symbol { offset: 5573e5b15350, size: 1, name: completed.0 },
    Symbol { offset: 5573e5a0a910, size: 3a, name: _ZN4core3ptr44drop_in_place$LT$codspeed..fifo..FifoIpc$GT$17h94c347481ce68318E },
    Symbol { offset: 5573e5a0a950, size: bc, name: _ZN4core3ptr91drop_in_place$LT$core..result..Result$LT$codspeed..fifo..BenchGuard$C$anyhow..Error$GT$$GT$17h5d74408b86068239E },
    Symbol { offset: 5573e59ff060, size: c8e, name: _ZN30codspeed_divan_compat_walltime5bench7Bencher11bench_local17h47ddb55a56ac82dfE },
    Symbol { offset: 5573e59ffcf0, size: c8e, name: _ZN30codspeed_divan_compat_walltime5bench7Bencher11bench_local17h5314027f04365ed7E },
    Symbol { offset: 5573e5a00980, size: c8e, name: _ZN30codspeed_divan_compat_walltime5bench7Bencher11bench_local17h5e606265ce39c6c3E },
    Symbol { offset: 5573e5a01610, size: c8e, name: _ZN30codspeed_divan_compat_walltime5bench7Bencher11bench_local17h5ef23642e80891e1E },
    Symbol { offset: 5573e5a022a0, size: c8e, name: _ZN30codspeed_divan_compat_walltime5bench7Bencher11bench_local17h7f383ae46958ed75E },
    Symbol { offset: 5573e5a02f30, size: c8e, name: _ZN30codspeed_divan_compat_walltime5bench7Bencher11bench_local17h9c18ab39b246cc79E },
    Symbol { offset: 5573e5a03bc0, size: c8e, name: _ZN30codspeed_divan_compat_walltime5bench7Bencher11bench_local17hc784522cbb1cbf94E },
    Symbol { offset: 5573e5a04850, size: c8e, name: _ZN30codspeed_divan_compat_walltime5bench7Bencher11bench_local17hcfc645c9c998b9edE },
    Symbol { offset: 5573e5a054e0, size: c8e, name: _ZN30codspeed_divan_compat_walltime5bench7Bencher11bench_local17hdb199f131f22cc85E },
    Symbol { offset: 5573e5a06170, size: c8e, name: _ZN30codspeed_divan_compat_walltime5bench7Bencher11bench_local17he36d3314596ec2dfE },
    Symbol { offset: 5573e5a06e00, size: c8e, name: _ZN30codspeed_divan_compat_walltime5bench7Bencher11bench_local17he7961f060dad81fcE },
    Symbol { offset: 5573e5a07a90, size: f80, name: _ZN30codspeed_divan_compat_walltime5bench7Bencher5bench17h8a433cc3cbee5706E },
    Symbol { offset: 5573e5a08a10, size: f80, name: _ZN30codspeed_divan_compat_walltime5bench7Bencher5bench17ha8de437abeff4a52E },
    Symbol { offset: 5573e5a09990, size: f80, name: _ZN30codspeed_divan_compat_walltime5bench7Bencher5bench17hd993b64407eb4b16E },
    Symbol { offset: 5573e5b13b30, size: 8, name: DW.ref.rust_eh_personality },
    Symbol { offset: 5573e5a0fbe0, size: 8cb, name: _ZN30codspeed_divan_compat_walltime11thread_pool19TaskShared$LT$F$GT$3new4call23__codspeed_root_frame__17hc9277f54e2f35b42E },
    Symbol { offset: 5573e5a0abd0, size: 5bf, name: _ZN30codspeed_divan_compat_walltime11thread_pool19TaskShared$LT$F$GT$3new4call23__codspeed_root_frame__17h0158f5ed256ce080E },
    Symbol { offset: 5573e5a0cac0, size: 897, name: _ZN30codspeed_divan_compat_walltime11thread_pool19TaskShared$LT$F$GT$3new4call23__codspeed_root_frame__17h8449556f8a48fc82E },
    Symbol { offset: 5573e5a0b190, size: 830, name: _ZN30codspeed_divan_compat_walltime11thread_pool19TaskShared$LT$F$GT$3new4call23__codspeed_root_frame__17h30a0e1a738f96ff2E },
    Symbol { offset: 5573e5a0d360, size: 5fc, name: _ZN30codspeed_divan_compat_walltime11thread_pool19TaskShared$LT$F$GT$3new4call23__codspeed_root_frame__17h85c0ce591c2764c6E },
    Symbol { offset: 5573e5a0ed40, size: 902, name: _ZN30codspeed_divan_compat_walltime11thread_pool19TaskShared$LT$F$GT$3new4call23__codspeed_root_frame__17haf5719a3cb073155E },
    Symbol { offset: 5573e5a0b9c0, size: 8ee, name: _ZN30codspeed_divan_compat_walltime11thread_pool19TaskShared$LT$F$GT$3new4call23__codspeed_root_frame__17h6074e2c9ce2e0ff0E },
    Symbol { offset: 5573e5a0d960, size: 85f, name: _ZN30codspeed_divan_compat_walltime11thread_pool19TaskShared$LT$F$GT$3new4call23__codspeed_root_frame__17h9d3246cb1c8940faE },
    Symbol { offset: 5573e5a0e1c0, size: 5c1, name: _ZN30codspeed_divan_compat_walltime11thread_pool19TaskShared$LT$F$GT$3new4call23__codspeed_root_frame__17h9d5a5980f58bef30E },
    Symbol { offset: 5573e5a0c2b0, size: 80f, name: _ZN30codspeed_divan_compat_walltime11thread_pool19TaskShared$LT$F$GT$3new4call23__codspeed_root_frame__17h6afacf0e5e547045E },
    Symbol { offset: 5573e5a10d60, size: 915, name: _ZN30codspeed_divan_compat_walltime11thread_pool19TaskShared$LT$F$GT$3new4call23__codspeed_root_frame__17hf20107c2814de262E },
    Symbol { offset: 5573e5a0e790, size: 5ae, name: _ZN30codspeed_divan_compat_walltime11thread_pool19TaskShared$LT$F$GT$3new4call23__codspeed_root_frame__17hab320c16fd6fec90E },
    Symbol { offset: 5573e5a104b0, size: 8a5, name: _ZN30codspeed_divan_compat_walltime11thread_pool19TaskShared$LT$F$GT$3new4call23__codspeed_root_frame__17hd5ec142106aac8d7E },
    Symbol { offset: 5573e5a0f650, size: 589, name: _ZN30codspeed_divan_compat_walltime11thread_pool19TaskShared$LT$F$GT$3new4call23__codspeed_root_frame__17hc5ef39d01da43338E },
    Symbol { offset: 5573e5a0aa10, size: 13, name: _ZN30codspeed_divan_compat_walltime11thread_pool19TaskShared$LT$F$GT$3new4call17h05dc6250e8a168caE },
    Symbol { offset: 5573e5a0aa30, size: 13, name: _ZN30codspeed_divan_compat_walltime11thread_pool19TaskShared$LT$F$GT$3new4call17h0d17694e9c038b46E },
    Symbol { offset: 5573e5a0aa50, size: 13, name: _ZN30codspeed_divan_compat_walltime11thread_pool19TaskShared$LT$F$GT$3new4call17h15e324c12aa097bfE },
    Symbol { offset: 5573e5a0aa70, size: 13, name: _ZN30codspeed_divan_compat_walltime11thread_pool19TaskShared$LT$F$GT$3new4call17h17ca8166efe0adcfE },
    Symbol { offset: 5573e5a0aa90, size: 13, name: _ZN30codspeed_divan_compat_walltime11thread_pool19TaskShared$LT$F$GT$3new4call17h1a008c7667b1747dE },
    Symbol { offset: 5573e5a0aab0, size: 13, name: _ZN30codspeed_divan_compat_walltime11thread_pool19TaskShared$LT$F$GT$3new4call17h2af384e4867686fbE },
    Symbol { offset: 5573e5a0aad0, size: 13, name: _ZN30codspeed_divan_compat_walltime11thread_pool19TaskShared$LT$F$GT$3new4call17h4d9281c0f742fe18E },
    Symbol { offset: 5573e5a0aaf0, size: 13, name: _ZN30codspeed_divan_compat_walltime11thread_pool19TaskShared$LT$F$GT$3new4call17h84879ce1ac191bf9E },
    Symbol { offset: 5573e5a0ab10, size: 13, name: _ZN30codspeed_divan_compat_walltime11thread_pool19TaskShared$LT$F$GT$3new4call17h8b3d2b45537bf746E },
    Symbol { offset: 5573e5a0ab30, size: 13, name: _ZN30codspeed_divan_compat_walltime11thread_pool19TaskShared$LT$F$GT$3new4call17h9d4298de284049c8E },
    Symbol { offset: 5573e5a0ab50, size: 13, name: _ZN30codspeed_divan_compat_walltime11thread_pool19TaskShared$LT$F$GT$3new4call17hb5ecc98518f132e5E },
    Symbol { offset: 5573e5a0ab70, size: 13, name: _ZN30codspeed_divan_compat_walltime11thread_pool19TaskShared$LT$F$GT$3new4call17hcd3b4416c171d07fE },
    Symbol { offset: 5573e5a0ab90, size: 13, name: _ZN30codspeed_divan_compat_walltime11thread_pool19TaskShared$LT$F$GT$3new4call17he7320fd022be528cE },
    Symbol { offset: 5573e5a0abb0, size: 13, name: _ZN30codspeed_divan_compat_walltime11thread_pool19TaskShared$LT$F$GT$3new4call17hf2e8439851943101E },
    Symbol { offset: 5573e5a11680, size: 1f0, name: _ZN102_$LT$core..iter..adapters..map..Map$LT$I$C$F$GT$$u20$as$u20$core..iter..traits..iterator..Iterator$GT$4fold17h26409bc4ce1fab11E },
    Symbol { offset: 5573e5b07b70, size: 30, name: anon.e2197e348c8c1f240e9bdd9678678b5c.3.llvm.15260059514401358652 },
    Symbol { offset: 5573e59e6f5d, size: 37, name: anon.e2197e348c8c1f240e9bdd9678678b5c.4.llvm.15260059514401358652 },
    Symbol { offset: 5573e5b07bd0, size: 20, name: anon.e2197e348c8c1f240e9bdd9678678b5c.8.llvm.15260059514401358652 },
    Symbol { offset: 5573e5b07ba0, size: 18, name: anon.e2197e348c8c1f240e9bdd9678678b5c.5.llvm.15260059514401358652 },
    Symbol { offset: 5573e5b07b58, size: 18, name: anon.e2197e348c8c1f240e9bdd9678678b5c.2.llvm.15260059514401358652 },
    Symbol { offset: 5573e5a11870, size: 1f0, name: _ZN102_$LT$core..iter..adapters..map..Map$LT$I$C$F$GT$$u20$as$u20$core..iter..traits..iterator..Iterator$GT$4fold17h2ed76e423ce39bbbE },
    Symbol { offset: 5573e5a11a60, size: 1a7, name: _ZN102_$LT$core..iter..adapters..map..Map$LT$I$C$F$GT$$u20$as$u20$core..iter..traits..iterator..Iterator$GT$4fold17h38437e65b9004978E },
    Symbol { offset: 5573e59fd3e0, size: 10, name: anon.e2197e348c8c1f240e9bdd9678678b5c.0.llvm.15260059514401358652 },
    Symbol { offset: 5573e5b07bb8, size: 18, name: anon.e2197e348c8c1f240e9bdd9678678b5c.7.llvm.15260059514401358652 },
    Symbol { offset: 5573e5b07bf0, size: 18, name: anon.e2197e348c8c1f240e9bdd9678678b5c.13.llvm.15260059514401358652 },
    Symbol { offset: 5573e5a11c10, size: 18, name: _ZN4core3ptr42drop_in_place$LT$alloc..string..String$GT$17h949a03025f608c36E.llvm.15260059514401358652 },
    Symbol { offset: 5573e5a11c30, size: 15, name: _ZN53_$LT$core..fmt..Error$u20$as$u20$core..fmt..Debug$GT$3fmt17h6736176c8e29474eE.llvm.15260059514401358652 },
    Symbol { offset: 5573e5a11c50, size: 123, name: _ZN58_$LT$alloc..string..String$u20$as$u20$core..fmt..Write$GT$10write_char17h13db4e3872bba170E.llvm.15260059514401358652 },
    Symbol { offset: 5573e5a11d80, size: 67, name: _ZN58_$LT$alloc..string..String$u20$as$u20$core..fmt..Write$GT$9write_str17h3471f8bf4fd2c6acE.llvm.15260059514401358652 },
    Symbol { offset: 5573e59e6ee9, size: 74, name: anon.e2197e348c8c1f240e9bdd9678678b5c.1.llvm.15260059514401358652 },
    Symbol { offset: 5573e59e6f94, size: 81, name: anon.e2197e348c8c1f240e9bdd9678678b5c.6.llvm.15260059514401358652 },
    Symbol { offset: 5573e59e701a, size: 36, name: anon.e2197e348c8c1f240e9bdd9678678b5c.12.llvm.15260059514401358652 },
    Symbol { offset: 5573e5a11870, size: 1f0, name: _ZN102_$LT$core..iter..adapters..map..Map$LT$I$C$F$GT$$u20$as$u20$core..iter..traits..iterator..Iterator$GT$4fold17h2f2b0c58142c683eE },
    Symbol { offset: 5573e5a11680, size: 1f0, name: _ZN102_$LT$core..iter..adapters..map..Map$LT$I$C$F$GT$$u20$as$u20$core..iter..traits..iterator..Iterator$GT$4fold17h33dab0ae41d139bcE },
    Symbol { offset: 5573e5a11680, size: 1f0, name: _ZN102_$LT$core..iter..adapters..map..Map$LT$I$C$F$GT$$u20$as$u20$core..iter..traits..iterator..Iterator$GT$4fold17h3891c5785a9e74ffE },
    Symbol { offset: 5573e5a11680, size: 1f0, name: _ZN102_$LT$core..iter..adapters..map..Map$LT$I$C$F$GT$$u20$as$u20$core..iter..traits..iterator..Iterator$GT$4fold17h43e78963c8744779E },
    Symbol { offset: 5573e5a11870, size: 1f0, name: _ZN102_$LT$core..iter..adapters..map..Map$LT$I$C$F$GT$$u20$as$u20$core..iter..traits..iterator..Iterator$GT$4fold17h4ee11580ae202789E },
    Symbol { offset: 5573e5a11680, size: 1f0, name: _ZN102_$LT$core..iter..adapters..map..Map$LT$I$C$F$GT$$u20$as$u20$core..iter..traits..iterator..Iterator$GT$4fold17h58629a503f884d84E },
    Symbol { offset: 5573e5a11680, size: 1f0, name: _ZN102_$LT$core..iter..adapters..map..Map$LT$I$C$F$GT$$u20$as$u20$core..iter..traits..iterator..Iterator$GT$4fold17h5b4d017eb43b0c61E },
    Symbol { offset: 5573e5a11680, size: 1f0, name: _ZN102_$LT$core..iter..adapters..map..Map$LT$I$C$F$GT$$u20$as$u20$core..iter..traits..iterator..Iterator$GT$4fold17h8793a595dd575f59E },
    Symbol { offset: 5573e5a11680, size: 1f0, name: _ZN102_$LT$core..iter..adapters..map..Map$LT$I$C$F$GT$$u20$as$u20$core..iter..traits..iterator..Iterator$GT$4fold17h99e1b99e28e062d3E },
    Symbol { offset: 5573e5a11680, size: 1f0, name: _ZN102_$LT$core..iter..adapters..map..Map$LT$I$C$F$GT$$u20$as$u20$core..iter..traits..iterator..Iterator$GT$4fold17ha274a446a8a82214E },
    Symbol { offset: 5573e5a11df0, size: bd, name: _ZN3std4sync6poison4once4Once15call_once_force28_$u7b$$u7b$closure$u7d$$u7d$17h0a471f5ce9e1b52bE.llvm.3883757260101923447 },
    Symbol { offset: 5573e5a11eb0, size: d7, name: _ZN3std4sync6poison4once4Once15call_once_force28_$u7b$$u7b$closure$u7d$$u7d$17h318698b12c3d0be0E.llvm.3883757260101923447 },
    Symbol { offset: 5573e5a11f90, size: 9f, name: _ZN3std4sync6poison4once4Once15call_once_force28_$u7b$$u7b$closure$u7d$$u7d$17h46585eeb7048ce1bE.llvm.3883757260101923447 },
    Symbol { offset: 5573e5a12030, size: d6, name: _ZN3std4sync6poison4once4Once15call_once_force28_$u7b$$u7b$closure$u7d$$u7d$17h69d458c60040b900E.llvm.3883757260101923447 },
    Symbol { offset: 5573e5a12110, size: d7, name: _ZN3std4sync6poison4once4Once15call_once_force28_$u7b$$u7b$closure$u7d$$u7d$17h8a42911dad716eb0E.llvm.3883757260101923447 },
    Symbol { offset: 5573e5a121f0, size: d7, name: _ZN3std4sync6poison4once4Once15call_once_force28_$u7b$$u7b$closure$u7d$$u7d$17h9d49c15cf3607821E.llvm.3883757260101923447 },
    Symbol { offset: 5573e5a122d0, size: bd, name: _ZN3std4sync6poison4once4Once15call_once_force28_$u7b$$u7b$closure$u7d$$u7d$17ha29eec9a43464aefE.llvm.3883757260101923447 },
    Symbol { offset: 5573e5a12390, size: bd, name: _ZN3std4sync6poison4once4Once15call_once_force28_$u7b$$u7b$closure$u7d$$u7d$17ha3c5246f92bf54fbE.llvm.3883757260101923447 },
    Symbol { offset: 5573e5a12450, size: d6, name: _ZN3std4sync6poison4once4Once15call_once_force28_$u7b$$u7b$closure$u7d$$u7d$17hae143a3ce93fd5ebE.llvm.3883757260101923447 },
    Symbol { offset: 5573e5a12530, size: d7, name: _ZN3std4sync6poison4once4Once15call_once_force28_$u7b$$u7b$closure$u7d$$u7d$17hcb7982f471d88af6E.llvm.3883757260101923447 },
    Symbol { offset: 5573e5a12610, size: d6, name: _ZN3std4sync6poison4once4Once15call_once_force28_$u7b$$u7b$closure$u7d$$u7d$17hdba51899846d5166E.llvm.3883757260101923447 },
    Symbol { offset: 5573e5a126f0, size: d7, name: _ZN3std4sync6poison4once4Once15call_once_force28_$u7b$$u7b$closure$u7d$$u7d$17he7eac0a8ddfd0256E.llvm.3883757260101923447 },
    Symbol { offset: 5573e5a127d0, size: d6, name: _ZN3std4sync6poison4once4Once15call_once_force28_$u7b$$u7b$closure$u7d$$u7d$17hfcec38124577520aE.llvm.3883757260101923447 },
    Symbol { offset: 5573e5a128a6, size: 4a, name: _ZN3std4sync9once_lock17OnceLock$LT$T$GT$10initialize17h224dd516389f1843E },
    Symbol { offset: 5573e5b07d60, size: 28, name: anon.33c5c77ab8d9aa9f0aedeca8777ca42b.10.llvm.3883757260101923447 },
    Symbol { offset: 5573e5b07c30, size: 18, name: anon.33c5c77ab8d9aa9f0aedeca8777ca42b.2.llvm.3883757260101923447 },
    Symbol { offset: 5573e5a128f0, size: 4a, name: _ZN3std4sync9once_lock17OnceLock$LT$T$GT$10initialize17h383fb3de1e97195bE },
    Symbol { offset: 5573e5b07c48, size: 28, name: anon.33c5c77ab8d9aa9f0aedeca8777ca42b.3.llvm.3883757260101923447 },
    Symbol { offset: 5573e5a1293a, size: 4a, name: _ZN3std4sync9once_lock17OnceLock$LT$T$GT$10initialize17h43b7d49bbd8993b1E },
    Symbol { offset: 5573e5b07c70, size: 28, name: anon.33c5c77ab8d9aa9f0aedeca8777ca42b.4.llvm.3883757260101923447 },
    Symbol { offset: 5573e5a12984, size: 4a, name: _ZN3std4sync9once_lock17OnceLock$LT$T$GT$10initialize17h4bd46be99e328f26E },
    Symbol { offset: 5573e5b07c08, size: 28, name: anon.33c5c77ab8d9aa9f0aedeca8777ca42b.0.llvm.3883757260101923447 },
    Symbol { offset: 5573e5a129ce, size: 4a, name: _ZN3std4sync9once_lock17OnceLock$LT$T$GT$10initialize17h62ac4d99852afdb5E },
    Symbol { offset: 5573e5b07c98, size: 28, name: anon.33c5c77ab8d9aa9f0aedeca8777ca42b.5.llvm.3883757260101923447 },
    Symbol { offset: 5573e5a12a18, size: 4a, name: _ZN3std4sync9once_lock17OnceLock$LT$T$GT$10initialize17h7813f8e8d23a0447E },
    Symbol { offset: 5573e5b07d38, size: 28, name: anon.33c5c77ab8d9aa9f0aedeca8777ca42b.9.llvm.3883757260101923447 },
    Symbol { offset: 5573e5a12a62, size: 4a, name: _ZN3std4sync9once_lock17OnceLock$LT$T$GT$10initialize17h8228249488e33bf5E },
    Symbol { offset: 5573e5b07db0, size: 28, name: anon.33c5c77ab8d9aa9f0aedeca8777ca42b.12.llvm.3883757260101923447 },
    Symbol { offset: 5573e5a12aac, size: 4a, name: _ZN3std4sync9once_lock17OnceLock$LT$T$GT$10initialize17h9590a0d42b759b6cE },
    Symbol { offset: 5573e5b07e00, size: 28, name: anon.33c5c77ab8d9aa9f0aedeca8777ca42b.14.llvm.3883757260101923447 },
    Symbol { offset: 5573e5a12af6, size: 4a, name: _ZN3std4sync9once_lock17OnceLock$LT$T$GT$10initialize17h95e9735a928a14acE },
    Symbol { offset: 5573e5b07dd8, size: 28, name: anon.33c5c77ab8d9aa9f0aedeca8777ca42b.13.llvm.3883757260101923447 },
    Symbol { offset: 5573e5a12b40, size: 4a, name: _ZN3std4sync9once_lock17OnceLock$LT$T$GT$10initialize17hc2aa53defb2b2730E },
    Symbol { offset: 5573e5b07d10, size: 28, name: anon.33c5c77ab8d9aa9f0aedeca8777ca42b.8.llvm.3883757260101923447 },
    Symbol { offset: 5573e5a12b8a, size: 4a, name: _ZN3std4sync9once_lock17OnceLock$LT$T$GT$10initialize17hd975e2b155a2e72bE },
    Symbol { offset: 5573e5b07cc0, size: 28, name: anon.33c5c77ab8d9aa9f0aedeca8777ca42b.6.llvm.3883757260101923447 },
    Symbol { offset: 5573e5a12bd4, size: 4a, name: _ZN3std4sync9once_lock17OnceLock$LT$T$GT$10initialize17he4de09f1d68459c7E },
    Symbol { offset: 5573e5b07ce8, size: 28, name: anon.33c5c77ab8d9aa9f0aedeca8777ca42b.7.llvm.3883757260101923447 },
    Symbol { offset: 5573e5a12c1e, size: 4a, name: _ZN3std4sync9once_lock17OnceLock$LT$T$GT$10initialize17he890c4095aa01883E },
    Symbol { offset: 5573e5b07d88, size: 28, name: anon.33c5c77ab8d9aa9f0aedeca8777ca42b.11.llvm.3883757260101923447 },
    Symbol { offset: 5573e5a12c70, size: d7, name: _ZN4core3ops8function6FnOnce40call_once$u7b$$u7b$vtable.shim$u7d$$u7d$17h0d8037decf03a854E.llvm.3883757260101923447 },
    Symbol { offset: 5573e5a12d50, size: 9f, name: _ZN4core3ops8function6FnOnce40call_once$u7b$$u7b$vtable.shim$u7d$$u7d$17h10d9dc494b67cfcdE.llvm.3883757260101923447 },
    Symbol { offset: 5573e5a12df0, size: d6, name: _ZN4core3ops8function6FnOnce40call_once$u7b$$u7b$vtable.shim$u7d$$u7d$17h144b431b98791bb4E.llvm.3883757260101923447 },
    Symbol { offset: 5573e5a12ed0, size: d6, name: _ZN4core3ops8function6FnOnce40call_once$u7b$$u7b$vtable.shim$u7d$$u7d$17h4aeb0c80f5c7e20aE.llvm.3883757260101923447 },
    Symbol { offset: 5573e5a12fb0, size: d7, name: _ZN4core3ops8function6FnOnce40call_once$u7b$$u7b$vtable.shim$u7d$$u7d$17h646dd6c10e4307d0E.llvm.3883757260101923447 },
    Symbol { offset: 5573e5a13090, size: bd, name: _ZN4core3ops8function6FnOnce40call_once$u7b$$u7b$vtable.shim$u7d$$u7d$17h86c6af87d9f0f73aE.llvm.3883757260101923447 },
    Symbol { offset: 5573e5a13150, size: d7, name: _ZN4core3ops8function6FnOnce40call_once$u7b$$u7b$vtable.shim$u7d$$u7d$17h8726b2c916372c36E.llvm.3883757260101923447 },
    Symbol { offset: 5573e5a13230, size: bd, name: _ZN4core3ops8function6FnOnce40call_once$u7b$$u7b$vtable.shim$u7d$$u7d$17h8a285e0e6c299d0eE.llvm.3883757260101923447 },
    Symbol { offset: 5573e5a132f0, size: d6, name: _ZN4core3ops8function6FnOnce40call_once$u7b$$u7b$vtable.shim$u7d$$u7d$17hb65eae22844ca663E.llvm.3883757260101923447 },
    Symbol { offset: 5573e5a133d0, size: d7, name: _ZN4core3ops8function6FnOnce40call_once$u7b$$u7b$vtable.shim$u7d$$u7d$17he63bf6fd7500e529E.llvm.3883757260101923447 },
    Symbol { offset: 5573e5a134b0, size: d6, name: _ZN4core3ops8function6FnOnce40call_once$u7b$$u7b$vtable.shim$u7d$$u7d$17hea37fa94f5c6dc25E.llvm.3883757260101923447 },
    Symbol { offset: 5573e5a13590, size: bd, name: _ZN4core3ops8function6FnOnce40call_once$u7b$$u7b$vtable.shim$u7d$$u7d$17hec6423f691622903E.llvm.3883757260101923447 },
    Symbol { offset: 5573e5a13650, size: d7, name: _ZN4core3ops8function6FnOnce40call_once$u7b$$u7b$vtable.shim$u7d$$u7d$17hf4387515a4109022E.llvm.3883757260101923447 },
    Symbol { offset: 5573e59e7050, size: 7c, name: anon.33c5c77ab8d9aa9f0aedeca8777ca42b.1.llvm.3883757260101923447 },
    Symbol { offset: 5573e5a13730, size: 82, name: _ZN4core3ptr71drop_in_place$LT$alloc..vec..Vec$LT$alloc..vec..Vec$LT$bool$GT$$GT$$GT$17hd4034a6cf2603bcaE.llvm.3365561884009739994 },
    Symbol { offset: 5573e5a137c0, size: 1bb, name: _ZN67_$LT$alloc..vec..Vec$LT$T$C$A$GT$$u20$as$u20$core..clone..Clone$GT$5clone17h6a48b293beecfdc5E },
    Symbol { offset: 5573e5b07e58, size: 18, name: anon.a0d5369a16e86020079a5417fa21dfd0.2.llvm.3365561884009739994 },
    Symbol { offset: 5573e5b07e40, size: 18, name: anon.a0d5369a16e86020079a5417fa21dfd0.1.llvm.3365561884009739994 },
    Symbol { offset: 5573e5a13980, size: 46c, name: _ZN98_$LT$alloc..vec..Vec$LT$T$GT$$u20$as$u20$alloc..vec..spec_from_iter..SpecFromIter$LT$T$C$I$GT$$GT$9from_iter17h0319fc9485bd5c7dE },
    Symbol { offset: 5573e5a13df0, size: dc, name: _ZN98_$LT$alloc..vec..Vec$LT$T$GT$$u20$as$u20$alloc..vec..spec_from_iter..SpecFromIter$LT$T$C$I$GT$$GT$9from_iter17h0c1c37902d921968E },
    Symbol { offset: 5573e5a13ed0, size: 17c, name: _ZN98_$LT$alloc..vec..Vec$LT$T$GT$$u20$as$u20$alloc..vec..spec_from_iter..SpecFromIter$LT$T$C$I$GT$$GT$9from_iter17h2cf65139da990a0dE },
    Symbol { offset: 5573e5a15810, size: 15c, name: _ZN98_$LT$alloc..vec..Vec$LT$T$GT$$u20$as$u20$alloc..vec..spec_from_iter..SpecFromIter$LT$T$C$I$GT$$GT$9from_iter17hf7fc24abfd5c6936E },
    Symbol { offset: 5573e5a14050, size: 65d, name: _ZN98_$LT$alloc..vec..Vec$LT$T$GT$$u20$as$u20$alloc..vec..spec_from_iter..SpecFromIter$LT$T$C$I$GT$$GT$9from_iter17h2df1e48748fd8aafE },
    Symbol { offset: 5573e5a146b0, size: 124, name: _ZN98_$LT$alloc..vec..Vec$LT$T$GT$$u20$as$u20$alloc..vec..spec_from_iter..SpecFromIter$LT$T$C$I$GT$$GT$9from_iter17h38be79df7c4d8938E },
    Symbol { offset: 5573e5a147e0, size: 124, name: _ZN98_$LT$alloc..vec..Vec$LT$T$GT$$u20$as$u20$alloc..vec..spec_from_iter..SpecFromIter$LT$T$C$I$GT$$GT$9from_iter17h3ec4dd51bf1ead8cE },
    Symbol { offset: 5573e5a14910, size: 124, name: _ZN98_$LT$alloc..vec..Vec$LT$T$GT$$u20$as$u20$alloc..vec..spec_from_iter..SpecFromIter$LT$T$C$I$GT$$GT$9from_iter17h40dd097b6df92fb9E },
    Symbol { offset: 5573e5a14a40, size: dc, name: _ZN98_$LT$alloc..vec..Vec$LT$T$GT$$u20$as$u20$alloc..vec..spec_from_iter..SpecFromIter$LT$T$C$I$GT$$GT$9from_iter17h4196fc16777381fcE },
    Symbol { offset: 5573e5a14b20, size: dc, name: _ZN98_$LT$alloc..vec..Vec$LT$T$GT$$u20$as$u20$alloc..vec..spec_from_iter..SpecFromIter$LT$T$C$I$GT$$GT$9from_iter17h4ac743deb9acb2abE },
    Symbol { offset: 5573e5a14c00, size: 124, name: _ZN98_$LT$alloc..vec..Vec$LT$T$GT$$u20$as$u20$alloc..vec..spec_from_iter..SpecFromIter$LT$T$C$I$GT$$GT$9from_iter17h6e0cba03b4dd1901E },
    Symbol { offset: 5573e5a14d30, size: 124, name: _ZN98_$LT$alloc..vec..Vec$LT$T$GT$$u20$as$u20$alloc..vec..spec_from_iter..SpecFromIter$LT$T$C$I$GT$$GT$9from_iter17h7271713706a87032E },
    Symbol { offset: 5573e5a14e60, size: 124, name: _ZN98_$LT$alloc..vec..Vec$LT$T$GT$$u20$as$u20$alloc..vec..spec_from_iter..SpecFromIter$LT$T$C$I$GT$$GT$9from_iter17h85e463472c3430eeE },
    Symbol { offset: 5573e5a14f90, size: 132, name: _ZN98_$LT$alloc..vec..Vec$LT$T$GT$$u20$as$u20$alloc..vec..spec_from_iter..SpecFromIter$LT$T$C$I$GT$$GT$9from_iter17h95def35e6ce428d9E },
    Symbol { offset: 5573e5a150d0, size: 132, name: _ZN98_$LT$alloc..vec..Vec$LT$T$GT$$u20$as$u20$alloc..vec..spec_from_iter..SpecFromIter$LT$T$C$I$GT$$GT$9from_iter17haa0de40fae4ddb64E },
    Symbol { offset: 5573e5a15210, size: 124, name: _ZN98_$LT$alloc..vec..Vec$LT$T$GT$$u20$as$u20$alloc..vec..spec_from_iter..SpecFromIter$LT$T$C$I$GT$$GT$9from_iter17haf2b8d7c814ffbd6E },
    Symbol { offset: 5573e5a15340, size: 124, name: _ZN98_$LT$alloc..vec..Vec$LT$T$GT$$u20$as$u20$alloc..vec..spec_from_iter..SpecFromIter$LT$T$C$I$GT$$GT$9from_iter17hb689bec4bf2eeba0E },
    Symbol { offset: 5573e5a15470, size: 124, name: _ZN98_$LT$alloc..vec..Vec$LT$T$GT$$u20$as$u20$alloc..vec..spec_from_iter..SpecFromIter$LT$T$C$I$GT$$GT$9from_iter17hbd41208a06f2819aE },
    Symbol { offset: 5573e5a155a0, size: 132, name: _ZN98_$LT$alloc..vec..Vec$LT$T$GT$$u20$as$u20$alloc..vec..spec_from_iter..SpecFromIter$LT$T$C$I$GT$$GT$9from_iter17hd479987eae398551E },
    Symbol { offset: 5573e5a156e0, size: 124, name: _ZN98_$LT$alloc..vec..Vec$LT$T$GT$$u20$as$u20$alloc..vec..spec_from_iter..SpecFromIter$LT$T$C$I$GT$$GT$9from_iter17hda7661f3e053817fE },
    Symbol { offset: 5573e59e70f4, size: 73, name: anon.a0d5369a16e86020079a5417fa21dfd0.0.llvm.3365561884009739994 },
    Symbol { offset: 5573e59fd8a0, size: 10, name: .Lanon.c5b179347d52a743f7175c33a0f99fcf.1 },
    Symbol { offset: 5573e5a159a0, size: d, name: _ZN3std2rt10lang_start28_$u7b$$u7b$closure$u7d$$u7d$17h3d3f0efc1ba4b7d3E },
    Symbol { offset: 5573e5a159b0, size: 5, name: _ZN3std3sys9backtrace28__rust_begin_short_backtrace17hc93949ae126e0cd6E },
    Symbol { offset: 5573e5a159c0, size: 26, name: _ZN42_$LT$$RF$T$u20$as$u20$core..fmt..Debug$GT$3fmt17h0818916f8af4dc9dE },
    Symbol { offset: 5573e5a15a90, size: d, name: _ZN4core3ops8function6FnOnce40call_once$u7b$$u7b$vtable.shim$u7d$$u7d$17h869bcdb39601a07aE },
    Symbol { offset: 5573e5a15aa0, size: 3f, name: _ZN4core3ops8function6FnOnce9call_once17h066586e8f6b30a9fE },
    Symbol { offset: 5573e5b153b8, size: 30, name: _ZN14the_algorithms12backtracking35__DIVAN_BENCH_GENERATE_COMBINATIONS12__DIVAN_ARGS17h5e35691298b99460E },
    Symbol { offset: 5573e5a15ae0, size: 3f, name: _ZN4core3ops8function6FnOnce9call_once17h24196cc60cd62ee7E },
    Symbol { offset: 5573e5b15448, size: 30, name: _ZN14the_algorithms12backtracking25__DIVAN_BENCH_KNIGHT_TOUR12__DIVAN_ARGS17hc3d8f09aae4c2955E },
    Symbol { offset: 5573e5a15b20, size: 3f, name: _ZN4core3ops8function6FnOnce9call_once17h396ace77a361fe42E },
    Symbol { offset: 5573e5b15598, size: 30, name: _ZN14the_algorithms16bit_manipulation30__DIVAN_BENCH_ADD_TWO_INTEGERS12__DIVAN_ARGS17h53dc6f07345f3721E },
    Symbol { offset: 5573e5a15b60, size: 3f, name: _ZN4core3ops8function6FnOnce9call_once17h3d938840cf4744b7E },
    Symbol { offset: 5573e5b15508, size: 30, name: _ZN14the_algorithms16bit_manipulation28__DIVAN_BENCH_COUNT_SET_BITS12__DIVAN_ARGS17h4cd7ff96e21df757E },
    Symbol { offset: 5573e5a15ba0, size: 3f, name: _ZN4core3ops8function6FnOnce9call_once17h41c49f77185c7b7fE },
    Symbol { offset: 5573e5b15568, size: 30, name: _ZN14the_algorithms16bit_manipulation32__DIVAN_BENCH_GENERATE_GRAY_CODE12__DIVAN_ARGS17h7122614f115f3ed0E },
    Symbol { offset: 5573e5a15be0, size: 3f, name: _ZN4core3ops8function6FnOnce9call_once17h6ee41c14a640e72aE },
    Symbol { offset: 5573e5b15358, size: 30, name: _ZN14the_algorithms12backtracking29__DIVAN_BENCH_N_QUEENS_SOLVER12__DIVAN_ARGS17hd34beac5f8e3589bE },
    Symbol { offset: 5573e5a15c20, size: 3f, name: _ZN4core3ops8function6FnOnce9call_once17h7a64f2f38d30dc9bE },
    Symbol { offset: 5573e5b15478, size: 30, name: _ZN14the_algorithms12backtracking26__DIVAN_BENCH_PERMUTATIONS12__DIVAN_ARGS17h2ba1c30f547d46d0E },
    Symbol { offset: 5573e5a15c60, size: 3f, name: _ZN4core3ops8function6FnOnce9call_once17h7ef8c0fdb5f36aa3E },
    Symbol { offset: 5573e5b15418, size: 30, name: _ZN14the_algorithms12backtracking31__DIVAN_BENCH_HAMILTONIAN_CYCLE12__DIVAN_ARGS17h66ab16476f72e2deE },
    Symbol { offset: 5573e5a15ca0, size: 3f, name: _ZN4core3ops8function6FnOnce9call_once17h8398d8559255bbb3E },
    Symbol { offset: 5573e5b154a8, size: 30, name: _ZN14the_algorithms12backtracking25__DIVAN_BENCH_RAT_IN_MAZE12__DIVAN_ARGS17ha3a7fdd5d64ff660E },
    Symbol { offset: 5573e5a15ce0, size: 3f, name: _ZN4core3ops8function6FnOnce9call_once17hb9ce405d8a8f319cE },
    Symbol { offset: 5573e5b15388, size: 30, name: _ZN14the_algorithms12backtracking34__DIVAN_BENCH_GENERATE_PARENTHESES12__DIVAN_ARGS17h7cbb11d5e0bbe395E },
    Symbol { offset: 5573e5a15d20, size: 3f, name: _ZN4core3ops8function6FnOnce9call_once17hc2001b306f37c718E },
    Symbol { offset: 5573e5b154d8, size: 30, name: _ZN14the_algorithms12backtracking24__DIVAN_BENCH_SUBSET_SUM12__DIVAN_ARGS17he901c715bd04416bE },
    Symbol { offset: 5573e5a15d60, size: 3f, name: _ZN4core3ops8function6FnOnce9call_once17hf274824dff30e2ecE },
    Symbol { offset: 5573e5b153e8, size: 30, name: _ZN14the_algorithms12backtracking28__DIVAN_BENCH_GRAPH_COLORING12__DIVAN_ARGS17hf827d9d43ab1735cE },
    Symbol { offset: 5573e5a15da0, size: 3f, name: _ZN4core3ops8function6FnOnce9call_once17hffbf752477c51641E },
    Symbol { offset: 5573e5b15538, size: 30, name: _ZN14the_algorithms16bit_manipulation34__DIVAN_BENCH_FIND_HIGHEST_SET_BIT12__DIVAN_ARGS17h7b206b564c7f0285E },
    Symbol { offset: 5573e5a15de0, size: 18, name: _ZN4core3ptr42drop_in_place$LT$alloc..string..String$GT$17h949a03025f608c36E },
    Symbol { offset: 5573e5a15e90, size: 123, name: _ZN58_$LT$alloc..string..String$u20$as$u20$core..fmt..Write$GT$10write_char17h13db4e3872bba170E },
    Symbol { offset: 5573e5a15fc0, size: 67, name: _ZN58_$LT$alloc..string..String$u20$as$u20$core..fmt..Write$GT$9write_str17h3471f8bf4fd2c6acE },
    Symbol { offset: 5573e5a171b0, size: 6, name: _ZN14the_algorithms4main17hd0389754afcca6f7E },
    Symbol { offset: 5573e5a171c0, size: 30, name: _ZN14the_algorithms12backtracking29__DIVAN_BENCH_N_QUEENS_SOLVER4push17hf6feb0856cc73e66E },
    Symbol { offset: 5573e5b13c30, size: 10, name: _ZN14the_algorithms12backtracking29__DIVAN_BENCH_N_QUEENS_SOLVER4push4NODE17h3bfaa7362db7a43eE },
    Symbol { offset: 5573e5a171f0, size: 30, name: _ZN14the_algorithms12backtracking34__DIVAN_BENCH_GENERATE_PARENTHESES4push17h2ec9e38322613423E },
    Symbol { offset: 5573e5b13d38, size: 10, name: _ZN14the_algorithms12backtracking34__DIVAN_BENCH_GENERATE_PARENTHESES4push4NODE17h63b1d18287afc18fE },
    Symbol { offset: 5573e5a17220, size: 30, name: _ZN14the_algorithms12backtracking35__DIVAN_BENCH_GENERATE_COMBINATIONS4push17h002c9b6dfab5ad01E },
    Symbol { offset: 5573e5b13e40, size: 10, name: _ZN14the_algorithms12backtracking35__DIVAN_BENCH_GENERATE_COMBINATIONS4push4NODE17h6eaea8fdae013d78E },
    Symbol { offset: 5573e5a17320, size: 30, name: _ZN14the_algorithms12backtracking28__DIVAN_BENCH_GRAPH_COLORING4push17h5e5170988ef7a340E },
    Symbol { offset: 5573e5b13f48, size: 10, name: _ZN14the_algorithms12backtracking28__DIVAN_BENCH_GRAPH_COLORING4push4NODE17h0f5019e3c2270e75E },
    Symbol { offset: 5573e5a17420, size: 30, name: _ZN14the_algorithms12backtracking31__DIVAN_BENCH_HAMILTONIAN_CYCLE4push17h8a251d3b123cd77fE },
    Symbol { offset: 5573e5b14050, size: 10, name: _ZN14the_algorithms12backtracking31__DIVAN_BENCH_HAMILTONIAN_CYCLE4push4NODE17h85a455843563fae3E },
    Symbol { offset: 5573e5a17450, size: 30, name: _ZN14the_algorithms12backtracking25__DIVAN_BENCH_KNIGHT_TOUR4push17h5491155cac793dbeE },
    Symbol { offset: 5573e5b14158, size: 10, name: _ZN14the_algorithms12backtracking25__DIVAN_BENCH_KNIGHT_TOUR4push4NODE17haafce02120c29e11E },
    Symbol { offset: 5573e5a175f0, size: 30, name: _ZN14the_algorithms12backtracking26__DIVAN_BENCH_PERMUTATIONS4push17hbf7159551998714cE },
    Symbol { offset: 5573e5b14260, size: 10, name: _ZN14the_algorithms12backtracking26__DIVAN_BENCH_PERMUTATIONS4push4NODE17h025b1235fbd57ecfE },
    Symbol { offset: 5573e5a176f0, size: 30, name: _ZN14the_algorithms12backtracking25__DIVAN_BENCH_RAT_IN_MAZE4push17h1f41af66e43e5e74E },
    Symbol { offset: 5573e5b14368, size: 10, name: _ZN14the_algorithms12backtracking25__DIVAN_BENCH_RAT_IN_MAZE4push4NODE17hf1db9714ece56572E },
    Symbol { offset: 5573e5a178a0, size: 30, name: _ZN14the_algorithms12backtracking24__DIVAN_BENCH_SUBSET_SUM4push17h948700bf2bc77a54E },
    Symbol { offset: 5573e5b14470, size: 10, name: _ZN14the_algorithms12backtracking24__DIVAN_BENCH_SUBSET_SUM4push4NODE17h5ac8815bc84d1c79E },
    Symbol { offset: 5573e5a178d0, size: a5, name: _ZN14the_algorithms12backtracking6sudoku17h58eec14718a2984eE },
    Symbol { offset: 5573e5a17980, size: 30, name: _ZN14the_algorithms12backtracking20__DIVAN_BENCH_SUDOKU4push17h9c532f45f956a0b7E },
    Symbol { offset: 5573e5b14578, size: 10, name: _ZN14the_algorithms12backtracking20__DIVAN_BENCH_SUDOKU4push4NODE17he69a26943ccd4755E },
    Symbol { offset: 5573e5a179b0, size: 30, name: _ZN14the_algorithms16bit_manipulation28__DIVAN_BENCH_COUNT_SET_BITS4push17h298f73c8ddde8452E },
    Symbol { offset: 5573e5b14680, size: 10, name: _ZN14the_algorithms16bit_manipulation28__DIVAN_BENCH_COUNT_SET_BITS4push4NODE17h995bbdcab6fa9070E },
    Symbol { offset: 5573e5a179e0, size: 30, name: _ZN14the_algorithms16bit_manipulation34__DIVAN_BENCH_FIND_HIGHEST_SET_BIT4push17h5f9f3c4f9fdf34d3E },
    Symbol { offset: 5573e5b14788, size: 10, name: _ZN14the_algorithms16bit_manipulation34__DIVAN_BENCH_FIND_HIGHEST_SET_BIT4push4NODE17ha094435dba71f6abE },
    Symbol { offset: 5573e5a17a10, size: 30, name: _ZN14the_algorithms16bit_manipulation32__DIVAN_BENCH_GENERATE_GRAY_CODE4push17h220bfc8d046368b3E },
    Symbol { offset: 5573e5b14890, size: 10, name: _ZN14the_algorithms16bit_manipulation32__DIVAN_BENCH_GENERATE_GRAY_CODE4push4NODE17hd7c59401afb25a2dE },
    Symbol { offset: 5573e5a17a40, size: 30, name: _ZN14the_algorithms16bit_manipulation30__DIVAN_BENCH_ADD_TWO_INTEGERS4push17h78c4cf9ee50d74e1E },
    Symbol { offset: 5573e5b14998, size: 10, name: _ZN14the_algorithms16bit_manipulation30__DIVAN_BENCH_ADD_TWO_INTEGERS4push4NODE17he343fff53106116bE },
    Symbol { offset: 5573e5b11770, size: 8, name: _ZN14the_algorithms12backtracking29__DIVAN_BENCH_N_QUEENS_SOLVER4PUSH17hca266f0546b5a9b1E },
    Symbol { offset: 5573e5b11778, size: 8, name: _ZN14the_algorithms12backtracking34__DIVAN_BENCH_GENERATE_PARENTHESES4PUSH17h235f2cf3f22c9501E },
    Symbol { offset: 5573e5b11780, size: 8, name: _ZN14the_algorithms12backtracking35__DIVAN_BENCH_GENERATE_COMBINATIONS4PUSH17hb3ca79df593ce581E },
    Symbol { offset: 5573e5b11788, size: 8, name: _ZN14the_algorithms12backtracking28__DIVAN_BENCH_GRAPH_COLORING4PUSH17h8a48ea4507b999bfE },
    Symbol { offset: 5573e5b11790, size: 8, name: _ZN14the_algorithms12backtracking31__DIVAN_BENCH_HAMILTONIAN_CYCLE4PUSH17h2f3998024ba2b9f4E },
    Symbol { offset: 5573e5b11798, size: 8, name: _ZN14the_algorithms12backtracking25__DIVAN_BENCH_KNIGHT_TOUR4PUSH17h636eeb5f2afb3088E },
    Symbol { offset: 5573e5b117a0, size: 8, name: _ZN14the_algorithms12backtracking26__DIVAN_BENCH_PERMUTATIONS4PUSH17h0cb92ae3f1efaaadE },
    Symbol { offset: 5573e5b117a8, size: 8, name: _ZN14the_algorithms12backtracking25__DIVAN_BENCH_RAT_IN_MAZE4PUSH17h7a06b9d663677c67E },
    Symbol { offset: 5573e5b117b0, size: 8, name: _ZN14the_algorithms12backtracking24__DIVAN_BENCH_SUBSET_SUM4PUSH17h5c6e7f4ed096a701E },
    Symbol { offset: 5573e5b117b8, size: 8, name: _ZN14the_algorithms12backtracking20__DIVAN_BENCH_SUDOKU4PUSH17hd431fd07d59ae198E },
    Symbol { offset: 5573e5b117c0, size: 8, name: _ZN14the_algorithms16bit_manipulation28__DIVAN_BENCH_COUNT_SET_BITS4PUSH17h4cb8b094722c079eE },
    Symbol { offset: 5573e5b117c8, size: 8, name: _ZN14the_algorithms16bit_manipulation34__DIVAN_BENCH_FIND_HIGHEST_SET_BIT4PUSH17h9deaa09204724b68E },
    Symbol { offset: 5573e5b117d0, size: 8, name: _ZN14the_algorithms16bit_manipulation32__DIVAN_BENCH_GENERATE_GRAY_CODE4PUSH17h339d2acbb60f987aE },
    Symbol { offset: 5573e5b117d8, size: 8, name: _ZN14the_algorithms16bit_manipulation30__DIVAN_BENCH_ADD_TWO_INTEGERS4PUSH17h59419cbed5d9c148E },
    Symbol { offset: 5573e5b13b38, size: f8, name: _ZN14the_algorithms12backtracking29__DIVAN_BENCH_N_QUEENS_SOLVER17h5edccbb874b3ca78E },
    Symbol { offset: 5573e5b13c40, size: f8, name: _ZN14the_algorithms12backtracking34__DIVAN_BENCH_GENERATE_PARENTHESES17h53b2aaf020be30f6E },
    Symbol { offset: 5573e5b13d48, size: f8, name: _ZN14the_algorithms12backtracking35__DIVAN_BENCH_GENERATE_COMBINATIONS17h6761b62d92a3b5abE },
    Symbol { offset: 5573e5b13e50, size: f8, name: _ZN14the_algorithms12backtracking28__DIVAN_BENCH_GRAPH_COLORING17hc79ce19e957566b3E },
    Symbol { offset: 5573e5b13f58, size: f8, name: _ZN14the_algorithms12backtracking31__DIVAN_BENCH_HAMILTONIAN_CYCLE17hc74a8e3ba0c6c8ffE },
    Symbol { offset: 5573e5b14060, size: f8, name: _ZN14the_algorithms12backtracking25__DIVAN_BENCH_KNIGHT_TOUR17hf9e834b76c8addb0E },
    Symbol { offset: 5573e5b14168, size: f8, name: _ZN14the_algorithms12backtracking26__DIVAN_BENCH_PERMUTATIONS17h72139ac7ea87db1aE },
    Symbol { offset: 5573e5b14270, size: f8, name: _ZN14the_algorithms12backtracking25__DIVAN_BENCH_RAT_IN_MAZE17h2da0d2b8b380edbaE },
    Symbol { offset: 5573e5b14378, size: f8, name: _ZN14the_algorithms12backtracking24__DIVAN_BENCH_SUBSET_SUM17h2d1d37465c074df4E },
    Symbol { offset: 5573e5b14480, size: f8, name: _ZN14the_algorithms12backtracking20__DIVAN_BENCH_SUDOKU17h719b0bec1e0f8215E },
    Symbol { offset: 5573e5b14588, size: f8, name: _ZN14the_algorithms16bit_manipulation28__DIVAN_BENCH_COUNT_SET_BITS17hde49319759258c5cE },
    Symbol { offset: 5573e5b14690, size: f8, name: _ZN14the_algorithms16bit_manipulation34__DIVAN_BENCH_FIND_HIGHEST_SET_BIT17h969e633694b72ac3E },
    Symbol { offset: 5573e5b14798, size: f8, name: _ZN14the_algorithms16bit_manipulation32__DIVAN_BENCH_GENERATE_GRAY_CODE17hf6798d8f33308067E },
    Symbol { offset: 5573e5b148a0, size: f8, name: _ZN14the_algorithms16bit_manipulation30__DIVAN_BENCH_ADD_TWO_INTEGERS17h07b40a0098bad81cE },
    Symbol { offset: 5573e5a15970, size: 2c, name: _ZN142_$LT$codspeed_divan_compat_examples..the_algorithms..backtracking..all_combination_of_size_k..CombinationError$u20$as$u20$core..fmt..Debug$GT$3fmt17ha57e69e683c06832E.llvm.12255128121468183849 },
    Symbol { offset: 5573e5a159f0, size: 6f, name: _ZN42_$LT$$RF$T$u20$as$u20$core..fmt..Debug$GT$3fmt17habea0f58933759cbE },
    Symbol { offset: 5573e5a15a60, size: 13, name: _ZN44_$LT$$RF$T$u20$as$u20$core..fmt..Display$GT$3fmt17h362fa4380de4b690E },
    Symbol { offset: 5573e5a15a80, size: 10, name: _ZN4core3fmt5Write9write_fmt17hc83ac54350a6c005E },
    Symbol { offset: 5573e5a15e00, size: 82, name: _ZN4core3ptr71drop_in_place$LT$alloc..vec..Vec$LT$alloc..vec..Vec$LT$bool$GT$$GT$$GT$17hd4034a6cf2603bcaE.llvm.12255128121468183849 },
    Symbol { offset: 5573e5a16030, size: b8, name: _ZN5alloc5boxed4iter117_$LT$impl$u20$core..iter..traits..collect..FromIterator$LT$I$GT$$u20$for$u20$alloc..boxed..Box$LT$$u5b$I$u5d$$GT$$GT$9from_iter17h06b6fec1520744ffE },
    Symbol { offset: 5573e5b07ea0, size: 18, name: anon.c5b179347d52a743f7175c33a0f99fcf.5.llvm.12255128121468183849 },
    Symbol { offset: 5573e5b07ef8, size: 18, name: anon.c5b179347d52a743f7175c33a0f99fcf.10.llvm.12255128121468183849 },
    Symbol { offset: 5573e5a160f0, size: b8, name: _ZN5alloc5boxed4iter117_$LT$impl$u20$core..iter..traits..collect..FromIterator$LT$I$GT$$u20$for$u20$alloc..boxed..Box$LT$$u5b$I$u5d$$GT$$GT$9from_iter17h0be04c7e19dcb2f3E },
    Symbol { offset: 5573e5a161b0, size: 172, name: _ZN5alloc5boxed4iter117_$LT$impl$u20$core..iter..traits..collect..FromIterator$LT$I$GT$$u20$for$u20$alloc..boxed..Box$LT$$u5b$I$u5d$$GT$$GT$9from_iter17h23c9997938a95fc8E },
    Symbol { offset: 5573e5a16330, size: d8, name: _ZN5alloc5boxed4iter117_$LT$impl$u20$core..iter..traits..collect..FromIterator$LT$I$GT$$u20$for$u20$alloc..boxed..Box$LT$$u5b$I$u5d$$GT$$GT$9from_iter17h262a021b4533d9f6E },
    Symbol { offset: 5573e5a16410, size: b8, name: _ZN5alloc5boxed4iter117_$LT$impl$u20$core..iter..traits..collect..FromIterator$LT$I$GT$$u20$for$u20$alloc..boxed..Box$LT$$u5b$I$u5d$$GT$$GT$9from_iter17h45d9a4a0c538067bE },
    Symbol { offset: 5573e5a164d0, size: b8, name: _ZN5alloc5boxed4iter117_$LT$impl$u20$core..iter..traits..collect..FromIterator$LT$I$GT$$u20$for$u20$alloc..boxed..Box$LT$$u5b$I$u5d$$GT$$GT$9from_iter17h5ed0ed11f3313419E },
    Symbol { offset: 5573e5a16590, size: b8, name: _ZN5alloc5boxed4iter117_$LT$impl$u20$core..iter..traits..collect..FromIterator$LT$I$GT$$u20$for$u20$alloc..boxed..Box$LT$$u5b$I$u5d$$GT$$GT$9from_iter17h7d11c5bbede54bf5E },
    Symbol { offset: 5573e5a16650, size: b8, name: _ZN5alloc5boxed4iter117_$LT$impl$u20$core..iter..traits..collect..FromIterator$LT$I$GT$$u20$for$u20$alloc..boxed..Box$LT$$u5b$I$u5d$$GT$$GT$9from_iter17h843da708fc57bfe8E },
    Symbol { offset: 5573e5a16710, size: b8, name: _ZN5alloc5boxed4iter117_$LT$impl$u20$core..iter..traits..collect..FromIterator$LT$I$GT$$u20$for$u20$alloc..boxed..Box$LT$$u5b$I$u5d$$GT$$GT$9from_iter17hc5aa964b0f6d6c71E },
    Symbol { offset: 5573e5a167d0, size: e1, name: _ZN5alloc5boxed4iter117_$LT$impl$u20$core..iter..traits..collect..FromIterator$LT$I$GT$$u20$for$u20$alloc..boxed..Box$LT$$u5b$I$u5d$$GT$$GT$9from_iter17hc79192ce792f4514E },
    Symbol { offset: 5573e5a168c0, size: d8, name: _ZN5alloc5boxed4iter117_$LT$impl$u20$core..iter..traits..collect..FromIterator$LT$I$GT$$u20$for$u20$alloc..boxed..Box$LT$$u5b$I$u5d$$GT$$GT$9from_iter17hc81ddc7371ebbd48E },
    Symbol { offset: 5573e5a169a0, size: b8, name: _ZN5alloc5boxed4iter117_$LT$impl$u20$core..iter..traits..collect..FromIterator$LT$I$GT$$u20$for$u20$alloc..boxed..Box$LT$$u5b$I$u5d$$GT$$GT$9from_iter17he34472f7f9149d00E },
    Symbol { offset: 5573e5a16a60, size: b8, name: _ZN5alloc5boxed4iter117_$LT$impl$u20$core..iter..traits..collect..FromIterator$LT$I$GT$$u20$for$u20$alloc..boxed..Box$LT$$u5b$I$u5d$$GT$$GT$9from_iter17he3ef9aecc7c16475E },
    Symbol { offset: 5573e5a16b20, size: b8, name: _ZN5alloc5boxed4iter117_$LT$impl$u20$core..iter..traits..collect..FromIterator$LT$I$GT$$u20$for$u20$alloc..boxed..Box$LT$$u5b$I$u5d$$GT$$GT$9from_iter17he7cc74b2c0abfb6eE },
    Symbol { offset: 5573e5a16be0, size: b8, name: _ZN5alloc5boxed4iter117_$LT$impl$u20$core..iter..traits..collect..FromIterator$LT$I$GT$$u20$for$u20$alloc..boxed..Box$LT$$u5b$I$u5d$$GT$$GT$9from_iter17hef63144dc2f46c4fE },
    Symbol { offset: 5573e5a16ca0, size: b8, name: _ZN5alloc5boxed4iter117_$LT$impl$u20$core..iter..traits..collect..FromIterator$LT$I$GT$$u20$for$u20$alloc..boxed..Box$LT$$u5b$I$u5d$$GT$$GT$9from_iter17hfc86331dc146c2ceE },
    Symbol { offset: 5573e5a16d60, size: b8, name: _ZN5alloc5boxed4iter117_$LT$impl$u20$core..iter..traits..collect..FromIterator$LT$I$GT$$u20$for$u20$alloc..boxed..Box$LT$$u5b$I$u5d$$GT$$GT$9from_iter17hfd680aa21feabd45E },
    Symbol { offset: 5573e5a16e20, size: 38c, name: _ZN9hashbrown3map28HashMap$LT$K$C$V$C$S$C$A$GT$6insert17h6ee26419182e6c9eE },
    Symbol { offset: 5573e59e71f5, size: 2b, name: anon.c5b179347d52a743f7175c33a0f99fcf.7.llvm.12255128121468183849 },
    Symbol { offset: 5573e5b07eb8, size: 20, name: anon.c5b179347d52a743f7175c33a0f99fcf.6.llvm.12255128121468183849 },
    Symbol { offset: 5573e5b07f40, size: 18, name: anon.c5b179347d52a743f7175c33a0f99fcf.19.llvm.12255128121468183849 },
    Symbol { offset: 5573e5a17250, size: d0, name: _ZN14the_algorithms12backtracking14graph_coloring17hcb13a1e6e5142016E },
    Symbol { offset: 5573e5a17350, size: d0, name: _ZN14the_algorithms12backtracking17hamiltonian_cycle17h742bbd16ef4de429E },
    Symbol { offset: 5573e5a17480, size: 167, name: _ZN14the_algorithms12backtracking12permutations17hd91c59e887d73d00E },
    Symbol { offset: 5573e5a17620, size: d0, name: _ZN14the_algorithms12backtracking11rat_in_maze17h97c7a762aadd8188E },
    Symbol { offset: 5573e5a17720, size: 171, name: _ZN14the_algorithms12backtracking10subset_sum17hd8177bdaa812ce4fE },
    Symbol { offset: 5573e5a17a70, size: 2e, name: main },
    Symbol { offset: 5573e59bd880, size: 22, name: __rustc_debug_gdb_scripts_section__ },
    Symbol { offset: 5573e59e7174, size: 81, name: anon.c5b179347d52a743f7175c33a0f99fcf.4.llvm.12255128121468183849 },
    Symbol { offset: 5573e59e7220, size: 78, name: anon.c5b179347d52a743f7175c33a0f99fcf.9.llvm.12255128121468183849 },
    Symbol { offset: 5573e59e72c3, size: 36, name: anon.c5b179347d52a743f7175c33a0f99fcf.17.llvm.12255128121468183849 },
    Symbol { offset: 5573e5a17aa0, size: 9a2, name: _ZN9hashbrown3raw21RawTable$LT$T$C$A$GT$14reserve_rehash17h3a66c67fafd35358E.llvm.14252047602830365222 },
    Symbol { offset: 5573e5a18450, size: 6c, name: _ZN5alloc7raw_vec11finish_grow17hf4c82bc7e8b2ba99E.llvm.3054045798139344169 },
    Symbol { offset: 5573e5a184c0, size: b4, name: _ZN5alloc7raw_vec19RawVec$LT$T$C$A$GT$8grow_one17h147ed97a443d4bdcE },
    Symbol { offset: 5573e5a18580, size: f5, name: _ZN5alloc7raw_vec20RawVecInner$LT$A$GT$7reserve21do_reserve_and_handle17h00da5b4ae78a7fd7E },
    Symbol { offset: 5573e5b07f58, size: 18, name: anon.616338345ed1e7ab18f7bbf157a92ce5.1.llvm.3054045798139344169 },
    Symbol { offset: 5573e59e73a7, size: 79, name: anon.616338345ed1e7ab18f7bbf157a92ce5.0.llvm.3054045798139344169 },
    Symbol { offset: 5573e5a18680, size: 72, name: _ZN30codspeed_divan_compat_walltime5bench4args5bench13type_mismatch17h4a0514d7f3edbe3eE },
    Symbol { offset: 5573e5a18700, size: 72, name: _ZN30codspeed_divan_compat_walltime5bench4args5bench13type_mismatch17h65b8d009d359ec40E },
    Symbol { offset: 5573e5a18780, size: 72, name: _ZN30codspeed_divan_compat_walltime5bench4args5bench13type_mismatch17hc879b201b5b0687dE },
    Symbol { offset: 5573e5a18800, size: 6a, name: _ZN30codspeed_divan_compat_walltime5bench4args5bench17h0433a7ec63963724E.llvm.12167380488854935046 },
    Symbol { offset: 5573e5a18870, size: 5e, name: _ZN30codspeed_divan_compat_walltime5bench4args5bench17h1b2630668bdedd54E.llvm.12167380488854935046 },
    Symbol { offset: 5573e5a188d0, size: 5d, name: _ZN30codspeed_divan_compat_walltime5bench4args5bench17h23ebfbf4cd3e7438E.llvm.12167380488854935046 },
    Symbol { offset: 5573e5a18930, size: 55, name: _ZN30codspeed_divan_compat_walltime5bench4args5bench17h3f3e0bf8d426d6e4E.llvm.12167380488854935046 },
    Symbol { offset: 5573e5a18990, size: 55, name: _ZN30codspeed_divan_compat_walltime5bench4args5bench17h53509aade344bd74E.llvm.12167380488854935046 },
    Symbol { offset: 5573e5a189f0, size: 55, name: _ZN30codspeed_divan_compat_walltime5bench4args5bench17h77c7bff2340b9160E.llvm.12167380488854935046 },
    Symbol { offset: 5573e5a18a50, size: 5e, name: _ZN30codspeed_divan_compat_walltime5bench4args5bench17h8c16c72b581a3bffE.llvm.12167380488854935046 },
    Symbol { offset: 5573e5a18ab0, size: 5d, name: _ZN30codspeed_divan_compat_walltime5bench4args5bench17ha1646a0f581cc6b2E.llvm.12167380488854935046 },
    Symbol { offset: 5573e5a18b10, size: 5d, name: _ZN30codspeed_divan_compat_walltime5bench4args5bench17ha450bce7d2305210E.llvm.12167380488854935046 },
    Symbol { offset: 5573e5a18b70, size: 55, name: _ZN30codspeed_divan_compat_walltime5bench4args5bench17ha78c9636144e2593E.llvm.12167380488854935046 },
    Symbol { offset: 5573e5a18bd0, size: 5e, name: _ZN30codspeed_divan_compat_walltime5bench4args5bench17ha7f42c9a9b2f3f8cE.llvm.12167380488854935046 },
    Symbol { offset: 5573e5a18c30, size: 5d, name: _ZN30codspeed_divan_compat_walltime5bench4args5bench17hcb78dd382fe50670E.llvm.12167380488854935046 },
    Symbol { offset: 5573e5a18c90, size: 55, name: _ZN30codspeed_divan_compat_walltime5bench4args5bench17hccfc361e09e5898bE.llvm.12167380488854935046 },
    Symbol { offset: 5573e5a18cf0, size: 5, name: _RNvCs691rhTbG0Ee_7___rustc12___rust_alloc },
    Symbol { offset: 5573e5a18d00, size: 5, name: _RNvCs691rhTbG0Ee_7___rustc14___rust_dealloc },
    Symbol { offset: 5573e5a18d10, size: 5, name: _RNvCs691rhTbG0Ee_7___rustc14___rust_realloc },
    Symbol { offset: 5573e5a18d20, size: 5, name: _RNvCs691rhTbG0Ee_7___rustc19___rust_alloc_zeroed },
    Symbol { offset: 5573e5a18d30, size: 5, name: _RNvCs691rhTbG0Ee_7___rustc26___rust_alloc_error_handler },
    Symbol { offset: 5573e5b155c8, size: 1, name: _RNvCs691rhTbG0Ee_7___rustc39___rust_alloc_error_handler_should_panic },
    Symbol { offset: 5573e5b155c9, size: 1, name: __rust_no_alloc_shim_is_unstable },
    Symbol { offset: 5573e5a19510, size: 2f, name: _ZN4core3ptr59drop_in_place$LT$clap_builder..builder..ext..Extensions$GT$17h86bd79b501f062c2E },
    Symbol { offset: 5573e5a19f40, size: c5, name: _ZN4core3ptr83drop_in_place$LT$alloc..vec..Vec$LT$clap_builder..builder..command..Command$GT$$GT$17h2c12626ba4200d9eE },
    Symbol { offset: 5573e5a1a110, size: bc, name: _ZN4core3ptr86drop_in_place$LT$alloc..vec..Vec$LT$clap_builder..builder..arg_group..ArgGroup$GT$$GT$17h4151eb1829bd9721E },
    Symbol { offset: 5573e5a1a2d0, size: 6a, name: _ZN4core3ptr97drop_in_place$LT$core..option..Option$LT$clap_builder..builder..value_parser..ValueParser$GT$$GT$17ha4d31a82498953ecE },
    Symbol { offset: 5573e5a19a50, size: 82, name: _ZN4core3ptr65drop_in_place$LT$alloc..vec..Vec$LT$alloc..string..String$GT$$GT$17h9d7bbda1ac3a5f76E },
    Symbol { offset: 5573e5a19c50, size: 45, name: _ZN4core3ptr73drop_in_place$LT$clap_builder..builder..possible_value..PossibleValue$GT$17h23a0f1687ac0b616E },
    Symbol { offset: 5573e5a1a340, size: 1eb, name: _ZN4core3str7pattern14TwoWaySearcher4next17h9f1759abf9605d3eE },
    Symbol { offset: 5573e5a18d40, size: 68, name: _ZN132_$LT$alloc..vec..Vec$LT$T$C$A$GT$$u20$as$u20$alloc..vec..spec_extend..SpecExtend$LT$$RF$T$C$core..slice..iter..Iter$LT$T$GT$$GT$$GT$11spec_extend17hd9490f80cb1a6d4eE },
    Symbol { offset: 5573e5a1a010, size: 100, name: _ZN4core3ptr83drop_in_place$LT$alloc..vec..Vec$LT$clap_builder..util..any_value..AnyValue$GT$$GT$17hf5991a60234a0cb4E.llvm.16189995528990795813 },
    Symbol { offset: 5573e5a18db0, size: 5a, name: _ZN4core3ptr154drop_in_place$LT$alloc..boxed..Box$LT$dyn$u20$core..ops..function..FnOnce$LT$$LP$$RP$$GT$$u2b$Output$u20$$u3d$$u20$$LP$$RP$$u2b$core..marker..Send$GT$$GT$17h0c80ffc999832d35E.llvm.16189995528990795813 },
    Symbol { offset: 5573e5a18e10, size: ae, name: _ZN4core3ptr333drop_in_place$LT$regex_lite..pool..Pool$LT$regex_lite..pikevm..Cache$C$alloc..boxed..Box$LT$dyn$u20$core..ops..function..Fn$LT$$LP$$RP$$GT$$u2b$Output$u20$$u3d$$u20$regex_lite..pikevm..Cache$u2b$core..panic..unwind_safe..RefUnwindSafe$u2b$core..panic..unwind_safe..UnwindSafe$u2b$core..marker..Send$u2b$core..marker..Sync$GT$$GT$$GT$17h09ba7186f210e9ccE.llvm.16189995528990795813 },
    Symbol { offset: 5573e5a19b60, size: ea, name: _ZN4core3ptr71drop_in_place$LT$alloc..boxed..Box$LT$regex_lite..pikevm..Cache$GT$$GT$17h07dd6a90fa40a177E.llvm.16189995528990795813 },
    Symbol { offset: 5573e5a18ec0, size: 643, name: _ZN4core3ptr52drop_in_place$LT$clap_builder..builder..arg..Arg$GT$17h7da3c8b9ba56d952E.llvm.16189995528990795813 },
    Symbol { offset: 5573e5a19540, size: 50d, name: _ZN4core3ptr60drop_in_place$LT$clap_builder..builder..command..Command$GT$17h65073803c160e3ccE.llvm.16189995528990795813 },
    Symbol { offset: 5573e5a19ae0, size: 75, name: _ZN4core3ptr67drop_in_place$LT$codspeed_divan_compat_walltime..config..Filter$GT$17h499bed6138995de1E.llvm.16189995528990795813 },
    Symbol { offset: 5573e5a19ca0, size: 1b0, name: _ZN4core3ptr75drop_in_place$LT$clap_builder..parser..matches..matched_arg..MatchedArg$GT$17h580fcefb7e548451E.llvm.16189995528990795813 },
    Symbol { offset: 5573e5a1a1d0, size: f2, name: _ZN4core3ptr93drop_in_place$LT$alloc..vec..Vec$LT$alloc..vec..Vec$LT$std..ffi..os_str..OsString$GT$$GT$$GT$17h4edee5628b7ab960E.llvm.16189995528990795813 },
    Symbol { offset: 5573e5a19e50, size: ef, name: _ZN4core3ptr75drop_in_place$LT$codspeed_divan_compat_walltime..entry..tree..EntryTree$GT$17h57e125891b8e01bbE.llvm.16189995528990795813 },
    Symbol { offset: 5573e5a1a530, size: 38, name: _ZN4core4iter6traits8iterator8Iterator3nth17h67bba06782d02172E.llvm.16189995528990795813 },
    Symbol { offset: 5573e5a1acb0, size: 263, name: _ZN90_$LT$core..str..iter..Split$LT$P$GT$$u20$as$u20$core..iter..traits..iterator..Iterator$GT$4next17hf54ea95a051b019aE.llvm.16189995528990795813 },
    Symbol { offset: 5573e5a1a570, size: 189, name: _ZN5alloc3vec16Vec$LT$T$C$A$GT$10retain_mut17hdd48832a673a27ecE },
    Symbol { offset: 5573e5a1c020, size: 684, name: _ZN30codspeed_divan_compat_walltime5entry4tree9EntryTree6retain6retain28_$u7b$$u7b$closure$u7d$$u7d$17h2c57f432288d46f6E.llvm.16189995528990795813 },
    Symbol { offset: 5573e5a1a700, size: 81, name: _ZN5alloc3vec16Vec$LT$T$C$A$GT$14extend_trusted17hfc60e8e140c41c86E },
    Symbol { offset: 5573e5a1a790, size: 1fb, name: _ZN5alloc3vec16Vec$LT$T$C$A$GT$16extend_desugared17h975beac2c807c629E },
    Symbol { offset: 5573e5a1a990, size: 6c, name: _ZN5alloc3vec16Vec$LT$T$C$A$GT$6remove17h3c68c257efff87c9E },
    Symbol { offset: 5573e5b08008, size: 18, name: anon.bd6c97e712037fcd53be143cdb4739fa.7.llvm.16189995528990795813 },
    Symbol { offset: 5573e5a1aa00, size: c4, name: _ZN70_$LT$alloc..vec..Vec$LT$T$C$A$GT$$u20$as$u20$core..ops..drop..Drop$GT$4drop17h3003fab572f4197aE },
    Symbol { offset: 5573e5a1aad0, size: 114, name: _ZN70_$LT$alloc..vec..Vec$LT$T$C$A$GT$$u20$as$u20$core..ops..drop..Drop$GT$4drop17h6e9daa3673681a72E },
    Symbol { offset: 5573e5a1abf0, size: bb, name: _ZN70_$LT$alloc..vec..Vec$LT$T$C$A$GT$$u20$as$u20$core..ops..drop..Drop$GT$4drop17hfc302b8a9037bae8E },
    Symbol { offset: 5573e5a1af20, size: 2ec, name: _ZN98_$LT$alloc..vec..Vec$LT$T$GT$$u20$as$u20$alloc..vec..spec_from_iter..SpecFromIter$LT$T$C$I$GT$$GT$9from_iter17h0664a9a5567301faE },
    Symbol { offset: 5573e5a1b210, size: 307, name: _ZN98_$LT$alloc..vec..Vec$LT$T$GT$$u20$as$u20$alloc..vec..spec_from_iter..SpecFromIter$LT$T$C$I$GT$$GT$9from_iter17h20ae942d2a0d3a8fE },
    Symbol { offset: 5573e5a1b520, size: 307, name: _ZN98_$LT$alloc..vec..Vec$LT$T$GT$$u20$as$u20$alloc..vec..spec_from_iter..SpecFromIter$LT$T$C$I$GT$$GT$9from_iter17h31c1dc5fb7769adcE },
    Symbol { offset: 5573e5a1b830, size: 307, name: _ZN98_$LT$alloc..vec..Vec$LT$T$GT$$u20$as$u20$alloc..vec..spec_from_iter..SpecFromIter$LT$T$C$I$GT$$GT$9from_iter17h47ce0d76ba1b9e18E },
    Symbol { offset: 5573e5a1bb40, size: 30a, name: _ZN98_$LT$alloc..vec..Vec$LT$T$GT$$u20$as$u20$alloc..vec..spec_from_iter..SpecFromIter$LT$T$C$I$GT$$GT$9from_iter17h5b23c7ebaa179158E },
    Symbol { offset: 5573e5a1be50, size: 1c5, name: _ZN98_$LT$alloc..vec..Vec$LT$T$GT$$u20$as$u20$alloc..vec..spec_from_iter..SpecFromIter$LT$T$C$I$GT$$GT$9from_iter17hcf2ebce7fd57e740E },
    Symbol { offset: 5573e59e754b, size: 73, name: anon.bd6c97e712037fcd53be143cdb4739fa.6.llvm.16189995528990795813 },
    Symbol { offset: 5573e5a1ec00, size: 5f, name: _ZN4core3ptr130drop_in_place$LT$core..result..Result$LT$$LP$$RP$$C$alloc..boxed..Box$LT$dyn$u20$core..any..Any$u2b$core..marker..Send$GT$$GT$$GT$17hfde1b81ddf5bf85aE },
    Symbol { offset: 5573e5a1ea50, size: 119, name: _ZN3std4sync4mpmc5waker5Waker6notify17h04b09af56c602e4aE },
    Symbol { offset: 5573e5a1ed80, size: 41, name: _ZN4core3ptr94drop_in_place$LT$std..sync..poison..mutex..MutexGuard$LT$std..sync..mpmc..waker..Waker$GT$$GT$17h8d1b3d3b4b1fbc33E },
    Symbol { offset: 5573e5a1ec60, size: 41, name: _ZN4core3ptr132drop_in_place$LT$std..sync..poison..PoisonError$LT$std..sync..poison..mutex..MutexGuard$LT$std..sync..mpmc..waker..Waker$GT$$GT$$GT$17hc5afc23ba9a70f84E },
    Symbol { offset: 5573e5a1eb70, size: 88, name: _ZN3std4sync4mpmc7context7Context4with28_$u7b$$u7b$closure$u7d$$u7d$17h746a5653d5cfce8eE },
    Symbol { offset: 5573e5a1dfa0, size: 50a, name: _ZN3std4sync4mpmc4list16Channel$LT$T$GT$4recv28_$u7b$$u7b$closure$u7d$$u7d$17h618062b5e6acfbc8E },
    Symbol { offset: 5573e5a1ecb0, size: 58, name: _ZN4core3ptr176drop_in_place$LT$$LT$alloc..vec..drain..Drain$LT$T$C$A$GT$$u20$as$u20$core..ops..drop..Drop$GT$..drop..DropGuard$LT$std..sync..mpmc..waker..Entry$C$alloc..alloc..Global$GT$$GT$17h6e5576baa6dc6e8eE },
    Symbol { offset: 5573e5a1ed10, size: 67, name: _ZN4core3ptr188drop_in_place$LT$core..cell..UnsafeCell$LT$core..option..Option$LT$core..result..Result$LT$$LP$$RP$$C$alloc..boxed..Box$LT$dyn$u20$core..any..Any$u2b$core..marker..Send$GT$$GT$$GT$$GT$$GT$17h7c80591bad9b1286E },
    Symbol { offset: 5573e5a1c6b0, size: 180, name: _ZN12clap_builder6parser7matches11arg_matches10ArgMatches11try_get_one17h2b56a171513cba8eE },
    Symbol { offset: 5573e59e7610, size: 63, name: anon.a3139cfea6faebcfcf1327883aa900e5.0.llvm.14174339117061547350 },
    Symbol { offset: 5573e5b080a0, size: 18, name: anon.a3139cfea6faebcfcf1327883aa900e5.2.llvm.14174339117061547350 },
    Symbol { offset: 5573e5a1c830, size: 180, name: _ZN12clap_builder6parser7matches11arg_matches10ArgMatches11try_get_one17h5c7c8b2c34a199c4E },
    Symbol { offset: 5573e5a1c9b0, size: 180, name: _ZN12clap_builder6parser7matches11arg_matches10ArgMatches11try_get_one17h65c8e2bf9fe635f0E },
    Symbol { offset: 5573e5a1cb30, size: 180, name: _ZN12clap_builder6parser7matches11arg_matches10ArgMatches11try_get_one17h80fe5c6b0d634a1aE },
    Symbol { offset: 5573e5a1ccb0, size: 180, name: _ZN12clap_builder6parser7matches11arg_matches10ArgMatches11try_get_one17h96ec8ea867ce8283E },
    Symbol { offset: 5573e5a1ce30, size: 180, name: _ZN12clap_builder6parser7matches11arg_matches10ArgMatches11try_get_one17hba4e871fb3141243E },
    Symbol { offset: 5573e5a1cfb0, size: 180, name: _ZN12clap_builder6parser7matches11arg_matches10ArgMatches11try_get_one17he7df09360c7ba357E },
    Symbol { offset: 5573e5a1d210, size: 62, name: _ZN12clap_builder6parser7matches11arg_matches49unwrap_downcast_ref$u7b$$u7b$reify.shim$u7d$$u7d$17hb17b52710dda1cc3E.llvm.14174339117061547350 },
    Symbol { offset: 5573e5a1d1a0, size: 62, name: _ZN12clap_builder6parser7matches11arg_matches49unwrap_downcast_ref$u7b$$u7b$reify.shim$u7d$$u7d$17h65495cef60ec9060E.llvm.14174339117061547350 },
    Symbol { offset: 5573e5a1d130, size: 62, name: _ZN12clap_builder6parser7matches11arg_matches49unwrap_downcast_ref$u7b$$u7b$reify.shim$u7d$$u7d$17h57338bf8138371e8E.llvm.14174339117061547350 },
    Symbol { offset: 5573e5a1d280, size: 18e, name: _ZN3std3sys9backtrace28__rust_begin_short_backtrace17haf64f6fbfded9164E },
    Symbol { offset: 5573e5a1d410, size: 22, name: _ZN3std3sys9backtrace28__rust_begin_short_backtrace17hc82d39eab081868aE },
    Symbol { offset: 5573e5a1d440, size: 219, name: _ZN3std4sync4mpmc4list16Channel$LT$T$GT$18disconnect_senders17h0650a62e595baa14E },
    Symbol { offset: 5573e5a1d660, size: 2f8, name: _ZN3std4sync4mpmc4list16Channel$LT$T$GT$20disconnect_receivers17h160ce3c4bb0e56cdE },
    Symbol { offset: 5573e5a1d960, size: 632, name: _ZN3std4sync4mpmc4list16Channel$LT$T$GT$4recv17hf8de9314d87d1defE },
    Symbol { offset: 5573e5a1e4b0, size: 59c, name: _ZN3std4sync4mpmc4list16Channel$LT$T$GT$4send17h4997970d10f756fdE },
    Symbol { offset: 5573e5a1ef70, size: 160, name: _ZN79_$LT$alloc..vec..drain..Drain$LT$T$C$A$GT$$u20$as$u20$core..ops..drop..Drop$GT$4drop17h8ba8267722c91c3cE },
    Symbol { offset: 5573e5a1edd0, size: 75, name: _ZN5alloc4sync16Arc$LT$T$C$A$GT$9drop_slow17h90a33f520c67f116E },
    Symbol { offset: 5573e5a1ee50, size: 112, name: _ZN5alloc4sync16Arc$LT$T$C$A$GT$9drop_slow17he2f77111e23d6caaE },
    Symbol { offset: 5573e5a1f0d0, size: bd, name: _ZN30codspeed_divan_compat_walltime4util17known_parallelism4slow17h5a3d044e11010c0aE },
    Symbol { offset: 5573e5b155d0, size: 8, name: _ZN30codspeed_divan_compat_walltime4util17known_parallelism6CACHED17hdeeca08480a91bb0E },
    Symbol { offset: 5573e59e7673, size: 7d, name: anon.a3139cfea6faebcfcf1327883aa900e5.1.llvm.14174339117061547350 },
    Symbol { offset: 5573e5a1f4f0, size: 4a, name: _ZN4core3ptr80drop_in_place$LT$$u5b$core..option..Option$LT$alloc..string..String$GT$$u5d$$GT$17h50d08cb4383c4a3fE },
    Symbol { offset: 5573e5a1f190, size: d4, name: _ZN4core3ptr116drop_in_place$LT$core..array..Guard$LT$codspeed_divan_compat_walltime..counter..collection..KnownCounterInfo$GT$$GT$17h501c05bfc89e58fbE.llvm.6326620728252921692 },
    Symbol { offset: 5573e5a1f540, size: 7f, name: _ZN4core3ptr90drop_in_place$LT$codspeed_divan_compat_walltime..counter..collection..KnownCounterInfo$GT$17h604cd7ddc043868bE.llvm.6326620728252921692 },
    Symbol { offset: 5573e5a1f270, size: 156, name: _ZN4core3ptr148drop_in_place$LT$core..option..Option$LT$codspeed_divan_compat_walltime..alloc..AllocTally$LT$$u5b$alloc..string..String$u3b$$u20$6$u5d$$GT$$GT$$GT$17he98ce22928e17b6dE.llvm.6326620728252921692 },
    Symbol { offset: 5573e5a1f3d0, size: 45, name: _ZN4core3ptr68drop_in_place$LT$core..array..Guard$LT$alloc..string..String$GT$$GT$17h0a665e55ac1b2252E.llvm.6326620728252921692 },
    Symbol { offset: 5573e5a1f420, size: cc, name: _ZN4core3ptr73drop_in_place$LT$$u5b$$u5b$alloc..string..String$u3b$$u20$6$u5d$$u5d$$GT$17h1eacc8643d6bc6f6E.llvm.6326620728252921692 },
    Symbol { offset: 5573e5a1f5c0, size: 1c5, name: _ZN4core5array5drain16drain_array_with17h0561e9fe2b474b87E },
    Symbol { offset: 5573e5a1f790, size: 1fb, name: _ZN4core5array5drain16drain_array_with17h5d5fe3278062b7e7E },
    Symbol { offset: 5573e5a1f990, size: 1b7, name: _ZN4core5array5drain16drain_array_with17h6c9d1d432e6270e4E },
    Symbol { offset: 5573e5a1fb50, size: 19f, name: _ZN4core5array5drain16drain_array_with17h7f8dbf630e36fd31E },
    Symbol { offset: 5573e5a1fcf0, size: 1ab, name: _ZN4core5array5drain16drain_array_with17hc6e94076adc1d706E },
    Symbol { offset: 5573e5a1fea0, size: 197, name: _ZN4core5array5drain16drain_array_with17hdd2e6499a892e887E },
    Symbol { offset: 5573e5a20040, size: 22c, name: _ZN4core5array5drain16drain_array_with17hf06e1651fe605759E },
    Symbol { offset: 5573e5a20270, size: a2f, name: _ZN4core5array5drain16drain_array_with17hf5a0ad10857f92cdE },
    Symbol { offset: 5573e5b081f8, size: 18, name: anon.d4a2e38959ad4beaa0b902d404e9721d.1.llvm.6326620728252921692 },
    Symbol { offset: 5573e5a20ca0, size: 43, name: _ZN30codspeed_divan_compat_walltime7counter10collection17CounterCollection12push_counter17h0cfff2b7d308ece9E },
    Symbol { offset: 5573e5a20cf0, size: 23f, name: _ZN30codspeed_divan_compat_walltime7counter10collection10CounterSet13to_collection17h4fc45ad716ae6b58E },
    Symbol { offset: 5573e59e78b5, size: 38, name: anon.d4a2e38959ad4beaa0b902d404e9721d.0.llvm.6326620728252921692 },
    Symbol { offset: 5573e5b15620, size: a0, name: _ZN30codspeed_divan_compat_walltime4time5timer5Timer15bench_overheads6CACHED17h738410ec5437dbe7E },
    Symbol { offset: 5573e5a20f30, size: 15, name: _ZN36_$LT$T$u20$as$u20$core..any..Any$GT$7type_id17hb19fc81618d7c569E },
    Symbol { offset: 5573e5a20f50, size: 7e, name: _ZN4core3ops8function6FnOnce9call_once17h20abca6f88528b82E.llvm.17925165160985204053 },
    Symbol { offset: 5573e5a20fd0, size: 51, name: _ZN4core3ptr84drop_in_place$LT$codspeed_divan_compat_walltime..stats..sample..SampleCollection$GT$17h31d705024864bcdaE.llvm.17925165160985204053 },
    Symbol { offset: 5573e5a21030, size: 146, name: _ZN4core5slice4sort6shared5pivot11median3_rec17h0f62c5fd540d9cf9E.llvm.17925165160985204053 },
    Symbol { offset: 5573e5a21180, size: a7, name: _ZN4core5slice4sort6shared5pivot11median3_rec17h869f0207cb624d17E.llvm.17925165160985204053 },
    Symbol { offset: 5573e5a21230, size: cb, name: _ZN4core5slice4sort6shared5pivot11median3_rec17h9c75bc84ba79c5ddE.llvm.17925165160985204053 },
    Symbol { offset: 5573e5a21300, size: 149, name: _ZN4core5slice4sort6shared5pivot11median3_rec17haa87b991670d3bf6E.llvm.17925165160985204053 },
    Symbol { offset: 5573e5a21450, size: a7, name: _ZN4core5slice4sort6shared5pivot11median3_rec17he83deda8e47e8245E.llvm.17925165160985204053 },
    Symbol { offset: 5573e5a21500, size: 133, name: _ZN4core5slice4sort6shared5pivot12choose_pivot17h03ad2aadfd018648E },
    Symbol { offset: 5573e5a21640, size: 13b, name: _ZN4core5slice4sort6shared5pivot12choose_pivot17h34c219b88e8711f2E },
    Symbol { offset: 5573e5a21780, size: 6c, name: _ZN5alloc7raw_vec11finish_grow17h01025eaef220241eE.llvm.17925165160985204053 },
    Symbol { offset: 5573e5a217f0, size: b8, name: _ZN5alloc7raw_vec19RawVec$LT$T$C$A$GT$8grow_one17h3145dc431570fb10E },
    Symbol { offset: 5573e5a218b0, size: b5, name: _ZN5alloc7raw_vec19RawVec$LT$T$C$A$GT$8grow_one17haeeba803744237a8E },
    Symbol { offset: 5573e5a21970, size: b8, name: _ZN5alloc7raw_vec19RawVec$LT$T$C$A$GT$8grow_one17hc236e62f4c78f78cE },
    Symbol { offset: 5573e5a21a30, size: f5, name: _ZN5alloc7raw_vec20RawVecInner$LT$A$GT$7reserve21do_reserve_and_handle17hf299ee682eabd2c9E },
    Symbol { offset: 5573e5b08270, size: 18, name: anon.3ac78e247a9e8f127fa10ed9c4983a2f.3.llvm.17925165160985204053 },
    Symbol { offset: 5573e5b082d0, size: 20, name: anon.3ac78e247a9e8f127fa10ed9c4983a2f.11.llvm.17925165160985204053 },
    Symbol { offset: 5573e5a21b30, size: 97, name: _ZN30codspeed_divan_compat_walltime5bench12BenchContext15sample_recorder28_$u7b$$u7b$closure$u7d$$u7d$28_$u7b$$u7b$closure$u7d$$u7d$9sync_impl17had2defb85c787c10E },
    Symbol { offset: 5573e5a21bd0, size: 1e15, name: _ZN30codspeed_divan_compat_walltime5bench12BenchContext13compute_stats17hb42d6634d688b866E },
    Symbol { offset: 5573e5a239f0, size: 45, name: _ZN30codspeed_divan_compat_walltime4time5timer5Timer9precision17hf646f732b20cfbedE },
    Symbol { offset: 5573e5b155e0, size: 40, name: _ZN30codspeed_divan_compat_walltime4time5timer5Timer9precision6CACHED17hcf15d8ff1cf82d1cE.llvm.17925165160985204053 },
    Symbol { offset: 5573e5a23a40, size: 44c, name: _ZN30codspeed_divan_compat_walltime4time5timer5Timer17measure_precision17h208cd66e5c7b507eE },
    Symbol { offset: 5573e5a23e90, size: 4c, name: _ZN30codspeed_divan_compat_walltime4time5timer5Timer15bench_overheads17h22f9cd70f9c5bbebE },
    Symbol { offset: 5573e5b156c0, size: 40, name: _ZN30codspeed_divan_compat_walltime4time5timer5Timer20sample_loop_overhead6CACHED17h6f9ad1e75a28a1c0E.llvm.17925165160985204053 },
    Symbol { offset: 5573e5a23ee0, size: 1ee, name: _ZN30codspeed_divan_compat_walltime4time5timer5Timer28measure_sample_loop_overhead17h395c12acea261ef4E },
    Symbol { offset: 5573e5a240d0, size: 371, name: _ZN30codspeed_divan_compat_walltime4time5timer5Timer28measure_tally_alloc_overhead17h18029ff6a91c675aE },
    Symbol { offset: 5573e5a24450, size: 2b2, name: _ZN30codspeed_divan_compat_walltime4time5timer5Timer30measure_tally_dealloc_overhead17h75e11ff4ac34d48bE },
    Symbol { offset: 5573e5a24710, size: 4df, name: _ZN30codspeed_divan_compat_walltime4time5timer5Timer30measure_tally_realloc_overhead17hf87898d4a736969eE },
    Symbol { offset: 5573e5a24bf0, size: 131, name: _ZN30codspeed_divan_compat_walltime4time5timer13TimedOverhead14total_overhead17hd61bef1b40c2e039E },
    Symbol { offset: 5573e59e79a1, size: 79, name: anon.3ac78e247a9e8f127fa10ed9c4983a2f.2.llvm.17925165160985204053 },
    Symbol { offset: 5573e59fd4f0, size: 10, name: anon.3ac78e247a9e8f127fa10ed9c4983a2f.10.llvm.17925165160985204053 },
    Symbol { offset: 5573e5a24d30, size: 70, name: _ZN115_$LT$core..iter..adapters..filter_map..FilterMap$LT$I$C$F$GT$$u20$as$u20$core..iter..traits..iterator..Iterator$GT$4next17h4b49cdcfe49fa176E },
    Symbol { offset: 5573e5a24da0, size: 65, name: _ZN115_$LT$core..iter..adapters..filter_map..FilterMap$LT$I$C$F$GT$$u20$as$u20$core..iter..traits..iterator..Iterator$GT$4next17h63d0d2d7d3f39c00E },
    Symbol { offset: 5573e5a24e10, size: 6d, name: _ZN115_$LT$core..iter..adapters..filter_map..FilterMap$LT$I$C$F$GT$$u20$as$u20$core..iter..traits..iterator..Iterator$GT$4next17h70cc013f6b67ed21E },
    Symbol { offset: 5573e5a24e80, size: 65, name: _ZN115_$LT$core..iter..adapters..filter_map..FilterMap$LT$I$C$F$GT$$u20$as$u20$core..iter..traits..iterator..Iterator$GT$4next17h9a56b45fecd16a2cE },
    Symbol { offset: 5573e5a24ef0, size: 1e, name: _ZN115_$LT$core..iter..adapters..filter_map..FilterMap$LT$I$C$F$GT$$u20$as$u20$core..iter..traits..iterator..Iterator$GT$9size_hint17h4ddce1aa41694e6cE },
    Symbol { offset: 5573e5a24f10, size: 7ce, name: _ZN135_$LT$clap_builder..builder..value_parser..EnumValueParser$LT$E$GT$$u20$as$u20$clap_builder..builder..value_parser..TypedValueParser$GT$9parse_ref17h316361c6223e9754E },
    Symbol { offset: 5573e5a28c10, size: 82, name: _ZN4core3ptr65drop_in_place$LT$alloc..vec..Vec$LT$alloc..string..String$GT$$GT$17h9d7bbda1ac3a5f76E },
    Symbol { offset: 5573e5a28ca0, size: 45, name: _ZN4core3ptr73drop_in_place$LT$clap_builder..builder..possible_value..PossibleValue$GT$17h23a0f1687ac0b616E },
    Symbol { offset: 5573e5a256e0, size: 857, name: _ZN135_$LT$clap_builder..builder..value_parser..EnumValueParser$LT$E$GT$$u20$as$u20$clap_builder..builder..value_parser..TypedValueParser$GT$9parse_ref17h6d3fc9e978f5125cE },
    Symbol { offset: 5573e59fdce4, size: 4, name: .Lanon.b9956d8b1f95d519a12f9b5cf00aadc2.29 },
    Symbol { offset: 5573e59fdcb8, size: 4, name: .Lanon.b9956d8b1f95d519a12f9b5cf00aadc2.55 },
    Symbol { offset: 5573e59fddd8, size: 8, name: .Lanon.b9956d8b1f95d519a12f9b5cf00aadc2.56 },
    Symbol { offset: 5573e5a25f40, size: 7ce, name: _ZN135_$LT$clap_builder..builder..value_parser..EnumValueParser$LT$E$GT$$u20$as$u20$clap_builder..builder..value_parser..TypedValueParser$GT$9parse_ref17h98bee18bfb787355E },
    Symbol { offset: 5573e5a26710, size: 857, name: _ZN135_$LT$clap_builder..builder..value_parser..EnumValueParser$LT$E$GT$$u20$as$u20$clap_builder..builder..value_parser..TypedValueParser$GT$9parse_ref17hdb4c8b20854ff101E },
    Symbol { offset: 5573e59fdd14, size: 4, name: .Lanon.b9956d8b1f95d519a12f9b5cf00aadc2.51 },
    Symbol { offset: 5573e5a26f70, size: f60, name: _ZN140_$LT$clap_builder..builder..value_parser..RangedI64ValueParser$LT$T$GT$$u20$as$u20$clap_builder..builder..value_parser..TypedValueParser$GT$9parse_ref17h8b611e427a02199eE },
    Symbol { offset: 5573e59fde80, size: 8, name: .Lanon.b9956d8b1f95d519a12f9b5cf00aadc2.0 },
    Symbol { offset: 5573e59fdea8, size: 8, name: .Lanon.b9956d8b1f95d519a12f9b5cf00aadc2.2 },
    Symbol { offset: 5573e5a293f0, size: 14, name: _ZN60_$LT$alloc..string..String$u20$as$u20$core..fmt..Display$GT$3fmt17h253a895d4ea9e2d1E },
    Symbol { offset: 5573e5a27ed0, size: cb9, name: _ZN140_$LT$clap_builder..builder..value_parser..RangedU64ValueParser$LT$T$GT$$u20$as$u20$clap_builder..builder..value_parser..TypedValueParser$GT$9parse_ref17h5e2ffa3350fe2907E },
    Symbol { offset: 5573e59fde50, size: 8, name: .Lanon.b9956d8b1f95d519a12f9b5cf00aadc2.5 },
    Symbol { offset: 5573e59fdda0, size: 8, name: .Lanon.b9956d8b1f95d519a12f9b5cf00aadc2.6 },
    Symbol { offset: 5573e5a28b90, size: 5a, name: _ZN4core3ptr118drop_in_place$LT$alloc..boxed..Box$LT$dyn$u20$core..error..Error$u2b$core..marker..Send$u2b$core..marker..Sync$GT$$GT$17h1eb24d37a11bf242E },
    Symbol { offset: 5573e5a28bf0, size: 18, name: _ZN4core3ptr238drop_in_place$LT$alloc..boxed..convert..$LT$impl$u20$core..convert..From$LT$alloc..string..String$GT$$u20$for$u20$alloc..boxed..Box$LT$dyn$u20$core..error..Error$u2b$core..marker..Send$u2b$core..marker..Sync$GT$$GT$..from..StringError$GT$17hd03af6ed926565c6E },
    Symbol { offset: 5573e5a28cf0, size: 83, name: _ZN4core4iter6traits8iterator8Iterator10advance_by17h23c28ed9d8a1a5a7E },
    Symbol { offset: 5573e5a28d80, size: 98, name: _ZN4core4iter6traits8iterator8Iterator10advance_by17h92f3c29dfcfff173E },
    Symbol { offset: 5573e5a28e20, size: ea, name: _ZN4core4iter6traits8iterator8Iterator3nth17h54bbb4300fa9c8f1E },
    Symbol { offset: 5573e5a28f10, size: ed, name: _ZN4core4iter6traits8iterator8Iterator3nth17h581d41ec3687dec7E },
    Symbol { offset: 5573e5a29000, size: e6, name: _ZN4core4iter6traits8iterator8Iterator3nth17h59bd1f553a529ed3E },
    Symbol { offset: 5573e5a290f0, size: e6, name: _ZN4core4iter6traits8iterator8Iterator3nth17hcb6675e2e12726adE },
    Symbol { offset: 5573e5a291e0, size: 3, name: _ZN4core5error5Error6source17ha227676e6abb7f51E },
    Symbol { offset: 5573e5a291f0, size: 3, name: _ZN4core5error5Error6source17hc8d6fb532f6f1107E },
    Symbol { offset: 5573e5a29200, size: 1, name: _ZN4core5error5Error7provide17h86a2f1496481e454E },
    Symbol { offset: 5573e5a29210, size: 1, name: _ZN4core5error5Error7provide17heacfda381547f156E },
    Symbol { offset: 5573e5a29220, size: 1, name: _ZN4core5error5Error7provide17hf97a8cda3becf2efE },
    Symbol { offset: 5573e5a29230, size: 15, name: _ZN53_$LT$core..fmt..Error$u20$as$u20$core..fmt..Debug$GT$3fmt17h6736176c8e29474eE },
    Symbol { offset: 5573e5a29250, size: 123, name: _ZN58_$LT$alloc..string..String$u20$as$u20$core..fmt..Write$GT$10write_char17h13db4e3872bba170E },
    Symbol { offset: 5573e5a29380, size: 67, name: _ZN58_$LT$alloc..string..String$u20$as$u20$core..fmt..Write$GT$9write_str17h3471f8bf4fd2c6acE },
    Symbol { offset: 5573e5a29410, size: 43, name: _ZN68_$LT$core..num..error..ParseIntError$u20$as$u20$core..fmt..Debug$GT$3fmt17h9d974530281c97f3E },
    Symbol { offset: 5573e5a29460, size: 1d, name: _ZN70_$LT$core..num..error..ParseIntError$u20$as$u20$core..error..Error$GT$11description17hf7118da03d3f31b7E },
    Symbol { offset: 5573e5a29480, size: 29, name: _ZN70_$LT$core..num..error..TryFromIntError$u20$as$u20$core..fmt..Debug$GT$3fmt17h1ec19825d3f66aafE },
    Symbol { offset: 5573e5a294b0, size: d, name: _ZN72_$LT$core..num..error..TryFromIntError$u20$as$u20$core..error..Error$GT$11description17h5edb59429c92c0edE },
    Symbol { offset: 5573e5a2a730, size: 2c6, name: _ZN75_$LT$F$u20$as$u20$clap_builder..builder..value_parser..TypedValueParser$GT$9parse_ref17hc73cb832b0c79752E },
    Symbol { offset: 5573e5a2a450, size: 2d5, name: _ZN75_$LT$F$u20$as$u20$clap_builder..builder..value_parser..TypedValueParser$GT$9parse_ref17h55f902befca2b919E },
    Symbol { offset: 5573e5b08670, size: 40, name: anon.b9956d8b1f95d519a12f9b5cf00aadc2.39.llvm.13917513867724119710 },
    Symbol { offset: 5573e5b086f0, size: 40, name: anon.b9956d8b1f95d519a12f9b5cf00aadc2.41.llvm.13917513867724119710 },
    Symbol { offset: 5573e5b087f0, size: 40, name: anon.b9956d8b1f95d519a12f9b5cf00aadc2.45.llvm.13917513867724119710 },
    Symbol { offset: 5573e5b087b0, size: 40, name: anon.b9956d8b1f95d519a12f9b5cf00aadc2.44.llvm.13917513867724119710 },
    Symbol { offset: 5573e5b08770, size: 40, name: anon.b9956d8b1f95d519a12f9b5cf00aadc2.43.llvm.13917513867724119710 },
    Symbol { offset: 5573e5b086b0, size: 40, name: anon.b9956d8b1f95d519a12f9b5cf00aadc2.40.llvm.13917513867724119710 },
    Symbol { offset: 5573e5a294c0, size: b3, name: _ZN73_$LT$P$u20$as$u20$clap_builder..builder..value_parser..AnyValueParser$GT$10parse_ref_17h012202872504748fE.llvm.13917513867724119710 },
    Symbol { offset: 5573e5a29580, size: b3, name: _ZN73_$LT$P$u20$as$u20$clap_builder..builder..value_parser..AnyValueParser$GT$10parse_ref_17h0f5529c37698f381E.llvm.13917513867724119710 },
    Symbol { offset: 5573e5a29640, size: b2, name: _ZN73_$LT$P$u20$as$u20$clap_builder..builder..value_parser..AnyValueParser$GT$10parse_ref_17h0f98ad8b23f3f980E },
    Symbol { offset: 5573e5a29700, size: a6, name: _ZN73_$LT$P$u20$as$u20$clap_builder..builder..value_parser..AnyValueParser$GT$10parse_ref_17h4f78a8f0a43170c4E.llvm.13917513867724119710 },
    Symbol { offset: 5573e5a297b0, size: b3, name: _ZN73_$LT$P$u20$as$u20$clap_builder..builder..value_parser..AnyValueParser$GT$10parse_ref_17hb145b976c5f03b50E.llvm.13917513867724119710 },
    Symbol { offset: 5573e5a29870, size: a5, name: _ZN73_$LT$P$u20$as$u20$clap_builder..builder..value_parser..AnyValueParser$GT$10parse_ref_17hb220d4b20034b667E.llvm.13917513867724119710 },
    Symbol { offset: 5573e5a29920, size: a6, name: _ZN73_$LT$P$u20$as$u20$clap_builder..builder..value_parser..AnyValueParser$GT$10parse_ref_17hdf90261965c6a29bE },
    Symbol { offset: 5573e5a299d0, size: b3, name: _ZN73_$LT$P$u20$as$u20$clap_builder..builder..value_parser..AnyValueParser$GT$10parse_ref_17hfc2371c8307e4982E.llvm.13917513867724119710 },
    Symbol { offset: 5573e5a29a90, size: 4e, name: _ZN73_$LT$P$u20$as$u20$clap_builder..builder..value_parser..AnyValueParser$GT$15possible_values17h0e1a968ca4807543E.llvm.13917513867724119710 },
    Symbol { offset: 5573e5a29ae0, size: 3, name: _ZN73_$LT$P$u20$as$u20$clap_builder..builder..value_parser..AnyValueParser$GT$15possible_values17h16992ba9fdb75dbaE.llvm.13917513867724119710 },
    Symbol { offset: 5573e5a29af0, size: 4e, name: _ZN73_$LT$P$u20$as$u20$clap_builder..builder..value_parser..AnyValueParser$GT$15possible_values17h219e506522b22f6aE.llvm.13917513867724119710 },
    Symbol { offset: 5573e5a29b40, size: 4e, name: _ZN73_$LT$P$u20$as$u20$clap_builder..builder..value_parser..AnyValueParser$GT$15possible_values17h34912f9d7e0416c3E.llvm.13917513867724119710 },
    Symbol { offset: 5573e5a29b90, size: 4e, name: _ZN73_$LT$P$u20$as$u20$clap_builder..builder..value_parser..AnyValueParser$GT$15possible_values17h768c1602e07b3ca6E.llvm.13917513867724119710 },
    Symbol { offset: 5573e5a29be0, size: 15, name: _ZN73_$LT$P$u20$as$u20$clap_builder..builder..value_parser..AnyValueParser$GT$7type_id17h1af9a3d226304424E.llvm.13917513867724119710 },
    Symbol { offset: 5573e5a29c00, size: 15, name: _ZN73_$LT$P$u20$as$u20$clap_builder..builder..value_parser..AnyValueParser$GT$7type_id17h278cf55ce294419eE.llvm.13917513867724119710 },
    Symbol { offset: 5573e5a29c20, size: 15, name: _ZN73_$LT$P$u20$as$u20$clap_builder..builder..value_parser..AnyValueParser$GT$7type_id17h35d95a0acea9022eE },
    Symbol { offset: 5573e5a29c40, size: 15, name: _ZN73_$LT$P$u20$as$u20$clap_builder..builder..value_parser..AnyValueParser$GT$7type_id17h3a7611aa0816bcf7E.llvm.13917513867724119710 },
    Symbol { offset: 5573e5a29c60, size: 15, name: _ZN73_$LT$P$u20$as$u20$clap_builder..builder..value_parser..AnyValueParser$GT$7type_id17h44eeee8b6722ec22E },
    Symbol { offset: 5573e5a29c80, size: 15, name: _ZN73_$LT$P$u20$as$u20$clap_builder..builder..value_parser..AnyValueParser$GT$7type_id17h4742a66116a2ad53E.llvm.13917513867724119710 },
    Symbol { offset: 5573e5a29ca0, size: 15, name: _ZN73_$LT$P$u20$as$u20$clap_builder..builder..value_parser..AnyValueParser$GT$7type_id17hbe7cee4beeadafeaE.llvm.13917513867724119710 },
    Symbol { offset: 5573e5a29cc0, size: 15, name: _ZN73_$LT$P$u20$as$u20$clap_builder..builder..value_parser..AnyValueParser$GT$7type_id17hf70a39f720f50a61E.llvm.13917513867724119710 },
    Symbol { offset: 5573e5a29ce0, size: 3f, name: _ZN73_$LT$P$u20$as$u20$clap_builder..builder..value_parser..AnyValueParser$GT$9clone_any17h0bad47f5f95bac8aE },
    Symbol { offset: 5573e5a29d20, size: d, name: _ZN73_$LT$P$u20$as$u20$clap_builder..builder..value_parser..AnyValueParser$GT$9clone_any17h1e4d601352c37a25E.llvm.13917513867724119710 },
    Symbol { offset: 5573e5a29d30, size: d, name: _ZN73_$LT$P$u20$as$u20$clap_builder..builder..value_parser..AnyValueParser$GT$9clone_any17h553086b22629fad2E.llvm.13917513867724119710 },
    Symbol { offset: 5573e5a29d40, size: d, name: _ZN73_$LT$P$u20$as$u20$clap_builder..builder..value_parser..AnyValueParser$GT$9clone_any17h56443501a713c537E.llvm.13917513867724119710 },
    Symbol { offset: 5573e5a29d50, size: 3f, name: _ZN73_$LT$P$u20$as$u20$clap_builder..builder..value_parser..AnyValueParser$GT$9clone_any17h75b699f5706710d7E },
    Symbol { offset: 5573e5a29d90, size: 68, name: _ZN73_$LT$P$u20$as$u20$clap_builder..builder..value_parser..AnyValueParser$GT$9clone_any17h8809784ea12c248bE.llvm.13917513867724119710 },
    Symbol { offset: 5573e5a29e00, size: 68, name: _ZN73_$LT$P$u20$as$u20$clap_builder..builder..value_parser..AnyValueParser$GT$9clone_any17h917a3b623b5ac09dE.llvm.13917513867724119710 },
    Symbol { offset: 5573e5a29e70, size: d, name: _ZN73_$LT$P$u20$as$u20$clap_builder..builder..value_parser..AnyValueParser$GT$9clone_any17he51f2dc399bcc955E.llvm.13917513867724119710 },
    Symbol { offset: 5573e5a29e80, size: a6, name: _ZN73_$LT$P$u20$as$u20$clap_builder..builder..value_parser..AnyValueParser$GT$9parse_ref17h437c060f1e818b0aE.llvm.13917513867724119710 },
    Symbol { offset: 5573e5a29f30, size: a6, name: _ZN73_$LT$P$u20$as$u20$clap_builder..builder..value_parser..AnyValueParser$GT$9parse_ref17h7f8476a993897590E },
    Symbol { offset: 5573e5a29fe0, size: a5, name: _ZN73_$LT$P$u20$as$u20$clap_builder..builder..value_parser..AnyValueParser$GT$9parse_ref17h93b826d83ea79dc5E.llvm.13917513867724119710 },
    Symbol { offset: 5573e5a2a090, size: b3, name: _ZN73_$LT$P$u20$as$u20$clap_builder..builder..value_parser..AnyValueParser$GT$9parse_ref17hb644166f3768766bE.llvm.13917513867724119710 },
    Symbol { offset: 5573e5a2a150, size: b3, name: _ZN73_$LT$P$u20$as$u20$clap_builder..builder..value_parser..AnyValueParser$GT$9parse_ref17hc1bdf8a528def3e4E.llvm.13917513867724119710 },
    Symbol { offset: 5573e5a2a210, size: b2, name: _ZN73_$LT$P$u20$as$u20$clap_builder..builder..value_parser..AnyValueParser$GT$9parse_ref17hdfb22ec0a594a61dE },
    Symbol { offset: 5573e5a2a2d0, size: b3, name: _ZN73_$LT$P$u20$as$u20$clap_builder..builder..value_parser..AnyValueParser$GT$9parse_ref17hfcf776b9b84aefd4E.llvm.13917513867724119710 },
    Symbol { offset: 5573e5a2a390, size: b3, name: _ZN73_$LT$P$u20$as$u20$clap_builder..builder..value_parser..AnyValueParser$GT$9parse_ref17hfe565e15a387757eE.llvm.13917513867724119710 },
    Symbol { offset: 5573e5a29ae0, size: 3, name: _ZN73_$LT$P$u20$as$u20$clap_builder..builder..value_parser..AnyValueParser$GT$15possible_values17h2a57cb2ac5441bb2E },
    Symbol { offset: 5573e5a29ae0, size: 3, name: _ZN73_$LT$P$u20$as$u20$clap_builder..builder..value_parser..AnyValueParser$GT$15possible_values17ha9367b1e9a369de2E.llvm.13917513867724119710 },
    Symbol { offset: 5573e5a29ae0, size: 3, name: _ZN73_$LT$P$u20$as$u20$clap_builder..builder..value_parser..AnyValueParser$GT$15possible_values17hcfe0c106aba4cd72E },
    Symbol { offset: 5573e5a2ab90, size: 15, name: _ZN53_$LT$core..fmt..Error$u20$as$u20$core..fmt..Debug$GT$3fmt17h6736176c8e29474eE },
    Symbol { offset: 5573e5a2abb0, size: 123, name: _ZN58_$LT$alloc..string..String$u20$as$u20$core..fmt..Write$GT$10write_char17h13db4e3872bba170E },
    Symbol { offset: 5573e5a2ace0, size: 67, name: _ZN58_$LT$alloc..string..String$u20$as$u20$core..fmt..Write$GT$9write_str17h3471f8bf4fd2c6acE },
    Symbol { offset: 5573e5a2ad50, size: 14, name: _ZN60_$LT$alloc..string..String$u20$as$u20$core..fmt..Display$GT$3fmt17h253a895d4ea9e2d1E },
    Symbol { offset: 5573e5b08878, size: 20, name: anon.aae12e408bd817d7d6c813fef2a920ab.2.llvm.796220064362586869 },
    Symbol { offset: 5573e5b08898, size: 18, name: anon.aae12e408bd817d7d6c813fef2a920ab.4.llvm.796220064362586869 },
    Symbol { offset: 5573e5a2aa00, size: 10, name: _ZN4core3fmt5Write9write_fmt17h957bb9424adcebbbE },
    Symbol { offset: 5573e5a2aa10, size: 18, name: _ZN4core3ptr42drop_in_place$LT$alloc..string..String$GT$17had8aae37f168beeeE.llvm.796220064362586869 },
    Symbol { offset: 5573e5a2aa30, size: 135, name: _ZN4core5slice4sort6stable14driftsort_main17h0a5d6a700dc0c926E },
    Symbol { offset: 5573e5a2ab70, size: 14, name: _ZN52_$LT$$RF$mut$u20$T$u20$as$u20$core..fmt..Display$GT$3fmt17hb06647667a6f9cccE },
    Symbol { offset: 5573e5a2ad70, size: 279, name: _ZN89_$LT$alloc..string..String$u20$as$u20$core..iter..traits..collect..Extend$LT$char$GT$$GT$6extend17h6d7d884ccd9aaeb9E },
    Symbol { offset: 5573e5a2aff0, size: ef9, name: _ZN30codspeed_divan_compat_walltime5divan8codspeed24collect_walltime_results17h45c27348e0d1b8dbE },
    Symbol { offset: 5573e5a2bef0, size: 53e, name: _ZN104_$LT$codspeed_divan_compat_walltime..time..fine_duration..FineDuration$u20$as$u20$core..fmt..Display$GT$3fmt17h64712eff0e7131adE },
    Symbol { offset: 5573e5a2d1a0, size: 230, name: _ZN30codspeed_divan_compat_walltime4util3fmt10format_f6417h6f403392ca6c78f8E },
    Symbol { offset: 5573e5a2c430, size: c89, name: _ZN30codspeed_divan_compat_walltime4time9timestamp3tsc4arch9frequency17h974c2dcd7664558eE },
    Symbol { offset: 5573e5a2d0c0, size: d5, name: _ZN30codspeed_divan_compat_walltime4time9timestamp9Timestamp14duration_since17h6a55b26325e296a3E },
    Symbol { offset: 5573e59e819e, size: 28, name: anon.aae12e408bd817d7d6c813fef2a920ab.52.llvm.796220064362586869 },
    Symbol { offset: 5573e5b08a90, size: 18, name: anon.aae12e408bd817d7d6c813fef2a920ab.54.llvm.796220064362586869 },
    Symbol { offset: 5573e5a2d3d0, size: 1bf, name: _ZN30codspeed_divan_compat_walltime4util3fmt12format_bytes17h89d024201e4969afE },
    Symbol { offset: 5573e59e8200, size: 60, name: anon.aae12e408bd817d7d6c813fef2a920ab.55.llvm.796220064362586869 },
    Symbol { offset: 5573e5b08aa8, size: c0, name: anon.aae12e408bd817d7d6c813fef2a920ab.67.llvm.796220064362586869 },
    Symbol { offset: 5573e5a2d590, size: 305, name: _ZN99_$LT$codspeed_divan_compat_walltime..util..fmt..DisplayThroughput$u20$as$u20$core..fmt..Display$GT$3fmt17h45a8f49fb831239dE },
    Symbol { offset: 5573e59e7e04, size: 2b, name: anon.aae12e408bd817d7d6c813fef2a920ab.0.llvm.796220064362586869 },
    Symbol { offset: 5573e59e7e2f, size: 3, name: anon.aae12e408bd817d7d6c813fef2a920ab.1.llvm.796220064362586869 },
    Symbol { offset: 5573e59e7e32, size: 6f, name: anon.aae12e408bd817d7d6c813fef2a920ab.3.llvm.796220064362586869 },
    Symbol { offset: 5573e59e7ed8, size: 74, name: anon.aae12e408bd817d7d6c813fef2a920ab.7.llvm.796220064362586869 },
    Symbol { offset: 5573e59e81c6, size: 38, name: anon.aae12e408bd817d7d6c813fef2a920ab.53.llvm.796220064362586869 },
    Symbol { offset: 5573e59e8260, size: 1, name: anon.aae12e408bd817d7d6c813fef2a920ab.56.llvm.796220064362586869 },
    Symbol { offset: 5573e59e8261, size: 2, name: anon.aae12e408bd817d7d6c813fef2a920ab.57.llvm.796220064362586869 },
    Symbol { offset: 5573e59e8263, size: 2, name: anon.aae12e408bd817d7d6c813fef2a920ab.58.llvm.796220064362586869 },
    Symbol { offset: 5573e59e8265, size: 2, name: anon.aae12e408bd817d7d6c813fef2a920ab.59.llvm.796220064362586869 },
    Symbol { offset: 5573e59e8267, size: 2, name: anon.aae12e408bd817d7d6c813fef2a920ab.60.llvm.796220064362586869 },
    Symbol { offset: 5573e59e8269, size: 2, name: anon.aae12e408bd817d7d6c813fef2a920ab.61.llvm.796220064362586869 },
    Symbol { offset: 5573e59e826b, size: 3, name: anon.aae12e408bd817d7d6c813fef2a920ab.62.llvm.796220064362586869 },
    Symbol { offset: 5573e59e826e, size: 3, name: anon.aae12e408bd817d7d6c813fef2a920ab.63.llvm.796220064362586869 },
    Symbol { offset: 5573e59e8271, size: 3, name: anon.aae12e408bd817d7d6c813fef2a920ab.64.llvm.796220064362586869 },
    Symbol { offset: 5573e59e8274, size: 3, name: anon.aae12e408bd817d7d6c813fef2a920ab.65.llvm.796220064362586869 },
    Symbol { offset: 5573e59e8277, size: 3, name: anon.aae12e408bd817d7d6c813fef2a920ab.66.llvm.796220064362586869 },
    Symbol { offset: 5573e5a2d8a0, size: 35, name: _ZN3std4sync6poison4once4Once15call_once_force28_$u7b$$u7b$closure$u7d$$u7d$17h2fb532aeb338ccf9E.llvm.4236931547655910005 },
    Symbol { offset: 5573e5a2d8e0, size: 35, name: _ZN3std4sync6poison4once4Once15call_once_force28_$u7b$$u7b$closure$u7d$$u7d$17h4d011cdce56d07ecE.llvm.4236931547655910005 },
    Symbol { offset: 5573e5a2d920, size: c8, name: _ZN3std4sync6poison4once4Once15call_once_force28_$u7b$$u7b$closure$u7d$$u7d$17hd474b2a45730c8b3E.llvm.4236931547655910005 },
    Symbol { offset: 5573e5a2dacc, size: 4a, name: _ZN3std4sync9once_lock17OnceLock$LT$T$GT$10initialize17h542fe2f4b1d95f10E },
    Symbol { offset: 5573e5a2d9f0, size: dc, name: _ZN3std4sync6poison4once4Once15call_once_force28_$u7b$$u7b$closure$u7d$$u7d$17hf909f5e40b7745b1E.llvm.4236931547655910005 },
    Symbol { offset: 5573e5b08dd8, size: 28, name: anon.ac9fc42190a8f4df9e5a25e92a3cda19.5.llvm.4236931547655910005 },
    Symbol { offset: 5573e5b08d70, size: 18, name: anon.ac9fc42190a8f4df9e5a25e92a3cda19.2.llvm.4236931547655910005 },
    Symbol { offset: 5573e5a2db16, size: 4a, name: _ZN3std4sync9once_lock17OnceLock$LT$T$GT$10initialize17h6534aea00570cef2E },
    Symbol { offset: 5573e5b08d88, size: 28, name: anon.ac9fc42190a8f4df9e5a25e92a3cda19.3.llvm.4236931547655910005 },
    Symbol { offset: 5573e5a2db60, size: 4a, name: _ZN3std4sync9once_lock17OnceLock$LT$T$GT$10initialize17ha0b34c012f985ad7E },
    Symbol { offset: 5573e5b08db0, size: 28, name: anon.ac9fc42190a8f4df9e5a25e92a3cda19.4.llvm.4236931547655910005 },
    Symbol { offset: 5573e5a2dbaa, size: 4a, name: _ZN3std4sync9once_lock17OnceLock$LT$T$GT$10initialize17heccf5ca0225c8c3fE },
    Symbol { offset: 5573e5b08d48, size: 28, name: anon.ac9fc42190a8f4df9e5a25e92a3cda19.0.llvm.4236931547655910005 },
    Symbol { offset: 5573e5a2dc00, size: 35, name: _ZN4core3ops8function6FnOnce40call_once$u7b$$u7b$vtable.shim$u7d$$u7d$17h546d5c7e95cd2c74E.llvm.4236931547655910005 },
    Symbol { offset: 5573e5a2dc40, size: c8, name: _ZN4core3ops8function6FnOnce40call_once$u7b$$u7b$vtable.shim$u7d$$u7d$17h919d437ec3a784f4E.llvm.4236931547655910005 },
    Symbol { offset: 5573e5a2dd10, size: 35, name: _ZN4core3ops8function6FnOnce40call_once$u7b$$u7b$vtable.shim$u7d$$u7d$17hc4e011f843e214c0E.llvm.4236931547655910005 },
    Symbol { offset: 5573e5a2dd50, size: dc, name: _ZN4core3ops8function6FnOnce40call_once$u7b$$u7b$vtable.shim$u7d$$u7d$17hcad9b03b8455c2b4E.llvm.4236931547655910005 },
    Symbol { offset: 5573e5a2de30, size: 634, name: _ZN4core5slice4sort6stable5drift4sort17hedb4be47337657d9E },
    Symbol { offset: 5573e5a2e470, size: 13b, name: _ZN4core5slice4sort8unstable7ipnsort17h0f8ae3b69586cc02E },
    Symbol { offset: 5573e5a2e5b0, size: 1a0, name: _ZN4core5slice4sort8unstable7ipnsort17h49d68e02f0dbc181E },
    Symbol { offset: 5573e5a2e750, size: 1ae, name: _ZN4core5slice4sort8unstable7ipnsort17h62c8a2acc7188544E },
    Symbol { offset: 5573e5a2e900, size: 13b, name: _ZN4core5slice4sort8unstable7ipnsort17he5e42b985a9242feE },
    Symbol { offset: 5573e5a2ea40, size: 97, name: _ZN4core5slice4sort8unstable8heapsort8heapsort17h366f69ae4b507b24E },
    Symbol { offset: 5573e5a2eae0, size: 97, name: _ZN4core5slice4sort8unstable8heapsort8heapsort17h3cc86d97caffa2a2E },
    Symbol { offset: 5573e5a2eb80, size: 1f7, name: _ZN4core5slice4sort8unstable8heapsort8heapsort17ha65303770ca6f036E },
    Symbol { offset: 5573e5a2ed80, size: b0, name: _ZN4core5slice4sort8unstable8heapsort8heapsort17he3d726b34a9c5d9cE },
    Symbol { offset: 5573e59e8350, size: 7c, name: anon.ac9fc42190a8f4df9e5a25e92a3cda19.1.llvm.4236931547655910005 },
    Symbol { offset: 5573e5a2eeb0, size: 99, name: _ZN4core3ptr110drop_in_place$LT$codspeed_divan_compat_walltime..tree_painter..TreeColumnData$LT$alloc..string..String$GT$$GT$17h0e31aac5aaad742bE },
    Symbol { offset: 5573e5a2ef50, size: 2b5, name: _ZN4core3ptr131drop_in_place$LT$$u5b$codspeed_divan_compat_walltime..tree_painter..TreeColumnData$LT$alloc..string..String$GT$$u3b$$u20$4$u5d$$GT$17h1a6b5a4e126711aaE },
    Symbol { offset: 5573e5a2f210, size: 156, name: _ZN4core3ptr148drop_in_place$LT$core..option..Option$LT$codspeed_divan_compat_walltime..alloc..AllocTally$LT$$u5b$alloc..string..String$u3b$$u20$6$u5d$$GT$$GT$$GT$17he98ce22928e17b6dE },
    Symbol { offset: 5573e5a2f370, size: 31, name: _ZN4core3ptr169drop_in_place$LT$$u5b$core..option..Option$LT$codspeed_divan_compat_walltime..alloc..AllocTally$LT$$u5b$alloc..string..String$u3b$$u20$6$u5d$$GT$$GT$$u3b$$u20$4$u5d$$GT$17h5f5a3fa8f5daa23eE },
    Symbol { offset: 5573e5a2f9f0, size: 120, name: _ZN4core3ptr59drop_in_place$LT$clap_builder..builder..ext..Extensions$GT$17h86bd79b501f062c2E },
    Symbol { offset: 5573e5a2fb10, size: a2, name: _ZN4core3ptr91drop_in_place$LT$core..option..Option$LT$$u5b$alloc..string..String$u3b$$u20$6$u5d$$GT$$GT$17he19e8a9515184491E },
    Symbol { offset: 5573e59fd3e0, size: 10, name: .Lanon.3cd25a55fa6b0d807305603ed552f6a1.14 },
    Symbol { offset: 5573e59fdb20, size: 20, name: .Lswitch.table._ZN30codspeed_divan_compat_walltime12tree_painter11TreePainter11finish_leaf17h7aa172e73e9a1d38E.90 },
    Symbol { offset: 5573e59fdd98, size: 8, name: .Lanon.3cd25a55fa6b0d807305603ed552f6a1.19 },
    Symbol { offset: 5573e5a2ee30, size: 77, name: _ZN129_$LT$$u5b$core..mem..maybe_uninit..MaybeUninit$LT$T$GT$$u3b$$u20$N$u5d$$u20$as$u20$core..array..iter..iter_inner..PartialDrop$GT$12partial_drop17h202fa4566da28597E },
    Symbol { offset: 5573e5a2f3b0, size: 632, name: _ZN4core3ptr52drop_in_place$LT$clap_builder..builder..arg..Arg$GT$17h7da3c8b9ba56d952E.llvm.6753077368261831316 },
    Symbol { offset: 5573e5a2fbc0, size: 434, name: _ZN30codspeed_divan_compat_walltime12tree_painter11TreePainter12start_parent17h02b47d65c2000cf5E },
    Symbol { offset: 5573e59e84ec, size: 7, name: anon.3cd25a55fa6b0d807305603ed552f6a1.8.llvm.6753077368261831316 },
    Symbol { offset: 5573e59e84e5, size: 7, name: anon.3cd25a55fa6b0d807305603ed552f6a1.7.llvm.6753077368261831316 },
    Symbol { offset: 5573e5a32660, size: 1e8, name: _ZN30codspeed_divan_compat_walltime12tree_painter29TreeColumnData$LT$$RF$str$GT$5write17hbd765e78a20ae4e2E.llvm.6753077368261831316 },
    Symbol { offset: 5573e5b08e48, size: 20, name: anon.3cd25a55fa6b0d807305603ed552f6a1.6.llvm.6753077368261831316 },
    Symbol { offset: 5573e5a30000, size: 1c5, name: _ZN30codspeed_divan_compat_walltime12tree_painter11TreePainter13finish_parent17hbbde4512bbafa3bdE },
    Symbol { offset: 5573e5b08e68, size: 10, name: anon.3cd25a55fa6b0d807305603ed552f6a1.12.llvm.6753077368261831316 },
    Symbol { offset: 5573e5a301d0, size: 373, name: _ZN30codspeed_divan_compat_walltime12tree_painter11TreePainter11ignore_leaf17hffa08782d5ce15c1E },
    Symbol { offset: 5573e59e8560, size: 9, name: anon.3cd25a55fa6b0d807305603ed552f6a1.13.llvm.6753077368261831316 },
    Symbol { offset: 5573e5a30550, size: 315, name: _ZN30codspeed_divan_compat_walltime12tree_painter11TreePainter10start_leaf17hf012d768b50f0037E },
    Symbol { offset: 5573e5a30870, size: 1dee, name: _ZN30codspeed_divan_compat_walltime12tree_painter11TreePainter11finish_leaf17h7aa172e73e9a1d38E },
    Symbol { offset: 5573e59e8585, size: 5, name: anon.3cd25a55fa6b0d807305603ed552f6a1.20.llvm.6753077368261831316 },
    Symbol { offset: 5573e5a32850, size: 35a, name: _ZN30codspeed_divan_compat_walltime4util4sort11natural_cmp17hf5964027ce2d53ceE },
    Symbol { offset: 5573e59e8440, size: 74, name: anon.3cd25a55fa6b0d807305603ed552f6a1.0.llvm.6753077368261831316 },
    Symbol { offset: 5573e59e84e4, size: 1, name: anon.3cd25a55fa6b0d807305603ed552f6a1.5.llvm.6753077368261831316 },
    Symbol { offset: 5573e5a34280, size: 88, name: _ZN3std4sync4mpmc7context7Context4with28_$u7b$$u7b$closure$u7d$$u7d$17h6df3bd7ed87ff24bE },
    Symbol { offset: 5573e5a33150, size: 1af, name: _ZN3std4sync4mpmc5array16Channel$LT$T$GT$4recv28_$u7b$$u7b$closure$u7d$$u7d$17hf7ec03c6a0ad8de7E },
    Symbol { offset: 5573e5a33e40, size: 26a, name: _ZN3std4sync4mpmc5waker9SyncWaker6notify17hccc9fe8637f23689E },
    Symbol { offset: 5573e5a340b0, size: 1c3, name: _ZN3std4sync4mpmc5waker9SyncWaker8register17ha2fec73c1258216eE },
    Symbol { offset: 5573e5a33c40, size: 1f7, name: _ZN3std4sync4mpmc5waker9SyncWaker10unregister17h049f5b90545b1886E },
    Symbol { offset: 5573e5a34310, size: 88, name: _ZN3std4sync4mpmc7context7Context4with28_$u7b$$u7b$closure$u7d$$u7d$17habaf1e5836491b86E },
    Symbol { offset: 5573e5a33790, size: 1bf, name: _ZN3std4sync4mpmc5array16Channel$LT$T$GT$4send28_$u7b$$u7b$closure$u7d$$u7d$17hfbee77492e7a1b42E },
    Symbol { offset: 5573e5a33950, size: 119, name: _ZN3std4sync4mpmc5waker5Waker6notify17h04b09af56c602e4aE },
    Symbol { offset: 5573e5a350b0, size: 41, name: _ZN4core3ptr94drop_in_place$LT$std..sync..poison..mutex..MutexGuard$LT$std..sync..mpmc..waker..Waker$GT$$GT$17h8d1b3d3b4b1fbc33E },
    Symbol { offset: 5573e5a34c40, size: 41, name: _ZN4core3ptr132drop_in_place$LT$std..sync..poison..PoisonError$LT$std..sync..poison..mutex..MutexGuard$LT$std..sync..mpmc..waker..Waker$GT$$GT$$GT$17hc5afc23ba9a70f84E },
    Symbol { offset: 5573e5a34db0, size: b1, name: _ZN4core3ptr215drop_in_place$LT$std..thread..Builder..spawn_unchecked_$LT$codspeed_divan_compat_walltime..thread_pool..spawn..$u7b$$u7b$closure$u7d$$u7d$..$u7b$$u7b$closure$u7d$$u7d$$C$$LP$$RP$$GT$..$u7b$$u7b$closure$u7d$$u7d$$GT$17hb983084e39d4eec1E },
    Symbol { offset: 5573e5a34fe0, size: c7, name: _ZN4core3ptr85drop_in_place$LT$alloc..sync..ArcInner$LT$std..thread..Packet$LT$$LP$$RP$$GT$$GT$$GT$17h8d847c953d3cedd2E },
    Symbol { offset: 5573e5a34e70, size: bb, name: _ZN4core3ptr60drop_in_place$LT$std..thread..spawnhook..ChildSpawnHooks$GT$17h9473032e22755f3aE },
    Symbol { offset: 5573e5a348f0, size: 285, name: _ZN4core3ops8function6FnOnce40call_once$u7b$$u7b$vtable.shim$u7d$$u7d$17h8c8ec3c2a535b9dcE },
    Symbol { offset: 5573e5a34ce0, size: 5c, name: _ZN4core3ptr177drop_in_place$LT$alloc..vec..Vec$LT$alloc..boxed..Box$LT$dyn$u20$core..ops..function..FnOnce$LT$$LP$$RP$$GT$$u2b$Output$u20$$u3d$$u20$$LP$$RP$$u2b$core..marker..Send$GT$$GT$$GT$17ha5d1a275fc9da8c5E },
    Symbol { offset: 5573e5a34d40, size: 67, name: _ZN4core3ptr188drop_in_place$LT$core..cell..UnsafeCell$LT$core..option..Option$LT$core..result..Result$LT$$LP$$RP$$C$alloc..boxed..Box$LT$dyn$u20$core..any..Any$u2b$core..marker..Send$GT$$GT$$GT$$GT$$GT$17h7c80591bad9b1286E },
    Symbol { offset: 5573e5b08e78, size: 18, name: anon.2a954cbb7212928faa0cbfe7c60790f6.1.llvm.12017845161353956654 },
    Symbol { offset: 5573e5a33a70, size: 1cc, name: _ZN3std4sync4mpmc5waker9SyncWaker10disconnect17hc955f8edf38f9f84E.llvm.12017845161353956654 },
    Symbol { offset: 5573e5a32bb0, size: 15a, name: _ZN3std4sync4mpmc5array16Channel$LT$T$GT$20disconnect_receivers17h2c073b42c92ab2afE },
    Symbol { offset: 5573e5a32d10, size: 432, name: _ZN3std4sync4mpmc5array16Channel$LT$T$GT$4recv17h88ca80f70fab66dbE },
    Symbol { offset: 5573e5a33300, size: 486, name: _ZN3std4sync4mpmc5array16Channel$LT$T$GT$4send17h455f2fe097d0fe38E },
    Symbol { offset: 5573e5a343a0, size: 547, name: _ZN3std6thread7Builder15spawn_unchecked17hc50a65dfe723f482E },
    Symbol { offset: 5573e5a34f30, size: a4, name: _ZN4core3ptr81drop_in_place$LT$core..result..Result$LT$$LP$$RP$$C$std..io..error..Error$GT$$GT$17h90eaf99e308c49bcE.llvm.12017845161353956654 },
    Symbol { offset: 5573e5a34b80, size: 5c, name: _ZN4core3ptr128drop_in_place$LT$alloc..vec..Vec$LT$std..sync..mpsc..SyncSender$LT$codspeed_divan_compat_walltime..thread_pool..Task$GT$$GT$$GT$17h51abfe31603ecbacE.llvm.12017845161353956654 },
    Symbol { offset: 5573e5a34be0, size: 5f, name: _ZN4core3ptr130drop_in_place$LT$core..result..Result$LT$$LP$$RP$$C$alloc..boxed..Box$LT$dyn$u20$core..any..Any$u2b$core..marker..Send$GT$$GT$$GT$17hfde1b81ddf5bf85aE.llvm.12017845161353956654 },
    Symbol { offset: 5573e5a34c90, size: 41, name: _ZN4core3ptr172drop_in_place$LT$std..sync..poison..mutex..MutexGuard$LT$alloc..vec..Vec$LT$std..sync..mpsc..SyncSender$LT$codspeed_divan_compat_walltime..thread_pool..Task$GT$$GT$$GT$$GT$17hb1e924acc18a89acE.llvm.12017845161353956654 },
    Symbol { offset: 5573e5a35100, size: 126, name: _ZN70_$LT$std..thread..Packet$LT$T$GT$$u20$as$u20$core..ops..drop..Drop$GT$4drop17h276bf6076458cd26E },
    Symbol { offset: 5573e5b09020, size: 10, name: anon.2a954cbb7212928faa0cbfe7c60790f6.30.llvm.12017845161353956654 },
    Symbol { offset: 5573e5a35230, size: 245, name: _ZN30codspeed_divan_compat_walltime11thread_pool10ThreadPool14broadcast_task17h82a807e01f3c427cE },
    Symbol { offset: 5573e5a35480, size: 147, name: _ZN30codspeed_divan_compat_walltime11thread_pool10ThreadPool12drop_threads17hf8a1345fb0128ef2E },
    Symbol { offset: 5573e59e859c, size: 70, name: anon.2a954cbb7212928faa0cbfe7c60790f6.0.llvm.12017845161353956654 },
    Symbol { offset: 5573e59e8634, size: 7b, name: anon.2a954cbb7212928faa0cbfe7c60790f6.5.llvm.12017845161353956654 },
    Symbol { offset: 5573e59e881f, size: 3e, name: anon.2a954cbb7212928faa0cbfe7c60790f6.29.llvm.12017845161353956654 },
    Symbol { offset: 5573e5b149a8, size: 20, name: _ZN30codspeed_divan_compat_walltime11thread_pool10BENCH_POOL17hb18d6175d01ae882E },
    Symbol { offset: 5573e5a37660, size: a7, name: _ZN4core3ptr42drop_in_place$LT$std..io..error..Error$GT$17h42f668efdc005a6dE },
    Symbol { offset: 5573e5a355d0, size: 1a7, name: _ZN102_$LT$core..iter..adapters..map..Map$LT$I$C$F$GT$$u20$as$u20$core..iter..traits..iterator..Iterator$GT$4fold17h23048f9976e4e6b9E },
    Symbol { offset: 5573e5a35780, size: 3da, name: _ZN102_$LT$core..iter..adapters..map..Map$LT$I$C$F$GT$$u20$as$u20$core..iter..traits..iterator..Iterator$GT$4fold17h83095d19442b221bE },
    Symbol { offset: 5573e5a35b60, size: 21e, name: _ZN102_$LT$core..iter..adapters..map..Map$LT$I$C$F$GT$$u20$as$u20$core..iter..traits..iterator..Iterator$GT$4fold17hb66e34b293e40efaE },
    Symbol { offset: 5573e5a35d80, size: 167, name: _ZN102_$LT$core..iter..adapters..map..Map$LT$I$C$F$GT$$u20$as$u20$core..iter..traits..iterator..Iterator$GT$4fold17hbb49b4233e3fc99fE },
    Symbol { offset: 5573e5b090c0, size: 18, name: anon.ea5e3c658413e25a6567acdc0e0c315e.5.llvm.16612386573358265485 },
    Symbol { offset: 5573e5a35ef0, size: 12f, name: _ZN121_$LT$core..iter..adapters..map..Map$LT$I$C$F$GT$$u20$as$u20$core..iter..traits..unchecked_iterator..UncheckedIterator$GT$14next_unchecked17h30423bc7d70a6117E },
    Symbol { offset: 5573e5a37970, size: 14, name: _ZN60_$LT$alloc..string..String$u20$as$u20$core..fmt..Display$GT$3fmt17h253a895d4ea9e2d1E.llvm.16612386573358265485 },
    Symbol { offset: 5573e59fdc00, size: 20, name: anon.ea5e3c658413e25a6567acdc0e0c315e.18.llvm.16612386573358265485 },
    Symbol { offset: 5573e5a36020, size: 170, name: _ZN121_$LT$core..iter..adapters..map..Map$LT$I$C$F$GT$$u20$as$u20$core..iter..traits..unchecked_iterator..UncheckedIterator$GT$14next_unchecked17h5d4a0c5b67b41143E },
    Symbol { offset: 5573e59e8a85, size: 2, name: anon.ea5e3c658413e25a6567acdc0e0c315e.19.llvm.16612386573358265485 },
    Symbol { offset: 5573e5a36190, size: 999, name: _ZN121_$LT$core..iter..adapters..map..Map$LT$I$C$F$GT$$u20$as$u20$core..iter..traits..unchecked_iterator..UncheckedIterator$GT$14next_unchecked17h6c7082d9ef4147aeE },
    Symbol { offset: 5573e5a36b30, size: 20f, name: _ZN121_$LT$core..iter..adapters..map..Map$LT$I$C$F$GT$$u20$as$u20$core..iter..traits..unchecked_iterator..UncheckedIterator$GT$14next_unchecked17ha1ae048f9e9be20aE },
    Symbol { offset: 5573e5a37710, size: 99, name: _ZN4core3ptr63drop_in_place$LT$$u5b$alloc..string..String$u3b$$u20$6$u5d$$GT$17h2a9198002afc92a9E.llvm.16612386573358265485 },
    Symbol { offset: 5573e5a36d40, size: 169, name: _ZN121_$LT$core..iter..adapters..map..Map$LT$I$C$F$GT$$u20$as$u20$core..iter..traits..unchecked_iterator..UncheckedIterator$GT$14next_unchecked17ha45611e2f7bf08a8E },
    Symbol { offset: 5573e5a36eb0, size: 170, name: _ZN121_$LT$core..iter..adapters..map..Map$LT$I$C$F$GT$$u20$as$u20$core..iter..traits..unchecked_iterator..UncheckedIterator$GT$14next_unchecked17ha927669c992c58b9E },
    Symbol { offset: 5573e5b09078, size: 30, name: anon.ea5e3c658413e25a6567acdc0e0c315e.0.llvm.16612386573358265485 },
    Symbol { offset: 5573e59e88d8, size: 37, name: anon.ea5e3c658413e25a6567acdc0e0c315e.1.llvm.16612386573358265485 },
    Symbol { offset: 5573e5b090d8, size: 20, name: anon.ea5e3c658413e25a6567acdc0e0c315e.6.llvm.16612386573358265485 },
    Symbol { offset: 5573e5b090a8, size: 18, name: anon.ea5e3c658413e25a6567acdc0e0c315e.3.llvm.16612386573358265485 },
    Symbol { offset: 5573e5a37020, size: 285, name: _ZN121_$LT$core..iter..adapters..map..Map$LT$I$C$F$GT$$u20$as$u20$core..iter..traits..unchecked_iterator..UncheckedIterator$GT$14next_unchecked17he9159c4e50977bc1E },
    Symbol { offset: 5573e5a372b0, size: 128, name: _ZN121_$LT$core..iter..adapters..map..Map$LT$I$C$F$GT$$u20$as$u20$core..iter..traits..unchecked_iterator..UncheckedIterator$GT$14next_unchecked17hfaff4f58cb121501E },
    Symbol { offset: 5573e5a373e0, size: 15, name: _ZN36_$LT$T$u20$as$u20$core..any..Any$GT$7type_id17h1ccbb96803260058E },
    Symbol { offset: 5573e5a37400, size: be, name: _ZN45_$LT$T$u20$as$u20$alloc..string..ToString$GT$9to_string17h398da8115d70934cE.llvm.16612386573358265485 },
    Symbol { offset: 5573e5a374c0, size: be, name: _ZN45_$LT$T$u20$as$u20$alloc..string..ToString$GT$9to_string17hfd7130ba5d955024E.llvm.16612386573358265485 },
    Symbol { offset: 5573e5a37580, size: be, name: _ZN45_$LT$T$u20$as$u20$alloc..string..ToString$GT$9to_string17hfe32ecf28449036fE.llvm.16612386573358265485 },
    Symbol { offset: 5573e5a37640, size: 18, name: _ZN4core3ptr42drop_in_place$LT$alloc..string..String$GT$17had8aae37f168beeeE.llvm.16612386573358265485 },
    Symbol { offset: 5573e5a377b0, size: 15, name: _ZN53_$LT$core..fmt..Error$u20$as$u20$core..fmt..Debug$GT$3fmt17h6736176c8e29474eE.llvm.16612386573358265485 },
    Symbol { offset: 5573e5a377d0, size: 123, name: _ZN58_$LT$alloc..string..String$u20$as$u20$core..fmt..Write$GT$10write_char17h13db4e3872bba170E.llvm.16612386573358265485 },
    Symbol { offset: 5573e5a37900, size: 67, name: _ZN58_$LT$alloc..string..String$u20$as$u20$core..fmt..Write$GT$9write_str17h3471f8bf4fd2c6acE.llvm.16612386573358265485 },
    Symbol { offset: 5573e59e890f, size: 74, name: anon.ea5e3c658413e25a6567acdc0e0c315e.2.llvm.16612386573358265485 },
    Symbol { offset: 5573e59e8983, size: 81, name: anon.ea5e3c658413e25a6567acdc0e0c315e.4.llvm.16612386573358265485 },
    Symbol { offset: 5573e5b09158, size: 20, name: anon.ea5e3c658413e25a6567acdc0e0c315e.20.llvm.16612386573358265485 },
    Symbol { offset: 5573e5b09178, size: 20, name: anon.ea5e3c658413e25a6567acdc0e0c315e.21.llvm.16612386573358265485 },
    Symbol { offset: 5573e5b09198, size: 20, name: anon.ea5e3c658413e25a6567acdc0e0c315e.22.llvm.16612386573358265485 },
    Symbol { offset: 5573e59e8a87, size: 7, name: anon.ea5e3c658413e25a6567acdc0e0c315e.23.llvm.16612386573358265485 },
    Symbol { offset: 5573e59e8a8e, size: 7, name: anon.ea5e3c658413e25a6567acdc0e0c315e.24.llvm.16612386573358265485 },
    Symbol { offset: 5573e59e8a95, size: 6, name: anon.ea5e3c658413e25a6567acdc0e0c315e.25.llvm.16612386573358265485 },
    Symbol { offset: 5573e59fdc7c, size: 4, name: anon.ea5e3c658413e25a6567acdc0e0c315e.26.llvm.16612386573358265485 },
    Symbol { offset: 5573e59e8a9b, size: 7, name: anon.ea5e3c658413e25a6567acdc0e0c315e.27.llvm.16612386573358265485 },
    Symbol { offset: 5573e59e8aa2, size: 5, name: anon.ea5e3c658413e25a6567acdc0e0c315e.28.llvm.16612386573358265485 },
    Symbol { offset: 5573e5b091b8, size: 18, name: anon.5bb12f9ba41933e13aa9188fdacf2f54.1.llvm.4126757307038893709 },
    Symbol { offset: 5573e5a37990, size: 3, name: _ZN4core5error5Error5cause17ha57ca248b0291976E },
    Symbol { offset: 5573e5a379a0, size: 15, name: _ZN4core5error5Error7type_id17h02e2149854f863b8E },
    Symbol { offset: 5573e5a379c0, size: 1c4, name: _ZN4core5slice4sort6stable5merge5merge17hc2068f6cbede3df5E },
    Symbol { offset: 5573e5a37b90, size: 8b8, name: _ZN4core5slice4sort6stable9quicksort9quicksort17h1b2d02ac79637d97E },
    Symbol { offset: 5573e5a38450, size: 7b5, name: _ZN4core5slice4sort8unstable9quicksort9quicksort17he8fe85e38d5e86e7E },
    Symbol { offset: 5573e5a38c10, size: 31e, name: _ZN4core5slice4sort8unstable9quicksort9quicksort17hed53db76a94f8475E },
    Symbol { offset: 5573e5a38f30, size: 31e, name: _ZN4core5slice4sort8unstable9quicksort9quicksort17hf06e76d3283767b4E },
    Symbol { offset: 5573e5a39250, size: 3b4, name: _ZN4core5slice4sort8unstable9quicksort9quicksort17hf7380ec01453eb15E },
    Symbol { offset: 5573e5a39610, size: 487, name: _ZN5alloc3str17join_generic_copy17h7fcbc1253a27d400E },
    Symbol { offset: 5573e5a39aa0, size: 2c, name: _ZN72_$LT$std..sync..mpsc..SendError$LT$T$GT$$u20$as$u20$core..fmt..Debug$GT$3fmt17h52553713548e9c75E },
    Symbol { offset: 5573e5a39ad0, size: 626, name: _ZN30codspeed_divan_compat_walltime4time9timestamp3tsc4arch7measure17measure_frequency17h0f687b2762347e9aE },
    Symbol { offset: 5573e59e8abc, size: 78, name: anon.5bb12f9ba41933e13aa9188fdacf2f54.0.llvm.4126757307038893709 },
    Symbol { offset: 5573e5a3b6e0, size: 6c1, name: _ZN3std4sync4mpmc4zero16Channel$LT$T$GT$4send28_$u7b$$u7b$closure$u7d$$u7d$17h26a4a38cb14327b1E },
    Symbol { offset: 5573e5a3bf90, size: bb, name: _ZN3std4sync4mpmc7context7Context4with28_$u7b$$u7b$closure$u7d$$u7d$17he8491ef858e6f544E },
    Symbol { offset: 5573e5a3c190, size: 47, name: _ZN4core3ptr171drop_in_place$LT$core..option..Option$LT$std..sync..mpmc..zero..Channel$LT$codspeed_divan_compat_walltime..thread_pool..Task$GT$..recv..$u7b$$u7b$closure$u7d$$u7d$$GT$$GT$17hbc318612099f4eb7E },
    Symbol { offset: 5573e5a3c100, size: 41, name: _ZN4core3ptr138drop_in_place$LT$std..sync..poison..mutex..MutexGuard$LT$alloc..vec..Vec$LT$alloc..boxed..Box$LT$regex_lite..pikevm..Cache$GT$$GT$$GT$$GT$17h4bd99310ad17b671E },
    Symbol { offset: 5573e5a3c0b0, size: 41, name: _ZN4core3ptr131drop_in_place$LT$std..sync..poison..PoisonError$LT$std..sync..poison..mutex..MutexGuard$LT$std..sync..mpmc..zero..Inner$GT$$GT$$GT$17h3e09c28298f0c1b1E },
    Symbol { offset: 5573e5a3b010, size: 6c4, name: _ZN3std4sync4mpmc4zero16Channel$LT$T$GT$4recv28_$u7b$$u7b$closure$u7d$$u7d$17hf1abe79decacaff5E },
    Symbol { offset: 5573e5a3bed0, size: b2, name: _ZN3std4sync4mpmc7context7Context4with28_$u7b$$u7b$closure$u7d$$u7d$17h27acb1ba1e26e3c4E },
    Symbol { offset: 5573e5a3bdb0, size: 119, name: _ZN3std4sync4mpmc5waker5Waker6notify17h04b09af56c602e4aE },
    Symbol { offset: 5573e5a3c050, size: 2e, name: _ZN42_$LT$$RF$T$u20$as$u20$core..fmt..Debug$GT$3fmt17he38dbc6b3b7b676cE },
    Symbol { offset: 5573e5a3c080, size: 2f, name: _ZN42_$LT$$RF$T$u20$as$u20$core..fmt..Debug$GT$3fmt17he4b393ab8c619d3aE },
    Symbol { offset: 5573e59fdd78, size: 8, name: .Lanon.b0ef30851174cbc28ce9bf9b22a92a27.55 },
    Symbol { offset: 5573e5a3c1e0, size: 1f7, name: _ZN4core3ptr338drop_in_place$LT$regex_lite..pool..PoolGuard$LT$regex_lite..pikevm..Cache$C$alloc..boxed..Box$LT$dyn$u20$core..ops..function..Fn$LT$$LP$$RP$$GT$$u2b$Output$u20$$u3d$$u20$regex_lite..pikevm..Cache$u2b$core..panic..unwind_safe..RefUnwindSafe$u2b$core..panic..unwind_safe..UnwindSafe$u2b$core..marker..Send$u2b$core..marker..Sync$GT$$GT$$GT$17h443d2ae3577d1732E },
    Symbol { offset: 5573e5a3c3e0, size: d9, name: _ZN4core3ptr46drop_in_place$LT$regex_lite..pikevm..Cache$GT$17he37c0b3bc5b9c1c8E },
    Symbol { offset: 5573e5a3c7d0, size: 24, name: _ZN4core3ptr99drop_in_place$LT$core..option..Option$LT$alloc..boxed..Box$LT$regex_lite..pikevm..Cache$GT$$GT$$GT$17h5391a332b2dfc1daE },
    Symbol { offset: 5573e5a3c6b0, size: 1d, name: _ZN4core3ptr71drop_in_place$LT$alloc..boxed..Box$LT$regex_lite..pikevm..Cache$GT$$GT$17h07dd6a90fa40a177E },
    Symbol { offset: 5573e5a3c800, size: d, name: _ZN4core5error5Error11description17h26705536fbf24b68E },
    Symbol { offset: 5573e5a3c810, size: 3, name: _ZN4core5error5Error5cause17hb91d7908c05448bdE },
    Symbol { offset: 5573e5a3c820, size: 1, name: _ZN4core5error5Error7provide17h7b619731856588b3E },
    Symbol { offset: 5573e5a3c830, size: 15, name: _ZN4core5error5Error7type_id17h5abddd21c3a92e9bE },
    Symbol { offset: 5573e5a3c850, size: 15, name: _ZN4core5error5Error7type_id17h6517dd4ebe1415b2E },
    Symbol { offset: 5573e5a3c870, size: 43, name: _ZN70_$LT$core..time..TryFromFloatSecsError$u20$as$u20$core..fmt..Debug$GT$3fmt17ha1a90561ab0e0ebbE },
    Symbol { offset: 5573e59fdce4, size: 4, name: .Lanon.b0ef30851174cbc28ce9bf9b22a92a27.48 },
    Symbol { offset: 5573e5a3c8c0, size: 43, name: _ZN72_$LT$core..num..dec2flt..ParseFloatError$u20$as$u20$core..fmt..Debug$GT$3fmt17hb9db04c3835e5d43E },
    Symbol { offset: 5573e5a3c910, size: 24, name: _ZN74_$LT$core..num..dec2flt..ParseFloatError$u20$as$u20$core..error..Error$GT$11description17h9d28b17817bd37f0E },
    Symbol { offset: 5573e5b092a0, size: 20, name: anon.b0ef30851174cbc28ce9bf9b22a92a27.4.llvm.18226518602033812584 },
    Symbol { offset: 5573e5b092c0, size: 20, name: anon.b0ef30851174cbc28ce9bf9b22a92a27.5.llvm.18226518602033812584 },
    Symbol { offset: 5573e5b092e0, size: 20, name: anon.b0ef30851174cbc28ce9bf9b22a92a27.6.llvm.18226518602033812584 },
    Symbol { offset: 5573e5b09300, size: 20, name: anon.b0ef30851174cbc28ce9bf9b22a92a27.7.llvm.18226518602033812584 },
    Symbol { offset: 5573e5b09320, size: 20, name: anon.b0ef30851174cbc28ce9bf9b22a92a27.8.llvm.18226518602033812584 },
    Symbol { offset: 5573e5b09340, size: 20, name: anon.b0ef30851174cbc28ce9bf9b22a92a27.9.llvm.18226518602033812584 },
    Symbol { offset: 5573e5b09360, size: 20, name: anon.b0ef30851174cbc28ce9bf9b22a92a27.10.llvm.18226518602033812584 },
    Symbol { offset: 5573e5b09380, size: 20, name: anon.b0ef30851174cbc28ce9bf9b22a92a27.11.llvm.18226518602033812584 },
    Symbol { offset: 5573e5a3a100, size: 15, name: _ZN36_$LT$T$u20$as$u20$core..any..Any$GT$7type_id17h86e05fcfd41a4b94E.llvm.18226518602033812584 },
    Symbol { offset: 5573e5a3a120, size: 15, name: _ZN36_$LT$T$u20$as$u20$core..any..Any$GT$7type_id17ha949a68ed4ba2fabE.llvm.18226518602033812584 },
    Symbol { offset: 5573e5a3c150, size: 40, name: _ZN4core3ptr149drop_in_place$LT$std..sync..mpmc..counter..Counter$LT$std..sync..mpmc..zero..Channel$LT$codspeed_divan_compat_walltime..thread_pool..Task$GT$$GT$$GT$17h2e734346c2b39161E.llvm.18226518602033812584 },
    Symbol { offset: 5573e5a3a140, size: 626, name: _ZN3std4sync4mpmc15Sender$LT$T$GT$4send17hed7b15cf7152ea0dE },
    Symbol { offset: 5573e5a3a770, size: 690, name: _ZN3std4sync4mpmc17Receiver$LT$T$GT$4recv17h1c219a0c81f51857E },
    Symbol { offset: 5573e5a3ae00, size: 20b, name: _ZN3std4sync4mpmc4zero16Channel$LT$T$GT$10disconnect17h37ecce9c31754a40E },
    Symbol { offset: 5573e5a3c4c0, size: 1e6, name: _ZN4core3ptr50drop_in_place$LT$std..sync..mpmc..waker..Waker$GT$17he5a16361adc389c8E.llvm.18226518602033812584 },
    Symbol { offset: 5573e5a3c6d0, size: 100, name: _ZN4core3ptr73drop_in_place$LT$alloc..vec..Vec$LT$std..sync..mpmc..waker..Entry$GT$$GT$17h4ad75a1e473d09cdE.llvm.18226518602033812584 },
    Symbol { offset: 5573e5a3c940, size: 8f, name: _ZN74_$LT$std..sync..mpmc..Sender$LT$T$GT$$u20$as$u20$core..ops..drop..Drop$GT$4drop17he8e4d9e9391ffe7fE },
    Symbol { offset: 5573e5a3c9d0, size: 1e, name: _ZN76_$LT$std..sync..mpmc..Receiver$LT$T$GT$$u20$as$u20$core..ops..drop..Drop$GT$4drop17hcbdc2c5deae2ed51E },
    Symbol { offset: 5573e5a3c9f0, size: 21e, name: _ZN100_$LT$codspeed_divan_compat_walltime..config..ParsedSeconds$u20$as$u20$core..str..traits..FromStr$GT$8from_str17hcdc8835e989dc055E },
    Symbol { offset: 5573e5a3cc10, size: 292, name: _ZN30codspeed_divan_compat_walltime6config6Filter8is_match17h2ecdcc7a7bfba1ddE },
    Symbol { offset: 5573e5a3ceb0, size: dfb, name: _ZN30codspeed_divan_compat_walltime6config11SortingAttr19cmp_bench_arg_names17hcac3262d832d098bE },
    Symbol { offset: 5573e5a3f710, size: 5a, name: _ZN4core3ptr118drop_in_place$LT$alloc..boxed..Box$LT$dyn$u20$core..error..Error$u2b$core..marker..Send$u2b$core..marker..Sync$GT$$GT$17h1eb24d37a11bf242E },
    Symbol { offset: 5573e5a3edb0, size: 1bd, name: _ZN3std2io5Write9write_all17haca3e6ae70100893E },
    Symbol { offset: 5573e5a3f840, size: a4, name: _ZN4core3ptr42drop_in_place$LT$std..io..error..Error$GT$17h42f668efdc005a6dE },
    Symbol { offset: 5573e5a405d0, size: a8, name: _ZN4core3ptr93drop_in_place$LT$std..io..default_write_fmt..Adapter$LT$std..sys..stdio..unix..Stderr$GT$$GT$17hc082693e739c972dE },
    Symbol { offset: 5573e5a403f0, size: 41, name: _ZN4core3ptr82drop_in_place$LT$std..sys..thread_local..abort_on_dtor_unwind..DtorUnwindGuard$GT$17h0fb6729cbbcb363bE },
    Symbol { offset: 5573e5a3f620, size: d5, name: _ZN4core3fmt5Write10write_char17h629141c9dd90dc4aE },
    Symbol { offset: 5573e5a40940, size: c2, name: _ZN81_$LT$std..io..default_write_fmt..Adapter$LT$T$GT$$u20$as$u20$core..fmt..Write$GT$9write_str17h8dace2a26eb6867bE },
    Symbol { offset: 5573e5a3f700, size: 10, name: _ZN4core3fmt5Write9write_fmt17hf75237af14a192daE },
    Symbol { offset: 5573e5a3f820, size: 18, name: _ZN4core3ptr42drop_in_place$LT$alloc..string..String$GT$17had8aae37f168beeeE },
    Symbol { offset: 5573e5a3fc20, size: 120, name: _ZN4core3ptr59drop_in_place$LT$clap_builder..builder..ext..Extensions$GT$17h86bd79b501f062c2E },
    Symbol { offset: 5573e5a40440, size: c5, name: _ZN4core3ptr83drop_in_place$LT$alloc..vec..Vec$LT$clap_builder..builder..command..Command$GT$$GT$17h2c12626ba4200d9eE },
    Symbol { offset: 5573e5a40510, size: bc, name: _ZN4core3ptr86drop_in_place$LT$alloc..vec..Vec$LT$clap_builder..builder..arg_group..ArgGroup$GT$$GT$17h4151eb1829bd9721E },
    Symbol { offset: 5573e5a40680, size: 6a, name: _ZN4core3ptr97drop_in_place$LT$core..option..Option$LT$clap_builder..builder..value_parser..ValueParser$GT$$GT$17ha4d31a82498953ecE },
    Symbol { offset: 5573e5a40710, size: 15, name: _ZN53_$LT$core..fmt..Error$u20$as$u20$core..fmt..Debug$GT$3fmt17h6736176c8e29474eE },
    Symbol { offset: 5573e5a40730, size: 123, name: _ZN58_$LT$alloc..string..String$u20$as$u20$core..fmt..Write$GT$10write_char17h13db4e3872bba170E },
    Symbol { offset: 5573e5a40860, size: 67, name: _ZN58_$LT$alloc..string..String$u20$as$u20$core..fmt..Write$GT$9write_str17h3471f8bf4fd2c6acE },
    Symbol { offset: 5573e59fdce4, size: 4, name: .Lanon.56cf89cb0125dfb12abb0a3708987aab.35 },
    Symbol { offset: 5573e5a3dcb0, size: 1c5, name: _ZN12clap_builder5error14Error$LT$F$GT$12invalid_utf817h94767ef16c73e4b0E },
    Symbol { offset: 5573e5a3e800, size: 1cc, name: _ZN12clap_builder5error14Error$LT$F$GT$8with_cmd17h7fca4990a4f34a3aE },
    Symbol { offset: 5573e5a3fb30, size: e3, name: _ZN4core3ptr52drop_in_place$LT$clap_builder..error..ErrorInner$GT$17h0ca4456a66be9aa6E.llvm.18054931381920675619 },
    Symbol { offset: 5573e5a3de80, size: 1f7, name: _ZN12clap_builder5error14Error$LT$F$GT$13invalid_value17h97ef69be9b476947E },
    Symbol { offset: 5573e5a3e080, size: 293, name: _ZN12clap_builder5error14Error$LT$F$GT$16value_validation17hb3fe9815c420f6c9E },
    Symbol { offset: 5573e5a3f8f0, size: 44, name: _ZN4core3ptr47drop_in_place$LT$clap_builder..error..Error$GT$17h26e417af8df56b00E.llvm.18054931381920675619 },
    Symbol { offset: 5573e5a3e320, size: 2a1, name: _ZN12clap_builder5error14Error$LT$F$GT$3raw17h3d8c07e215db7c42E },
    Symbol { offset: 5573e5a3e5d0, size: 2d, name: _ZN12clap_builder5error14Error$LT$F$GT$4exit17h0f3f3cff9d74bcd6E },
    Symbol { offset: 5573e5a3e600, size: 114, name: _ZN12clap_builder5error14Error$LT$F$GT$5print17h0a1d7abbb7311d44E.llvm.18054931381920675619 },
    Symbol { offset: 5573e5a40340, size: a4, name: _ZN4core3ptr81drop_in_place$LT$core..result..Result$LT$$LP$$RP$$C$std..io..error..Error$GT$$GT$17h90eaf99e308c49bcE.llvm.18054931381920675619 },
    Symbol { offset: 5573e5a3e720, size: d7, name: _ZN12clap_builder5error14Error$LT$F$GT$6format17hc4c9a98879fcd8dfE },
    Symbol { offset: 5573e59e9002, size: 62, name: anon.56cf89cb0125dfb12abb0a3708987aab.2.llvm.18054931381920675619 },
    Symbol { offset: 5573e59e9064, size: 22, name: anon.56cf89cb0125dfb12abb0a3708987aab.3.llvm.18054931381920675619 },
    Symbol { offset: 5573e5b09760, size: 18, name: anon.56cf89cb0125dfb12abb0a3708987aab.5.llvm.18054931381920675619 },
    Symbol { offset: 5573e5a3fd40, size: 4fa, name: _ZN4core3ptr60drop_in_place$LT$clap_builder..builder..command..Command$GT$17h65073803c160e3ccE.llvm.18054931381920675619 },
    Symbol { offset: 5573e5a3e9d0, size: 1c0, name: _ZN12clap_builder7builder7command7Command3new17h6f81da4a26cc0238E },
    Symbol { offset: 5573e5a3eb90, size: 1f6, name: _ZN12clap_builder7builder7command7Command4args17h3ab18878a9d83b85E },
    Symbol { offset: 5573e5a3ed90, size: 15, name: _ZN36_$LT$T$u20$as$u20$core..any..Any$GT$7type_id17h4bdd1c446ae45e7bE },
    Symbol { offset: 5573e5a3ef70, size: 128, name: _ZN3std2io5Write9write_fmt17h01a67fa9be1a71f4E },
    Symbol { offset: 5573e5a3f0a0, size: a9, name: _ZN3std3sys12thread_local6native4lazy20Storage$LT$T$C$D$GT$10initialize17heee7774e443ede00E },
    Symbol { offset: 5573e5a3f150, size: 50, name: _ZN3std3sys12thread_local6native4lazy7destroy17h38de5a551d1d9f43E.llvm.18054931381920675619 },
    Symbol { offset: 5573e5a3f770, size: 1f, name: _ZN4core3ptr168drop_in_place$LT$std..sys..thread_local..native..lazy..State$LT$core..cell..Cell$LT$core..option..Option$LT$std..sync..mpmc..context..Context$GT$$GT$$C$$LP$$RP$$GT$$GT$17he07c70d2643e85baE.llvm.18054931381920675619 },
    Symbol { offset: 5573e5a3f1a0, size: e9, name: _ZN3std4sync4mpmc7counter15Sender$LT$C$GT$7release17h1547a42126fda383E },
    Symbol { offset: 5573e5a3f940, size: 1e6, name: _ZN4core3ptr50drop_in_place$LT$std..sync..mpmc..waker..Waker$GT$17he5a16361adc389c8E.llvm.18054931381920675619 },
    Symbol { offset: 5573e5a3f790, size: 90, name: _ZN4core3ptr175drop_in_place$LT$alloc..boxed..Box$LT$std..sync..mpmc..counter..Counter$LT$std..sync..mpmc..array..Channel$LT$codspeed_divan_compat_walltime..thread_pool..Task$GT$$GT$$GT$$GT$17h3a71035689f3232aE.llvm.18054931381920675619 },
    Symbol { offset: 5573e5a3f290, size: 88, name: _ZN3std4sync4mpmc7counter15Sender$LT$C$GT$7release17ha263a42e293c8515E },
    Symbol { offset: 5573e5a3f320, size: 88, name: _ZN3std4sync4mpmc7counter17Receiver$LT$C$GT$7release17h4d099d6c2eb0f071E },
    Symbol { offset: 5573e5a3f3b0, size: 17f, name: _ZN3std4sync4mpmc7counter17Receiver$LT$C$GT$7release17h823ce2ccdd75e6beE },
    Symbol { offset: 5573e5a3f530, size: e9, name: _ZN3std4sync4mpmc7counter17Receiver$LT$C$GT$7release17hf7d47ede16859d0fE },
    Symbol { offset: 5573e5a40240, size: 100, name: _ZN4core3ptr73drop_in_place$LT$alloc..vec..Vec$LT$std..sync..mpmc..waker..Entry$GT$$GT$17h4ad75a1e473d09cdE.llvm.18054931381920675619 },
    Symbol { offset: 5573e5a406f0, size: 3, name: _ZN4core5error5Error6source17ha227676e6abb7f51E.llvm.18054931381920675619 },
    Symbol { offset: 5573e5a40700, size: 1, name: _ZN4core5error5Error7provide17heacfda381547f156E.llvm.18054931381920675619 },
    Symbol { offset: 5573e5b098d0, size: 58, name: anon.56cf89cb0125dfb12abb0a3708987aab.30.llvm.18054931381920675619 },
    Symbol { offset: 5573e5a408d0, size: 43, name: _ZN68_$LT$core..num..error..ParseIntError$u20$as$u20$core..fmt..Debug$GT$3fmt17h9d974530281c97f3E.llvm.18054931381920675619 },
    Symbol { offset: 5573e5a40920, size: 1d, name: _ZN70_$LT$core..num..error..ParseIntError$u20$as$u20$core..error..Error$GT$11description17hf7118da03d3f31b7E.llvm.18054931381920675619 },
    Symbol { offset: 5573e5a40a10, size: 4c0, name: _ZN30codspeed_divan_compat_walltime5entry7generic9EntryType12display_name17hf7e37d3150a7bc50E.llvm.18054931381920675619 },
    Symbol { offset: 5573e59e91d8, size: 28, name: anon.56cf89cb0125dfb12abb0a3708987aab.14.llvm.18054931381920675619 },
    Symbol { offset: 5573e5b09960, size: 18, name: anon.56cf89cb0125dfb12abb0a3708987aab.44.llvm.18054931381920675619 },
    Symbol { offset: 5573e59e941d, size: 2, name: anon.56cf89cb0125dfb12abb0a3708987aab.45.llvm.18054931381920675619 },
    Symbol { offset: 5573e59e9086, size: 6e, name: anon.56cf89cb0125dfb12abb0a3708987aab.4.llvm.18054931381920675619 },
    Symbol { offset: 5573e5b098b0, size: 20, name: anon.56cf89cb0125dfb12abb0a3708987aab.29.llvm.18054931381920675619 },
    Symbol { offset: 5573e59e93ea, size: 33, name: anon.56cf89cb0125dfb12abb0a3708987aab.42.llvm.18054931381920675619 },
    Symbol { offset: 5573e5a40ed0, size: c6, name: _ZN106_$LT$core..iter..adapters..chain..Chain$LT$A$C$B$GT$$u20$as$u20$core..iter..traits..iterator..Iterator$GT$10advance_by17h70bcd44f6e5f2281E },
    Symbol { offset: 5573e5a40fa0, size: 13d, name: _ZN106_$LT$core..iter..adapters..chain..Chain$LT$A$C$B$GT$$u20$as$u20$core..iter..traits..iterator..Iterator$GT$3nth17he7d4c4908f682c04E },
    Symbol { offset: 5573e5a410e0, size: 6f, name: _ZN106_$LT$core..iter..adapters..chain..Chain$LT$A$C$B$GT$$u20$as$u20$core..iter..traits..iterator..Iterator$GT$4next17hd758efd17daaf5f7E },
    Symbol { offset: 5573e5a41150, size: b0, name: _ZN106_$LT$core..iter..adapters..chain..Chain$LT$A$C$B$GT$$u20$as$u20$core..iter..traits..iterator..Iterator$GT$9size_hint17hb5740f774033a96aE },
    Symbol { offset: 5573e5a413e0, size: ef, name: _ZN4core3ptr75drop_in_place$LT$codspeed_divan_compat_walltime..entry..tree..EntryTree$GT$17h57e125891b8e01bbE },
    Symbol { offset: 5573e5a414d0, size: c3, name: _ZN4core3ptr98drop_in_place$LT$alloc..vec..Vec$LT$codspeed_divan_compat_walltime..entry..tree..EntryTree$GT$$GT$17hef09cd92dea393d9E },
    Symbol { offset: 5573e5a41810, size: 1eb, name: _ZN4core3str7pattern14TwoWaySearcher4next17h9f1759abf9605d3eE },
    Symbol { offset: 5573e5a41a00, size: 2f, name: _ZN4core4iter6traits8iterator8Iterator10advance_by17h3487a30c9dd1a3f3E },
    Symbol { offset: 5573e5a41a30, size: 3c, name: _ZN4core4iter6traits8iterator8Iterator3nth17h67bba06782d02172E },
    Symbol { offset: 5573e5a41a70, size: a, name: _ZN4core4iter6traits8iterator8Iterator9size_hint17hd5dc998cc95f2c5dE },
    Symbol { offset: 5573e5a41a80, size: 5, name: _ZN90_$LT$core..str..iter..Split$LT$P$GT$$u20$as$u20$core..iter..traits..iterator..Iterator$GT$4next17hf54ea95a051b019aE },
    Symbol { offset: 5573e5a42ff0, size: 30b, name: _ZN30codspeed_divan_compat_walltime5entry4tree9EntryTree12insert_entry17h29182c2ac8a49ca6E },
    Symbol { offset: 5573e5a43300, size: 24c, name: _ZN30codspeed_divan_compat_walltime5entry4tree9EntryTree9from_path17h4c89e3f39decf696E },
    Symbol { offset: 5573e59fda80, size: 20, name: .Lswitch.table._ZN107_$LT$codspeed_divan_compat_walltime..time..timestamp..tsc..TscUnavailable$u20$as$u20$core..fmt..Display$GT$3fmt17he40788252b84804eE },
    Symbol { offset: 5573e5a415a0, size: 263, name: _ZN4core3str4iter22SplitInternal$LT$P$GT$4next17h26f59ae76c628ea5E.llvm.14728122711498454236 },
    Symbol { offset: 5573e5a41200, size: 4f, name: _ZN3std4sync6poison4once4Once9call_once28_$u7b$$u7b$closure$u7d$$u7d$17hbd9935b786a80c79E.llvm.14728122711498454236 },
    Symbol { offset: 5573e5a41250, size: 134, name: _ZN4core3ops8function5FnMut8call_mut17h61b94d9dc89386fdE.llvm.14728122711498454236 },
    Symbol { offset: 5573e5a43610, size: 93, name: _ZN30codspeed_divan_compat_walltime5entry4tree9EntryTree8location17h3e7bbec064d7f1fbE },
    Symbol { offset: 5573e5a41390, size: 4f, name: _ZN4core3ops8function6FnOnce40call_once$u7b$$u7b$vtable.shim$u7d$$u7d$17h3139ef03be65736eE.llvm.14728122711498454236 },
    Symbol { offset: 5573e5a41a90, size: 7c3, name: _ZN30codspeed_divan_compat_walltime5entry4tree9EntryTree12from_benches17hf60be13922786660E },
    Symbol { offset: 5573e59e95d1, size: 2, name: anon.a7a10a9b98b0489e561f518539d554ed.10.llvm.14728122711498454236 },
    Symbol { offset: 5573e5a42260, size: 281, name: _ZN30codspeed_divan_compat_walltime5entry4tree9EntryTree13max_name_span17ha25a5051d175cafdE },
    Symbol { offset: 5573e5a424f0, size: 188, name: _ZN30codspeed_divan_compat_walltime5entry4tree9EntryTree19common_column_width17hdc3c75454fdc93acE },
    Symbol { offset: 5573e5b09978, size: 28, name: anon.a7a10a9b98b0489e561f518539d554ed.0.llvm.14728122711498454236 },
    Symbol { offset: 5573e5b09ad0, size: 18, name: anon.a7a10a9b98b0489e561f518539d554ed.17.llvm.14728122711498454236 },
    Symbol { offset: 5573e5a42680, size: 167, name: _ZN30codspeed_divan_compat_walltime5entry4tree9EntryTree12insert_group17hdec37fb3ac787230E },
    Symbol { offset: 5573e5a427f0, size: 132, name: _ZN30codspeed_divan_compat_walltime5entry4tree9EntryTree12sort_by_attr17ha3b8b18ed44147aaE },
    Symbol { offset: 5573e5a42930, size: 6b1, name: _ZN30codspeed_divan_compat_walltime5entry4tree9EntryTree11cmp_by_attr17h05a940164e001109E },
    Symbol { offset: 5573e5a43550, size: b5, name: _ZN30codspeed_divan_compat_walltime5entry4tree9EntryTree12display_name17hf169baf85dbc2468E },
    Symbol { offset: 5573e5a436b0, size: 28, name: _ZN107_$LT$codspeed_divan_compat_walltime..time..timestamp..tsc..TscUnavailable$u20$as$u20$core..fmt..Display$GT$3fmt17he40788252b84804eE },
    Symbol { offset: 5573e59e9603, size: 7a, name: anon.a7a10a9b98b0489e561f518539d554ed.16.llvm.14728122711498454236 },
    Symbol { offset: 5573e5b15700, size: 10, name: _ZN30codspeed_divan_compat_walltime5entry13BENCH_ENTRIES17h4cabd67161c81a3fE },
    Symbol { offset: 5573e5b15710, size: 10, name: _ZN30codspeed_divan_compat_walltime5entry13GROUP_ENTRIES17h0754506173256a70E },
    Symbol { offset: 5573e5a437d0, size: 17d, name: _ZN4core5slice4sort6shared9smallsort12sort4_stable17h58f88d052d50d051E },
    Symbol { offset: 5573e5a43950, size: 1ef, name: _ZN4core5slice4sort6shared9smallsort12sort4_stable17h83a1a8401d2044edE },
    Symbol { offset: 5573e5a45e90, size: 188, name: _ZN4core5slice4sort6shared9smallsort19bidirectional_merge17ha39766eb8b3505c1E },
    Symbol { offset: 5573e59fdc80, size: 4, name: .Lanon.a6f2a8970614dd9bf29d645d2ae05e41.5 },
    Symbol { offset: 5573e5a436e0, size: 15, name: _ZN42_$LT$$RF$T$u20$as$u20$core..fmt..Debug$GT$3fmt17h36442c8bdcd25f94E },
    Symbol { offset: 5573e5a43700, size: 2b, name: _ZN42_$LT$$RF$T$u20$as$u20$core..fmt..Debug$GT$3fmt17habc727458a5e7e83E },
    Symbol { offset: 5573e5a43730, size: 16, name: _ZN44_$LT$$RF$T$u20$as$u20$core..fmt..Display$GT$3fmt17h3859009a8e6a0cbeE },
    Symbol { offset: 5573e5a43750, size: 13, name: _ZN44_$LT$$RF$T$u20$as$u20$core..fmt..Display$GT$3fmt17h9e9c47064009af74E },
    Symbol { offset: 5573e5a43770, size: 3, name: _ZN4core5error5Error5cause17h9d9c006c4be8640aE },
    Symbol { offset: 5573e5a43780, size: 3, name: _ZN4core5error5Error5cause17hf4f49148a94ff577E },
    Symbol { offset: 5573e5a43790, size: 15, name: _ZN4core5error5Error7type_id17h0dd21d5dab4bd821E },
    Symbol { offset: 5573e5a437b0, size: 15, name: _ZN4core5error5Error7type_id17h5da10fee20f99a14E },
    Symbol { offset: 5573e5a43b40, size: 720, name: _ZN4core5slice4sort6shared9smallsort18small_sort_general17hf12556bd1f7a371dE },
    Symbol { offset: 5573e5a44260, size: 6ff, name: _ZN4core5slice4sort6shared9smallsort18small_sort_network17h30eb82a8f749ab9fE },
    Symbol { offset: 5573e5a44960, size: 6ff, name: _ZN4core5slice4sort6shared9smallsort18small_sort_network17h5fb4798f4dc02df1E },
    Symbol { offset: 5573e5a45060, size: e21, name: _ZN4core5slice4sort6shared9smallsort18small_sort_network17hdaa9feac1ef39995E },
    Symbol { offset: 5573e5a46020, size: 1c3, name: _ZN4core5slice4sort6shared9smallsort25insertion_sort_shift_left17h0ccc797ba3aa5a40E },
    Symbol { offset: 5573e5a461f0, size: 116, name: _ZN4core5slice4sort6shared9smallsort25insertion_sort_shift_left17hacf9ab2aaebdfd3eE },
    Symbol { offset: 5573e5a46310, size: 7a, name: _ZN4core5slice4sort6shared9smallsort25insertion_sort_shift_left17hba3aedda31054a37E },
    Symbol { offset: 5573e5a46390, size: 331, name: _ZN4core5slice4sort6shared9smallsort31small_sort_general_with_scratch17h6c44eba674c40895E },
    Symbol { offset: 5573e5a466d0, size: 2c, name: _ZN76_$LT$std..sync..poison..PoisonError$LT$T$GT$$u20$as$u20$core..fmt..Debug$GT$3fmt17h0acefa9b1cdf1ac2E },
    Symbol { offset: 5573e5a466d0, size: 2c, name: _ZN76_$LT$std..sync..poison..PoisonError$LT$T$GT$$u20$as$u20$core..fmt..Debug$GT$3fmt17hd82a0ab05ac34386E },
    Symbol { offset: 5573e5a466d0, size: 2c, name: _ZN76_$LT$std..sync..poison..PoisonError$LT$T$GT$$u20$as$u20$core..fmt..Debug$GT$3fmt17hdf7f61a625b9daf2E },
    Symbol { offset: 5573e5a46700, size: 113, name: _ZN12clap_builder7builder3arg3Arg12value_parser17h0ee13381455db769E },
    Symbol { offset: 5573e5a46eb0, size: 632, name: _ZN4core3ptr52drop_in_place$LT$clap_builder..builder..arg..Arg$GT$17h7da3c8b9ba56d952E },
    Symbol { offset: 5573e5a46820, size: 113, name: _ZN12clap_builder7builder3arg3Arg12value_parser17h7f79098ec889cda4E },
    Symbol { offset: 5573e5a46940, size: d2, name: _ZN12clap_builder7builder3arg3Arg12value_parser17hb7ea5b9ce9624a91E },
    Symbol { offset: 5573e5a46a20, size: ce, name: _ZN12clap_builder7builder3arg3Arg12value_parser17hf468cd24e893a9c5E },
    Symbol { offset: 5573e5a46b50, size: d2, name: _ZN4core3num62_$LT$impl$u20$core..str..traits..FromStr$u20$for$u20$usize$GT$8from_str17h0dda7ca11035f384E },
    Symbol { offset: 5573e5a46c30, size: 8, name: _ZN4core3ops8function2Fn4call17hc07e34fc58c8be82E },
    Symbol { offset: 5573e5a46d10, size: 5f, name: _ZN4core3ptr100drop_in_place$LT$alloc..boxed..Box$LT$clap_builder..parser..matches..arg_matches..SubCommand$GT$$GT$17hf1ec2f62a1df90c1E },
    Symbol { offset: 5573e5a47e60, size: 149, name: _ZN4core3ptr75drop_in_place$LT$clap_builder..parser..matches..arg_matches..ArgMatches$GT$17hbfca5eb476f20f10E },
    Symbol { offset: 5573e5a46d70, size: 37, name: _ZN4core3ptr105drop_in_place$LT$core..cell..RefCell$LT$codspeed_divan_compat_walltime..tree_painter..TreePainter$GT$$GT$17h513a18bdb49da72eE },
    Symbol { offset: 5573e5a474f0, size: 120, name: _ZN4core3ptr59drop_in_place$LT$clap_builder..builder..ext..Extensions$GT$17h86bd79b501f062c2E },
    Symbol { offset: 5573e5a47610, size: 4fa, name: _ZN4core3ptr60drop_in_place$LT$clap_builder..builder..command..Command$GT$17h65073803c160e3ccE },
    Symbol { offset: 5573e5a47fe0, size: c5, name: _ZN4core3ptr83drop_in_place$LT$alloc..vec..Vec$LT$clap_builder..builder..command..Command$GT$$GT$17h2c12626ba4200d9eE },
    Symbol { offset: 5573e5a480b0, size: bc, name: _ZN4core3ptr86drop_in_place$LT$alloc..vec..Vec$LT$clap_builder..builder..arg_group..ArgGroup$GT$$GT$17h4151eb1829bd9721E },
    Symbol { offset: 5573e5a48250, size: 6a, name: _ZN4core3ptr97drop_in_place$LT$core..option..Option$LT$clap_builder..builder..value_parser..ValueParser$GT$$GT$17ha4d31a82498953ecE },
    Symbol { offset: 5573e5a47b10, size: 103, name: _ZN4core3ptr65drop_in_place$LT$codspeed_divan_compat_walltime..divan..Divan$GT$17hebd9302bae0733a8E },
    Symbol { offset: 5573e5a48170, size: 5c, name: _ZN4core3ptr90drop_in_place$LT$alloc..vec..Vec$LT$codspeed_divan_compat_walltime..config..Filter$GT$$GT$17hc630072e36f200ddE },
    Symbol { offset: 5573e5a47fb0, size: 2d, name: _ZN4core3ptr81drop_in_place$LT$codspeed_divan_compat_walltime..bench..options..BenchOptions$GT$17h74f663678224bf0dE },
    Symbol { offset: 5573e5a47c20, size: 238, name: _ZN4core3ptr72drop_in_place$LT$codspeed_divan_compat_walltime..bench..BenchContext$GT$17h891cfe6ed0ef7cf1E },
    Symbol { offset: 5573e5a481d0, size: 7f, name: _ZN4core3ptr90drop_in_place$LT$codspeed_divan_compat_walltime..counter..collection..KnownCounterInfo$GT$17h604cd7ddc043868bE },
    Symbol { offset: 5573e5a482c0, size: c3, name: _ZN4core3ptr98drop_in_place$LT$alloc..vec..Vec$LT$codspeed_divan_compat_walltime..entry..tree..EntryTree$GT$$GT$17hef09cd92dea393d9E },
    Symbol { offset: 5573e5a48390, size: 13, name: _ZN75_$LT$core..num..nonzero..NonZero$LT$T$GT$$u20$as$u20$core..fmt..Display$GT$3fmt17h45dfbcfdaff989f7E },
    Symbol { offset: 5573e5a483b0, size: 236, name: _ZN30codspeed_divan_compat_walltime5bench7options12BenchOptions9overwrite17h4188e5c1943311b6E },
    Symbol { offset: 5573e5a485f0, size: 65c6, name: _ZN30codspeed_divan_compat_walltime3cli7command17hc28bd8b53a24296dE },
    Symbol { offset: 5573e59fdcf0, size: 4, name: .Lanon.73424f6510d50b61b7d78f9386083d93.14 },
    Symbol { offset: 5573e59fdc78, size: 4, name: .Lanon.73424f6510d50b61b7d78f9386083d93.16 },
    Symbol { offset: 5573e59fd700, size: 10, name: .Lanon.73424f6510d50b61b7d78f9386083d93.17 },
    Symbol { offset: 5573e59fdcdc, size: 4, name: .Lanon.73424f6510d50b61b7d78f9386083d93.19 },
    Symbol { offset: 5573e59fdcfc, size: 4, name: .Lanon.73424f6510d50b61b7d78f9386083d93.21 },
    Symbol { offset: 5573e59fdcb4, size: 4, name: .Lanon.73424f6510d50b61b7d78f9386083d93.29 },
    Symbol { offset: 5573e59fddd0, size: 8, name: .Lanon.73424f6510d50b61b7d78f9386083d93.51 },
    Symbol { offset: 5573e59fdd30, size: 4, name: .Lanon.73424f6510d50b61b7d78f9386083d93.53 },
    Symbol { offset: 5573e59fde48, size: 8, name: .Lanon.73424f6510d50b61b7d78f9386083d93.56 },
    Symbol { offset: 5573e5a4ebc0, size: 4e6, name: _ZN30codspeed_divan_compat_walltime5divan5Divan10run_action17h22c89bc34559a42fE },
    Symbol { offset: 5573e5a4f0b0, size: b3f, name: _ZN30codspeed_divan_compat_walltime5divan5Divan8run_tree17h161d36f9f1be8168E },
    Symbol { offset: 5573e59fde00, size: 8, name: .Lanon.73424f6510d50b61b7d78f9386083d93.93 },
    Symbol { offset: 5573e5a501b0, size: 19, name: _ZN30codspeed_divan_compat_walltime5divan5Divan15run_bench_entry28_$u7b$$u7b$closure$u7d$$u7d$17hd874304365cc2b3dE },
    Symbol { offset: 5573e5a4fbf0, size: 5b1, name: _ZN30codspeed_divan_compat_walltime5divan5Divan15run_bench_entry28_$u7b$$u7b$closure$u7d$$u7d$17h83a12e0babf19f2dE },
    Symbol { offset: 5573e5a46af0, size: 15, name: _ZN36_$LT$T$u20$as$u20$core..any..Any$GT$7type_id17h3462db383a975feeE },
    Symbol { offset: 5573e5a46b10, size: 15, name: _ZN36_$LT$T$u20$as$u20$core..any..Any$GT$7type_id17h8795d12cb92e87eeE },
    Symbol { offset: 5573e5a46b30, size: 15, name: _ZN36_$LT$T$u20$as$u20$core..any..Any$GT$7type_id17h9abe95c15d4dcce4E },
    Symbol { offset: 5573e5a46c40, size: c4, name: _ZN4core3ops8function5impls79_$LT$impl$u20$core..ops..function..FnMut$LT$A$GT$$u20$for$u20$$RF$mut$u20$F$GT$8call_mut17h7f854e0f06e63c3aE },
    Symbol { offset: 5573e5a46db0, size: fd, name: _ZN4core3ptr47drop_in_place$LT$clap_builder..error..Error$GT$17h26e417af8df56b00E.llvm.7824229834353051484 },
    Symbol { offset: 5573e5a501d0, size: e02, name: _ZN30codspeed_divan_compat_walltime5divan5Divan16config_with_args17h6b693206d3373276E },
    Symbol { offset: 5573e5a50fe0, size: 117, name: _ZN30codspeed_divan_compat_walltime4main17hd0a8cfacc5b6578eE },
    Symbol { offset: 5573e5b15720, size: 1, name: _ZN30codspeed_divan_compat_walltime5alloc12IGNORE_ALLOC17h4e02095880dbf5d0E },
    Symbol { offset: 5573e59e9e78, size: 2b, name: anon.73424f6510d50b61b7d78f9386083d93.89.llvm.7824229834353051484 },
    Symbol { offset: 5573e59ab028, size: 60, name: _ZN30codspeed_divan_compat_walltime5alloc19CURRENT_THREAD_INFO29_$u7b$$u7b$constant$u7d$$u7d$28_$u7b$$u7b$closure$u7d$$u7d$3VAL17h76ca58ddeb55b52aE },
    Symbol { offset: 5573e5a512a0, size: 1a0, name: _ZN4core3ptr45drop_in_place$LT$regex_lite..hir..HirKind$GT$17h2a534849ff3b45eeE },
    Symbol { offset: 5573e5a51440, size: bf, name: _ZN4core3ptr64drop_in_place$LT$alloc..vec..Vec$LT$regex_lite..hir..Hir$GT$$GT$17ha392081244742e12E },
    Symbol { offset: 5573e5a51500, size: 44, name: _ZN4core3ptr66drop_in_place$LT$alloc..boxed..Box$LT$regex_lite..hir..Hir$GT$$GT$17h209f7a4e3b54d1bbE },
    Symbol { offset: 5573e5a51550, size: 109, name: _ZN10regex_lite3hir5parse6Parser4bump17ha439f187ef988476E },
    Symbol { offset: 5573e5a51660, size: 14c, name: _ZN10regex_lite3hir5parse6Parser10bump_space17h4f924e60866f78c8E },
    Symbol { offset: 5573e5a517b0, size: ee, name: _ZN10regex_lite3hir5parse6Parser4peek17ha505e10d7ebb71dfE },
    Symbol { offset: 5573e5a518a0, size: 30e, name: _ZN10regex_lite3hir5parse6Parser10peek_space17hd6b239b35ccc0268E },
    Symbol { offset: 5573e5a56650, size: 37c, name: _ZN10regex_lite3hir5parse6Parser13parse_decimal17h4a3c28849b527f14E },
    Symbol { offset: 5573e5a55070, size: 127c, name: _ZN10regex_lite3hir5parse6Parser12parse_escape17h72a6c2f9235fa7b6E },
    Symbol { offset: 5573e5a569d0, size: 6d, name: _ZN10regex_lite3hir5parse6Parser16parse_class_item17hce187505d358377bE },
    Symbol { offset: 5573e5a56ae0, size: 226, name: _ZN10regex_lite3hir5parse11posix_class17h3421f792c098e908E },
    Symbol { offset: 5573e59fdbc0, size: 20, name: .Lanon.888561ec7e5396c4ddf8a39ebf1ef609.112 },
    Symbol { offset: 5573e59fdc40, size: 4, name: .Lanon.888561ec7e5396c4ddf8a39ebf1ef609.91 },
    Symbol { offset: 5573e59fdd10, size: 4, name: .Lanon.888561ec7e5396c4ddf8a39ebf1ef609.84 },
    Symbol { offset: 5573e59fdac0, size: 20, name: .Lanon.888561ec7e5396c4ddf8a39ebf1ef609.38 },
    Symbol { offset: 5573e59fdea0, size: 8, name: .Lanon.888561ec7e5396c4ddf8a39ebf1ef609.141 },
    Symbol { offset: 5573e5a56d10, size: 51, name: _ZN10regex_lite3hir23is_escapeable_character17h6bb33f1e8dc55242E },
    Symbol { offset: 5573e5a562f0, size: 35c, name: _ZN10regex_lite3hir5parse6Parser33maybe_parse_special_word_boundary17hdf7098015a35414fE },
    Symbol { offset: 5573e59fdcf4, size: 4, name: .Lanon.888561ec7e5396c4ddf8a39ebf1ef609.61 },
    Symbol { offset: 5573e59fdd00, size: 4, name: .Lanon.888561ec7e5396c4ddf8a39ebf1ef609.48 },
    Symbol { offset: 5573e59fdc48, size: 4, name: .Lanon.888561ec7e5396c4ddf8a39ebf1ef609.152 },
    Symbol { offset: 5573e59fdcf8, size: 4, name: .Lanon.888561ec7e5396c4ddf8a39ebf1ef609.150 },
    Symbol { offset: 5573e59fdc94, size: 4, name: .Lanon.888561ec7e5396c4ddf8a39ebf1ef609.149 },
    Symbol { offset: 5573e59fdd68, size: 8, name: .Lanon.888561ec7e5396c4ddf8a39ebf1ef609.144 },
    Symbol { offset: 5573e5a56d70, size: 43, name: _ZN61_$LT$regex_lite..error..Error$u20$as$u20$core..fmt..Debug$GT$3fmt17h535e80bc455e121aE },
    Symbol { offset: 5573e5a51100, size: 1a0, name: _ZN4core3ptr41drop_in_place$LT$regex_lite..hir..Hir$GT$17h0b43cea035afe368E.llvm.590186500857198577 },
    Symbol { offset: 5573e5a51bb0, size: 34bb, name: _ZN10regex_lite3hir5parse6Parser11parse_inner17hc8699eee2e329aceE.llvm.590186500857198577 },
    Symbol { offset: 5573e5a56a40, size: 98, name: _ZN10regex_lite3hir5parse17check_hir_nesting7recurse17h837ee1f51659a3c7E.llvm.590186500857198577 },
    Symbol { offset: 5573e59ea567, size: 1c, name: anon.888561ec7e5396c4ddf8a39ebf1ef609.8.llvm.590186500857198577 },
    Symbol { offset: 5573e5a56dc0, size: 46, name: _ZN4core3ptr43drop_in_place$LT$regex_lite..nfa..State$GT$17hddf3af76c6552dbaE },
    Symbol { offset: 5573e5a56e10, size: b1, name: _ZN4core3ptr66drop_in_place$LT$alloc..vec..Vec$LT$regex_lite..nfa..State$GT$$GT$17h439d4ce5ee498820E },
    Symbol { offset: 5573e5a56ed0, size: 284, name: _ZN4core3ptr68drop_in_place$LT$core..cell..RefCell$LT$regex_lite..nfa..NFA$GT$$GT$17hbce5653d891a2a42E },
    Symbol { offset: 5573e5a57160, size: 105, name: _ZN4core3ptr99drop_in_place$LT$alloc..vec..Vec$LT$core..option..Option$LT$alloc..sync..Arc$LT$str$GT$$GT$$GT$$GT$17h09c1a54134dc389eE },
    Symbol { offset: 5573e5a58240, size: 471, name: _ZN10regex_lite3nfa8Compiler9c_capture17h9af9ceaae7d58b5aE },
    Symbol { offset: 5573e5a58810, size: 1e4, name: _ZN10regex_lite3nfa8Compiler3add17h531a737fe656df3bE },
    Symbol { offset: 5573e5a58a00, size: 16e, name: _ZN10regex_lite3nfa8Compiler5patch17ha7608f21f43147a2E },
    Symbol { offset: 5573e59fd3e0, size: 10, name: .Lanon.a7fcd8d9249c288c35f4a55be722337a.21 },
    Symbol { offset: 5573e5a57540, size: ad2, name: _ZN10regex_lite3nfa8Compiler1c17h71b7aabd52f7d767E },
    Symbol { offset: 5573e5a586c0, size: 145, name: _ZN10regex_lite3nfa8Compiler8c_concat17h7687fd49686f30d3E },
    Symbol { offset: 5573e5a58020, size: 21a, name: _ZN10regex_lite3nfa8Compiler9c_bounded17h9c0dcfa7c79b67adE },
    Symbol { offset: 5573e5a57270, size: 2cb, name: _ZN10regex_lite3nfa3NFA3new17h628b93f35973cfaaE },
    Symbol { offset: 5573e5b0a180, size: 18, name: anon.a7fcd8d9249c288c35f4a55be722337a.3.llvm.7827789547862681926 },
    Symbol { offset: 5573e59eb1bc, size: 63, name: anon.a7fcd8d9249c288c35f4a55be722337a.2.llvm.7827789547862681926 },
    Symbol { offset: 5573e5a58d30, size: 1a0, name: _ZN4core3ptr45drop_in_place$LT$regex_lite..hir..HirKind$GT$17h2a534849ff3b45eeE },
    Symbol { offset: 5573e5a58f60, size: bf, name: _ZN4core3ptr64drop_in_place$LT$alloc..vec..Vec$LT$regex_lite..hir..Hir$GT$$GT$17ha392081244742e12E },
    Symbol { offset: 5573e5a58b70, size: 1c0, name: _ZN4core3ptr41drop_in_place$LT$regex_lite..hir..Hir$GT$17h0b43cea035afe368E.llvm.2098019416168531722 },
    Symbol { offset: 5573e5a59ff0, size: 501, name: _ZN62_$LT$regex_lite..hir..Hir$u20$as$u20$core..ops..drop..Drop$GT$4drop17h171601323e8b5080E },
    Symbol { offset: 5573e5a58ed0, size: 83, name: _ZN4core3ptr51drop_in_place$LT$regex_lite..hir..parse..Parser$GT$17h7412cd341d3ba3b7E.llvm.2098019416168531722 },
    Symbol { offset: 5573e5a59020, size: 259, name: _ZN10regex_lite3hir3Hir5parse17h82d85c3871d83bd4E },
    Symbol { offset: 5573e5a59280, size: 1bc, name: _ZN10regex_lite3hir3Hir11alternation17h981b397e84b5831cE },
    Symbol { offset: 5573e5a59440, size: 87, name: _ZN10regex_lite3hir5Class3new17h1131390f26727466E },
    Symbol { offset: 5573e5b0a368, size: 18, name: anon.2baa79f77727a2c62e980dd26e64a5f9.1.llvm.2098019416168531722 },
    Symbol { offset: 5573e5a59ab0, size: 21b, name: _ZN10regex_lite3hir5Class12canonicalize17ha778a58711141c2bE.llvm.2098019416168531722 },
    Symbol { offset: 5573e5a594d0, size: 93, name: _ZN10regex_lite3hir5Class3new17h2c6e21dcba6d6222E },
    Symbol { offset: 5573e5a59570, size: 1e3, name: _ZN10regex_lite3hir5Class3new17h3db5c20d8c0caa27E },
    Symbol { offset: 5573e5a59760, size: 86, name: _ZN10regex_lite3hir5Class3new17hc148ff699c91a305E },
    Symbol { offset: 5573e5b0a3b0, size: 18, name: anon.2baa79f77727a2c62e980dd26e64a5f9.7.llvm.2098019416168531722 },
    Symbol { offset: 5573e5b0a398, size: 18, name: anon.2baa79f77727a2c62e980dd26e64a5f9.6.llvm.2098019416168531722 },
    Symbol { offset: 5573e5a597f0, size: 2b4, name: _ZN10regex_lite3hir5Class6negate17h1818ad02f7f3f200E },
    Symbol { offset: 5573e5a59cd0, size: 315, name: _ZN10regex_lite3hir4Look8is_match17h6a83135b1c2c2a74E },
    Symbol { offset: 5573e59eb404, size: 58, name: anon.2baa79f77727a2c62e980dd26e64a5f9.0.llvm.2098019416168531722 },
    Symbol { offset: 5573e59eb45c, size: 67, name: anon.2baa79f77727a2c62e980dd26e64a5f9.4.llvm.2098019416168531722 },
    Symbol { offset: 5573e5a5a810, size: 1a0, name: _ZN4core3ptr45drop_in_place$LT$regex_lite..hir..HirKind$GT$17h2a534849ff3b45eeE },
    Symbol { offset: 5573e5a5a500, size: 16d, name: _ZN137_$LT$alloc..vec..Vec$LT$T$GT$$u20$as$u20$alloc..vec..spec_from_iter..SpecFromIter$LT$T$C$alloc..vec..into_iter..IntoIter$LT$T$GT$$GT$$GT$9from_iter17h309cd66b47e7dbd1E },
    Symbol { offset: 5573e5a5a670, size: 1a0, name: _ZN4core3ptr41drop_in_place$LT$regex_lite..hir..Hir$GT$17h0b43cea035afe368E.llvm.6248064461422729077 },
    Symbol { offset: 5573e5a5a9b0, size: 133, name: _ZN5alloc3vec16Vec$LT$T$C$A$GT$14extend_trusted17h537424e99a0f6510E },
    Symbol { offset: 5573e5b0a668, size: 18, name: anon.ab6f47d5064f865df7625676495cbf76.3.llvm.6248064461422729077 },
    Symbol { offset: 5573e5b0a680, size: 18, name: anon.ab6f47d5064f865df7625676495cbf76.5.llvm.6248064461422729077 },
    Symbol { offset: 5573e5a5aaf0, size: 74, name: _ZN70_$LT$alloc..vec..Vec$LT$T$C$A$GT$$u20$as$u20$core..ops..drop..Drop$GT$4drop17h6bb4581fae174495E },
    Symbol { offset: 5573e5a5ab70, size: 111, name: _ZN98_$LT$alloc..vec..Vec$LT$T$GT$$u20$as$u20$alloc..vec..spec_from_iter..SpecFromIter$LT$T$C$I$GT$$GT$9from_iter17h7e9a8fd3cb156f0fE },
    Symbol { offset: 5573e5a5ac90, size: 111, name: _ZN98_$LT$alloc..vec..Vec$LT$T$GT$$u20$as$u20$alloc..vec..spec_from_iter..SpecFromIter$LT$T$C$I$GT$$GT$9from_iter17h99bbea7f453fd438E },
    Symbol { offset: 5573e5a5adb0, size: b8, name: _ZN98_$LT$alloc..vec..Vec$LT$T$GT$$u20$as$u20$alloc..vec..spec_from_iter..SpecFromIter$LT$T$C$I$GT$$GT$9from_iter17hdecb5e8c6d65c6adE },
    Symbol { offset: 5573e59eb52c, size: 4c, name: anon.ab6f47d5064f865df7625676495cbf76.2.llvm.6248064461422729077 },
    Symbol { offset: 5573e59eb578, size: 4a, name: anon.ab6f47d5064f865df7625676495cbf76.4.llvm.6248064461422729077 },
    Symbol { offset: 5573e5a5ae70, size: 218, name: _ZN5alloc4sync16Arc$LT$T$C$A$GT$9drop_slow17h454046a6aeffce0dE },
    Symbol { offset: 5573e5a5b090, size: 2d, name: _ZN5alloc4sync16Arc$LT$T$C$A$GT$9drop_slow17h495bf934a72d7715E },
    Symbol { offset: 5573e59eb5c2, size: 2b, name: anon.2c833a38327b2f6d0a66fc64cd3bb605.4.llvm.5111810270970580543 },
    Symbol { offset: 5573e5b0a698, size: 20, name: anon.2c833a38327b2f6d0a66fc64cd3bb605.3.llvm.5111810270970580543 },
    Symbol { offset: 5573e5b0a6b8, size: 18, name: anon.2c833a38327b2f6d0a66fc64cd3bb605.6.llvm.5111810270970580543 },
    Symbol { offset: 5573e5a5b0e0, size: 1d7, name: _ZN71_$LT$core..hash..sip..Hasher$LT$S$GT$$u20$as$u20$core..hash..Hasher$GT$5write17hdeb740d8a9c973b0E.llvm.5111810270970580543 },
    Symbol { offset: 5573e5a5b0c0, size: 15, name: _ZN69_$LT$core..alloc..layout..LayoutError$u20$as$u20$core..fmt..Debug$GT$3fmt17hbaa65eea7f1a89d3E.llvm.5111810270970580543 },
    Symbol { offset: 5573e5a5b2c0, size: 297, name: _ZN9hashbrown3map28HashMap$LT$K$C$V$C$S$C$A$GT$6insert17hf1d054724e2fcb5fE },
    Symbol { offset: 5573e59eb5ed, size: 49, name: anon.2c833a38327b2f6d0a66fc64cd3bb605.5.llvm.5111810270970580543 },
    Symbol { offset: 5573e5a5b560, size: 10, name: _ZN4core3ops8function6FnOnce9call_once17h9cb86e9ee8da658cE },
    Symbol { offset: 5573e5a5b570, size: b6, name: _ZN4core3ptr181drop_in_place$LT$hashbrown..scopeguard..ScopeGuard$LT$$RF$mut$u20$hashbrown..raw..RawTableInner$C$hashbrown..raw..RawTableInner..rehash_in_place..$u7b$$u7b$closure$u7d$$u7d$$GT$$GT$17h515c627afd6b9584E },
    Symbol { offset: 5573e5a5b630, size: 3d, name: _ZN4core3ptr196drop_in_place$LT$hashbrown..scopeguard..ScopeGuard$LT$hashbrown..raw..RawTableInner$C$hashbrown..raw..RawTableInner..prepare_resize$LT$alloc..alloc..Global$GT$..$u7b$$u7b$closure$u7d$$u7d$$GT$$GT$17ha76be6a548eb2badE },
    Symbol { offset: 5573e5a5b670, size: 6cc, name: _ZN9hashbrown3raw21RawTable$LT$T$C$A$GT$14reserve_rehash17h23d908ebdcda078eE },
    Symbol { offset: 5573e5a5bd40, size: 138, name: _ZN4core3ops8function6FnOnce40call_once$u7b$$u7b$vtable.shim$u7d$$u7d$17h144a71c02e812426E },
    Symbol { offset: 5573e5a5be80, size: 10, name: _ZN4core3ptr120drop_in_place$LT$$LT$regex_lite..string..Regex$u20$as$u20$core..clone..Clone$GT$..clone..$u7b$$u7b$closure$u7d$$u7d$$GT$17h2f9aeb8f8c685efbE },
    Symbol { offset: 5573e5a5be90, size: 1a0, name: _ZN4core3ptr41drop_in_place$LT$regex_lite..hir..Hir$GT$17h0b43cea035afe368E },
    Symbol { offset: 5573e5a5c030, size: 1a0, name: _ZN4core3ptr45drop_in_place$LT$regex_lite..hir..HirKind$GT$17h2a534849ff3b45eeE },
    Symbol { offset: 5573e5a5c1d0, size: 284, name: _ZN4core3ptr76drop_in_place$LT$alloc..sync..ArcInner$LT$regex_lite..pikevm..PikeVM$GT$$GT$17ha9e3074e2dacee4fE },
    Symbol { offset: 5573e5a5c460, size: 105, name: _ZN4core3ptr99drop_in_place$LT$alloc..vec..Vec$LT$core..option..Option$LT$alloc..sync..Arc$LT$str$GT$$GT$$GT$$GT$17h09c1a54134dc389eE },
    Symbol { offset: 5573e59fdd24, size: 4, name: .Lanon.67ae73b40e129d10f17b191b9c9a12a1.3 },
    Symbol { offset: 5573e59fdc9c, size: 4, name: .Lanon.67ae73b40e129d10f17b191b9c9a12a1.1 },
    Symbol { offset: 5573e59fd3e0, size: 10, name: .Lanon.67ae73b40e129d10f17b191b9c9a12a1.8 },
    Symbol { offset: 5573e59fdeea, size: 1, name: .Lanon.67ae73b40e129d10f17b191b9c9a12a1.21 },
    Symbol { offset: 5573e5a5c930, size: fe, name: _ZN10regex_lite6string12RegexBuilder5build28_$u7b$$u7b$closure$u7d$$u7d$17he8bf207c928fb7c5E },
    Symbol { offset: 5573e5a5c570, size: ff, name: _ZN10regex_lite6string5Regex3new17hf87747b4f27b6680E },
    Symbol { offset: 5573e5a5c670, size: 2ba, name: _ZN10regex_lite6string12RegexBuilder5build17h86fdb90b44d9c74eE },
    Symbol { offset: 5573e5a5ca30, size: 23, name: _ZN4core3fmt3num50_$LT$impl$u20$core..fmt..Debug$u20$for$u20$u32$GT$3fmt17hc1ecbfcf2e19d62dE },
    Symbol { offset: 5573e5a5ca60, size: 23, name: _ZN4core3fmt3num52_$LT$impl$u20$core..fmt..Debug$u20$for$u20$usize$GT$3fmt17h7abaade222174992E },
    Symbol { offset: 5573e5a5caf0, size: 29, name: _ZN70_$LT$core..num..error..TryFromIntError$u20$as$u20$core..fmt..Debug$GT$3fmt17h1ec19825d3f66aafE },
    Symbol { offset: 5573e5a5d320, size: 7ca, name: _ZN10regex_lite6pikevm6PikeVM15epsilon_closure17hb333ac847752dbe4E },
    Symbol { offset: 5573e59fdca4, size: 4, name: .Lanon.02126c869fa86e087beef59b85293cb7.40 },
    Symbol { offset: 5573e5a5ca90, size: 5a, name: _ZN4core3ptr53drop_in_place$LT$regex_lite..pikevm..ActiveStates$GT$17h9969aca44f1b9fdaE.llvm.13615553947055598479 },
    Symbol { offset: 5573e5a5cb20, size: 7f2, name: _ZN10regex_lite6pikevm6PikeVM6search17h9cfea1aa32ed8b8cE },
    Symbol { offset: 5573e5a5daf0, size: 352, name: _ZN10regex_lite6pikevm12ActiveStates3new17he7053f8072fc5de0E.llvm.13615553947055598479 },
    Symbol { offset: 5573e5a5de50, size: 737, name: _ZN4core5slice4sort6stable5drift4sort17h857ad5c19c8da18eE },
    Symbol { offset: 5573e5a5e590, size: 4cf, name: _ZN4core5slice4sort6shared9smallsort12sort8_stable17h1a353414a65c42a3E },
    Symbol { offset: 5573e59fd3e0, size: 10, name: .Lanon.a388e5f8016c3675091ee423b55ded4c.0 },
    Symbol { offset: 5573e5a5ea60, size: be, name: _ZN4core5slice4sort6shared9smallsort25insertion_sort_shift_left17h03d962504840de47E },
    Symbol { offset: 5573e5a5eb20, size: 56e, name: _ZN4core5slice4sort6shared9smallsort31small_sort_general_with_scratch17h489ab49e053d8c9dE },
    Symbol { offset: 5573e5a5f090, size: 5d, name: _ZN63_$LT$regex_lite..error..Error$u20$as$u20$core..fmt..Display$GT$3fmt17hcc39f7c89aa5e16dE },
    Symbol { offset: 5573e5a5f0f0, size: 15, name: _ZN42_$LT$$RF$T$u20$as$u20$core..fmt..Debug$GT$3fmt17h39ec908cb63b693dE },
    Symbol { offset: 5573e5a5f110, size: 9, name: _ZN42_$LT$$RF$T$u20$as$u20$core..fmt..Debug$GT$3fmt17h7d4efbb55d3da8aaE },
    Symbol { offset: 5573e5a5f120, size: 13, name: _ZN42_$LT$$RF$T$u20$as$u20$core..fmt..Debug$GT$3fmt17he26aa9b9a30f523dE },
    Symbol { offset: 5573e5a5f140, size: 13, name: _ZN44_$LT$$RF$T$u20$as$u20$core..fmt..Display$GT$3fmt17h3a5663a17ea6d228E },
    Symbol { offset: 5573e5a5f160, size: 16e, name: _ZN4core4hash11BuildHasher8hash_one17hb82b6638ad9d6607E },
    Symbol { offset: 5573e5a5f2d0, size: 135, name: _ZN4core5slice4sort6stable14driftsort_main17h9dae56fe281b135bE },
    Symbol { offset: 5573e59eb815, size: 100, name: anon.5ce6651e20f619fea04feaa3ab29b221.1.llvm.12901240792416054733 },
    Symbol { offset: 5573e59eb979, size: 100, name: anon.5ce6651e20f619fea04feaa3ab29b221.4.llvm.12901240792416054733 },
    Symbol { offset: 5573e59eba79, size: 6c, name: anon.5ce6651e20f619fea04feaa3ab29b221.5.llvm.12901240792416054733 },
    Symbol { offset: 5573e5b0a940, size: 18, name: anon.5ce6651e20f619fea04feaa3ab29b221.3.llvm.12901240792416054733 },
    Symbol { offset: 5573e5b0a958, size: 18, name: anon.5ce6651e20f619fea04feaa3ab29b221.6.llvm.12901240792416054733 },
    Symbol { offset: 5573e59eb915, size: 64, name: anon.5ce6651e20f619fea04feaa3ab29b221.2.llvm.12901240792416054733 },
    Symbol { offset: 5573e5a5f410, size: 6c, name: _ZN5alloc7raw_vec11finish_grow17h22749841c4040bcbE.llvm.15705291424126395909 },
    Symbol { offset: 5573e5a5f480, size: b4, name: _ZN5alloc7raw_vec19RawVec$LT$T$C$A$GT$8grow_one17h021c2c0c58d6d71fE },
    Symbol { offset: 5573e5a5f540, size: b5, name: _ZN5alloc7raw_vec19RawVec$LT$T$C$A$GT$8grow_one17h1d3b491d55606a98E },
    Symbol { offset: 5573e5a5f600, size: b5, name: _ZN5alloc7raw_vec19RawVec$LT$T$C$A$GT$8grow_one17h40ac7f7ae9228ba3E },
    Symbol { offset: 5573e5a5f6c0, size: b4, name: _ZN5alloc7raw_vec19RawVec$LT$T$C$A$GT$8grow_one17h4baf385f6d9b015bE },
    Symbol { offset: 5573e5a5f780, size: b4, name: _ZN5alloc7raw_vec19RawVec$LT$T$C$A$GT$8grow_one17h5a6a84edc4d6f7b0E },
    Symbol { offset: 5573e5a5f840, size: b5, name: _ZN5alloc7raw_vec19RawVec$LT$T$C$A$GT$8grow_one17hd85c58fdc6b87b9bE },
    Symbol { offset: 5573e5a5f900, size: f5, name: _ZN5alloc7raw_vec20RawVecInner$LT$A$GT$7reserve21do_reserve_and_handle17ha2daf49c779c5eafE },
    Symbol { offset: 5573e5b0a970, size: 18, name: anon.b43b67817a9c8c6bbfb29e407694048e.1.llvm.15705291424126395909 },
    Symbol { offset: 5573e59ebae5, size: 50, name: anon.b43b67817a9c8c6bbfb29e407694048e.0.llvm.15705291424126395909 },
    Symbol { offset: 5573e5a5f480, size: b4, name: _ZN5alloc7raw_vec19RawVec$LT$T$C$A$GT$8grow_one17h789467cebe6f01c3E },
    Symbol { offset: 5573e59fdd24, size: 4, name: .Lanon.13d03069079e1d8295e9691585b22122.8 },
    Symbol { offset: 5573e59fdc9c, size: 4, name: .Lanon.13d03069079e1d8295e9691585b22122.7 },
    Symbol { offset: 5573e5a5fa00, size: df, name: _ZN4core5slice4sort6shared5pivot11median3_rec17h49ebf3e9cb98ab95E },
    Symbol { offset: 5573e59fd3e0, size: 10, name: .Lanon.13d03069079e1d8295e9691585b22122.9 },
    Symbol { offset: 5573e5a5fae0, size: 754, name: _ZN4core5slice4sort6stable9quicksort9quicksort17hc9f6de8129e6e14aE },
    Symbol { offset: 5573e5a60234, size: 2e, name: _ZN4core9panicking13assert_failed17h140a33c804e0816aE },
    Symbol { offset: 5573e5a60470, size: 1a0, name: _ZN4core3ptr45drop_in_place$LT$regex_lite..hir..HirKind$GT$17h2a534849ff3b45eeE },
    Symbol { offset: 5573e5a60270, size: 55, name: _ZN4core3ptr167drop_in_place$LT$$LT$alloc..vec..drain..Drain$LT$T$C$A$GT$$u20$as$u20$core..ops..drop..Drop$GT$..drop..DropGuard$LT$regex_lite..hir..Hir$C$alloc..alloc..Global$GT$$GT$17hadf0eea4c360272eE.llvm.16694509929625037656 },
    Symbol { offset: 5573e5a602d0, size: 1a0, name: _ZN4core3ptr41drop_in_place$LT$regex_lite..hir..Hir$GT$17h0b43cea035afe368E.llvm.16694509929625037656 },
    Symbol { offset: 5573e5a60610, size: dc, name: _ZN79_$LT$alloc..vec..drain..Drain$LT$T$C$A$GT$$u20$as$u20$core..ops..drop..Drop$GT$4drop17hd4ba310ff36e7b14E },
    Symbol { offset: 5573e5a60a60, size: 1d6, name: _ZN115_$LT$core..iter..adapters..filter_map..FilterMap$LT$I$C$F$GT$$u20$as$u20$core..iter..traits..iterator..Iterator$GT$4next17h5c5f7aadb252a6f8E },
    Symbol { offset: 5573e5a60f00, size: 5a, name: _ZN4core3ptr168drop_in_place$LT$alloc..boxed..Box$LT$dyn$u20$core..iter..traits..iterator..Iterator$u2b$Item$u20$$u3d$$u20$clap_builder..builder..possible_value..PossibleValue$GT$$GT$17hf6c1d259cdc10a20E },
    Symbol { offset: 5573e5a60f60, size: 49, name: _ZN4core3ptr415drop_in_place$LT$core..iter..adapters..filter_map..FilterMap$LT$core..iter..adapters..flatten..FlatMap$LT$core..slice..iter..Iter$LT$clap_builder..util..id..Id$GT$$C$alloc..vec..Vec$LT$clap_builder..util..id..Id$GT$$C$clap_builder..parser..validator..Validator..build_conflict_err..$u7b$$u7b$closure$u7d$$u7d$$GT$$C$clap_builder..parser..validator..Validator..build_conflict_err..$u7b$$u7b$closure$u7d$$u7d$$GT$$GT$17h9aad23cfce9a0fddE },
    Symbol { offset: 5573e5a60fb0, size: 18, name: _ZN4core3ptr42drop_in_place$LT$alloc..string..String$GT$17hd6d205257de6c30dE },
    Symbol { offset: 5573e5a60fd0, size: 113, name: _ZN4core3ptr51drop_in_place$LT$clap_builder..mkeymap..MKeyMap$GT$17h8cdf7013464c0061E },
    Symbol { offset: 5573e5a61740, size: 2f, name: _ZN4core3ptr59drop_in_place$LT$clap_builder..builder..ext..Extensions$GT$17h6250317f4a1980b8E },
    Symbol { offset: 5573e5a62030, size: c5, name: _ZN4core3ptr83drop_in_place$LT$alloc..vec..Vec$LT$clap_builder..builder..command..Command$GT$$GT$17hbcc6be51da7f59c0E },
    Symbol { offset: 5573e5a62200, size: bc, name: _ZN4core3ptr86drop_in_place$LT$alloc..vec..Vec$LT$clap_builder..builder..arg_group..ArgGroup$GT$$GT$17h73eac3c678916fccE },
    Symbol { offset: 5573e5a62470, size: 6a, name: _ZN4core3ptr97drop_in_place$LT$core..option..Option$LT$clap_builder..builder..value_parser..ValueParser$GT$$GT$17h896cf89adc29d282E },
    Symbol { offset: 5573e5a61db0, size: c6, name: _ZN4core3ptr75drop_in_place$LT$alloc..vec..Vec$LT$clap_builder..builder..arg..Arg$GT$$GT$17hce0657f7eb2bad80E },
    Symbol { offset: 5573e5a623c0, size: a2, name: _ZN4core3ptr96drop_in_place$LT$alloc..vec..Vec$LT$clap_builder..builder..possible_value..PossibleValue$GT$$GT$17h2da977e3cad7124cE },
    Symbol { offset: 5573e5a624e0, size: 15, name: _ZN53_$LT$core..fmt..Error$u20$as$u20$core..fmt..Debug$GT$3fmt17h6736176c8e29474eE },
    Symbol { offset: 5573e5a62500, size: 123, name: _ZN58_$LT$alloc..string..String$u20$as$u20$core..fmt..Write$GT$10write_char17h13db4e3872bba170E },
    Symbol { offset: 5573e5a62630, size: 67, name: _ZN58_$LT$alloc..string..String$u20$as$u20$core..fmt..Write$GT$9write_str17h3471f8bf4fd2c6acE },
    Symbol { offset: 5573e5a6b240, size: 1d5, name: _ZN89_$LT$clap_builder..util..flat_map..FlatMap$LT$K$C$V$GT$$u20$as$u20$core..clone..Clone$GT$5clone17hedcefa6131602adbE },
    Symbol { offset: 5573e5a606f0, size: 1d5, name: _ZN102_$LT$core..iter..adapters..map..Map$LT$I$C$F$GT$$u20$as$u20$core..iter..traits..iterator..Iterator$GT$4next17hf735045db9572ff8E.llvm.1166402563287251628 },
    Symbol { offset: 5573e5a608d0, size: 18f, name: _ZN104_$LT$core..iter..sources..from_fn..FromFn$LT$F$GT$$u20$as$u20$core..iter..traits..iterator..Iterator$GT$4next17h2e0924c69edb95c7E.llvm.1166402563287251628 },
    Symbol { offset: 5573e5a60c40, size: 68, name: _ZN132_$LT$alloc..vec..Vec$LT$T$C$A$GT$$u20$as$u20$alloc..vec..spec_extend..SpecExtend$LT$$RF$T$C$core..slice..iter..Iter$LT$T$GT$$GT$$GT$11spec_extend17hb48620575a70ee94E },
    Symbol { offset: 5573e5a60cb0, size: 174, name: _ZN137_$LT$alloc..vec..Vec$LT$T$GT$$u20$as$u20$alloc..vec..spec_from_iter..SpecFromIter$LT$T$C$alloc..vec..into_iter..IntoIter$LT$T$GT$$GT$$GT$9from_iter17hcf97cb17769785ebE },
    Symbol { offset: 5573e5a61bb0, size: 82, name: _ZN4core3ptr65drop_in_place$LT$alloc..vec..Vec$LT$alloc..string..String$GT$$GT$17he3fc526f4bc110e4E.llvm.1166402563287251628 },
    Symbol { offset: 5573e5a60e30, size: c3, name: _ZN4core3ptr106drop_in_place$LT$alloc..vec..Vec$LT$alloc..vec..Vec$LT$clap_builder..util..any_value..AnyValue$GT$$GT$$GT$17h3ed8dbed13fd4322E.llvm.1166402563287251628 },
    Symbol { offset: 5573e5a62100, size: 100, name: _ZN4core3ptr83drop_in_place$LT$alloc..vec..Vec$LT$clap_builder..util..any_value..AnyValue$GT$$GT$17h15a57a300a5d8834E.llvm.1166402563287251628 },
    Symbol { offset: 5573e5a610f0, size: 643, name: _ZN4core3ptr52drop_in_place$LT$clap_builder..builder..arg..Arg$GT$17he9c0a80b4a99c6b8E.llvm.1166402563287251628 },
    Symbol { offset: 5573e5a61770, size: 43d, name: _ZN4core3ptr60drop_in_place$LT$clap_builder..builder..command..Command$GT$17h085a707d824bb3aeE.llvm.1166402563287251628 },
    Symbol { offset: 5573e5a61c40, size: 82, name: _ZN4core3ptr70drop_in_place$LT$alloc..vec..Vec$LT$std..ffi..os_str..OsString$GT$$GT$17h1d058bcecc253de2E.llvm.1166402563287251628 },
    Symbol { offset: 5573e5a61cd0, size: 87, name: _ZN4core3ptr73drop_in_place$LT$alloc..vec..Vec$LT$alloc..borrow..Cow$LT$str$GT$$GT$$GT$17ha20b34a2bd4c5b64E.llvm.1166402563287251628 },
    Symbol { offset: 5573e5a61d60, size: 45, name: _ZN4core3ptr73drop_in_place$LT$clap_builder..builder..possible_value..PossibleValue$GT$17hf849e3b8c7416193E.llvm.1166402563287251628 },
    Symbol { offset: 5573e5a61e80, size: 1b0, name: _ZN4core3ptr75drop_in_place$LT$clap_builder..parser..matches..matched_arg..MatchedArg$GT$17h446a62dc874f2d0cE.llvm.1166402563287251628 },
    Symbol { offset: 5573e5a622c0, size: f2, name: _ZN4core3ptr93drop_in_place$LT$alloc..vec..Vec$LT$alloc..vec..Vec$LT$std..ffi..os_str..OsString$GT$$GT$$GT$17h84d91d98f61ee896E.llvm.1166402563287251628 },
    Symbol { offset: 5573e5a626a0, size: 16e, name: _ZN5alloc3vec16Vec$LT$T$C$A$GT$14extend_trusted17hc6a15569e79ee6fcE },
    Symbol { offset: 5573e5a62810, size: 144, name: _ZN5alloc3vec16Vec$LT$T$C$A$GT$16extend_desugared17he72627cf9d68a71bE },
    Symbol { offset: 5573e5b0aa98, size: 18, name: anon.d4a322b4920787fc62e45f72958bd74b.13.llvm.1166402563287251628 },
    Symbol { offset: 5573e5a62960, size: 171, name: _ZN5alloc3vec16Vec$LT$T$C$A$GT$16extend_desugared17hebbf35f4d57c3687E },
    Symbol { offset: 5573e5b0aa50, size: 18, name: anon.d4a322b4920787fc62e45f72958bd74b.9.llvm.1166402563287251628 },
    Symbol { offset: 5573e5b0aa68, size: 18, name: anon.d4a322b4920787fc62e45f72958bd74b.11.llvm.1166402563287251628 },
    Symbol { offset: 5573e5b0aa80, size: 18, name: anon.d4a322b4920787fc62e45f72958bd74b.12.llvm.1166402563287251628 },
    Symbol { offset: 5573e5a62ae0, size: 1456, name: _ZN67_$LT$alloc..vec..Vec$LT$T$C$A$GT$$u20$as$u20$core..clone..Clone$GT$5clone17h23c69ca4f1038e31E },
    Symbol { offset: 5573e5a64a90, size: 1b62, name: _ZN67_$LT$alloc..vec..Vec$LT$T$C$A$GT$$u20$as$u20$core..clone..Clone$GT$5clone17ha43286c94b5cab7fE },
    Symbol { offset: 5573e5a64320, size: 50f, name: _ZN67_$LT$alloc..vec..Vec$LT$T$C$A$GT$$u20$as$u20$core..clone..Clone$GT$5clone17h5e17004e0548f8ebE },
    Symbol { offset: 5573e5a63f40, size: 3d3, name: _ZN67_$LT$alloc..vec..Vec$LT$T$C$A$GT$$u20$as$u20$core..clone..Clone$GT$5clone17h51fb627fabe15380E },
    Symbol { offset: 5573e5a64830, size: 256, name: _ZN67_$LT$alloc..vec..Vec$LT$T$C$A$GT$$u20$as$u20$core..clone..Clone$GT$5clone17h8868c5f161859bd1E },
    Symbol { offset: 5573e5a66600, size: 45, name: _ZN70_$LT$alloc..vec..Vec$LT$T$C$A$GT$$u20$as$u20$core..ops..drop..Drop$GT$4drop17h1f851433c7e22dccE },
    Symbol { offset: 5573e5a66650, size: 45, name: _ZN70_$LT$alloc..vec..Vec$LT$T$C$A$GT$$u20$as$u20$core..ops..drop..Drop$GT$4drop17h8b71898ced585431E },
    Symbol { offset: 5573e5a666a0, size: 152, name: _ZN97_$LT$alloc..vec..Vec$LT$T$C$A$GT$$u20$as$u20$alloc..vec..spec_extend..SpecExtend$LT$T$C$I$GT$$GT$11spec_extend17hfe72fda6d1cd0c1eE },
    Symbol { offset: 5573e5a66800, size: 36c, name: _ZN98_$LT$alloc..vec..Vec$LT$T$GT$$u20$as$u20$alloc..vec..spec_from_iter..SpecFromIter$LT$T$C$I$GT$$GT$9from_iter17h07e1f115e629c201E },
    Symbol { offset: 5573e5a66b70, size: 16b, name: _ZN98_$LT$alloc..vec..Vec$LT$T$GT$$u20$as$u20$alloc..vec..spec_from_iter..SpecFromIter$LT$T$C$I$GT$$GT$9from_iter17h0bccfd6a24cc4aafE },
    Symbol { offset: 5573e5a66ce0, size: 281, name: _ZN98_$LT$alloc..vec..Vec$LT$T$GT$$u20$as$u20$alloc..vec..spec_from_iter..SpecFromIter$LT$T$C$I$GT$$GT$9from_iter17h1ce18dc3bf54f946E },
    Symbol { offset: 5573e5a66f70, size: 197, name: _ZN98_$LT$alloc..vec..Vec$LT$T$GT$$u20$as$u20$alloc..vec..spec_from_iter..SpecFromIter$LT$T$C$I$GT$$GT$9from_iter17h1fb5819f8c52aa1aE },
    Symbol { offset: 5573e5a67110, size: 2cb, name: _ZN98_$LT$alloc..vec..Vec$LT$T$GT$$u20$as$u20$alloc..vec..spec_from_iter..SpecFromIter$LT$T$C$I$GT$$GT$9from_iter17h279ceaba4d72b8edE },
    Symbol { offset: 5573e5a673e0, size: 280, name: _ZN98_$LT$alloc..vec..Vec$LT$T$GT$$u20$as$u20$alloc..vec..spec_from_iter..SpecFromIter$LT$T$C$I$GT$$GT$9from_iter17h27efbc7335f02e65E },
    Symbol { offset: 5573e5a67660, size: 17c, name: _ZN98_$LT$alloc..vec..Vec$LT$T$GT$$u20$as$u20$alloc..vec..spec_from_iter..SpecFromIter$LT$T$C$I$GT$$GT$9from_iter17h2a152cdbce88b1d6E },
    Symbol { offset: 5573e5a677e0, size: 356, name: _ZN98_$LT$alloc..vec..Vec$LT$T$GT$$u20$as$u20$alloc..vec..spec_from_iter..SpecFromIter$LT$T$C$I$GT$$GT$9from_iter17h2b1cb7b5fd902d58E },
    Symbol { offset: 5573e5a67b40, size: 19d, name: _ZN98_$LT$alloc..vec..Vec$LT$T$GT$$u20$as$u20$alloc..vec..spec_from_iter..SpecFromIter$LT$T$C$I$GT$$GT$9from_iter17h3311ca6d51374a22E },
    Symbol { offset: 5573e5a67ce0, size: 10d, name: _ZN98_$LT$alloc..vec..Vec$LT$T$GT$$u20$as$u20$alloc..vec..spec_from_iter..SpecFromIter$LT$T$C$I$GT$$GT$9from_iter17h33416e5463343089E },
    Symbol { offset: 5573e5a67df0, size: d7, name: _ZN98_$LT$alloc..vec..Vec$LT$T$GT$$u20$as$u20$alloc..vec..spec_from_iter..SpecFromIter$LT$T$C$I$GT$$GT$9from_iter17h3c5d5b0a2a27d3e7E },
    Symbol { offset: 5573e5a67ed0, size: 22b, name: _ZN98_$LT$alloc..vec..Vec$LT$T$GT$$u20$as$u20$alloc..vec..spec_from_iter..SpecFromIter$LT$T$C$I$GT$$GT$9from_iter17h42eb036bda0aab19E },
    Symbol { offset: 5573e5a68100, size: 173, name: _ZN98_$LT$alloc..vec..Vec$LT$T$GT$$u20$as$u20$alloc..vec..spec_from_iter..SpecFromIter$LT$T$C$I$GT$$GT$9from_iter17h48ce9644027056fdE },
    Symbol { offset: 5573e5a68280, size: 3b6, name: _ZN98_$LT$alloc..vec..Vec$LT$T$GT$$u20$as$u20$alloc..vec..spec_from_iter..SpecFromIter$LT$T$C$I$GT$$GT$9from_iter17h54826a4400ceecacE },
    Symbol { offset: 5573e5a68640, size: 23b, name: _ZN98_$LT$alloc..vec..Vec$LT$T$GT$$u20$as$u20$alloc..vec..spec_from_iter..SpecFromIter$LT$T$C$I$GT$$GT$9from_iter17h648bc0c9e3b18a1bE },
    Symbol { offset: 5573e5a68880, size: 17c, name: _ZN98_$LT$alloc..vec..Vec$LT$T$GT$$u20$as$u20$alloc..vec..spec_from_iter..SpecFromIter$LT$T$C$I$GT$$GT$9from_iter17h715a16c9ff28436cE },
    Symbol { offset: 5573e5a68a00, size: 3b1, name: _ZN98_$LT$alloc..vec..Vec$LT$T$GT$$u20$as$u20$alloc..vec..spec_from_iter..SpecFromIter$LT$T$C$I$GT$$GT$9from_iter17h8fbf57817cd0a728E },
    Symbol { offset: 5573e5a68dc0, size: f8, name: _ZN98_$LT$alloc..vec..Vec$LT$T$GT$$u20$as$u20$alloc..vec..spec_from_iter..SpecFromIter$LT$T$C$I$GT$$GT$9from_iter17h9453f07f3a04c1a1E },
    Symbol { offset: 5573e5a68ec0, size: 324, name: _ZN98_$LT$alloc..vec..Vec$LT$T$GT$$u20$as$u20$alloc..vec..spec_from_iter..SpecFromIter$LT$T$C$I$GT$$GT$9from_iter17h950026fd0643c9f7E },
    Symbol { offset: 5573e5a691f0, size: 173, name: _ZN98_$LT$alloc..vec..Vec$LT$T$GT$$u20$as$u20$alloc..vec..spec_from_iter..SpecFromIter$LT$T$C$I$GT$$GT$9from_iter17h9b0167aa93defc05E },
    Symbol { offset: 5573e5a69370, size: f8, name: _ZN98_$LT$alloc..vec..Vec$LT$T$GT$$u20$as$u20$alloc..vec..spec_from_iter..SpecFromIter$LT$T$C$I$GT$$GT$9from_iter17h9e1ae96353454dbfE },
    Symbol { offset: 5573e5a69470, size: 297, name: _ZN98_$LT$alloc..vec..Vec$LT$T$GT$$u20$as$u20$alloc..vec..spec_from_iter..SpecFromIter$LT$T$C$I$GT$$GT$9from_iter17ha13ad37d9c2c8832E },
    Symbol { offset: 5573e5a69710, size: 22b, name: _ZN98_$LT$alloc..vec..Vec$LT$T$GT$$u20$as$u20$alloc..vec..spec_from_iter..SpecFromIter$LT$T$C$I$GT$$GT$9from_iter17ha6e8e1ea49606146E },
    Symbol { offset: 5573e5a69940, size: 289, name: _ZN98_$LT$alloc..vec..Vec$LT$T$GT$$u20$as$u20$alloc..vec..spec_from_iter..SpecFromIter$LT$T$C$I$GT$$GT$9from_iter17hae0a9647a75c4a21E },
    Symbol { offset: 5573e5a69bd0, size: 28d, name: _ZN98_$LT$alloc..vec..Vec$LT$T$GT$$u20$as$u20$alloc..vec..spec_from_iter..SpecFromIter$LT$T$C$I$GT$$GT$9from_iter17hcac362a1e5cd1d44E },
    Symbol { offset: 5573e5a69e60, size: 244, name: _ZN98_$LT$alloc..vec..Vec$LT$T$GT$$u20$as$u20$alloc..vec..spec_from_iter..SpecFromIter$LT$T$C$I$GT$$GT$9from_iter17hcaca5065ca85595bE },
    Symbol { offset: 5573e5a6a0b0, size: 590, name: _ZN98_$LT$alloc..vec..Vec$LT$T$GT$$u20$as$u20$alloc..vec..spec_from_iter..SpecFromIter$LT$T$C$I$GT$$GT$9from_iter17hd4d8cd16893aff2bE },
    Symbol { offset: 5573e5a6a640, size: 1bb, name: _ZN98_$LT$alloc..vec..Vec$LT$T$GT$$u20$as$u20$alloc..vec..spec_from_iter..SpecFromIter$LT$T$C$I$GT$$GT$9from_iter17hd738df835cbfcf60E },
    Symbol { offset: 5573e5a6a800, size: 1c7, name: _ZN98_$LT$alloc..vec..Vec$LT$T$GT$$u20$as$u20$alloc..vec..spec_from_iter..SpecFromIter$LT$T$C$I$GT$$GT$9from_iter17hdefa445535e7be71E },
    Symbol { offset: 5573e5a6a9d0, size: 866, name: _ZN98_$LT$alloc..vec..Vec$LT$T$GT$$u20$as$u20$alloc..vec..spec_from_iter..SpecFromIter$LT$T$C$I$GT$$GT$9from_iter17hfb74e2cb6cf4ed61E },
    Symbol { offset: 5573e59ebc67, size: 4c, name: anon.d4a322b4920787fc62e45f72958bd74b.8.llvm.1166402563287251628 },
    Symbol { offset: 5573e59ebcb3, size: 4a, name: anon.d4a322b4920787fc62e45f72958bd74b.10.llvm.1166402563287251628 },
    Symbol { offset: 5573e5a673e0, size: 280, name: _ZN98_$LT$alloc..vec..Vec$LT$T$GT$$u20$as$u20$alloc..vec..spec_from_iter..SpecFromIter$LT$T$C$I$GT$$GT$9from_iter17h67ba1e2f566ad6edE },
    Symbol { offset: 5573e5a673e0, size: 280, name: _ZN98_$LT$alloc..vec..Vec$LT$T$GT$$u20$as$u20$alloc..vec..spec_from_iter..SpecFromIter$LT$T$C$I$GT$$GT$9from_iter17h81b22bb0c1b98643E },
    Symbol { offset: 5573e5a6b420, size: 82, name: _ZN4core3ptr127drop_in_place$LT$alloc..vec..Vec$LT$$LP$$LP$usize$C$alloc..string..String$RP$$C$$RF$clap_builder..builder..arg..Arg$RP$$GT$$GT$17hc7535cddb307d0cbE },
    Symbol { offset: 5573e5a6b4b0, size: 82, name: _ZN4core3ptr150drop_in_place$LT$alloc..vec..Vec$LT$$LP$usize$C$clap_builder..builder..styled_str..StyledStr$C$$RF$clap_builder..builder..command..Command$RP$$GT$$GT$17h38509fed98cbb4fcE },
    Symbol { offset: 5573e5a6b540, size: 18, name: _ZN4core3ptr42drop_in_place$LT$alloc..string..String$GT$17hd6d205257de6c30dE },
    Symbol { offset: 5573e5a6b560, size: 113, name: _ZN4core3ptr51drop_in_place$LT$clap_builder..mkeymap..MKeyMap$GT$17h8cdf7013464c0061E },
    Symbol { offset: 5573e5a6b680, size: 120, name: _ZN4core3ptr59drop_in_place$LT$clap_builder..builder..ext..Extensions$GT$17h6250317f4a1980b8E },
    Symbol { offset: 5573e5a6b7a0, size: 41b, name: _ZN4core3ptr60drop_in_place$LT$clap_builder..builder..command..Command$GT$17h085a707d824bb3aeE },
    Symbol { offset: 5573e5a6bdb0, size: c5, name: _ZN4core3ptr83drop_in_place$LT$alloc..vec..Vec$LT$clap_builder..builder..command..Command$GT$$GT$17hbcc6be51da7f59c0E },
    Symbol { offset: 5573e5a6be80, size: bc, name: _ZN4core3ptr86drop_in_place$LT$alloc..vec..Vec$LT$clap_builder..builder..arg_group..ArgGroup$GT$$GT$17h73eac3c678916fccE },
    Symbol { offset: 5573e5a6bff0, size: 6a, name: _ZN4core3ptr97drop_in_place$LT$core..option..Option$LT$clap_builder..builder..value_parser..ValueParser$GT$$GT$17h896cf89adc29d282E },
    Symbol { offset: 5573e5a6bbc0, size: 82, name: _ZN4core3ptr65drop_in_place$LT$alloc..vec..Vec$LT$alloc..string..String$GT$$GT$17he3fc526f4bc110e4E },
    Symbol { offset: 5573e5a6bc50, size: 87, name: _ZN4core3ptr73drop_in_place$LT$alloc..vec..Vec$LT$alloc..borrow..Cow$LT$str$GT$$GT$$GT$17ha20b34a2bd4c5b64E },
    Symbol { offset: 5573e5a6bce0, size: c6, name: _ZN4core3ptr75drop_in_place$LT$alloc..vec..Vec$LT$clap_builder..builder..arg..Arg$GT$$GT$17hce0657f7eb2bad80E },
    Symbol { offset: 5573e5a6bf40, size: a2, name: _ZN4core3ptr96drop_in_place$LT$alloc..vec..Vec$LT$clap_builder..builder..possible_value..PossibleValue$GT$$GT$17h2da977e3cad7124cE },
    Symbol { offset: 5573e5a6c060, size: 15, name: _ZN53_$LT$core..fmt..Error$u20$as$u20$core..fmt..Debug$GT$3fmt17h6736176c8e29474eE },
    Symbol { offset: 5573e5a6c080, size: 123, name: _ZN58_$LT$alloc..string..String$u20$as$u20$core..fmt..Write$GT$10write_char17h13db4e3872bba170E },
    Symbol { offset: 5573e5a6c1b0, size: 67, name: _ZN58_$LT$alloc..string..String$u20$as$u20$core..fmt..Write$GT$9write_str17h3471f8bf4fd2c6acE },
    Symbol { offset: 5573e5a6c220, size: 74f, name: _ZN5alloc3str21_$LT$impl$u20$str$GT$7replace17h157b3cc8d8fe3cbeE },
    Symbol { offset: 5573e5a6c970, size: 14, name: _ZN60_$LT$alloc..string..String$u20$as$u20$core..fmt..Display$GT$3fmt17h253a895d4ea9e2d1E },
    Symbol { offset: 5573e5a6c990, size: 147, name: _ZN62_$LT$anstyle..style..Style$u20$as$u20$core..cmp..PartialEq$GT$2eq17hb5d51874be968b0cE },
    Symbol { offset: 5573e5a6cae0, size: 10, name: _ZN75_$LT$$RF$mut$u20$W$u20$as$u20$core..fmt..Write..write_fmt..SpecWriteFmt$GT$14spec_write_fmt17h39cb919f9ef5719bE },
    Symbol { offset: 5573e5a6caf0, size: 1d5, name: _ZN81_$LT$core..str..pattern..CharSearcher$u20$as$u20$core..str..pattern..Searcher$GT$10next_match17h06e5f2dd80a2a38eE },
    Symbol { offset: 5573e5a6e920, size: 1e63, name: _ZN12clap_builder6output13help_template12HelpTemplate14write_all_args17h9702788f6e2a160cE },
    Symbol { offset: 5573e5a6e790, size: 182, name: _ZN12clap_builder6output13help_template12HelpTemplate16write_after_help17h32b0abb6e417d564E },
    Symbol { offset: 5573e5a6e620, size: 16f, name: _ZN12clap_builder6output13help_template12HelpTemplate17write_before_help17ha2e332b189bd2792E },
    Symbol { offset: 5573e5a74ca0, size: 342, name: _ZN12clap_builder6output13help_template15option_sort_key17h066425bbffe895d6E },
    Symbol { offset: 5573e5a70790, size: 1039, name: _ZN12clap_builder6output13help_template12HelpTemplate10write_args17h59bb7adca82eac97E },
    Symbol { offset: 5573e5a74c70, size: 2d, name: _ZN12clap_builder6output13help_template19positional_sort_key17hf7d00a981fbcb297E },
    Symbol { offset: 5573e5a6e440, size: 1d3, name: _ZN12clap_builder6output13help_template12HelpTemplate11write_about17h7892c249829bbe13E },
    Symbol { offset: 5573e5a73950, size: 1047, name: _ZN12clap_builder6output13help_template12HelpTemplate17write_subcommands17h0c98860bacb53c41E },
    Symbol { offset: 5573e59fdc58, size: 4, name: .Lanon.f89ea7ba07072980603967822c8f93a2.47 },
    Symbol { offset: 5573e59fde28, size: 8, name: .Lanon.f89ea7ba07072980603967822c8f93a2.52 },
    Symbol { offset: 5573e5a73430, size: 520, name: _ZN12clap_builder6output13help_template12HelpTemplate22write_flat_subcommands17h63ce2a271d27d3f1E },
    Symbol { offset: 5573e5a72530, size: ef9, name: _ZN12clap_builder6output13help_template12HelpTemplate9spec_vals17hbe3b82ee164f6350E },
    Symbol { offset: 5573e59fd3e0, size: 10, name: .Lanon.f89ea7ba07072980603967822c8f93a2.72 },
    Symbol { offset: 5573e5a717d0, size: d55, name: _ZN12clap_builder6output13help_template12HelpTemplate4help17hf93e88225d03a8d8E },
    Symbol { offset: 5573e59fd400, size: 10, name: .Lanon.f89ea7ba07072980603967822c8f93a2.75 },
    Symbol { offset: 5573e5a749a0, size: 2ce, name: _ZN12clap_builder6output13help_template12HelpTemplate12sc_spec_vals17h2c99d64dacfde763E },
    Symbol { offset: 5573e5a6cfe0, size: 331, name: _ZN12clap_builder6output13help_template12HelpTemplate3new17h3c9d59496b1cc98aE },
    Symbol { offset: 5573e5a6ccd0, size: 309, name: _ZN12clap_builder6output13help_template8AutoHelp10write_help17h717b0038194cd7bbE },
    Symbol { offset: 5573e5a6d320, size: 1120, name: _ZN12clap_builder6output13help_template12HelpTemplate20write_templated_help17h01fabdc306235d41E },
    Symbol { offset: 5573e59ec282, size: 7, name: anon.f89ea7ba07072980603967822c8f93a2.109.llvm.8086798522639418853 },
    Symbol { offset: 5573e5a74ff0, size: 16e, name: _ZN12clap_builder6output13help_template9parse_env17hbfc24dfd04889cadE.llvm.8086798522639418853 },
    Symbol { offset: 5573e59ec289, size: 5, name: anon.f89ea7ba07072980603967822c8f93a2.110.llvm.8086798522639418853 },
    Symbol { offset: 5573e59ec022, size: 62, name: anon.f89ea7ba07072980603967822c8f93a2.22.llvm.8086798522639418853 },
    Symbol { offset: 5573e5a75160, size: bb, name: _ZN49_$LT$T$u20$as$u20$alloc..string..SpecToString$GT$14spec_to_string17h0d40481fe5d332c6E },
    Symbol { offset: 5573e5a75370, size: 5f, name: _ZN4core3ptr100drop_in_place$LT$alloc..boxed..Box$LT$clap_builder..parser..matches..arg_matches..SubCommand$GT$$GT$17hb5564219b0f6b0b1E },
    Symbol { offset: 5573e5a76000, size: 149, name: _ZN4core3ptr75drop_in_place$LT$clap_builder..parser..matches..arg_matches..ArgMatches$GT$17h2c968ea20157ab57E },
    Symbol { offset: 5573e5a753d0, size: 5f, name: _ZN4core3ptr130drop_in_place$LT$core..option..Option$LT$$LP$alloc..string..String$C$core..option..Option$LT$alloc..string..String$GT$$RP$$GT$$GT$17h34adca02ae595b5aE },
    Symbol { offset: 5573e5a75450, size: fd, name: _ZN4core3ptr47drop_in_place$LT$clap_builder..error..Error$GT$17h446c1ada455939ceE },
    Symbol { offset: 5573e5a75550, size: 113, name: _ZN4core3ptr51drop_in_place$LT$clap_builder..mkeymap..MKeyMap$GT$17h8cdf7013464c0061E },
    Symbol { offset: 5573e5a75670, size: 120, name: _ZN4core3ptr59drop_in_place$LT$clap_builder..builder..ext..Extensions$GT$17h6250317f4a1980b8E },
    Symbol { offset: 5573e5a75790, size: 41b, name: _ZN4core3ptr60drop_in_place$LT$clap_builder..builder..command..Command$GT$17h085a707d824bb3aeE },
    Symbol { offset: 5573e5a76150, size: c5, name: _ZN4core3ptr83drop_in_place$LT$alloc..vec..Vec$LT$clap_builder..builder..command..Command$GT$$GT$17hbcc6be51da7f59c0E },
    Symbol { offset: 5573e5a76220, size: bc, name: _ZN4core3ptr86drop_in_place$LT$alloc..vec..Vec$LT$clap_builder..builder..arg_group..ArgGroup$GT$$GT$17h73eac3c678916fccE },
    Symbol { offset: 5573e5a764b0, size: 6a, name: _ZN4core3ptr97drop_in_place$LT$core..option..Option$LT$clap_builder..builder..value_parser..ValueParser$GT$$GT$17h896cf89adc29d282E },
    Symbol { offset: 5573e5a75bb0, size: ac, name: _ZN4core3ptr62drop_in_place$LT$clap_builder..parser..parser..ParseResult$GT$17hb6f2c975d7c371b2E },
    Symbol { offset: 5573e5a75c60, size: 86, name: _ZN4core3ptr63drop_in_place$LT$clap_builder..parser..validator..Validator$GT$17h997bffff087539beE },
    Symbol { offset: 5573e5a75cf0, size: 82, name: _ZN4core3ptr65drop_in_place$LT$alloc..vec..Vec$LT$alloc..string..String$GT$$GT$17he3fc526f4bc110e4E },
    Symbol { offset: 5573e5a75d80, size: a6, name: _ZN4core3ptr66drop_in_place$LT$clap_builder..parser..arg_matcher..ArgMatcher$GT$17h5f3f5a181657582cE },
    Symbol { offset: 5573e5a762e0, size: 83, name: _ZN4core3ptr89drop_in_place$LT$core..option..Option$LT$clap_builder..parser..parser..PendingArg$GT$$GT$17hcdb996485852528aE },
    Symbol { offset: 5573e5a75e30, size: 61, name: _ZN4core3ptr69drop_in_place$LT$clap_builder..builder..value_parser..ValueParser$GT$17h13633bd068aa22d1E },
    Symbol { offset: 5573e5a75ea0, size: 82, name: _ZN4core3ptr70drop_in_place$LT$alloc..vec..Vec$LT$std..ffi..os_str..OsString$GT$$GT$17h1d058bcecc253de2E },
    Symbol { offset: 5573e5a75f30, size: c6, name: _ZN4core3ptr75drop_in_place$LT$alloc..vec..Vec$LT$clap_builder..builder..arg..Arg$GT$$GT$17hce0657f7eb2bad80E },
    Symbol { offset: 5573e5a76370, size: 86, name: _ZN4core3ptr92drop_in_place$LT$clap_builder..util..graph..ChildGraph$LT$clap_builder..util..id..Id$GT$$GT$17haac2a21f7fa86a74E },
    Symbol { offset: 5573e5a76400, size: a2, name: _ZN4core3ptr96drop_in_place$LT$alloc..vec..Vec$LT$clap_builder..builder..possible_value..PossibleValue$GT$$GT$17h2da977e3cad7124cE },
    Symbol { offset: 5573e5a76520, size: bf, name: _ZN50_$LT$u8$u20$as$u20$alloc..string..SpecToString$GT$14spec_to_string17h8aec06541802d0b2E },
    Symbol { offset: 5573e5a767a0, size: 81, name: _ZN87_$LT$T$u20$as$u20$alloc..slice..$LT$impl$u20$$u5b$T$u5d$$GT$..to_vec_in..ConvertVec$GT$6to_vec17hc75bfb0cb94321b9E },
    Symbol { offset: 5573e5a7c1d0, size: 2cf, name: _ZN12clap_builder6parser6parser6Parser19possible_subcommand17h8ae1cee5ed5fb513E },
    Symbol { offset: 5573e5a7dd40, size: 562, name: _ZN12clap_builder6parser6parser6Parser15parse_opt_value17h622b07afafceaee3E },
    Symbol { offset: 5573e5a7e810, size: 1a06, name: _ZN12clap_builder6parser6parser6Parser5react17hcd7d810db49a86f9E },
    Symbol { offset: 5573e5a7e580, size: 282, name: _ZN12clap_builder6parser6parser6Parser15resolve_pending17h8a0089b4876b3ed4E },
    Symbol { offset: 5573e5a7c4a0, size: 189a, name: _ZN12clap_builder6parser6parser6Parser21parse_help_subcommand17hf88274c86424eb75E },
    Symbol { offset: 5573e5a80220, size: 333, name: _ZN12clap_builder6parser6parser6Parser7add_env17hca5353507dec6e66E },
    Symbol { offset: 5573e5a80560, size: 5d9, name: _ZN12clap_builder6parser6parser6Parser12add_defaults17h2152d0f7b689d836E },
    Symbol { offset: 5573e5a7e2b0, size: 2c8, name: _ZN12clap_builder6parser6parser6Parser15push_arg_values17h44f5f3849af7e34eE },
    Symbol { offset: 5573e5a80b40, size: 5b4, name: _ZN12clap_builder6parser6parser6Parser16start_custom_arg17hde52aed8d2243bbbE },
    Symbol { offset: 5573e59fdeea, size: 1, name: .Lanon.d00062142d192b4fbf027233e1350b17.13 },
    Symbol { offset: 5573e59fdca0, size: 4, name: .Lanon.d00062142d192b4fbf027233e1350b17.46 },
    Symbol { offset: 5573e5b0b038, size: 30, name: anon.d00062142d192b4fbf027233e1350b17.0.llvm.14307423920997052959 },
    Symbol { offset: 5573e59ec454, size: 37, name: anon.d00062142d192b4fbf027233e1350b17.1.llvm.14307423920997052959 },
    Symbol { offset: 5573e5b0b098, size: 20, name: anon.d00062142d192b4fbf027233e1350b17.6.llvm.14307423920997052959 },
    Symbol { offset: 5573e5b0b068, size: 18, name: anon.d00062142d192b4fbf027233e1350b17.3.llvm.14307423920997052959 },
    Symbol { offset: 5573e5b0b0d0, size: 18, name: anon.d00062142d192b4fbf027233e1350b17.12.llvm.14307423920997052959 },
    Symbol { offset: 5573e5a75220, size: 147, name: _ZN4core3ops8function5impls79_$LT$impl$u20$core..ops..function..FnMut$LT$A$GT$$u20$for$u20$$RF$mut$u20$F$GT$8call_mut17hba21555b2bda6010E },
    Symbol { offset: 5573e5a75430, size: 18, name: _ZN4core3ptr42drop_in_place$LT$alloc..string..String$GT$17hd6d205257de6c30dE.llvm.14307423920997052959 },
    Symbol { offset: 5573e5a765e0, size: 15, name: _ZN53_$LT$core..fmt..Error$u20$as$u20$core..fmt..Debug$GT$3fmt17h6736176c8e29474eE.llvm.14307423920997052959 },
    Symbol { offset: 5573e5a76600, size: 123, name: _ZN58_$LT$alloc..string..String$u20$as$u20$core..fmt..Write$GT$10write_char17h13db4e3872bba170E.llvm.14307423920997052959 },
    Symbol { offset: 5573e5a76730, size: 67, name: _ZN58_$LT$alloc..string..String$u20$as$u20$core..fmt..Write$GT$9write_str17h3471f8bf4fd2c6acE.llvm.14307423920997052959 },
    Symbol { offset: 5573e5a76830, size: 599a, name: _ZN12clap_builder6parser6parser6Parser16get_matches_with17h88a32d59bec855aaE },
    Symbol { offset: 5573e59ec48b, size: 4b, name: anon.d00062142d192b4fbf027233e1350b17.2.llvm.14307423920997052959 },
    Symbol { offset: 5573e59ec533, size: 4a, name: anon.d00062142d192b4fbf027233e1350b17.11.llvm.14307423920997052959 },
    Symbol { offset: 5573e5a81100, size: 5f, name: _ZN4core3ptr100drop_in_place$LT$alloc..boxed..Box$LT$clap_builder..parser..matches..arg_matches..SubCommand$GT$$GT$17hb5564219b0f6b0b1E },
    Symbol { offset: 5573e5a82150, size: 149, name: _ZN4core3ptr75drop_in_place$LT$clap_builder..parser..matches..arg_matches..ArgMatches$GT$17h2c968ea20157ab57E },
    Symbol { offset: 5573e5a81160, size: 82, name: _ZN4core3ptr38drop_in_place$LT$clap_lex..RawArgs$GT$17h229ab5d5cfa62f65E },
    Symbol { offset: 5573e5a811f0, size: fd, name: _ZN4core3ptr47drop_in_place$LT$clap_builder..error..Error$GT$17h446c1ada455939ceE },
    Symbol { offset: 5573e5a812f0, size: 113, name: _ZN4core3ptr51drop_in_place$LT$clap_builder..mkeymap..MKeyMap$GT$17h8cdf7013464c0061E },
    Symbol { offset: 5573e5a81410, size: 632, name: _ZN4core3ptr52drop_in_place$LT$clap_builder..builder..arg..Arg$GT$17he9c0a80b4a99c6b8E },
    Symbol { offset: 5573e5a81a50, size: 120, name: _ZN4core3ptr59drop_in_place$LT$clap_builder..builder..ext..Extensions$GT$17h6250317f4a1980b8E },
    Symbol { offset: 5573e5a81b70, size: 41b, name: _ZN4core3ptr60drop_in_place$LT$clap_builder..builder..command..Command$GT$17h085a707d824bb3aeE },
    Symbol { offset: 5573e5a822a0, size: c5, name: _ZN4core3ptr83drop_in_place$LT$alloc..vec..Vec$LT$clap_builder..builder..command..Command$GT$$GT$17hbcc6be51da7f59c0E },
    Symbol { offset: 5573e5a82370, size: bc, name: _ZN4core3ptr86drop_in_place$LT$alloc..vec..Vec$LT$clap_builder..builder..arg_group..ArgGroup$GT$$GT$17h73eac3c678916fccE },
    Symbol { offset: 5573e5a82550, size: 6a, name: _ZN4core3ptr97drop_in_place$LT$core..option..Option$LT$clap_builder..builder..value_parser..ValueParser$GT$$GT$17h896cf89adc29d282E },
    Symbol { offset: 5573e5a81f90, size: 5a, name: _ZN4core3ptr63drop_in_place$LT$clap_builder..builder..arg_group..ArgGroup$GT$17he8d80217f2cf512cE },
    Symbol { offset: 5573e5a81ff0, size: 82, name: _ZN4core3ptr65drop_in_place$LT$alloc..vec..Vec$LT$alloc..string..String$GT$$GT$17he3fc526f4bc110e4E },
    Symbol { offset: 5573e5a820a0, size: a6, name: _ZN4core3ptr66drop_in_place$LT$clap_builder..parser..arg_matcher..ArgMatcher$GT$17h5f3f5a181657582cE },
    Symbol { offset: 5573e5a82430, size: 83, name: _ZN4core3ptr89drop_in_place$LT$core..option..Option$LT$clap_builder..parser..parser..PendingArg$GT$$GT$17hcdb996485852528aE },
    Symbol { offset: 5573e5a825c0, size: 15, name: _ZN53_$LT$core..fmt..Error$u20$as$u20$core..fmt..Debug$GT$3fmt17h6736176c8e29474eE },
    Symbol { offset: 5573e5a825e0, size: 123, name: _ZN58_$LT$alloc..string..String$u20$as$u20$core..fmt..Write$GT$10write_char17h13db4e3872bba170E },
    Symbol { offset: 5573e5a82710, size: 67, name: _ZN58_$LT$alloc..string..String$u20$as$u20$core..fmt..Write$GT$9write_str17h3471f8bf4fd2c6acE },
    Symbol { offset: 5573e5a82780, size: 14, name: _ZN60_$LT$alloc..string..String$u20$as$u20$core..fmt..Display$GT$3fmt17h253a895d4ea9e2d1E },
    Symbol { offset: 5573e5a82890, size: 503, name: _ZN12clap_builder7builder7command7Command11subcommands17hc800ef26c0ec95d6E },
    Symbol { offset: 5573e5a83320, size: 132, name: _ZN12clap_builder7builder7command7Command5about17h803b57315e799497E },
    Symbol { offset: 5573e59fdba0, size: 20, name: .Lanon.469e0eff00662c4a4ecd91a9c53c812e.51 },
    Symbol { offset: 5573e59fd3e0, size: 10, name: .Lanon.469e0eff00662c4a4ecd91a9c53c812e.71 },
    Symbol { offset: 5573e5a82080, size: 18, name: _ZN4core3ptr65drop_in_place$LT$clap_builder..builder..styled_str..StyledStr$GT$17hdf2180b6513b2eb7E.llvm.15783265473784069914 },
    Symbol { offset: 5573e5a824c0, size: 86, name: _ZN4core3ptr92drop_in_place$LT$clap_builder..util..graph..ChildGraph$LT$clap_builder..util..id..Id$GT$$GT$17haac2a21f7fa86a74E.llvm.15783265473784069914 },
    Symbol { offset: 5573e5a827a0, size: e8, name: _ZN12clap_builder7builder7command7Command12arg_internal17h512cc4d4d4a423faE },
    Symbol { offset: 5573e5a83960, size: 50, name: _ZN12clap_builder7builder7command7Command16_build_recursive17h11c40d53843a685fE.llvm.15783265473784069914 },
    Symbol { offset: 5573e5a88f70, size: 8f2, name: _ZN12clap_builder7builder7command7Command25_build_bin_names_internal17h50c335b6aa750a7fE.llvm.15783265473784069914 },
    Symbol { offset: 5573e5a82da0, size: 449, name: _ZN12clap_builder7builder7command7Command15get_matches_mut17ha4fe3c5a9066014aE },
    Symbol { offset: 5573e5a83460, size: 4fb, name: _ZN12clap_builder7builder7command7Command9_do_parse17hc3ae357edb16da8bE },
    Symbol { offset: 5573e5a839b0, size: 4d7b, name: _ZN12clap_builder7builder7command7Command11_build_self17h4e8b67606fdcc2d3E },
    Symbol { offset: 5573e5b0b538, size: 30, name: anon.469e0eff00662c4a4ecd91a9c53c812e.54.llvm.15783265473784069914 },
    Symbol { offset: 5573e5a831f0, size: 124, name: _ZN12clap_builder7builder7command7Command13render_usage_17h9100cf0608d2f9baE },
    Symbol { offset: 5573e5a8a060, size: 37c, name: _ZN12clap_builder7builder7command7Command20unroll_args_in_group17he61d925b15974e13E },
    Symbol { offset: 5573e59fdcbc, size: 4, name: anon.469e0eff00662c4a4ecd91a9c53c812e.42.llvm.15783265473784069914 },
    Symbol { offset: 5573e5a88730, size: 832, name: _ZN12clap_builder7builder7command7Command17_build_subcommand17h1141e76dc641b0d9E },
    Symbol { offset: 5573e59ec974, size: 1, name: anon.469e0eff00662c4a4ecd91a9c53c812e.28.llvm.15783265473784069914 },
    Symbol { offset: 5573e5a89870, size: 376, name: _ZN12clap_builder7builder7command7Command12format_group17hdef175c54285ef87E },
    Symbol { offset: 5573e5a89bf0, size: 7e, name: _ZN12clap_builder7builder7command7Command4find17hcf73902a2814c027E },
    Symbol { offset: 5573e5a89c70, size: 3e8, name: _ZN12clap_builder7builder7command7Command14required_graph17h4318e3dda4373ddfE },
    Symbol { offset: 5573e5b0b5b0, size: 18, name: anon.469e0eff00662c4a4ecd91a9c53c812e.63.llvm.15783265473784069914 },
    Symbol { offset: 5573e59ecbad, size: 63, name: anon.469e0eff00662c4a4ecd91a9c53c812e.64.llvm.15783265473784069914 },
    Symbol { offset: 5573e5a8a3e0, size: 5d5, name: _ZN12clap_builder7builder7command7Command19unroll_arg_requires17h5c373a35215ac5a8E },
    Symbol { offset: 5573e5a8a9c0, size: 7c, name: _ZN12clap_builder7builder7command7Command17find_short_subcmd17h25b0c38e61df339cE },
    Symbol { offset: 5573e5a8aa40, size: 13e, name: _ZN12clap_builder7builder7command7Command16find_long_subcmd17h76503875e0213f26E },
    Symbol { offset: 5573e5a8ab80, size: 182, name: _ZN12clap_builder7builder7command7Command14write_help_err17he34d8f3ff6a88d97E },
    Symbol { offset: 5573e5a8ad10, size: 93, name: _ZN121_$LT$clap_builder..builder..command..Command$u20$as$u20$core..ops..index..Index$LT$$RF$clap_builder..util..id..Id$GT$$GT$5index17h47065d51b04e99b2E },
    Symbol { offset: 5573e59ec902, size: 72, name: anon.469e0eff00662c4a4ecd91a9c53c812e.14.llvm.15783265473784069914 },
    Symbol { offset: 5573e59eca49, size: 1, name: anon.469e0eff00662c4a4ecd91a9c53c812e.53.llvm.15783265473784069914 },
    Symbol { offset: 5573e59ecb40, size: 6d, name: anon.469e0eff00662c4a4ecd91a9c53c812e.62.llvm.15783265473784069914 },
    Symbol { offset: 5573e59ecc10, size: 18, name: _ZN12clap_builder7builder7command7Command36get_external_subcommand_value_parser7DEFAULT17h6d5532420657ca91E },
    Symbol { offset: 5573e59fd3e0, size: 10, name: .Lanon.87cc830ffeafbd79495586486cec1a8d.21 },
    Symbol { offset: 5573e5a8adb0, size: 1fe, name: _ZN102_$LT$core..iter..adapters..map..Map$LT$I$C$F$GT$$u20$as$u20$core..iter..traits..iterator..Iterator$GT$4fold17h5ffb06cb1b58cb93E },
    Symbol { offset: 5573e5b0b658, size: 30, name: anon.87cc830ffeafbd79495586486cec1a8d.0.llvm.13119362145479507635 },
    Symbol { offset: 5573e59ecc28, size: 37, name: anon.87cc830ffeafbd79495586486cec1a8d.1.llvm.13119362145479507635 },
    Symbol { offset: 5573e5b0b6a0, size: 20, name: anon.87cc830ffeafbd79495586486cec1a8d.4.llvm.13119362145479507635 },
    Symbol { offset: 5573e5b0b688, size: 18, name: anon.87cc830ffeafbd79495586486cec1a8d.3.llvm.13119362145479507635 },
    Symbol { offset: 5573e5b0b6f8, size: 18, name: anon.87cc830ffeafbd79495586486cec1a8d.20.llvm.13119362145479507635 },
    Symbol { offset: 5573e5a8afb0, size: 30b, name: _ZN102_$LT$core..iter..adapters..map..Map$LT$I$C$F$GT$$u20$as$u20$core..iter..traits..iterator..Iterator$GT$4fold17ha8313adb2652adafE },
    Symbol { offset: 5573e5b0b6c0, size: 18, name: anon.87cc830ffeafbd79495586486cec1a8d.10.llvm.13119362145479507635 },
    Symbol { offset: 5573e5b0b6d8, size: 20, name: anon.87cc830ffeafbd79495586486cec1a8d.13.llvm.13119362145479507635 },
    Symbol { offset: 5573e5a8b2c0, size: 1cb, name: _ZN102_$LT$core..iter..adapters..map..Map$LT$I$C$F$GT$$u20$as$u20$core..iter..traits..iterator..Iterator$GT$8try_fold17h4a77fb9b79fea9c1E },
    Symbol { offset: 5573e5a8b490, size: 302, name: _ZN102_$LT$core..iter..adapters..map..Map$LT$I$C$F$GT$$u20$as$u20$core..iter..traits..iterator..Iterator$GT$8try_fold17h8e3e1943768dfe4dE },
    Symbol { offset: 5573e5a8b7a0, size: 23e, name: _ZN102_$LT$core..iter..adapters..map..Map$LT$I$C$F$GT$$u20$as$u20$core..iter..traits..iterator..Iterator$GT$8try_fold17hb1ebef5a1e940c4aE },
    Symbol { offset: 5573e5a8b9e0, size: 266, name: _ZN102_$LT$core..iter..adapters..map..Map$LT$I$C$F$GT$$u20$as$u20$core..iter..traits..iterator..Iterator$GT$8try_fold17hc12e0ef9cf781412E },
    Symbol { offset: 5573e5a8bc50, size: 18, name: _ZN4core3ptr42drop_in_place$LT$alloc..string..String$GT$17hd6d205257de6c30dE.llvm.13119362145479507635 },
    Symbol { offset: 5573e5a8bc70, size: 15, name: _ZN53_$LT$core..fmt..Error$u20$as$u20$core..fmt..Debug$GT$3fmt17h6736176c8e29474eE.llvm.13119362145479507635 },
    Symbol { offset: 5573e5a8bc90, size: 123, name: _ZN58_$LT$alloc..string..String$u20$as$u20$core..fmt..Write$GT$10write_char17h13db4e3872bba170E.llvm.13119362145479507635 },
    Symbol { offset: 5573e5a8bdc0, size: 67, name: _ZN58_$LT$alloc..string..String$u20$as$u20$core..fmt..Write$GT$9write_str17h3471f8bf4fd2c6acE.llvm.13119362145479507635 },
    Symbol { offset: 5573e59ecc5f, size: 4b, name: anon.87cc830ffeafbd79495586486cec1a8d.2.llvm.13119362145479507635 },
    Symbol { offset: 5573e59fd7b0, size: 10, name: anon.87cc830ffeafbd79495586486cec1a8d.6.llvm.13119362145479507635 },
    Symbol { offset: 5573e59eccaf, size: 4a, name: anon.87cc830ffeafbd79495586486cec1a8d.9.llvm.13119362145479507635 },
    Symbol { offset: 5573e59eccf9, size: 1, name: anon.87cc830ffeafbd79495586486cec1a8d.11.llvm.13119362145479507635 },
    Symbol { offset: 5573e59eccfa, size: 1, name: anon.87cc830ffeafbd79495586486cec1a8d.12.llvm.13119362145479507635 },
    Symbol { offset: 5573e59eccfb, size: 70, name: anon.87cc830ffeafbd79495586486cec1a8d.19.llvm.13119362145479507635 },
    Symbol { offset: 5573e5a8be30, size: 50, name: _ZN102_$LT$core..iter..adapters..map..Map$LT$I$C$F$GT$$u20$as$u20$core..iter..traits..iterator..Iterator$GT$4next17hc99e45eb4aa0dd10E },
    Symbol { offset: 5573e5a8be80, size: 1e, name: _ZN102_$LT$core..iter..adapters..map..Map$LT$I$C$F$GT$$u20$as$u20$core..iter..traits..iterator..Iterator$GT$9size_hint17hbe23d1b7801e1121E },
    Symbol { offset: 5573e5a8bea0, size: 18, name: _ZN4core3ptr238drop_in_place$LT$alloc..boxed..convert..$LT$impl$u20$core..convert..From$LT$alloc..string..String$GT$$u20$for$u20$alloc..boxed..Box$LT$dyn$u20$core..error..Error$u2b$core..marker..Send$u2b$core..marker..Sync$GT$$GT$..from..StringError$GT$17ha567625391c429f5E },
    Symbol { offset: 5573e5a8bec0, size: 82, name: _ZN4core3ptr65drop_in_place$LT$alloc..vec..Vec$LT$alloc..string..String$GT$$GT$17he3fc526f4bc110e4E },
    Symbol { offset: 5573e5a8bf50, size: 92, name: _ZN4core4iter6traits8iterator8Iterator10advance_by17hb0c1f25ad55d3b9fE },
    Symbol { offset: 5573e5a8bff0, size: d5, name: _ZN4core4iter6traits8iterator8Iterator3nth17h35033fe758dd8e6eE },
    Symbol { offset: 5573e5a8c0d0, size: 3, name: _ZN4core5error5Error6source17h5cc713e931a4caa3E },
    Symbol { offset: 5573e5a8c0e0, size: 1, name: _ZN4core5error5Error7provide17h381e4025c15a20e3E },
    Symbol { offset: 5573e5a8c0f0, size: 1, name: _ZN4core5error5Error7provide17hd8c682db8e9516dbE },
    Symbol { offset: 5573e5a8c100, size: 1, name: _ZN4core5error5Error7provide17hfc8cfc8cf2813c30E },
    Symbol { offset: 5573e5a8c110, size: 15, name: _ZN53_$LT$core..fmt..Error$u20$as$u20$core..fmt..Debug$GT$3fmt17h6736176c8e29474eE },
    Symbol { offset: 5573e5a8c130, size: 123, name: _ZN58_$LT$alloc..string..String$u20$as$u20$core..fmt..Write$GT$10write_char17h13db4e3872bba170E },
    Symbol { offset: 5573e5a8c260, size: 67, name: _ZN58_$LT$alloc..string..String$u20$as$u20$core..fmt..Write$GT$9write_str17h3471f8bf4fd2c6acE },
    Symbol { offset: 5573e5a8c2d0, size: 14, name: _ZN60_$LT$alloc..string..String$u20$as$u20$core..fmt..Display$GT$3fmt17h253a895d4ea9e2d1E },
    Symbol { offset: 5573e5a8c2f0, size: 43, name: _ZN68_$LT$core..num..error..ParseIntError$u20$as$u20$core..fmt..Debug$GT$3fmt17h9d974530281c97f3E },
    Symbol { offset: 5573e59fdce4, size: 4, name: .Lanon.6d9f56c789a1c27dce2f21341bb217c7.12 },
    Symbol { offset: 5573e5a8c340, size: 1d, name: _ZN70_$LT$core..num..error..ParseIntError$u20$as$u20$core..error..Error$GT$11description17hf7118da03d3f31b7E },
    Symbol { offset: 5573e5a8c360, size: 29, name: _ZN70_$LT$core..num..error..TryFromIntError$u20$as$u20$core..fmt..Debug$GT$3fmt17h1ec19825d3f66aafE },
    Symbol { offset: 5573e5a8c390, size: d, name: _ZN72_$LT$core..num..error..TryFromIntError$u20$as$u20$core..error..Error$GT$11description17h5edb59429c92c0edE },
    Symbol { offset: 5573e5a8d420, size: 104c, name: _ZN140_$LT$clap_builder..builder..value_parser..RangedI64ValueParser$LT$T$GT$$u20$as$u20$clap_builder..builder..value_parser..TypedValueParser$GT$9parse_ref17hd23fe48c878ff011E },
    Symbol { offset: 5573e59fde80, size: 8, name: .Lanon.6d9f56c789a1c27dce2f21341bb217c7.37 },
    Symbol { offset: 5573e59fdea8, size: 8, name: .Lanon.6d9f56c789a1c27dce2f21341bb217c7.39 },
    Symbol { offset: 5573e5b0b800, size: 40, name: anon.6d9f56c789a1c27dce2f21341bb217c7.23.llvm.4291563442343555220 },
    Symbol { offset: 5573e5b0b880, size: 40, name: anon.6d9f56c789a1c27dce2f21341bb217c7.25.llvm.4291563442343555220 },
    Symbol { offset: 5573e5b0b8c0, size: 40, name: anon.6d9f56c789a1c27dce2f21341bb217c7.26.llvm.4291563442343555220 },
    Symbol { offset: 5573e5b0b840, size: 40, name: anon.6d9f56c789a1c27dce2f21341bb217c7.24.llvm.4291563442343555220 },
    Symbol { offset: 5573e5a8c3a0, size: a7, name: _ZN73_$LT$P$u20$as$u20$clap_builder..builder..value_parser..AnyValueParser$GT$9parse_ref17h35f50404d56ca88dE },
    Symbol { offset: 5573e5a8c450, size: 118, name: _ZN73_$LT$P$u20$as$u20$clap_builder..builder..value_parser..AnyValueParser$GT$9parse_ref17h45226ca48e12692eE.llvm.4291563442343555220 },
    Symbol { offset: 5573e5a8c570, size: a8, name: _ZN73_$LT$P$u20$as$u20$clap_builder..builder..value_parser..AnyValueParser$GT$9parse_ref17h6463531968b99362E.llvm.4291563442343555220 },
    Symbol { offset: 5573e5a8e470, size: 36f, name: _ZN126_$LT$clap_builder..builder..value_parser..BoolValueParser$u20$as$u20$clap_builder..builder..value_parser..TypedValueParser$GT$9parse_ref17h0709f1972ad3f84cE },
    Symbol { offset: 5573e5a8c620, size: 179, name: _ZN73_$LT$P$u20$as$u20$clap_builder..builder..value_parser..AnyValueParser$GT$9parse_ref17h7040f0340fe78278E.llvm.4291563442343555220 },
    Symbol { offset: 5573e5a8d240, size: 1dc, name: _ZN129_$LT$clap_builder..builder..value_parser..PathBufValueParser$u20$as$u20$clap_builder..builder..value_parser..TypedValueParser$GT$5parse17h36a8e204ef9f45cfE },
    Symbol { offset: 5573e5a8c7a0, size: 169, name: _ZN73_$LT$P$u20$as$u20$clap_builder..builder..value_parser..AnyValueParser$GT$9parse_ref17h9072230b8a3e0248E.llvm.4291563442343555220 },
    Symbol { offset: 5573e5a8d040, size: 1fa, name: _ZN128_$LT$clap_builder..builder..value_parser..StringValueParser$u20$as$u20$clap_builder..builder..value_parser..TypedValueParser$GT$5parse17h98c3882d7fdf9593E },
    Symbol { offset: 5573e5a8c910, size: a7, name: _ZN73_$LT$P$u20$as$u20$clap_builder..builder..value_parser..AnyValueParser$GT$10parse_ref_17h0b9b1adc96407152E },
    Symbol { offset: 5573e5a8c9c0, size: 169, name: _ZN73_$LT$P$u20$as$u20$clap_builder..builder..value_parser..AnyValueParser$GT$10parse_ref_17h246cc61f5872e629E.llvm.4291563442343555220 },
    Symbol { offset: 5573e5a8cb30, size: a8, name: _ZN73_$LT$P$u20$as$u20$clap_builder..builder..value_parser..AnyValueParser$GT$10parse_ref_17h65ab26747534e6cbE.llvm.4291563442343555220 },
    Symbol { offset: 5573e5a8cbe0, size: 179, name: _ZN73_$LT$P$u20$as$u20$clap_builder..builder..value_parser..AnyValueParser$GT$10parse_ref_17hc32b94fe54c27f98E.llvm.4291563442343555220 },
    Symbol { offset: 5573e5a8cd60, size: 118, name: _ZN73_$LT$P$u20$as$u20$clap_builder..builder..value_parser..AnyValueParser$GT$10parse_ref_17hccb1eb6f1dd59adaE.llvm.4291563442343555220 },
    Symbol { offset: 5573e5a8ce80, size: 15, name: _ZN73_$LT$P$u20$as$u20$clap_builder..builder..value_parser..AnyValueParser$GT$7type_id17h17b0e0dc96d38102E.llvm.4291563442343555220 },
    Symbol { offset: 5573e5a8cea0, size: 15, name: _ZN73_$LT$P$u20$as$u20$clap_builder..builder..value_parser..AnyValueParser$GT$7type_id17h79c2cc42be266903E },
    Symbol { offset: 5573e5a8cec0, size: 15, name: _ZN73_$LT$P$u20$as$u20$clap_builder..builder..value_parser..AnyValueParser$GT$7type_id17h9408602b24de66ceE.llvm.4291563442343555220 },
    Symbol { offset: 5573e5a8cee0, size: 15, name: _ZN73_$LT$P$u20$as$u20$clap_builder..builder..value_parser..AnyValueParser$GT$7type_id17hb4991b9aab119030E.llvm.4291563442343555220 },
    Symbol { offset: 5573e5a8cf00, size: 15, name: _ZN73_$LT$P$u20$as$u20$clap_builder..builder..value_parser..AnyValueParser$GT$7type_id17hf6cc3da8e03e2680E.llvm.4291563442343555220 },
    Symbol { offset: 5573e5a8cf20, size: 3, name: _ZN73_$LT$P$u20$as$u20$clap_builder..builder..value_parser..AnyValueParser$GT$15possible_values17h24a098b9524efd42E },
    Symbol { offset: 5573e5a8cf30, size: 4e, name: _ZN73_$LT$P$u20$as$u20$clap_builder..builder..value_parser..AnyValueParser$GT$15possible_values17h5665835672602a5cE.llvm.4291563442343555220 },
    Symbol { offset: 5573e5a8cf80, size: 3, name: _ZN73_$LT$P$u20$as$u20$clap_builder..builder..value_parser..AnyValueParser$GT$15possible_values17h982756c9dab6d9a8E.llvm.4291563442343555220 },
    Symbol { offset: 5573e5a8cf90, size: d, name: _ZN73_$LT$P$u20$as$u20$clap_builder..builder..value_parser..AnyValueParser$GT$9clone_any17h3bf977ec071da821E.llvm.4291563442343555220 },
    Symbol { offset: 5573e5a8cfa0, size: d, name: _ZN73_$LT$P$u20$as$u20$clap_builder..builder..value_parser..AnyValueParser$GT$9clone_any17h489bb4e835c20452E.llvm.4291563442343555220 },
    Symbol { offset: 5573e5a8cfb0, size: 68, name: _ZN73_$LT$P$u20$as$u20$clap_builder..builder..value_parser..AnyValueParser$GT$9clone_any17h502bc8ca80683b33E },
    Symbol { offset: 5573e5a8d020, size: d, name: _ZN73_$LT$P$u20$as$u20$clap_builder..builder..value_parser..AnyValueParser$GT$9clone_any17h8d9b6a624e68bfe5E.llvm.4291563442343555220 },
    Symbol { offset: 5573e5a8d030, size: d, name: _ZN73_$LT$P$u20$as$u20$clap_builder..builder..value_parser..AnyValueParser$GT$9clone_any17he56caad3180703f0E.llvm.4291563442343555220 },
    Symbol { offset: 5573e5a8e7e0, size: 1b, name: _ZN79_$LT$u32$u20$as$u20$clap_builder..builder..value_parser..ValueParserFactory$GT$12value_parser17h5337a2d4ea196deeE },
    Symbol { offset: 5573e5a8e800, size: 13, name: _ZN79_$LT$i64$u20$as$u20$clap_builder..builder..value_parser..ValueParserFactory$GT$12value_parser17h3ca813e584879affE },
    Symbol { offset: 5573e5a8cf80, size: 3, name: _ZN73_$LT$P$u20$as$u20$clap_builder..builder..value_parser..AnyValueParser$GT$15possible_values17hcf634c793fe196deE.llvm.4291563442343555220 },
    Symbol { offset: 5573e5a8cf80, size: 3, name: _ZN73_$LT$P$u20$as$u20$clap_builder..builder..value_parser..AnyValueParser$GT$15possible_values17hfe8d43dc3f155bc9E.llvm.4291563442343555220 },
    Symbol { offset: 5573e5a8e800, size: 13, name: _ZN79_$LT$u64$u20$as$u20$clap_builder..builder..value_parser..ValueParserFactory$GT$12value_parser17hed1e725c403d2c55E },
    Symbol { offset: 5573e5a8ee60, size: 120, name: _ZN4core3ptr59drop_in_place$LT$clap_builder..builder..ext..Extensions$GT$17h6250317f4a1980b8E },
    Symbol { offset: 5573e5a8e820, size: 632, name: _ZN4core3ptr52drop_in_place$LT$clap_builder..builder..arg..Arg$GT$17he9c0a80b4a99c6b8E.llvm.10129668270523429792 },
    Symbol { offset: 5573e5a8ef80, size: ce, name: _ZN79_$LT$alloc..vec..drain..Drain$LT$T$C$A$GT$$u20$as$u20$core..ops..drop..Drop$GT$4drop17ha59c957bda96cfa8E },
    Symbol { offset: 5573e5a8f050, size: 4fb, name: _ZN81_$LT$alloc..vec..splice..Splice$LT$I$C$A$GT$$u20$as$u20$core..ops..drop..Drop$GT$4drop17h574959797721d063E },
    Symbol { offset: 5573e5a8f690, size: 95, name: _ZN86_$LT$alloc..vec..into_iter..IntoIter$LT$T$C$A$GT$$u20$as$u20$core..ops..drop..Drop$GT$4drop17h9504c614cbeca253E },
    Symbol { offset: 5573e5a8f550, size: 95, name: _ZN86_$LT$alloc..vec..into_iter..IntoIter$LT$T$C$A$GT$$u20$as$u20$core..ops..drop..Drop$GT$4drop17h2b6733fb2d766b38E },
    Symbol { offset: 5573e5a8f5f0, size: 95, name: _ZN86_$LT$alloc..vec..into_iter..IntoIter$LT$T$C$A$GT$$u20$as$u20$core..ops..drop..Drop$GT$4drop17h4b45b8667c167a3dE },
    Symbol { offset: 5573e59ed113, size: 63, name: anon.6e2eef3e12cf217590d9324e955c5d86.12.llvm.10129668270523429792 },
    Symbol { offset: 5573e5b0bb70, size: 18, name: anon.6e2eef3e12cf217590d9324e955c5d86.13.llvm.10129668270523429792 },
    Symbol { offset: 5573e5a8f730, size: 27c, name: _ZN12clap_builder6parser7matches11arg_matches10ArgMatches8get_flag17h63bc9abf1fe31a3aE },
    Symbol { offset: 5573e5a8f9b0, size: 1ad, name: _ZN12clap_builder6parser7matches11arg_matches10ArgMatches11try_get_one17h4cb661ca8ede4159E },
    Symbol { offset: 5573e5a8fb60, size: 64, name: _ZN12clap_builder7mkeymap7MKeyMap4push17h6ecd08ffab3c7640E },
    Symbol { offset: 5573e5b0bb88, size: 18, name: anon.6e2eef3e12cf217590d9324e955c5d86.15.llvm.10129668270523429792 },
    Symbol { offset: 5573e5b0bba0, size: 18, name: anon.6e2eef3e12cf217590d9324e955c5d86.16.llvm.10129668270523429792 },
    Symbol { offset: 5573e5a8fbd0, size: 339, name: _ZN12clap_builder7mkeymap7MKeyMap6_build17h0a9f84feab680512E },
    Symbol { offset: 5573e59ed041, size: 7d, name: anon.6e2eef3e12cf217590d9324e955c5d86.7.llvm.10129668270523429792 },
    Symbol { offset: 5573e59ed176, size: 6a, name: anon.6e2eef3e12cf217590d9324e955c5d86.14.llvm.10129668270523429792 },
    Symbol { offset: 5573e5a8ff10, size: 24, name: _ZN4core3ptr47drop_in_place$LT$std..io..stdio..StderrLock$GT$17h02125937a8d42bb0E.llvm.15087948146077884473 },
    Symbol { offset: 5573e5a8ff40, size: 82, name: _ZN4core3ptr65drop_in_place$LT$alloc..vec..Vec$LT$alloc..string..String$GT$$GT$17he3fc526f4bc110e4E.llvm.15087948146077884473 },
    Symbol { offset: 5573e5a8ffd0, size: 207, name: _ZN4core5slice4sort6stable5merge5merge17h24f74ea2f21e7a4fE },
    Symbol { offset: 5573e5a901e0, size: 213, name: _ZN4core5slice4sort6stable5merge5merge17h8010f473ac86a5d4E },
    Symbol { offset: 5573e5a90400, size: 213, name: _ZN4core5slice4sort6stable5merge5merge17h9e6c9870bab9a581E },
    Symbol { offset: 5573e5a90620, size: 638, name: _ZN4core5slice4sort6stable9quicksort9quicksort17h642d4346dc0d25beE },
    Symbol { offset: 5573e5a90c60, size: 6a0, name: _ZN4core5slice4sort6stable9quicksort9quicksort17h9b70c4fa45f75e1eE },
    Symbol { offset: 5573e5a91300, size: 690, name: _ZN4core5slice4sort6stable9quicksort9quicksort17hec83114cf201cf9aE },
    Symbol { offset: 5573e5a91990, size: 1da, name: _ZN5alloc5slice29_$LT$impl$u20$$u5b$T$u5d$$GT$6repeat17h1ca20d105f19d192E },
    Symbol { offset: 5573e59ed248, size: 11, name: anon.a704fb1d44944412ed2ea39a0876a6ad.5.llvm.15087948146077884473 },
    Symbol { offset: 5573e5b0bc88, size: 18, name: anon.a704fb1d44944412ed2ea39a0876a6ad.9.llvm.15087948146077884473 },
    Symbol { offset: 5573e5b0bc70, size: 18, name: anon.a704fb1d44944412ed2ea39a0876a6ad.7.llvm.15087948146077884473 },
    Symbol { offset: 5573e5a91c20, size: a1, name: _ZN80_$LT$clap_builder..parser..error..MatchesError$u20$as$u20$core..fmt..Display$GT$3fmt17h90a54d6c93f28453E },
    Symbol { offset: 5573e5b0bca0, size: 20, name: anon.a704fb1d44944412ed2ea39a0876a6ad.15.llvm.15087948146077884473 },
    Symbol { offset: 5573e5b0bcc0, size: 18, name: anon.a704fb1d44944412ed2ea39a0876a6ad.17.llvm.15087948146077884473 },
    Symbol { offset: 5573e5a91b70, size: ab, name: _ZN12clap_builder6parser5error12MatchesError6unwrap17h4bc30bc209520331E },
    Symbol { offset: 5573e5a91cd0, size: 51, name: _ZN12clap_builder6output3fmt9Colorizer12with_content17hdc25d2c928120647E },
    Symbol { offset: 5573e5a91d30, size: c3, name: _ZN12clap_builder6output3fmt9Colorizer5print17hdcd008c1340e9f91E },
    Symbol { offset: 5573e59ed259, size: 4a, name: anon.a704fb1d44944412ed2ea39a0876a6ad.6.llvm.15087948146077884473 },
    Symbol { offset: 5573e59ed2a3, size: 2b, name: anon.a704fb1d44944412ed2ea39a0876a6ad.13.llvm.15087948146077884473 },
    Symbol { offset: 5573e59ed2ce, size: 3, name: anon.a704fb1d44944412ed2ea39a0876a6ad.14.llvm.15087948146077884473 },
    Symbol { offset: 5573e59ed2d1, size: 6f, name: anon.a704fb1d44944412ed2ea39a0876a6ad.16.llvm.15087948146077884473 },
    Symbol { offset: 5573e5a8ff10, size: 24, name: _ZN4core3ptr47drop_in_place$LT$std..io..stdio..StdoutLock$GT$17h8e3838aa8899a11eE.llvm.15087948146077884473 },
    Symbol { offset: 5573e5a91b70, size: ab, name: _ZN12clap_builder6parser5error12MatchesError6unwrap17hf81a4cbffbc5c995E },
    Symbol { offset: 5573e5a92010, size: a7, name: _ZN4core3ptr144drop_in_place$LT$clap_builder..util..flat_map..FlatMap$LT$clap_builder..util..id..Id$C$alloc..vec..Vec$LT$clap_builder..util..id..Id$GT$$GT$$GT$17h013032e53e7179efE },
    Symbol { offset: 5573e5a920e0, size: 82, name: _ZN4core3ptr65drop_in_place$LT$alloc..vec..Vec$LT$alloc..string..String$GT$$GT$17he3fc526f4bc110e4E },
    Symbol { offset: 5573e5a92170, size: a2, name: _ZN4core3ptr96drop_in_place$LT$alloc..vec..Vec$LT$clap_builder..builder..possible_value..PossibleValue$GT$$GT$17h2da977e3cad7124cE },
    Symbol { offset: 5573e5a94c00, size: 3c1, name: _ZN12clap_builder6parser9validator9Conflicts16gather_conflicts17hd2146ad957ef8f59E },
    Symbol { offset: 5573e5a91e00, size: 20d, name: _ZN4core3ops8function5impls79_$LT$impl$u20$core..ops..function..FnMut$LT$A$GT$$u20$for$u20$$RF$mut$u20$F$GT$8call_mut17h8f3ca904d97550e1E },
    Symbol { offset: 5573e5b0bd08, size: 30, name: anon.9b11a2399c90cc0be6c79a5407fbb2d8.0.llvm.15461960547058718044 },
    Symbol { offset: 5573e59ed3e8, size: 37, name: anon.9b11a2399c90cc0be6c79a5407fbb2d8.1.llvm.15461960547058718044 },
    Symbol { offset: 5573e5b0bd80, size: 20, name: anon.9b11a2399c90cc0be6c79a5407fbb2d8.8.llvm.15461960547058718044 },
    Symbol { offset: 5573e5b0bd38, size: 18, name: anon.9b11a2399c90cc0be6c79a5407fbb2d8.3.llvm.15461960547058718044 },
    Symbol { offset: 5573e59ed55c, size: 63, name: anon.9b11a2399c90cc0be6c79a5407fbb2d8.27.llvm.15461960547058718044 },
    Symbol { offset: 5573e5b0be00, size: 18, name: anon.9b11a2399c90cc0be6c79a5407fbb2d8.33.llvm.15461960547058718044 },
    Symbol { offset: 5573e5a920c0, size: 18, name: _ZN4core3ptr42drop_in_place$LT$alloc..string..String$GT$17hd6d205257de6c30dE.llvm.15461960547058718044 },
    Symbol { offset: 5573e5a92220, size: 15, name: _ZN53_$LT$core..fmt..Error$u20$as$u20$core..fmt..Debug$GT$3fmt17h6736176c8e29474eE.llvm.15461960547058718044 },
    Symbol { offset: 5573e5a92240, size: 123, name: _ZN58_$LT$alloc..string..String$u20$as$u20$core..fmt..Write$GT$10write_char17h13db4e3872bba170E.llvm.15461960547058718044 },
    Symbol { offset: 5573e5a92370, size: 67, name: _ZN58_$LT$alloc..string..String$u20$as$u20$core..fmt..Write$GT$9write_str17h3471f8bf4fd2c6acE.llvm.15461960547058718044 },
    Symbol { offset: 5573e5b0bd68, size: 18, name: anon.9b11a2399c90cc0be6c79a5407fbb2d8.7.llvm.15461960547058718044 },
    Symbol { offset: 5573e5b0bd50, size: 18, name: anon.9b11a2399c90cc0be6c79a5407fbb2d8.5.llvm.15461960547058718044 },
    Symbol { offset: 5573e5a923e0, size: 2812, name: _ZN12clap_builder6parser9validator9Validator8validate17h3e27356f6975d549E },
    Symbol { offset: 5573e5b0bed8, size: 18, name: anon.9b11a2399c90cc0be6c79a5407fbb2d8.47.llvm.15461960547058718044 },
    Symbol { offset: 5573e59fd7b0, size: 10, name: anon.9b11a2399c90cc0be6c79a5407fbb2d8.14.llvm.15461960547058718044 },
    Symbol { offset: 5573e5a94fd0, size: 6da, name: _ZN12clap_builder6parser9validator23gather_direct_conflicts17h8ac6a7e24cf63bd7E },
    Symbol { offset: 5573e5b0bef0, size: 18, name: anon.9b11a2399c90cc0be6c79a5407fbb2d8.48.llvm.15461960547058718044 },
    Symbol { offset: 5573e5b0bf20, size: 18, name: anon.9b11a2399c90cc0be6c79a5407fbb2d8.50.llvm.15461960547058718044 },
    Symbol { offset: 5573e5b0bf08, size: 18, name: anon.9b11a2399c90cc0be6c79a5407fbb2d8.49.llvm.15461960547058718044 },
    Symbol { offset: 5573e59ed41f, size: 4b, name: anon.9b11a2399c90cc0be6c79a5407fbb2d8.2.llvm.15461960547058718044 },
    Symbol { offset: 5573e59ed46a, size: 4b, name: anon.9b11a2399c90cc0be6c79a5407fbb2d8.4.llvm.15461960547058718044 },
    Symbol { offset: 5573e59ed4b5, size: 58, name: anon.9b11a2399c90cc0be6c79a5407fbb2d8.6.llvm.15461960547058718044 },
    Symbol { offset: 5573e59ed5bf, size: 73, name: anon.9b11a2399c90cc0be6c79a5407fbb2d8.28.llvm.15461960547058718044 },
    Symbol { offset: 5573e59ed6a0, size: 6d, name: anon.9b11a2399c90cc0be6c79a5407fbb2d8.46.llvm.15461960547058718044 },
    Symbol { offset: 5573e59fdc58, size: 4, name: .Lanon.a56d05db9c55dfe0b260ac65480b1d44.11 },
    Symbol { offset: 5573e5a957e0, size: 288, name: _ZN4core3str21_$LT$impl$u20$str$GT$12trim_matches17h1c950d0dad5619a2E },
    Symbol { offset: 5573e5a95ba0, size: 1d5, name: _ZN81_$LT$core..str..pattern..CharSearcher$u20$as$u20$core..str..pattern..Searcher$GT$10next_match17h06e5f2dd80a2a38eE },
    Symbol { offset: 5573e5a97fa0, size: 45c, name: _ZN12clap_builder6output8textwrap15wrap_algorithms11LineWrapper4wrap17h8b64500f3885b480E },
    Symbol { offset: 5573e5a975a0, size: 67, name: _ZN81_$LT$clap_builder..builder..styled_str..StyledStr$u20$as$u20$core..fmt..Write$GT$9write_str17hecb1012c825ab9f7E },
    Symbol { offset: 5573e5a97610, size: 123, name: _ZN81_$LT$clap_builder..builder..styled_str..StyledStr$u20$as$u20$core..fmt..Write$GT$10write_char17h494c4bae9d8b5efdE },
    Symbol { offset: 5573e5a956b0, size: 15, name: _ZN36_$LT$T$u20$as$u20$core..any..Any$GT$7type_id17h352adeb97ea45f2dE },
    Symbol { offset: 5573e5a956d0, size: 14, name: _ZN44_$LT$$RF$T$u20$as$u20$core..fmt..Display$GT$3fmt17h34c0cc280d1b0a76E },
    Symbol { offset: 5573e5a956f0, size: 60, name: _ZN44_$LT$$RF$T$u20$as$u20$core..fmt..Display$GT$3fmt17h398980a0053d95deE },
    Symbol { offset: 5573e5a95750, size: 5d, name: _ZN44_$LT$$RF$T$u20$as$u20$core..fmt..Display$GT$3fmt17h5e3d690afa158d70E },
    Symbol { offset: 5573e5a957b0, size: 10, name: _ZN4core3fmt5Write9write_fmt17h59b7b15462d87773E },
    Symbol { offset: 5573e5a957c0, size: 18, name: _ZN4core3ptr65drop_in_place$LT$clap_builder..builder..styled_str..StyledStr$GT$17hdf2180b6513b2eb7E.llvm.15380115865487929106 },
    Symbol { offset: 5573e5a95a70, size: 130, name: _ZN4core3str21_$LT$impl$u20$str$GT$16trim_end_matches17h1489edc9a19ee570E.llvm.15380115865487929106 },
    Symbol { offset: 5573e5a95d80, size: 65, name: _ZN12clap_builder7builder10styled_str9StyledStr8push_str17h249df173f0e24bb0E },
    Symbol { offset: 5573e5b0c010, size: 18, name: anon.a56d05db9c55dfe0b260ac65480b1d44.16.llvm.15380115865487929106 },
    Symbol { offset: 5573e5a95df0, size: 94a, name: _ZN12clap_builder7builder10styled_str9StyledStr19replace_newline_var17h159a80743e9988a0E },
    Symbol { offset: 5573e5a96740, size: 69d, name: _ZN12clap_builder7builder10styled_str9StyledStr6indent17hc791be9b21536935E },
    Symbol { offset: 5573e5a96de0, size: 677, name: _ZN12clap_builder7builder10styled_str9StyledStr4wrap17h207905e854bdeee8E },
    Symbol { offset: 5573e5a97460, size: 10, name: _ZN12clap_builder7builder10styled_str9StyledStr13display_width17h17ade8b916e285f7E },
    Symbol { offset: 5573e5a97470, size: 6d, name: _ZN12clap_builder7builder10styled_str9StyledStr11push_styled17h7de19bb6b4c1e35bE },
    Symbol { offset: 5573e5a974e0, size: b4, name: _ZN99_$LT$clap_builder..builder..styled_str..StyledStr$u20$as$u20$core..convert..From$LT$$RF$str$GT$$GT$4from17h3540e23cb63b1339E },
    Symbol { offset: 5573e5a97740, size: 2f7, name: _ZN12clap_builder6output4help10write_help17h5ff51cf2ed9de68aE },
    Symbol { offset: 5573e5a97a40, size: 103, name: _ZN12clap_builder6output5usage5Usage3new17h67e3d84bd578b2aeE },
    Symbol { offset: 5573e59ed898, size: 62, name: anon.a56d05db9c55dfe0b260ac65480b1d44.23.llvm.15380115865487929106 },
    Symbol { offset: 5573e5a97b50, size: 2b1, name: _ZN12clap_builder6output5usage5Usage23create_usage_with_title17h7f175877b092aa68E },
    Symbol { offset: 5573e5a97e10, size: 187, name: _ZN12clap_builder6output5usage5Usage21create_usage_no_title17h625ca6b05ccbe8c7E },
    Symbol { offset: 5573e5a98400, size: 2e2, name: _ZN12clap_builder6output8textwrap4wrap17h04b056b8dfc58a59E },
    Symbol { offset: 5573e59ed7ff, size: 4b, name: anon.a56d05db9c55dfe0b260ac65480b1d44.7.llvm.15380115865487929106 },
    Symbol { offset: 5573e59ed84a, size: 4a, name: anon.a56d05db9c55dfe0b260ac65480b1d44.15.llvm.15380115865487929106 },
    Symbol { offset: 5573e59ed988, size: 18, name: _ZN91_$LT$$RF$clap_builder..builder..styled_str..StyledStr$u20$as$u20$core..default..Default$GT$7default7DEFAULT17h45d5f358b67bcc57E },
    Symbol { offset: 5573e5a98ee0, size: f2, name: _ZN4core3ptr93drop_in_place$LT$alloc..vec..Vec$LT$alloc..vec..Vec$LT$std..ffi..os_str..OsString$GT$$GT$$GT$17h84d91d98f61ee896E },
    Symbol { offset: 5573e5a98950, size: c3, name: _ZN4core3ptr106drop_in_place$LT$alloc..vec..Vec$LT$alloc..vec..Vec$LT$clap_builder..util..any_value..AnyValue$GT$$GT$$GT$17h3ed8dbed13fd4322E },
    Symbol { offset: 5573e5a98a20, size: 3b, name: _ZN4core3ptr141drop_in_place$LT$alloc..sync..Weak$LT$dyn$u20$core..any..Any$u2b$core..marker..Send$u2b$core..marker..Sync$C$$RF$alloc..alloc..Global$GT$$GT$17h4ba9194bc4e9fc48E },
    Symbol { offset: 5573e5a98b40, size: a6, name: _ZN4core3ptr66drop_in_place$LT$clap_builder..parser..arg_matcher..ArgMatcher$GT$17h5f3f5a181657582cE },
    Symbol { offset: 5573e5a98e50, size: 83, name: _ZN4core3ptr89drop_in_place$LT$core..option..Option$LT$clap_builder..parser..parser..PendingArg$GT$$GT$17hcdb996485852528aE },
    Symbol { offset: 5573e5a986f0, size: 15, name: _ZN36_$LT$T$u20$as$u20$core..any..Any$GT$7type_id17h0ad9f2b1fd835b1bE },
    Symbol { offset: 5573e5a98710, size: 15, name: _ZN36_$LT$T$u20$as$u20$core..any..Any$GT$7type_id17hdb231659df61b82cE },
    Symbol { offset: 5573e5a98730, size: 5f, name: _ZN4core3ptr100drop_in_place$LT$alloc..boxed..Box$LT$clap_builder..parser..matches..arg_matches..SubCommand$GT$$GT$17hb5564219b0f6b0b1E.llvm.1788659003846414067 },
    Symbol { offset: 5573e5a98c80, size: 99, name: _ZN4core3ptr75drop_in_place$LT$clap_builder..parser..matches..arg_matches..ArgMatches$GT$17h2c968ea20157ab57E.llvm.1788659003846414067 },
    Symbol { offset: 5573e5a98790, size: 1c0, name: _ZN4core3ptr103drop_in_place$LT$core..option..Option$LT$clap_builder..parser..matches..matched_arg..MatchedArg$GT$$GT$17h635664aa86876db0E.llvm.1788659003846414067 },
    Symbol { offset: 5573e5a98a60, size: e0, name: _ZN4core3ptr149drop_in_place$LT$clap_builder..util..flat_map..FlatMap$LT$clap_builder..util..id..Id$C$clap_builder..parser..matches..matched_arg..MatchedArg$GT$$GT$17h370b95324273c1f8E.llvm.1788659003846414067 },
    Symbol { offset: 5573e5a98bf0, size: 82, name: _ZN4core3ptr70drop_in_place$LT$alloc..vec..Vec$LT$std..ffi..os_str..OsString$GT$$GT$17h1d058bcecc253de2E.llvm.1788659003846414067 },
    Symbol { offset: 5573e5a98d20, size: 2b, name: _ZN4core3ptr75drop_in_place$LT$clap_builder..parser..matches..arg_matches..SubCommand$GT$17he114fe02efce8555E.llvm.1788659003846414067 },
    Symbol { offset: 5573e5a98d50, size: 100, name: _ZN4core3ptr83drop_in_place$LT$alloc..vec..Vec$LT$clap_builder..util..any_value..AnyValue$GT$$GT$17h15a57a300a5d8834E.llvm.1788659003846414067 },
    Symbol { offset: 5573e5a98fe0, size: 84, name: _ZN5alloc4sync16Arc$LT$T$C$A$GT$9drop_slow17hef26df32993e2a10E },
    Symbol { offset: 5573e5a99070, size: 6c, name: _ZN5alloc7raw_vec11finish_grow17h0ec8b2ba57b18c8dE.llvm.1788659003846414067 },
    Symbol { offset: 5573e5a990e0, size: b8, name: _ZN5alloc7raw_vec19RawVec$LT$T$C$A$GT$8grow_one17h006f4be951ff4e81E },
    Symbol { offset: 5573e5a991a0, size: b7, name: _ZN5alloc7raw_vec19RawVec$LT$T$C$A$GT$8grow_one17h0e724f011dbc116aE },
    Symbol { offset: 5573e5a99260, size: b5, name: _ZN5alloc7raw_vec19RawVec$LT$T$C$A$GT$8grow_one17h11f59b90d5f11076E },
    Symbol { offset: 5573e5a99320, size: b4, name: _ZN5alloc7raw_vec19RawVec$LT$T$C$A$GT$8grow_one17h3a7797160d1e4dd1E },
    Symbol { offset: 5573e5a993e0, size: b8, name: _ZN5alloc7raw_vec19RawVec$LT$T$C$A$GT$8grow_one17h5298867d8f484ccfE },
    Symbol { offset: 5573e5a994a0, size: b8, name: _ZN5alloc7raw_vec19RawVec$LT$T$C$A$GT$8grow_one17h67d6431bbcadee90E },
    Symbol { offset: 5573e5a99560, size: b8, name: _ZN5alloc7raw_vec19RawVec$LT$T$C$A$GT$8grow_one17h852f85785964a860E },
    Symbol { offset: 5573e5a99620, size: b4, name: _ZN5alloc7raw_vec19RawVec$LT$T$C$A$GT$8grow_one17hb9f3296e6e6eaad6E },
    Symbol { offset: 5573e5a996e0, size: b4, name: _ZN5alloc7raw_vec19RawVec$LT$T$C$A$GT$8grow_one17hd9f2f35030f2c573E },
    Symbol { offset: 5573e5a997a0, size: f5, name: _ZN5alloc7raw_vec20RawVecInner$LT$A$GT$7reserve21do_reserve_and_handle17hc8aacb32b51e3070E },
    Symbol { offset: 5573e5b0c0b8, size: 18, name: anon.6dcf0ef773f6add70b038b6b1ccab08a.1.llvm.1788659003846414067 },
    Symbol { offset: 5573e5a998a0, size: 20, name: _ZN77_$LT$alloc..raw_vec..RawVec$LT$T$C$A$GT$$u20$as$u20$core..ops..drop..Drop$GT$4drop17hd8cb936b078f6a03E },
    Symbol { offset: 5573e59eda18, size: 22, name: anon.6dcf0ef773f6add70b038b6b1ccab08a.3.llvm.1788659003846414067 },
    Symbol { offset: 5573e5b0c0d0, size: 18, name: anon.6dcf0ef773f6add70b038b6b1ccab08a.5.llvm.1788659003846414067 },
    Symbol { offset: 5573e5a998c0, size: c0, name: _ZN12clap_builder7builder3ext10Extensions6update17ha1bbd7c01c10177aE },
    Symbol { offset: 5573e5a99980, size: a0, name: _ZN12clap_builder6parser11arg_matcher10ArgMatcher10into_inner17h621e1a9950b7f1bfE },
    Symbol { offset: 5573e5a99a20, size: 854, name: _ZN12clap_builder6parser11arg_matcher10ArgMatcher21fill_in_global_values17h8473a459d11c0dd0E.llvm.1788659003846414067 },
    Symbol { offset: 5573e5a9a280, size: f4, name: _ZN12clap_builder6parser11arg_matcher10ArgMatcher10subcommand17hb98585d3d7a996b9E },
    Symbol { offset: 5573e5a9a380, size: 148, name: _ZN12clap_builder6parser11arg_matcher10ArgMatcher14check_explicit17h5001e8f4abf32875E },
    Symbol { offset: 5573e5a9a4d0, size: 1f5, name: _ZN12clap_builder6parser11arg_matcher10ArgMatcher16start_custom_arg17h084be6d67bde5aa5E },
    Symbol { offset: 5573e5a9adb0, size: ea, name: _ZN12clap_builder6parser7matches11matched_arg10MatchedArg13new_val_group17h0a57291a160f9431E.llvm.1788659003846414067 },
    Symbol { offset: 5573e5a9a6d0, size: 131, name: _ZN12clap_builder6parser11arg_matcher10ArgMatcher18start_custom_group17h5cbadb602ecb894aE },
    Symbol { offset: 5573e5a9a810, size: 181, name: _ZN12clap_builder6parser11arg_matcher10ArgMatcher28start_occurrence_of_external17h21badb414f5d8c5dE },
    Symbol { offset: 5573e59edaa8, size: 63, name: anon.6dcf0ef773f6add70b038b6b1ccab08a.6.llvm.1788659003846414067 },
    Symbol { offset: 5573e5b0c130, size: 18, name: anon.6dcf0ef773f6add70b038b6b1ccab08a.12.llvm.1788659003846414067 },
    Symbol { offset: 5573e5a9a9a0, size: 2c7, name: _ZN12clap_builder6parser11arg_matcher10ArgMatcher10add_val_to17h12f682fc3141ab20E },
    Symbol { offset: 5573e5a9ac70, size: f8, name: _ZN12clap_builder6parser11arg_matcher10ArgMatcher12add_index_to17he5df39a9c048c65cE },
    Symbol { offset: 5573e5b0c148, size: 18, name: anon.6dcf0ef773f6add70b038b6b1ccab08a.13.llvm.1788659003846414067 },
    Symbol { offset: 5573e5b0c100, size: 18, name: anon.6dcf0ef773f6add70b038b6b1ccab08a.9.llvm.1788659003846414067 },
    Symbol { offset: 5573e5b0c118, size: 18, name: anon.6dcf0ef773f6add70b038b6b1ccab08a.10.llvm.1788659003846414067 },
    Symbol { offset: 5573e5a9ad70, size: 3a, name: _ZN12clap_builder6parser7matches11matched_arg10MatchedArg5first17h32aea7a0bc2fb1fcE },
    Symbol { offset: 5573e5b0c160, size: 18, name: anon.6dcf0ef773f6add70b038b6b1ccab08a.14.llvm.1788659003846414067 },
    Symbol { offset: 5573e5b0c178, size: 18, name: anon.6dcf0ef773f6add70b038b6b1ccab08a.15.llvm.1788659003846414067 },
    Symbol { offset: 5573e5a9aea0, size: 7e, name: _ZN12clap_builder6parser7matches11matched_arg10MatchedArg8num_vals17h72b8efaec2be7590E },
    Symbol { offset: 5573e5a9af20, size: 73, name: _ZN12clap_builder6parser7matches11matched_arg10MatchedArg13infer_type_id17hf60d8fa9a4606710E },
    Symbol { offset: 5573e59ed9c8, size: 50, name: anon.6dcf0ef773f6add70b038b6b1ccab08a.0.llvm.1788659003846414067 },
    Symbol { offset: 5573e59eda3a, size: 6e, name: anon.6dcf0ef773f6add70b038b6b1ccab08a.4.llvm.1788659003846414067 },
    Symbol { offset: 5573e59edb0b, size: 75, name: anon.6dcf0ef773f6add70b038b6b1ccab08a.7.llvm.1788659003846414067 },
    Symbol { offset: 5573e59edb80, size: 7d, name: anon.6dcf0ef773f6add70b038b6b1ccab08a.11.llvm.1788659003846414067 },
    Symbol { offset: 5573e5a99260, size: b5, name: _ZN5alloc7raw_vec19RawVec$LT$T$C$A$GT$8grow_one17h30d09012e1f1f09eE },
    Symbol { offset: 5573e5a99320, size: b4, name: _ZN5alloc7raw_vec19RawVec$LT$T$C$A$GT$8grow_one17h3e62ec268abd3665E },
    Symbol { offset: 5573e5a99260, size: b5, name: _ZN5alloc7raw_vec19RawVec$LT$T$C$A$GT$8grow_one17h798f64bf1ac0315fE },
    Symbol { offset: 5573e5a99260, size: b5, name: _ZN5alloc7raw_vec19RawVec$LT$T$C$A$GT$8grow_one17hb124e4a2c149664cE },
    Symbol { offset: 5573e5a99320, size: b4, name: _ZN5alloc7raw_vec19RawVec$LT$T$C$A$GT$8grow_one17hb74d943d87f62566E },
    Symbol { offset: 5573e5a99620, size: b4, name: _ZN5alloc7raw_vec19RawVec$LT$T$C$A$GT$8grow_one17hc32c81d933dfbc9eE },
    Symbol { offset: 5573e5a99620, size: b4, name: _ZN5alloc7raw_vec19RawVec$LT$T$C$A$GT$8grow_one17hce5db77af5681c10E },
    Symbol { offset: 5573e5a990e0, size: b8, name: _ZN5alloc7raw_vec19RawVec$LT$T$C$A$GT$8grow_one17h23eeda34266e7f6bE },
    Symbol { offset: 5573e5a990e0, size: b8, name: _ZN5alloc7raw_vec19RawVec$LT$T$C$A$GT$8grow_one17h2ac0e454f0463eb1E },
    Symbol { offset: 5573e5a993e0, size: b8, name: _ZN5alloc7raw_vec19RawVec$LT$T$C$A$GT$8grow_one17h93bfce41c6eadd3dE },
    Symbol { offset: 5573e5a993e0, size: b8, name: _ZN5alloc7raw_vec19RawVec$LT$T$C$A$GT$8grow_one17hcbf3d58eba724438E },
    Symbol { offset: 5573e5a9b5d0, size: 120, name: _ZN4core3ptr59drop_in_place$LT$clap_builder..builder..ext..Extensions$GT$17h6250317f4a1980b8E },
    Symbol { offset: 5573e5a9b7a0, size: 14, name: _ZN60_$LT$alloc..string..String$u20$as$u20$core..fmt..Display$GT$3fmt17h253a895d4ea9e2d1E },
    Symbol { offset: 5573e59fdc9c, size: 4, name: .Lanon.409535bb723d0dd00ae50f84864144dc.17 },
    Symbol { offset: 5573e59fdd24, size: 4, name: .Lanon.409535bb723d0dd00ae50f84864144dc.19 },
    Symbol { offset: 5573e59fdca0, size: 4, name: .Lanon.409535bb723d0dd00ae50f84864144dc.31 },
    Symbol { offset: 5573e59fdcbc, size: 4, name: .Lanon.409535bb723d0dd00ae50f84864144dc.63 },
    Symbol { offset: 5573e5a9afa0, size: 621, name: _ZN4core3ptr52drop_in_place$LT$clap_builder..builder..arg..Arg$GT$17he9c0a80b4a99c6b8E.llvm.4219109522896904640 },
    Symbol { offset: 5573e5a9b6f0, size: 82, name: _ZN4core3ptr65drop_in_place$LT$alloc..vec..Vec$LT$alloc..string..String$GT$$GT$17he3fc526f4bc110e4E.llvm.4219109522896904640 },
    Symbol { offset: 5573e5a9b780, size: 18, name: _ZN4core3ptr65drop_in_place$LT$clap_builder..builder..styled_str..StyledStr$GT$17hdf2180b6513b2eb7E.llvm.4219109522896904640 },
    Symbol { offset: 5573e5a9b7c0, size: ce, name: _ZN12clap_builder7builder3arg3Arg11value_names17hb3e12819e47202efE },
    Symbol { offset: 5573e5b0c208, size: 18, name: anon.409535bb723d0dd00ae50f84864144dc.11.llvm.4219109522896904640 },
    Symbol { offset: 5573e59ee170, size: 18, name: _ZN12clap_builder7builder3arg3Arg16get_value_parser7DEFAULT17hd865ca0075b23b97E },
    Symbol { offset: 5573e5a9b890, size: 319, name: _ZN12clap_builder7builder3arg3Arg6_build17h1611ba96fbfa81c8E },
    Symbol { offset: 5573e5a9bbb0, size: 18a, name: _ZN12clap_builder7builder3arg3Arg16name_no_brackets17h520d6c3994cd050bE },
    Symbol { offset: 5573e59edd7e, size: 1, name: anon.409535bb723d0dd00ae50f84864144dc.35.llvm.4219109522896904640 },
    Symbol { offset: 5573e5b0c250, size: 18, name: anon.409535bb723d0dd00ae50f84864144dc.29.llvm.4219109522896904640 },
    Symbol { offset: 5573e5a9bd40, size: cbc, name: _ZN12clap_builder7builder3arg3Arg18stylize_arg_suffix17hf8bede15fc20da05E },
    Symbol { offset: 5573e59edeb8, size: 60, name: anon.409535bb723d0dd00ae50f84864144dc.49.llvm.4219109522896904640 },
    Symbol { offset: 5573e5b0c220, size: 30, name: anon.409535bb723d0dd00ae50f84864144dc.27.llvm.4219109522896904640 },
    Symbol { offset: 5573e5a9ca00, size: 389, name: _ZN70_$LT$clap_builder..builder..arg..Arg$u20$as$u20$core..fmt..Display$GT$3fmt17h043130e39dc9ebd6E },
    Symbol { offset: 5573e5a9cd90, size: 67, name: _ZN81_$LT$clap_builder..builder..styled_str..StyledStr$u20$as$u20$core..fmt..Write$GT$9write_str17hecb1012c825ab9f7E.llvm.4219109522896904640 },
    Symbol { offset: 5573e5a9ce00, size: 123, name: _ZN81_$LT$clap_builder..builder..styled_str..StyledStr$u20$as$u20$core..fmt..Write$GT$10write_char17h494c4bae9d8b5efdE.llvm.4219109522896904640 },
    Symbol { offset: 5573e5a9cf30, size: 2bf, name: _ZN106_$LT$clap_builder..error..format..KindFormatter$u20$as$u20$clap_builder..error..format..ErrorFormatter$GT$12format_error17h5a967b57dad41d2eE },
    Symbol { offset: 5573e5b0c3b8, size: 30, name: anon.409535bb723d0dd00ae50f84864144dc.112.llvm.4219109522896904640 },
    Symbol { offset: 5573e59fd3e0, size: 10, name: anon.409535bb723d0dd00ae50f84864144dc.108.llvm.4219109522896904640 },
    Symbol { offset: 5573e59edf1c, size: d, name: anon.409535bb723d0dd00ae50f84864144dc.109.llvm.4219109522896904640 },
    Symbol { offset: 5573e59ee136, size: 33, name: anon.409535bb723d0dd00ae50f84864144dc.131.llvm.4219109522896904640 },
    Symbol { offset: 5573e59edfef, size: 26, name: anon.409535bb723d0dd00ae50f84864144dc.124.llvm.4219109522896904640 },
    Symbol { offset: 5573e59ee0d5, size: 30, name: anon.409535bb723d0dd00ae50f84864144dc.129.llvm.4219109522896904640 },
    Symbol { offset: 5573e59edf9b, size: 17, name: anon.409535bb723d0dd00ae50f84864144dc.122.llvm.4219109522896904640 },
    Symbol { offset: 5573e59edfb2, size: 3d, name: anon.409535bb723d0dd00ae50f84864144dc.123.llvm.4219109522896904640 },
    Symbol { offset: 5573e59ee05f, size: 2a, name: anon.409535bb723d0dd00ae50f84864144dc.127.llvm.4219109522896904640 },
    Symbol { offset: 5573e59edf55, size: 2d, name: anon.409535bb723d0dd00ae50f84864144dc.120.llvm.4219109522896904640 },
    Symbol { offset: 5573e59edf82, size: 19, name: anon.409535bb723d0dd00ae50f84864144dc.121.llvm.4219109522896904640 },
    Symbol { offset: 5573e59ee015, size: 26, name: anon.409535bb723d0dd00ae50f84864144dc.125.llvm.4219109522896904640 },
    Symbol { offset: 5573e59ee03b, size: 24, name: anon.409535bb723d0dd00ae50f84864144dc.126.llvm.4219109522896904640 },
    Symbol { offset: 5573e59ee105, size: 31, name: anon.409535bb723d0dd00ae50f84864144dc.130.llvm.4219109522896904640 },
    Symbol { offset: 5573e59ee089, size: 4c, name: anon.409535bb723d0dd00ae50f84864144dc.128.llvm.4219109522896904640 },
    Symbol { offset: 5573e5a9d1f0, size: 37a, name: _ZN12clap_builder5error6format20format_error_message17hcbc654d447b610e9E },
    Symbol { offset: 5573e5a9d570, size: 216, name: _ZN12clap_builder5error6format13get_help_flag17hdaae58c3121b1ebcE },
    Symbol { offset: 5573e5a9d790, size: 1a0, name: _ZN12clap_builder6output8textwrap4core13display_width17h5ab9e98f65afea58E },
    Symbol { offset: 5573e59edc68, size: 58, name: anon.409535bb723d0dd00ae50f84864144dc.10.llvm.4219109522896904640 },
    Symbol { offset: 5573e59edcc0, size: 4a, name: anon.409535bb723d0dd00ae50f84864144dc.28.llvm.4219109522896904640 },
    Symbol { offset: 5573e59edf29, size: 6, name: anon.409535bb723d0dd00ae50f84864144dc.111.llvm.4219109522896904640 },
    Symbol { offset: 5573e5a9d940, size: 5a, name: _ZN4core3ptr118drop_in_place$LT$alloc..boxed..Box$LT$dyn$u20$core..error..Error$u2b$core..marker..Send$u2b$core..marker..Sync$GT$$GT$17habf0768de7ad6f93E },
    Symbol { offset: 5573e5a9d9a0, size: 5f, name: _ZN4core3ptr130drop_in_place$LT$core..option..Option$LT$$LP$alloc..string..String$C$core..option..Option$LT$alloc..string..String$GT$$RP$$GT$$GT$17h34adca02ae595b5aE },
    Symbol { offset: 5573e5a9db60, size: 82, name: _ZN4core3ptr65drop_in_place$LT$alloc..vec..Vec$LT$alloc..string..String$GT$$GT$17he3fc526f4bc110e4E },
    Symbol { offset: 5573e5a9d930, size: 9, name: _ZN42_$LT$$RF$T$u20$as$u20$core..fmt..Debug$GT$3fmt17h06c4c1e054e0b1d1E },
    Symbol { offset: 5573e5a9da00, size: 18, name: _ZN4core3ptr39drop_in_place$LT$std..path..PathBuf$GT$17hd796bbdc25981935E.llvm.11180855832917539284 },
    Symbol { offset: 5573e5a9da20, size: 44, name: _ZN4core3ptr47drop_in_place$LT$clap_builder..error..Error$GT$17h446c1ada455939ceE.llvm.11180855832917539284 },
    Symbol { offset: 5573e5a9da70, size: e3, name: _ZN4core3ptr52drop_in_place$LT$clap_builder..error..ErrorInner$GT$17ha219cb1d9f9f58dfE.llvm.11180855832917539284 },
    Symbol { offset: 5573e5a9dbf0, size: 1b0, name: _ZN4core3ptr75drop_in_place$LT$clap_builder..parser..matches..matched_arg..MatchedArg$GT$17h446a62dc874f2d0cE.llvm.11180855832917539284 },
    Symbol { offset: 5573e5a9de50, size: f2, name: _ZN4core3ptr93drop_in_place$LT$alloc..vec..Vec$LT$alloc..vec..Vec$LT$std..ffi..os_str..OsString$GT$$GT$$GT$17h84d91d98f61ee896E.llvm.11180855832917539284 },
    Symbol { offset: 5573e5a9dda0, size: a4, name: _ZN4core3ptr81drop_in_place$LT$core..result..Result$LT$$LP$$RP$$C$std..io..error..Error$GT$$GT$17h2ab4ac2e58e0643dE.llvm.11180855832917539284 },
    Symbol { offset: 5573e5a9df50, size: 3, name: _ZN4core5error5Error5cause17h8dc0f368d02cab6dE },
    Symbol { offset: 5573e5a9df60, size: 15, name: _ZN4core5error5Error7type_id17h3f94a10eab273b74E },
    Symbol { offset: 5573e5a9df80, size: 1cc, name: _ZN12clap_builder5error14Error$LT$F$GT$8with_cmd17h817ee4a5f34257e3E },
    Symbol { offset: 5573e59ee188, size: 62, name: anon.24ff92d6b1c512aeec81336a8d2ba21e.8.llvm.11180855832917539284 },
    Symbol { offset: 5573e5b0c580, size: 18, name: anon.24ff92d6b1c512aeec81336a8d2ba21e.25.llvm.11180855832917539284 },
    Symbol { offset: 5573e5a9e150, size: 2d, name: _ZN12clap_builder5error14Error$LT$F$GT$4exit17hea6a8ce5a7658e2dE },
    Symbol { offset: 5573e5a9e180, size: 127, name: _ZN12clap_builder5error14Error$LT$F$GT$5print17hf2ddf501b22e6e28E.llvm.11180855832917539284 },
    Symbol { offset: 5573e5a9e2b0, size: 1cb, name: _ZN12clap_builder5error14Error$LT$F$GT$7for_app17h1bc08cc01aa14322E },
    Symbol { offset: 5573e5a9e480, size: 26d, name: _ZN12clap_builder5error14Error$LT$F$GT$17argument_conflict17h8c936cf28dffdf35E },
    Symbol { offset: 5573e5a9e900, size: 1f7, name: _ZN12clap_builder5error14Error$LT$F$GT$13invalid_value17hc2911b66491f598aE },
    Symbol { offset: 5573e5a9e6f0, size: 201, name: _ZN12clap_builder5error14Error$LT$F$GT$9no_equals17h86d3c2d3c66a21d8E },
    Symbol { offset: 5573e5a9eb00, size: 201, name: _ZN12clap_builder5error14Error$LT$F$GT$23unrecognized_subcommand17hd58bddcbf363a92fE },
    Symbol { offset: 5573e5a9ed10, size: 23b, name: _ZN12clap_builder5error14Error$LT$F$GT$25missing_required_argument17hadb00f88cd9155aeE },
    Symbol { offset: 5573e5a9ef50, size: 26d, name: _ZN12clap_builder5error14Error$LT$F$GT$18missing_subcommand17hadea0bc168c42aeaE },
    Symbol { offset: 5573e5a9f1c0, size: 1c8, name: _ZN12clap_builder5error14Error$LT$F$GT$12invalid_utf817hc84b772abd111ba4E },
    Symbol { offset: 5573e5a9f390, size: 24b, name: _ZN12clap_builder5error14Error$LT$F$GT$15too_many_values17hb3037e11daaffc18E },
    Symbol { offset: 5573e5a9f5e0, size: 201, name: _ZN12clap_builder5error14Error$LT$F$GT$14too_few_values17hda5e9973a9bce452E },
    Symbol { offset: 5573e5a9f7f0, size: 293, name: _ZN12clap_builder5error14Error$LT$F$GT$16value_validation17h5ec696c7151d4974E },
    Symbol { offset: 5573e5a9fa90, size: 201, name: _ZN12clap_builder5error14Error$LT$F$GT$22wrong_number_of_values17hc14172f2101b72caE },
    Symbol { offset: 5573e5a9fca0, size: 320, name: _ZN12clap_builder5error14Error$LT$F$GT$16unknown_argument17h497380033002356eE },
    Symbol { offset: 5573e5a9ffc0, size: 2e1, name: _ZN12clap_builder5error14Error$LT$F$GT$23unnecessary_double_dash17he675381e470aca27E },
    Symbol { offset: 5573e5aa02b0, size: 252, name: _ZN12clap_builder5error7Message6format17h525f6fedd896036cE },
    Symbol { offset: 5573e5aa0510, size: 40, name: _ZN12clap_builder5error7Message9formatted17h5c6cd9233da1b8acE },
    Symbol { offset: 5573e5b0c448, size: 20, name: anon.24ff92d6b1c512aeec81336a8d2ba21e.10.llvm.11180855832917539284 },
    Symbol { offset: 5573e5b0c468, size: 20, name: anon.24ff92d6b1c512aeec81336a8d2ba21e.11.llvm.11180855832917539284 },
    Symbol { offset: 5573e5b0c488, size: 20, name: anon.24ff92d6b1c512aeec81336a8d2ba21e.12.llvm.11180855832917539284 },
    Symbol { offset: 5573e5b0c4a8, size: 20, name: anon.24ff92d6b1c512aeec81336a8d2ba21e.13.llvm.11180855832917539284 },
    Symbol { offset: 5573e5b0c4c8, size: 20, name: anon.24ff92d6b1c512aeec81336a8d2ba21e.14.llvm.11180855832917539284 },
    Symbol { offset: 5573e5b0c4e8, size: 20, name: anon.24ff92d6b1c512aeec81336a8d2ba21e.15.llvm.11180855832917539284 },
    Symbol { offset: 5573e5aa0550, size: 1f8, name: _ZN12clap_builder4util8flat_map20FlatMap$LT$K$C$V$GT$6insert17h7d7574f3fbc480faE },
    Symbol { offset: 5573e5b0c520, size: 18, name: anon.24ff92d6b1c512aeec81336a8d2ba21e.21.llvm.11180855832917539284 },
    Symbol { offset: 5573e5b0c538, size: 18, name: anon.24ff92d6b1c512aeec81336a8d2ba21e.22.llvm.11180855832917539284 },
    Symbol { offset: 5573e5b0c508, size: 18, name: anon.24ff92d6b1c512aeec81336a8d2ba21e.20.llvm.11180855832917539284 },
    Symbol { offset: 5573e5aa0750, size: 26a, name: _ZN12clap_builder4util8flat_map20FlatMap$LT$K$C$V$GT$6insert17hbdcf293e35d65a4fE },
    Symbol { offset: 5573e5aa09c0, size: 177, name: _ZN12clap_builder4util8flat_map20FlatMap$LT$K$C$V$GT$16extend_unchecked17h8a05ba5cd91d89acE },
    Symbol { offset: 5573e5b0c610, size: 18, name: anon.24ff92d6b1c512aeec81336a8d2ba21e.31.llvm.11180855832917539284 },
    Symbol { offset: 5573e5aa0b40, size: 1dd, name: _ZN12clap_builder4util8flat_map20FlatMap$LT$K$C$V$GT$6remove17h4d100b887889c8c6E },
    Symbol { offset: 5573e5b0c550, size: 18, name: anon.24ff92d6b1c512aeec81336a8d2ba21e.23.llvm.11180855832917539284 },
    Symbol { offset: 5573e5b0c568, size: 18, name: anon.24ff92d6b1c512aeec81336a8d2ba21e.24.llvm.11180855832917539284 },
    Symbol { offset: 5573e5b0c598, size: 18, name: anon.24ff92d6b1c512aeec81336a8d2ba21e.26.llvm.11180855832917539284 },
    Symbol { offset: 5573e5aa0d20, size: 142, name: _ZN12clap_builder4util8flat_map18Entry$LT$K$C$V$GT$9or_insert17h296c702cf5bd55adE },
    Symbol { offset: 5573e5b0c5b0, size: 18, name: anon.24ff92d6b1c512aeec81336a8d2ba21e.27.llvm.11180855832917539284 },
    Symbol { offset: 5573e5b0c5c8, size: 18, name: anon.24ff92d6b1c512aeec81336a8d2ba21e.28.llvm.11180855832917539284 },
    Symbol { offset: 5573e5b0c5e0, size: 18, name: anon.24ff92d6b1c512aeec81336a8d2ba21e.29.llvm.11180855832917539284 },
    Symbol { offset: 5573e5b0c5f8, size: 18, name: anon.24ff92d6b1c512aeec81336a8d2ba21e.30.llvm.11180855832917539284 },
    Symbol { offset: 5573e5b0c628, size: 18, name: anon.24ff92d6b1c512aeec81336a8d2ba21e.32.llvm.11180855832917539284 },
    Symbol { offset: 5573e59ee1ea, size: 70, name: anon.24ff92d6b1c512aeec81336a8d2ba21e.19.llvm.11180855832917539284 },
    Symbol { offset: 5573e5a9e480, size: 26d, name: _ZN12clap_builder5error14Error$LT$F$GT$19subcommand_conflict17h88246c2fdc74623dE },
    Symbol { offset: 5573e5a9da00, size: 18, name: _ZN4core3ptr42drop_in_place$LT$alloc..string..String$GT$17hd6d205257de6c30dE.llvm.11180855832917539284 },
    Symbol { offset: 5573e5a9da00, size: 18, name: _ZN4core3ptr47drop_in_place$LT$std..ffi..os_str..OsString$GT$17h062ef9cf74b44880E.llvm.11180855832917539284 },
    Symbol { offset: 5573e5aa10b0, size: 82, name: _ZN4core3ptr127drop_in_place$LT$alloc..vec..Vec$LT$$LP$$LP$usize$C$alloc..string..String$RP$$C$$RF$clap_builder..builder..arg..Arg$RP$$GT$$GT$17hc7535cddb307d0cbE },
    Symbol { offset: 5573e5aa1140, size: 82, name: _ZN4core3ptr150drop_in_place$LT$alloc..vec..Vec$LT$$LP$usize$C$clap_builder..builder..styled_str..StyledStr$C$$RF$clap_builder..builder..command..Command$RP$$GT$$GT$17h38509fed98cbb4fcE },
    Symbol { offset: 5573e5aa11d0, size: 15c, name: _ZN4core5slice4sort6shared5pivot11median3_rec17h9af05b954df0e606E },
    Symbol { offset: 5573e5aa1330, size: 155, name: _ZN4core5slice4sort6shared5pivot11median3_rec17he84b7e86039ff455E },
    Symbol { offset: 5573e59fd7b0, size: 10, name: anon.ef2098692bd3b92a41bce418068f984f.0.llvm.2580641144817698242 },
    Symbol { offset: 5573e5aa0e70, size: 181, name: _ZN104_$LT$core..iter..adapters..cloned..Cloned$LT$I$GT$$u20$as$u20$core..iter..traits..iterator..Iterator$GT$4next17h461f7db9bff1b079E },
    Symbol { offset: 5573e5aa1000, size: a9, name: _ZN104_$LT$core..iter..adapters..cloned..Cloned$LT$I$GT$$u20$as$u20$core..iter..traits..iterator..Iterator$GT$4next17ha8b643243e286916E },
    Symbol { offset: 5573e5aa1490, size: 14f, name: _ZN4core5slice4sort6shared5pivot11median3_rec17hfe12899b3c9e6358E.llvm.2580641144817698242 },
    Symbol { offset: 5573e5aa15e0, size: 135, name: _ZN4core5slice4sort6shared5pivot12choose_pivot17h1b6d27d4be656eaeE },
    Symbol { offset: 5573e5aa1720, size: 14c, name: _ZN4core5slice4sort6shared5pivot12choose_pivot17h9be96d1088376cb0E },
    Symbol { offset: 5573e5aa1870, size: 150, name: _ZN4core5slice4sort6shared5pivot12choose_pivot17hdf2940fe74221f6fE },
    Symbol { offset: 5573e5aa19c0, size: 134, name: _ZN4core5slice4sort6stable14driftsort_main17h2cb4205551e6a6daE },
    Symbol { offset: 5573e5aa1dc0, size: 5d4, name: _ZN4core5slice4sort6stable5drift4sort17h0c2aa8502d7c87a4E },
    Symbol { offset: 5573e5aa1b00, size: 15d, name: _ZN4core5slice4sort6stable14driftsort_main17h59885575a40cb549E },
    Symbol { offset: 5573e5aa29d0, size: 62f, name: _ZN4core5slice4sort6stable5drift4sort17h9b67578c984192b0E },
    Symbol { offset: 5573e5aa1c60, size: 15d, name: _ZN4core5slice4sort6stable14driftsort_main17hcb37a476531ba0f9E },
    Symbol { offset: 5573e5aa23a0, size: 62f, name: _ZN4core5slice4sort6stable5drift4sort17h2022f7fdb0782f62E },
    Symbol { offset: 5573e59fdc9c, size: 4, name: .Lanon.f112ae569857b6685d39b3568e26d33a.14 },
    Symbol { offset: 5573e59fdd24, size: 4, name: .Lanon.f112ae569857b6685d39b3568e26d33a.16 },
    Symbol { offset: 5573e5aa45d0, size: 13, name: _ZN68_$LT$clap_builder..builder..str..Str$u20$as$u20$core..fmt..Debug$GT$3fmt17h5b9c7f1a3fa84a8fE },
    Symbol { offset: 5573e59fd3e0, size: 10, name: .Lanon.f112ae569857b6685d39b3568e26d33a.25 },
    Symbol { offset: 5573e59fdc80, size: 4, name: .Lanon.f112ae569857b6685d39b3568e26d33a.22 },
    Symbol { offset: 5573e5aa3000, size: 1a8, name: _ZN104_$LT$core..iter..adapters..copied..Copied$LT$I$GT$$u20$as$u20$core..iter..traits..iterator..Iterator$GT$4fold17h26ae25833f59d420E },
    Symbol { offset: 5573e5b0c698, size: 18, name: anon.f112ae569857b6685d39b3568e26d33a.24.llvm.6632365184010272039 },
    Symbol { offset: 5573e5aa3450, size: 45, name: _ZN4core3ptr73drop_in_place$LT$clap_builder..builder..possible_value..PossibleValue$GT$17hf849e3b8c7416193E.llvm.6632365184010272039 },
    Symbol { offset: 5573e5aa31b0, size: 15, name: _ZN36_$LT$T$u20$as$u20$core..any..Any$GT$7type_id17h6a62834b70985760E },
    Symbol { offset: 5573e5aa31d0, size: 15, name: _ZN42_$LT$$RF$T$u20$as$u20$core..fmt..Debug$GT$3fmt17h577f262c959504bcE },
    Symbol { offset: 5573e5aa31f0, size: 2b, name: _ZN42_$LT$$RF$T$u20$as$u20$core..fmt..Debug$GT$3fmt17h8ef65b358ff814e0E },
    Symbol { offset: 5573e5aa3220, size: 13, name: _ZN44_$LT$$RF$T$u20$as$u20$core..fmt..Display$GT$3fmt17h682c7ad3debb5c04E },
    Symbol { offset: 5573e5aa3240, size: 13, name: _ZN44_$LT$$RF$T$u20$as$u20$core..fmt..Display$GT$3fmt17hccc9e7ef1c1b44dfE },
    Symbol { offset: 5573e5aa3260, size: 1e7, name: _ZN4core3ops8function5impls79_$LT$impl$u20$core..ops..function..FnMut$LT$A$GT$$u20$for$u20$$RF$mut$u20$F$GT$8call_mut17h17a70a35ec54e73bE },
    Symbol { offset: 5573e5aa34a0, size: 3, name: _ZN4core5error5Error5cause17h145d68f9e5181f32E },
    Symbol { offset: 5573e5aa34b0, size: 3, name: _ZN4core5error5Error5cause17hce2e871c4c4ae541E },
    Symbol { offset: 5573e5aa34c0, size: 15, name: _ZN4core5error5Error7type_id17h3b7cf1e559b90979E },
    Symbol { offset: 5573e5aa34e0, size: 15, name: _ZN4core5error5Error7type_id17hd38e27edce578886E },
    Symbol { offset: 5573e5aa3500, size: 487, name: _ZN5alloc3str17join_generic_copy17h4e90c8a71bc2e695E },
    Symbol { offset: 5573e5aa3990, size: 49b, name: _ZN5alloc3str17join_generic_copy17h752f3d5915571b1cE },
    Symbol { offset: 5573e5aa3e30, size: 49b, name: _ZN5alloc3str17join_generic_copy17hf715b25a963db2edE },
    Symbol { offset: 5573e5aa42d0, size: 14, name: _ZN64_$LT$alloc..borrow..Cow$LT$B$GT$$u20$as$u20$core..fmt..Debug$GT$3fmt17h020726222e2543d6E },
    Symbol { offset: 5573e5aa42f0, size: 14, name: _ZN66_$LT$alloc..borrow..Cow$LT$B$GT$$u20$as$u20$core..fmt..Display$GT$3fmt17h772c4fdbd900d26cE },
    Symbol { offset: 5573e5aa4310, size: 86, name: _ZN79_$LT$std..ffi..os_str..OsString$u20$as$u20$core..convert..From$LT$$RF$T$GT$$GT$4from17h54bd3a97e196e50dE },
    Symbol { offset: 5573e5aa43a0, size: 165, name: _ZN12clap_builder7builder14possible_value13PossibleValue7matches17h4281ed9ddd46c608E },
    Symbol { offset: 5573e5aa4510, size: b4, name: _ZN123_$LT$I$u20$as$u20$clap_builder..builder..resettable..IntoResettable$LT$clap_builder..builder..styled_str..StyledStr$GT$$GT$15into_resettable17he4f73fea6eebe357E },
    Symbol { offset: 5573e59ee347, size: 4a, name: anon.f112ae569857b6685d39b3568e26d33a.23.llvm.6632365184010272039 },
    Symbol { offset: 5573e59fdca0, size: 4, name: anon.f112ae569857b6685d39b3568e26d33a.45.llvm.6632365184010272039 },
    Symbol { offset: 5573e59fd3e0, size: 10, name: .Lanon.57e7e8bacb11dfe46cfccc0aa0f2647d.16 },
    Symbol { offset: 5573e5aa47e0, size: 18, name: _ZN4core3ptr42drop_in_place$LT$alloc..string..String$GT$17hd6d205257de6c30dE },
    Symbol { offset: 5573e5aa4800, size: 82, name: _ZN4core3ptr87drop_in_place$LT$clap_builder..util..flat_set..FlatSet$LT$alloc..string..String$GT$$GT$17h3c077fcd7010b02cE },
    Symbol { offset: 5573e5aa4c30, size: 26e, name: _ZN4core5slice4sort6shared9smallsort12sort4_stable17h6c518f477132835fE },
    Symbol { offset: 5573e5aa4ea0, size: 233, name: _ZN4core5slice4sort6shared9smallsort12sort4_stable17had030f69bcb926a6E },
    Symbol { offset: 5573e5aa50e0, size: 260, name: _ZN4core5slice4sort6shared9smallsort12sort4_stable17hb160ec5c9362166dE },
    Symbol { offset: 5573e5aa6340, size: 15, name: _ZN53_$LT$core..fmt..Error$u20$as$u20$core..fmt..Debug$GT$3fmt17h6736176c8e29474eE },
    Symbol { offset: 5573e5aa6360, size: 123, name: _ZN58_$LT$alloc..string..String$u20$as$u20$core..fmt..Write$GT$10write_char17h13db4e3872bba170E },
    Symbol { offset: 5573e5aa6490, size: 67, name: _ZN58_$LT$alloc..string..String$u20$as$u20$core..fmt..Write$GT$9write_str17h3471f8bf4fd2c6acE },
    Symbol { offset: 5573e5aa45f0, size: 15, name: _ZN36_$LT$T$u20$as$u20$core..any..Any$GT$7type_id17h1a2663d71528bd2fE },
    Symbol { offset: 5573e5aa4610, size: 15, name: _ZN36_$LT$T$u20$as$u20$core..any..Any$GT$7type_id17h1f48e145faee9855E },
    Symbol { offset: 5573e5aa4630, size: 14, name: _ZN44_$LT$$RF$T$u20$as$u20$core..fmt..Display$GT$3fmt17h3c8954201c04ab38E },
    Symbol { offset: 5573e5aa4650, size: 10, name: _ZN44_$LT$$RF$T$u20$as$u20$core..fmt..Display$GT$3fmt17h86c7bc535b10f5f7E },
    Symbol { offset: 5573e5aa4660, size: 10, name: _ZN4core3fmt5Write9write_fmt17hb2b38185aa8333c7E },
    Symbol { offset: 5573e5aa4670, size: 166, name: _ZN4core3ops8function5impls79_$LT$impl$u20$core..ops..function..FnMut$LT$A$GT$$u20$for$u20$$RF$mut$u20$F$GT$8call_mut17h0e6b1436d36b86deE },
    Symbol { offset: 5573e5aa4890, size: 134, name: _ZN4core5slice4sort6shared9smallsort11insert_tail17h232870a8454eb6bdE.llvm.14122729667549069073 },
    Symbol { offset: 5573e5aa49d0, size: 134, name: _ZN4core5slice4sort6shared9smallsort11insert_tail17h830da913366e1c8fE.llvm.14122729667549069073 },
    Symbol { offset: 5573e5aa4b10, size: 115, name: _ZN4core5slice4sort6shared9smallsort11insert_tail17hdfe1702727ee0808E.llvm.14122729667549069073 },
    Symbol { offset: 5573e5aa5340, size: 54e, name: _ZN4core5slice4sort6shared9smallsort31small_sort_general_with_scratch17hc26216f77deb780fE },
    Symbol { offset: 5573e5aa5890, size: 4e4, name: _ZN4core5slice4sort6shared9smallsort31small_sort_general_with_scratch17hdb0a96d8e0c1b9b5E },
    Symbol { offset: 5573e5aa5d80, size: 54c, name: _ZN4core5slice4sort6shared9smallsort31small_sort_general_with_scratch17hdd686036f159fb3aE },
    Symbol { offset: 5573e5aa62d0, size: 68, name: _ZN53_$LT$T$u20$as$u20$core..slice..cmp..SliceContains$GT$14slice_contains17h39d91e7e1d339850E },
    Symbol { offset: 5573e5b0c718, size: 18, name: anon.57e7e8bacb11dfe46cfccc0aa0f2647d.14.llvm.14122729667549069073 },
    Symbol { offset: 5573e5b0c730, size: 18, name: anon.57e7e8bacb11dfe46cfccc0aa0f2647d.18.llvm.14122729667549069073 },
    Symbol { offset: 5573e5aa6500, size: 152, name: _ZN117_$LT$clap_builder..util..flat_set..FlatSet$LT$T$GT$$u20$as$u20$core..iter..traits..collect..FromIterator$LT$T$GT$$GT$9from_iter17hc5db23900abe964fE },
    Symbol { offset: 5573e5aa6660, size: 451, name: _ZN117_$LT$clap_builder..util..flat_set..FlatSet$LT$T$GT$$u20$as$u20$core..iter..traits..collect..FromIterator$LT$T$GT$$GT$9from_iter17he5acac3ca469eee5E },
    Symbol { offset: 5573e59ee45b, size: 4a, name: anon.57e7e8bacb11dfe46cfccc0aa0f2647d.13.llvm.14122729667549069073 },
    Symbol { offset: 5573e59ee4a5, size: 70, name: anon.57e7e8bacb11dfe46cfccc0aa0f2647d.17.llvm.14122729667549069073 },
    Symbol { offset: 5573e5aa6ac0, size: 103, name: _ZN13terminal_size4unix13terminal_size17h36cfae79f4ed6234E },
    Symbol { offset: 5573e5aa6bd0, size: 13, name: _ZN42_$LT$$RF$T$u20$as$u20$core..fmt..Debug$GT$3fmt17h0c241a3946be0dc1E },
    Symbol { offset: 5573e59fdd24, size: 4, name: .Lanon.83d536dbdd150f32083c1ea3854205ca.7 },
    Symbol { offset: 5573e59fdc9c, size: 4, name: .Lanon.83d536dbdd150f32083c1ea3854205ca.5 },
    Symbol { offset: 5573e5aa6c40, size: 26, name: _ZN42_$LT$$RF$T$u20$as$u20$core..fmt..Debug$GT$3fmt17he1e46241c218cc8aE },
    Symbol { offset: 5573e59fd3e0, size: 10, name: .Lanon.83d536dbdd150f32083c1ea3854205ca.10 },
    Symbol { offset: 5573e5aa6bf0, size: 49, name: _ZN42_$LT$$RF$T$u20$as$u20$core..fmt..Debug$GT$3fmt17hd99df2538ec85c6bE },
    Symbol { offset: 5573e5aa6c66, size: 2e, name: _ZN4core9panicking13assert_failed17h001e00ff54159f04E },
    Symbol { offset: 5573e5aa6ca0, size: 91, name: _ZN67_$LT$std..ffi..os_str..OsStr$u20$as$u20$clap_lex..ext..OsStrExt$GT$8contains17h5e099995b9e3c087E },
    Symbol { offset: 5573e5b0c798, size: 18, name: anon.83d536dbdd150f32083c1ea3854205ca.9.llvm.5061153070051383417 },
    Symbol { offset: 5573e5aa6d40, size: 35, name: _ZN67_$LT$std..ffi..os_str..OsStr$u20$as$u20$clap_lex..ext..OsStrExt$GT$12strip_prefix17h5062f3365c8f85c4E },
    Symbol { offset: 5573e5aa6d80, size: 56, name: _ZN67_$LT$std..ffi..os_str..OsStr$u20$as$u20$clap_lex..ext..OsStrExt$GT$5split17h1ba6205864a1557cE },
    Symbol { offset: 5573e5aa6de0, size: f1, name: _ZN67_$LT$std..ffi..os_str..OsStr$u20$as$u20$clap_lex..ext..OsStrExt$GT$10split_once17h734f1b0b5bd2b395E },
    Symbol { offset: 5573e5b0c7c8, size: 18, name: anon.83d536dbdd150f32083c1ea3854205ca.12.llvm.5061153070051383417 },
    Symbol { offset: 5573e5b0c7e0, size: 18, name: anon.83d536dbdd150f32083c1ea3854205ca.13.llvm.5061153070051383417 },
    Symbol { offset: 5573e5aa6ee0, size: 6b, name: _ZN79_$LT$clap_lex..ext..Split$u20$as$u20$core..iter..traits..iterator..Iterator$GT$4next17h82854dbda7afebcdE },
    Symbol { offset: 5573e5b0c748, size: 10, name: anon.83d536dbdd150f32083c1ea3854205ca.1.llvm.5061153070051383417 },
    Symbol { offset: 5573e5b0c7f8, size: 18, name: anon.83d536dbdd150f32083c1ea3854205ca.14.llvm.5061153070051383417 },
    Symbol { offset: 5573e59ee515, size: 9, name: anon.83d536dbdd150f32083c1ea3854205ca.0.llvm.5061153070051383417 },
    Symbol { offset: 5573e59ee51e, size: 61, name: anon.83d536dbdd150f32083c1ea3854205ca.8.llvm.5061153070051383417 },
    Symbol { offset: 5573e5aa6f50, size: 23, name: _ZN4core3fmt3num52_$LT$impl$u20$core..fmt..Debug$u20$for$u20$usize$GT$3fmt17h7abaade222174992E },
    Symbol { offset: 5573e5aa6f80, size: 63, name: _ZN64_$LT$core..str..error..Utf8Error$u20$as$u20$core..fmt..Debug$GT$3fmt17hc3bfda3fc8f6bdd8E },
    Symbol { offset: 5573e5aa6ff0, size: 31, name: _ZN8clap_lex7RawArgs4next17h468946739d6b2e20E },
    Symbol { offset: 5573e5aa7030, size: 31, name: _ZN8clap_lex7RawArgs7next_os17h01038520781505c6E },
    Symbol { offset: 5573e5aa7070, size: 1f, name: _ZN8clap_lex7RawArgs4peek17h9a74bb841d208386E },
    Symbol { offset: 5573e5aa7090, size: 38, name: _ZN8clap_lex7RawArgs9remaining17h0941ce365614fa08E },
    Symbol { offset: 5573e5aa70d0, size: 48, name: _ZN8clap_lex7RawArgs4seek17h6e21b31b998eb80aE },
    Symbol { offset: 5573e5aa7120, size: 16, name: _ZN8clap_lex9ParsedArg9is_escape17h2d1d680866edfc8bE },
    Symbol { offset: 5573e5aa7140, size: e1, name: _ZN8clap_lex9ParsedArg18is_negative_number17h304e7d672209a122E },
    Symbol { offset: 5573e5aa7230, size: c0, name: _ZN8clap_lex9ParsedArg7to_long17ha93e947e20681e42E },
    Symbol { offset: 5573e5aa72f0, size: 28, name: _ZN8clap_lex9ParsedArg7is_long17hcc7d8671c91ac292E },
    Symbol { offset: 5573e5aa7320, size: 13d, name: _ZN8clap_lex9ParsedArg8to_short17hbe7161940fe29689E },
    Symbol { offset: 5573e5aa7460, size: 2a, name: _ZN8clap_lex9ParsedArg8is_short17hdce223ce1f1c76c1E },
    Symbol { offset: 5573e5aa7490, size: 50, name: _ZN8clap_lex9ParsedArg8to_value17h785032c27b695c61E },
    Symbol { offset: 5573e5aa74e0, size: 19, name: _ZN8clap_lex9ParsedArg7display17h092fbe9659b226ceE },
    Symbol { offset: 5573e5aa7500, size: 8f, name: _ZN8clap_lex10ShortFlags10advance_by17hca84aa098d4b4b02E },
    Symbol { offset: 5573e5aa7590, size: 10, name: _ZN8clap_lex10ShortFlags8is_empty17h40227e62359a61e6E },
    Symbol { offset: 5573e5aa75a0, size: ae, name: _ZN8clap_lex10ShortFlags18is_negative_number17h9adbbada3ec5a77eE },
    Symbol { offset: 5573e5aa7650, size: dd, name: _ZN8clap_lex10ShortFlags9next_flag17h0f6c6cee53d89911E },
    Symbol { offset: 5573e5aa7730, size: 8d, name: _ZN8clap_lex10ShortFlags13next_value_os17he765375b42b3ffc1E },
    Symbol { offset: 5573e5aa77c0, size: dd, name: _ZN79_$LT$clap_lex..ShortFlags$u20$as$u20$core..iter..traits..iterator..Iterator$GT$4next17hf557056be6264258E },
    Symbol { offset: 5573e5aa78a0, size: 13, name: _ZN44_$LT$$RF$T$u20$as$u20$core..fmt..Display$GT$3fmt17hb4bcc36f06b363d4E },
    Symbol { offset: 5573e59fd3e0, size: 10, name: .Lanon.3a8be763536670b3dea5ce0c8c9f9dec.45 },
    Symbol { offset: 5573e5aa78c0, size: d0, name: _ZN7anstyle5color13DisplayBuffer9write_str17hba7d41187e848301E },
    Symbol { offset: 5573e5aa7990, size: e2, name: _ZN7anstyle5color13DisplayBuffer10write_code17h45dab08f0fd0f8e3E },
    Symbol { offset: 5573e5aa7a80, size: 631, name: _ZN7anstyle5style5Style6fmt_to17hf86c366c6f74e01aE },
    Symbol { offset: 5573e5aa80c0, size: 6, name: _ZN67_$LT$anstyle..style..StyleDisplay$u20$as$u20$core..fmt..Display$GT$3fmt17h91da961ceb392ee9E },
    Symbol { offset: 5573e59fde98, size: 8, name: .Lanon.272fccbaf108c0e043f9d7723ea913a5.16 },
    Symbol { offset: 5573e5aa80d0, size: 18, name: _ZN4core3ptr42drop_in_place$LT$alloc..string..String$GT$17h41ea4e171e0ea68bE },
    Symbol { offset: 5573e5aa80f0, size: a7, name: _ZN4core3ptr42drop_in_place$LT$std..io..error..Error$GT$17hceed483e0783cb2aE },
    Symbol { offset: 5573e5aa81a0, size: 70, name: _ZN4core3ptr45drop_in_place$LT$serde_json..error..Error$GT$17h4e2d084f9dc58f31E },
    Symbol { offset: 5573e5aa8210, size: 37, name: _ZN4core3ptr66drop_in_place$LT$codspeed..walltime_results..WalltimeBenchmark$GT$17h8a68f18f67b54570E },
    Symbol { offset: 5573e5aa8250, size: 15, name: _ZN53_$LT$core..fmt..Error$u20$as$u20$core..fmt..Debug$GT$3fmt17h6736176c8e29474eE },
    Symbol { offset: 5573e5aa8270, size: 123, name: _ZN58_$LT$alloc..string..String$u20$as$u20$core..fmt..Write$GT$10write_char17h13db4e3872bba170E },
    Symbol { offset: 5573e5aa83a0, size: 67, name: _ZN58_$LT$alloc..string..String$u20$as$u20$core..fmt..Write$GT$9write_str17h3471f8bf4fd2c6acE },
    Symbol { offset: 5573e5aa8410, size: 14, name: _ZN60_$LT$alloc..string..String$u20$as$u20$core..fmt..Display$GT$3fmt17h253a895d4ea9e2d1E },
    Symbol { offset: 5573e5aa99c0, size: 14c, name: _ZN8codspeed16walltime_results30result_dir_from_workspace_root17h70ec82a6f0503ec0E },
    Symbol { offset: 5573e59fde10, size: 8, name: .Lanon.5399b1cd7e76821736a0ad42a4d4202d.41 },
    Symbol { offset: 5573e59fde18, size: 8, name: .Lanon.5399b1cd7e76821736a0ad42a4d4202d.35 },
    Symbol { offset: 5573e5aa8430, size: a3, name: _ZN86_$LT$serde_json..ser..Compound$LT$W$C$F$GT$$u20$as$u20$serde..ser..SerializeStruct$GT$3end17hd7bc84d84225a700E.llvm.13248935550321768732 },
    Symbol { offset: 5573e59eea16, size: 1, name: anon.5399b1cd7e76821736a0ad42a4d4202d.14.llvm.13248935550321768732 },
    Symbol { offset: 5573e59eea17, size: 1, name: anon.5399b1cd7e76821736a0ad42a4d4202d.15.llvm.13248935550321768732 },
    Symbol { offset: 5573e5aa84e0, size: 956, name: _ZN8codspeed16walltime_results17WalltimeBenchmark28collect_raw_walltime_results17ha4f7b1bd940acb2fE },
    Symbol { offset: 5573e5aa8e40, size: b73, name: _ZN8codspeed16walltime_results17WalltimeBenchmark17from_runtime_data17h5cff5300cbdba085E },
    Symbol { offset: 5573e59eea18, size: 1, name: anon.5399b1cd7e76821736a0ad42a4d4202d.16.llvm.13248935550321768732 },
    Symbol { offset: 5573e59fdcb8, size: 4, name: anon.5399b1cd7e76821736a0ad42a4d4202d.43.llvm.13248935550321768732 },
    Symbol { offset: 5573e59eead4, size: 3, name: anon.5399b1cd7e76821736a0ad42a4d4202d.44.llvm.13248935550321768732 },
    Symbol { offset: 5573e59eeb81, size: 6, name: anon.5399b1cd7e76821736a0ad42a4d4202d.70.llvm.13248935550321768732 },
    Symbol { offset: 5573e59eeb87, size: 5, name: anon.5399b1cd7e76821736a0ad42a4d4202d.71.llvm.13248935550321768732 },
    Symbol { offset: 5573e5aa9b10, size: 223, name: _ZN8codspeed16walltime_results1_94_$LT$impl$u20$serde..ser..Serialize$u20$for$u20$codspeed..walltime_results..BenchmarkStats$GT$9serialize17hbfe83358af475b44E },
    Symbol { offset: 5573e59eead7, size: 6, name: anon.5399b1cd7e76821736a0ad42a4d4202d.48.llvm.13248935550321768732 },
    Symbol { offset: 5573e59eeadd, size: 6, name: anon.5399b1cd7e76821736a0ad42a4d4202d.49.llvm.13248935550321768732 },
    Symbol { offset: 5573e59eeae3, size: 7, name: anon.5399b1cd7e76821736a0ad42a4d4202d.50.llvm.13248935550321768732 },
    Symbol { offset: 5573e59fde98, size: 8, name: anon.5399b1cd7e76821736a0ad42a4d4202d.51.llvm.13248935550321768732 },
    Symbol { offset: 5573e59eeaea, size: 5, name: anon.5399b1cd7e76821736a0ad42a4d4202d.52.llvm.13248935550321768732 },
    Symbol { offset: 5573e59eeaef, size: 9, name: anon.5399b1cd7e76821736a0ad42a4d4202d.53.llvm.13248935550321768732 },
    Symbol { offset: 5573e59eeaf8, size: 5, name: anon.5399b1cd7e76821736a0ad42a4d4202d.54.llvm.13248935550321768732 },
    Symbol { offset: 5573e59eeafd, size: 6, name: anon.5399b1cd7e76821736a0ad42a4d4202d.55.llvm.13248935550321768732 },
    Symbol { offset: 5573e59eeb03, size: a, name: anon.5399b1cd7e76821736a0ad42a4d4202d.56.llvm.13248935550321768732 },
    Symbol { offset: 5573e59eeb0d, size: 12, name: anon.5399b1cd7e76821736a0ad42a4d4202d.57.llvm.13248935550321768732 },
    Symbol { offset: 5573e59eeb1f, size: 14, name: anon.5399b1cd7e76821736a0ad42a4d4202d.58.llvm.13248935550321768732 },
    Symbol { offset: 5573e59eeb33, size: e, name: anon.5399b1cd7e76821736a0ad42a4d4202d.59.llvm.13248935550321768732 },
    Symbol { offset: 5573e59eeb41, size: c, name: anon.5399b1cd7e76821736a0ad42a4d4202d.60.llvm.13248935550321768732 },
    Symbol { offset: 5573e5aa9d40, size: e8, name: _ZN8codspeed16walltime_results1_95_$LT$impl$u20$serde..ser..Serialize$u20$for$u20$codspeed..walltime_results..BenchmarkConfig$GT$9serialize17hb326f7c0a201388aE },
    Symbol { offset: 5573e59eeb4d, size: e, name: anon.5399b1cd7e76821736a0ad42a4d4202d.64.llvm.13248935550321768732 },
    Symbol { offset: 5573e59eeb5b, size: 11, name: anon.5399b1cd7e76821736a0ad42a4d4202d.65.llvm.13248935550321768732 },
    Symbol { offset: 5573e59eeb6c, size: b, name: anon.5399b1cd7e76821736a0ad42a4d4202d.66.llvm.13248935550321768732 },
    Symbol { offset: 5573e59eeb77, size: a, name: anon.5399b1cd7e76821736a0ad42a4d4202d.67.llvm.13248935550321768732 },
    Symbol { offset: 5573e5aa9e30, size: a7, name: _ZN4core3ptr42drop_in_place$LT$std..io..error..Error$GT$17hceed483e0783cb2aE },
    Symbol { offset: 5573e5aa9ee0, size: 8c, name: _ZN4core3ptr71drop_in_place$LT$alloc..boxed..Box$LT$bincode..error..ErrorKind$GT$$GT$17h0f16d5c61ef8f275E },
    Symbol { offset: 5573e5aa9f70, size: e, name: _ZN4core5error5Error5cause17h0980af4e72fd0c70E },
    Symbol { offset: 5573e5aa9f80, size: 15, name: _ZN4core5error5Error7type_id17hb1c640c3dd301824E },
    Symbol { offset: 5573e5aa9fa0, size: 15, name: _ZN4core5error5Error7type_id17hce55368a84a0d956E },
    Symbol { offset: 5573e5aa9fc0, size: 15, name: _ZN4core5error5Error7type_id17hf201fa6202662754E },
    Symbol { offset: 5573e5aa9fe0, size: db, name: _ZN6anyhow5error11object_drop17h29a72d758afb6f10E },
    Symbol { offset: 5573e5aaa0c0, size: 7e, name: _ZN6anyhow5error11object_drop17hd71357808785779fE },
    Symbol { offset: 5573e5aaa140, size: 6b, name: _ZN6anyhow5error11object_drop17he9140523d3cb970aE },
    Symbol { offset: 5573e5aaa1b0, size: 28, name: _ZN6anyhow5error15object_downcast17h8a417d30c1d5fd96E },
    Symbol { offset: 5573e5aaa1e0, size: 28, name: _ZN6anyhow5error15object_downcast17h995722cd5658cf44E },
    Symbol { offset: 5573e5aaa210, size: 28, name: _ZN6anyhow5error15object_downcast17hcdeefccbcd60fc8eE },
    Symbol { offset: 5573e5aaa240, size: 4e, name: _ZN6anyhow5error17object_drop_front17h5a1933daffaaa54dE },
    Symbol { offset: 5573e5aaa290, size: 4e, name: _ZN6anyhow5error17object_drop_front17h5c737ae3a36655f3E },
    Symbol { offset: 5573e5aaa2e0, size: 6, name: _ZN70_$LT$anyhow..error..ErrorImpl$LT$E$GT$$u20$as$u20$core..fmt..Debug$GT$3fmt17h0fd45180f7a5b74fE },
    Symbol { offset: 5573e5aaa2f0, size: e, name: _ZN72_$LT$anyhow..error..ErrorImpl$LT$E$GT$$u20$as$u20$core..error..Error$GT$6source17h119c920865f9b3c0E },
    Symbol { offset: 5573e5aaa300, size: 17, name: _ZN72_$LT$anyhow..error..ErrorImpl$LT$E$GT$$u20$as$u20$core..fmt..Display$GT$3fmt17h0a66a3bcb40ecec0E },
    Symbol { offset: 5573e5aaa240, size: 4e, name: _ZN6anyhow5error17object_drop_front17h6d70008259cee4c3E },
    Symbol { offset: 5573e5aaa290, size: 4e, name: _ZN6anyhow5error17object_drop_front17hecdd8eb446367817E },
    Symbol { offset: 5573e5aaa300, size: 17, name: _ZN72_$LT$anyhow..error..ErrorImpl$LT$E$GT$$u20$as$u20$core..fmt..Display$GT$3fmt17h2034c36807386f8bE },
    Symbol { offset: 5573e5aaa300, size: 17, name: _ZN72_$LT$anyhow..error..ErrorImpl$LT$E$GT$$u20$as$u20$core..fmt..Display$GT$3fmt17h7899cd42e7201d80E },
    Symbol { offset: 5573e5aaa300, size: 17, name: _ZN72_$LT$anyhow..error..ErrorImpl$LT$E$GT$$u20$as$u20$core..fmt..Display$GT$3fmt17h83f03c83e77bff07E },
    Symbol { offset: 5573e5aaa300, size: 17, name: _ZN72_$LT$anyhow..error..ErrorImpl$LT$E$GT$$u20$as$u20$core..fmt..Display$GT$3fmt17h9de30f5e924ddaaeE },
    Symbol { offset: 5573e5aaa300, size: 17, name: _ZN72_$LT$anyhow..error..ErrorImpl$LT$E$GT$$u20$as$u20$core..fmt..Display$GT$3fmt17hb7c7b371eea95473E },
    Symbol { offset: 5573e5aaa300, size: 17, name: _ZN72_$LT$anyhow..error..ErrorImpl$LT$E$GT$$u20$as$u20$core..fmt..Display$GT$3fmt17he69c0ce6676be607E },
    Symbol { offset: 5573e5aaa2e0, size: 6, name: _ZN70_$LT$anyhow..error..ErrorImpl$LT$E$GT$$u20$as$u20$core..fmt..Debug$GT$3fmt17h58d1510f869bf605E },
    Symbol { offset: 5573e5aaa2e0, size: 6, name: _ZN70_$LT$anyhow..error..ErrorImpl$LT$E$GT$$u20$as$u20$core..fmt..Debug$GT$3fmt17h7586a256dae212afE },
    Symbol { offset: 5573e5aaa2e0, size: 6, name: _ZN70_$LT$anyhow..error..ErrorImpl$LT$E$GT$$u20$as$u20$core..fmt..Debug$GT$3fmt17hc9a9df1c6a08f483E },
    Symbol { offset: 5573e5aaa2e0, size: 6, name: _ZN70_$LT$anyhow..error..ErrorImpl$LT$E$GT$$u20$as$u20$core..fmt..Debug$GT$3fmt17hce2cb37dd8ff0f6cE },
    Symbol { offset: 5573e5aaa2e0, size: 6, name: _ZN70_$LT$anyhow..error..ErrorImpl$LT$E$GT$$u20$as$u20$core..fmt..Debug$GT$3fmt17he19d1fc17b262d6cE },
    Symbol { offset: 5573e5aaa2e0, size: 6, name: _ZN70_$LT$anyhow..error..ErrorImpl$LT$E$GT$$u20$as$u20$core..fmt..Debug$GT$3fmt17hfe2544cafee5e67cE },
    Symbol { offset: 5573e5aa9f70, size: e, name: _ZN4core5error5Error5cause17h2437b9dcbf2967fbE },
    Symbol { offset: 5573e5aa9f70, size: e, name: _ZN4core5error5Error5cause17h36ce459cde9a82eeE },
    Symbol { offset: 5573e5aa9f70, size: e, name: _ZN4core5error5Error5cause17h3c1d2cd2ce245344E },
    Symbol { offset: 5573e5aa9f70, size: e, name: _ZN4core5error5Error5cause17h6432c5d0231b0be5E },
    Symbol { offset: 5573e5aa9f70, size: e, name: _ZN4core5error5Error5cause17h7efdb90614b6c713E },
    Symbol { offset: 5573e5aa9f70, size: e, name: _ZN4core5error5Error5cause17hffa3316b65fc5cdfE },
    Symbol { offset: 5573e5aaa2f0, size: e, name: _ZN72_$LT$anyhow..error..ErrorImpl$LT$E$GT$$u20$as$u20$core..error..Error$GT$6source17h51c0c80dbcc1cf85E },
    Symbol { offset: 5573e5aaa2f0, size: e, name: _ZN72_$LT$anyhow..error..ErrorImpl$LT$E$GT$$u20$as$u20$core..error..Error$GT$6source17h7027aa6032e8ebffE },
    Symbol { offset: 5573e5aaa2f0, size: e, name: _ZN72_$LT$anyhow..error..ErrorImpl$LT$E$GT$$u20$as$u20$core..error..Error$GT$6source17ha5ab53f41348b104E },
    Symbol { offset: 5573e5aaa2f0, size: e, name: _ZN72_$LT$anyhow..error..ErrorImpl$LT$E$GT$$u20$as$u20$core..error..Error$GT$6source17hd2a3bf5fb3ebe277E },
    Symbol { offset: 5573e5aaa2f0, size: e, name: _ZN72_$LT$anyhow..error..ErrorImpl$LT$E$GT$$u20$as$u20$core..error..Error$GT$6source17he9a234a894ee52ecE },
    Symbol { offset: 5573e5aaa2f0, size: e, name: _ZN72_$LT$anyhow..error..ErrorImpl$LT$E$GT$$u20$as$u20$core..error..Error$GT$6source17hf7786c3e93005506E },
    Symbol { offset: 5573e5aaa320, size: 1e0, name: _ZN3std2io5Write9write_all17hda490c51daab6026E },
    Symbol { offset: 5573e5aaa510, size: a4, name: _ZN4core3ptr42drop_in_place$LT$std..io..error..Error$GT$17hceed483e0783cb2aE },
    Symbol { offset: 5573e5aaa500, size: 6, name: _ZN4core3ptr34drop_in_place$LT$anyhow..Error$GT$17h394f1e2eb19ad237E },
    Symbol { offset: 5573e5aaa5c0, size: 3a, name: _ZN4core3ptr44drop_in_place$LT$codspeed..fifo..FifoIpc$GT$17h582caa17e7c83918E },
    Symbol { offset: 5573e5aaa600, size: 7d, name: _ZN4core3ptr46drop_in_place$LT$codspeed..shared..Command$GT$17h73a06304d8758db7E },
    Symbol { offset: 5573e5aaa680, size: 9e, name: _ZN4core3ptr47drop_in_place$LT$codspeed..fifo..BenchGuard$GT$17h59be66bdfb824460E },
    Symbol { offset: 5573e5aab180, size: 1ef, name: _ZN8codspeed4fifo7FifoIpc7connect17he5919ffb65157af0E },
    Symbol { offset: 5573e5aaac80, size: 141, name: _ZN68_$LT$codspeed..fifo..BenchGuard$u20$as$u20$core..ops..drop..Drop$GT$4drop17hd38f82dba9d3ef44E },
    Symbol { offset: 5573e5aaa720, size: 530, name: _ZN8codspeed4fifo10BenchGuard3new17hf1b6b175616ba352E },
    Symbol { offset: 5573e5aab470, size: fb, name: _ZN8codspeed4fifo7FifoIpc11with_writer17h98fb876c0acb7625E },
    Symbol { offset: 5573e5aab370, size: fd, name: _ZN8codspeed4fifo7FifoIpc11with_reader17h5153ef4abb2c713eE },
    Symbol { offset: 5573e5aab7f0, size: 160, name: _ZN8codspeed4fifo7FifoIpc8send_cmd17h2361eea81ffb7345E },
    Symbol { offset: 5573e5aab570, size: 275, name: _ZN8codspeed4fifo7FifoIpc8recv_cmd17hed104b9e695d432fE },
    Symbol { offset: 5573e5aaac50, size: 28, name: _ZN8codspeed4fifo10BenchGuard20new_with_runner_fifo17h4d5c96994abcd98aE },
    Symbol { offset: 5573e5aaadd0, size: 3aa, name: _ZN8codspeed4fifo8send_cmd17h7df04adaa7de6f11E },
    Symbol { offset: 5573e59eed71, size: 16, name: anon.f8e290afa6a9ab49f7bf7dbefe026d97.20.llvm.5810410149301039568 },
    Symbol { offset: 5573e5aab950, size: e2, name: _ZN4core3ptr46drop_in_place$LT$bincode..error..ErrorKind$GT$17he33e1f0a59a029baE },
    Symbol { offset: 5573e5aaba40, size: 7f, name: _ZN94_$LT$$RF$mut$u20$bincode..de..Deserializer$LT$R$C$O$GT$$u20$as$u20$serde..de..Deserializer$GT$16deserialize_enum102_$LT$impl$u20$serde..de..EnumAccess$u20$for$u20$$RF$mut$u20$bincode..de..Deserializer$LT$R$C$O$GT$$GT$12variant_seed17he100cf186456a4c7E },
    Symbol { offset: 5573e5aabac0, size: 275, name: _ZN94_$LT$$RF$mut$u20$bincode..de..Deserializer$LT$R$C$O$GT$$u20$as$u20$serde..de..Deserializer$GT$18deserialize_string17h1fc5a1176b6a45b3E },
    Symbol { offset: 5573e5aabd40, size: c3, name: _ZN95_$LT$$RF$mut$u20$bincode..de..Deserializer$LT$R$C$O$GT$$u20$as$u20$serde..de..VariantAccess$GT$14struct_variant17h7b21a53adbac8e79E },
    Symbol { offset: 5573e5b0ccc0, size: 10, name: anon.e4c609c227c07a567e5190623d4d6372.3.llvm.10453854820664718715 },
    Symbol { offset: 5573e5b0ccd0, size: 20, name: anon.e4c609c227c07a567e5190623d4d6372.4.llvm.10453854820664718715 },
    Symbol { offset: 5573e5aabe10, size: 11a, name: _ZN95_$LT$$RF$mut$u20$bincode..de..Deserializer$LT$R$C$O$GT$$u20$as$u20$serde..de..VariantAccess$GT$14struct_variant17hcf4414e74016c92aE },
    Symbol { offset: 5573e5b0ccf0, size: 10, name: anon.e4c609c227c07a567e5190623d4d6372.6.llvm.10453854820664718715 },
    Symbol { offset: 5573e59eedfa, size: 38, name: anon.e4c609c227c07a567e5190623d4d6372.2.llvm.10453854820664718715 },
    Symbol { offset: 5573e59eee32, size: 36, name: anon.e4c609c227c07a567e5190623d4d6372.5.llvm.10453854820664718715 },
    Symbol { offset: 5573e5aabf30, size: c8, name: _ZN4core3ptr51drop_in_place$LT$std..backtrace..BacktraceFrame$GT$17h4c63cb026901282fE.llvm.10091733292702661507 },
    Symbol { offset: 5573e5aac000, size: 1ba, name: _ZN5alloc3vec16in_place_collect108_$LT$impl$u20$alloc..vec..spec_from_iter..SpecFromIter$LT$T$C$I$GT$$u20$for$u20$alloc..vec..Vec$LT$T$GT$$GT$9from_iter17hed149256c9455d07E },
    Symbol { offset: 5573e5b0cd00, size: 18, name: anon.a91c127f42b9da5bbafc0ce7f447d0e0.1.llvm.10091733292702661507 },
    Symbol { offset: 5573e59eee68, size: 87, name: anon.a91c127f42b9da5bbafc0ce7f447d0e0.0.llvm.10091733292702661507 },
    Symbol { offset: 5573e5aac510, size: 41c, name: _ZN6statrs10statistics16slice_statistics13Data$LT$D$GT$14select_inplace17haadc6635a344222dE.llvm.14269644899019114045 },
    Symbol { offset: 5573e5aac1c0, size: 34d, name: _ZN136_$LT$statrs..statistics..slice_statistics..Data$LT$D$GT$$u20$as$u20$statrs..statistics..order_statistics..OrderStatistics$LT$f64$GT$$GT$8quantile17h137cd2dded1e3902E },
    Symbol { offset: 5573e5aac960, size: 18, name: _ZN4core3ptr42drop_in_place$LT$alloc..string..String$GT$17h41ea4e171e0ea68bE },
    Symbol { offset: 5573e5aac980, size: 123, name: _ZN58_$LT$alloc..string..String$u20$as$u20$core..fmt..Write$GT$10write_char17h13db4e3872bba170E },
    Symbol { offset: 5573e5aacab0, size: 67, name: _ZN58_$LT$alloc..string..String$u20$as$u20$core..fmt..Write$GT$9write_str17h3471f8bf4fd2c6acE },
    Symbol { offset: 5573e5aac930, size: 14, name: _ZN42_$LT$$RF$T$u20$as$u20$core..fmt..Debug$GT$3fmt17h462b73b7ca428173E },
    Symbol { offset: 5573e5aac950, size: 10, name: _ZN4core3fmt5Write9write_fmt17h3260e3e084647eb5E },
    Symbol { offset: 5573e5aacb20, size: 18b, name: _ZN5serde3ser12SerializeMap15serialize_entry17h00830aeda5c1894fE },
    Symbol { offset: 5573e59ef136, size: 1, name: anon.ad44a937ba810f907b255f9ee34307fd.21.llvm.2741139807038736822 },
    Symbol { offset: 5573e59ef134, size: 2, name: anon.ad44a937ba810f907b255f9ee34307fd.20.llvm.2741139807038736822 },
    Symbol { offset: 5573e5aad5d0, size: 26a, name: _ZN95_$LT$$RF$mut$u20$serde_json..ser..Serializer$LT$W$C$F$GT$$u20$as$u20$serde..ser..Serializer$GT$13serialize_str17h08bc254d8a5bd876E.llvm.2741139807038736822 },
    Symbol { offset: 5573e59ef137, size: 2, name: anon.ad44a937ba810f907b255f9ee34307fd.22.llvm.2741139807038736822 },
    Symbol { offset: 5573e59fdc8c, size: 4, name: anon.ad44a937ba810f907b255f9ee34307fd.6.llvm.2741139807038736822 },
    Symbol { offset: 5573e5aaccb0, size: 10a, name: _ZN5serde3ser12SerializeMap15serialize_entry17h08d5221384352462E },
    Symbol { offset: 5573e5aacdc0, size: 20b, name: _ZN5serde3ser12SerializeMap15serialize_entry17h1ae5f44830606512E },
    Symbol { offset: 5573e5aacfd0, size: 236, name: _ZN5serde3ser12SerializeMap15serialize_entry17h4bc61199fac6a1a9E },
    Symbol { offset: 5573e5aad210, size: 10a, name: _ZN5serde3ser12SerializeMap15serialize_entry17h64746b0eacff078dE },
    Symbol { offset: 5573e5aad320, size: 11a, name: _ZN5serde3ser12SerializeMap15serialize_entry17h67ec8de4cefd6a89E },
    Symbol { offset: 5573e5aad440, size: 182, name: _ZN5serde3ser12SerializeMap15serialize_entry17heedba6ef3a1902d1E },
    Symbol { offset: 5573e59fdd24, size: 4, name: .Lanon.7a6a59c213b95aec6237dc80b632b2af.14 },
    Symbol { offset: 5573e59fdc9c, size: 4, name: .Lanon.7a6a59c213b95aec6237dc80b632b2af.12 },
    Symbol { offset: 5573e59fd3e0, size: 10, name: .Lanon.7a6a59c213b95aec6237dc80b632b2af.15 },
    Symbol { offset: 5573e5aad840, size: 49, name: _ZN42_$LT$$RF$T$u20$as$u20$core..fmt..Debug$GT$3fmt17hae3b659f3990925aE },
    Symbol { offset: 5573e5aad890, size: 6c, name: _ZN5alloc7raw_vec11finish_grow17h9c155812deeb494aE.llvm.1928522208564934187 },
    Symbol { offset: 5573e5aad900, size: f5, name: _ZN5alloc7raw_vec20RawVecInner$LT$A$GT$7reserve21do_reserve_and_handle17hf3cb90900d143dbcE },
    Symbol { offset: 5573e5b0ce70, size: 18, name: anon.c7a34aa823cb11bc355098529f0b5b9a.3.llvm.1928522208564934187 },
    Symbol { offset: 5573e59ef139, size: 79, name: anon.c7a34aa823cb11bc355098529f0b5b9a.2.llvm.1928522208564934187 },
    Symbol { offset: 5573e5aada00, size: a7, name: _ZN4core3ptr42drop_in_place$LT$std..io..error..Error$GT$17hceed483e0783cb2aE },
    Symbol { offset: 5573e5aadab0, size: 4a, name: _ZN4core3ptr46drop_in_place$LT$bincode..error..ErrorKind$GT$17he33e1f0a59a029baE },
    Symbol { offset: 5573e5aadb00, size: 1, name: _ZN4core5error5Error7provide17hdc63f088aa465941E },
    Symbol { offset: 5573e5aadb10, size: 15, name: _ZN4core5error5Error7type_id17h007e192b435629b9E },
    Symbol { offset: 5573e5aadb30, size: 75, name: _ZN5serde2de5Error13invalid_value17h81f2011c273f6d1cE },
    Symbol { offset: 5573e5b0ce88, size: 20, name: anon.e20256b836e48c9971af0c70f1d3c037.2.llvm.3733108713334046117 },
    Symbol { offset: 5573e5aaddc0, size: 126, name: _ZN7bincode5error97_$LT$impl$u20$serde..de..Error$u20$for$u20$alloc..boxed..Box$LT$bincode..error..ErrorKind$GT$$GT$6custom17hc38297ed5cab605cE.llvm.3733108713334046117 },
    Symbol { offset: 5573e5aadbb0, size: 7c, name: _ZN5serde2de5Error14invalid_length17h737879a54598f11fE },
    Symbol { offset: 5573e5b0cea8, size: 20, name: anon.e20256b836e48c9971af0c70f1d3c037.4.llvm.3733108713334046117 },
    Symbol { offset: 5573e5aadc30, size: 9, name: _ZN65_$LT$alloc..boxed..Box$LT$E$GT$$u20$as$u20$core..error..Error$GT$11description17h68dbb0cc399194b9E },
    Symbol { offset: 5573e5aadc40, size: 18, name: _ZN65_$LT$alloc..boxed..Box$LT$E$GT$$u20$as$u20$core..error..Error$GT$5cause17he03b14b8484fb7f5E },
    Symbol { offset: 5573e5aadc60, size: 3, name: _ZN65_$LT$alloc..boxed..Box$LT$E$GT$$u20$as$u20$core..error..Error$GT$6source17h085d306c60e47d55E },
    Symbol { offset: 5573e5aadc70, size: 1, name: _ZN65_$LT$alloc..boxed..Box$LT$E$GT$$u20$as$u20$core..error..Error$GT$7provide17hf8bb09922e88b356E },
    Symbol { offset: 5573e5aadc80, size: 129, name: _ZN67_$LT$alloc..boxed..Box$LT$T$C$A$GT$$u20$as$u20$core..fmt..Debug$GT$3fmt17haa8e729a72546f08E },
    Symbol { offset: 5573e5aaddb0, size: 9, name: _ZN69_$LT$alloc..boxed..Box$LT$T$C$A$GT$$u20$as$u20$core..fmt..Display$GT$3fmt17hb0787ab1c7a06b66E },
    Symbol { offset: 5573e5b0cff8, size: 18, name: anon.e20256b836e48c9971af0c70f1d3c037.26.llvm.3733108713334046117 },
    Symbol { offset: 5573e5aadef0, size: 148, name: _ZN7bincode8internal9serialize17ha59f9734af9469f3E },
    Symbol { offset: 5573e5b0cfe0, size: 18, name: anon.e20256b836e48c9971af0c70f1d3c037.24.llvm.3733108713334046117 },
    Symbol { offset: 5573e59ef1f4, size: f, name: anon.e20256b836e48c9971af0c70f1d3c037.0.llvm.3733108713334046117 },
    Symbol { offset: 5573e59ef203, size: b, name: anon.e20256b836e48c9971af0c70f1d3c037.1.llvm.3733108713334046117 },
    Symbol { offset: 5573e59ef20e, size: f, name: anon.e20256b836e48c9971af0c70f1d3c037.3.llvm.3733108713334046117 },
    Symbol { offset: 5573e59ef2a9, size: 65, name: anon.e20256b836e48c9971af0c70f1d3c037.23.llvm.3733108713334046117 },
    Symbol { offset: 5573e59ef30e, size: 73, name: anon.e20256b836e48c9971af0c70f1d3c037.25.llvm.3733108713334046117 },
    Symbol { offset: 5573e5aae040, size: 1bd, name: _ZN3std2io5Write9write_all17h26eb8d4e4e42eafaE },
    Symbol { offset: 5573e5b0d010, size: 18, name: anon.9e60e162559bf79989b07ec1be3f2578.3.llvm.6996449582395235293 },
    Symbol { offset: 5573e5b0d028, size: 18, name: anon.9e60e162559bf79989b07ec1be3f2578.5.llvm.6996449582395235293 },
    Symbol { offset: 5573e5aae200, size: a4, name: _ZN4core3ptr42drop_in_place$LT$std..io..error..Error$GT$17hceed483e0783cb2aE.llvm.6996449582395235293 },
    Symbol { offset: 5573e5aae2b0, size: 51, name: _ZN8codspeed5utils28running_with_codspeed_runner17hed0ba9e9ad2ace00E },
    Symbol { offset: 5573e59ef422, size: c, name: anon.9e60e162559bf79989b07ec1be3f2578.14.llvm.6996449582395235293 },
    Symbol { offset: 5573e5aae310, size: 51, name: _ZN8codspeed5utils15is_perf_enabled17h312341c63de2a726E },
    Symbol { offset: 5573e59ef394, size: 1c, name: anon.9e60e162559bf79989b07ec1be3f2578.2.llvm.6996449582395235293 },
    Symbol { offset: 5573e59ef3b0, size: 72, name: anon.9e60e162559bf79989b07ec1be3f2578.4.llvm.6996449582395235293 },
    Symbol { offset: 5573e59fdcb8, size: 4, name: .Lanon.1f4c844bf596f56e933b1b485a5fc736.4 },
    Symbol { offset: 5573e5b0d040, size: 18, name: anon.1f4c844bf596f56e933b1b485a5fc736.2.llvm.15754282854012910127 },
    Symbol { offset: 5573e59ef443, size: 27, name: anon.1f4c844bf596f56e933b1b485a5fc736.1.llvm.15754282854012910127 },
    Symbol { offset: 5573e5aae470, size: 23, name: _ZN4core3fmt3num52_$LT$impl$u20$core..fmt..Debug$u20$for$u20$usize$GT$3fmt17h7abaade222174992E },
    Symbol { offset: 5573e59fde38, size: 8, name: .Lanon.b7e2dfbd3fca8073d3a360509fabc00c.13 },
    Symbol { offset: 5573e5aae370, size: 9, name: _ZN42_$LT$$RF$T$u20$as$u20$core..fmt..Debug$GT$3fmt17h590ed5202eab1cabE },
    Symbol { offset: 5573e5aae380, size: 63, name: _ZN42_$LT$$RF$T$u20$as$u20$core..fmt..Debug$GT$3fmt17h81a33aa0c660894aE },
    Symbol { offset: 5573e5aae3f0, size: 26, name: _ZN42_$LT$$RF$T$u20$as$u20$core..fmt..Debug$GT$3fmt17hb33d695231895237E },
    Symbol { offset: 5573e5aae420, size: 26, name: _ZN42_$LT$$RF$T$u20$as$u20$core..fmt..Debug$GT$3fmt17hf6af95c1102eec87E },
    Symbol { offset: 5573e5aae450, size: 13, name: _ZN44_$LT$$RF$T$u20$as$u20$core..fmt..Display$GT$3fmt17ha74be05318047473E },
    Symbol { offset: 5573e5aae4a0, size: 15, name: _ZN4core5error5Error7type_id17h519c01866a0d5fcbE },
    Symbol { offset: 5573e5aae790, size: d, name: _ZN4core5error5Error11description17h07c1d4b2885ef416E },
    Symbol { offset: 5573e5aae7a0, size: d, name: _ZN4core5error5Error11description17h143952e51cb842d6E },
    Symbol { offset: 5573e5aae7b0, size: 3, name: _ZN4core5error5Error5cause17h19362422a61063b6E },
    Symbol { offset: 5573e5aae7c0, size: 1, name: _ZN4core5error5Error7provide17h0e248b0a21156271E },
    Symbol { offset: 5573e5aae7d0, size: 1, name: _ZN4core5error5Error7provide17h624b59dde1ca4c1dE },
    Symbol { offset: 5573e5aae7e0, size: 15, name: _ZN4core5error5Error7type_id17hb96c3197af0ae599E },
    Symbol { offset: 5573e5aaebf0, size: 14, name: _ZN75_$LT$anyhow..wrapper..MessageError$LT$M$GT$$u20$as$u20$core..fmt..Debug$GT$3fmt17h703e81b7901de2f2E },
    Symbol { offset: 5573e5aaec10, size: 14, name: _ZN77_$LT$anyhow..wrapper..MessageError$LT$M$GT$$u20$as$u20$core..fmt..Display$GT$3fmt17h39be3d193cf67511E },
    Symbol { offset: 5573e5aae4c0, size: bc, name: _ZN4core3ptr103drop_in_place$LT$anyhow..error..ErrorImpl$LT$alloc..boxed..Box$LT$bincode..error..ErrorKind$GT$$GT$$GT$17h62b3663e2ac15fc1E.llvm.3979318154283445493 },
    Symbol { offset: 5573e5aaec30, size: 15f, name: _ZN85_$LT$std..sync..lazy_lock..LazyLock$LT$T$C$F$GT$$u20$as$u20$core..ops..drop..Drop$GT$4drop17hd2fa99cecb6ecaf2E },
    Symbol { offset: 5573e5aae5e0, size: a7, name: _ZN4core3ptr42drop_in_place$LT$std..io..error..Error$GT$17hceed483e0783cb2aE.llvm.3979318154283445493 },
    Symbol { offset: 5573e5aae690, size: 8c, name: _ZN4core3ptr71drop_in_place$LT$alloc..boxed..Box$LT$bincode..error..ErrorKind$GT$$GT$17h0f16d5c61ef8f275E.llvm.3979318154283445493 },
    Symbol { offset: 5573e5aae580, size: 60, name: _ZN4core3ptr111drop_in_place$LT$anyhow..error..ErrorImpl$LT$anyhow..wrapper..MessageError$LT$alloc..string..String$GT$$GT$$GT$17h728eda1f3cd50c2aE.llvm.3979318154283445493 },
    Symbol { offset: 5573e5aae720, size: 46, name: _ZN4core3ptr74drop_in_place$LT$anyhow..error..ErrorImpl$LT$std..io..error..Error$GT$$GT$17h4ca9e19c385259f9E.llvm.3979318154283445493 },
    Symbol { offset: 5573e5aae770, size: 18, name: _ZN4core3ptr79drop_in_place$LT$anyhow..wrapper..MessageError$LT$alloc..string..String$GT$$GT$17h8143802318b9391eE.llvm.3979318154283445493 },
    Symbol { offset: 5573e5aae800, size: c, name: _ZN6anyhow5error10object_ref17h5f567e45379e8314E.llvm.3979318154283445493 },
    Symbol { offset: 5573e5aae810, size: c, name: _ZN6anyhow5error10object_ref17hd748097360c2499fE.llvm.3979318154283445493 },
    Symbol { offset: 5573e5aae820, size: c, name: _ZN6anyhow5error10object_ref17hff62ede020290b9dE.llvm.3979318154283445493 },
    Symbol { offset: 5573e5aae830, size: 3, name: _ZN6anyhow5error12no_backtrace17h1bdf72efcba67b04E.llvm.3979318154283445493 },
    Symbol { offset: 5573e5aae840, size: b, name: _ZN6anyhow5error12object_boxed17h035e0826dd103e9aE.llvm.3979318154283445493 },
    Symbol { offset: 5573e5aae850, size: b, name: _ZN6anyhow5error12object_boxed17h5c5b37d220fcc076E.llvm.3979318154283445493 },
    Symbol { offset: 5573e5aae860, size: b, name: _ZN6anyhow5error12object_boxed17h82934e0b455cb21bE.llvm.3979318154283445493 },
    Symbol { offset: 5573e5aae870, size: 71, name: _ZN6anyhow5error31_$LT$impl$u20$anyhow..Error$GT$3msg17he4e46d9ff8112674E },
    Symbol { offset: 5573e5aae9a0, size: b6, name: _ZN6anyhow5error31_$LT$impl$u20$anyhow..Error$GT$9construct17h2cc7efac85eede49E.llvm.3979318154283445493 },
    Symbol { offset: 5573e5aae8f0, size: a1, name: _ZN6anyhow5error31_$LT$impl$u20$anyhow..Error$GT$9construct17h1d693b6fa010a7d0E.llvm.3979318154283445493 },
    Symbol { offset: 5573e5b0d368, size: 30, name: anon.da74ff5ca703ae4911699f8f40b2d820.41.llvm.3979318154283445493 },
    Symbol { offset: 5573e5b0d3c8, size: 30, name: anon.da74ff5ca703ae4911699f8f40b2d820.43.llvm.3979318154283445493 },
    Symbol { offset: 5573e5aaea60, size: a1, name: _ZN6anyhow5error31_$LT$impl$u20$anyhow..Error$GT$9construct17h6440f7741f62483fE.llvm.3979318154283445493 },
    Symbol { offset: 5573e5b0d398, size: 30, name: anon.da74ff5ca703ae4911699f8f40b2d820.42.llvm.3979318154283445493 },
    Symbol { offset: 5573e5aaeb10, size: 64, name: _ZN6anyhow5error72_$LT$impl$u20$core..convert..From$LT$E$GT$$u20$for$u20$anyhow..Error$GT$4from17h99d8aad9838fe703E },
    Symbol { offset: 5573e5aaeb80, size: 64, name: _ZN6anyhow5error72_$LT$impl$u20$core..convert..From$LT$E$GT$$u20$for$u20$anyhow..Error$GT$4from17hc6aef4624edc4fabE },
    Symbol { offset: 5573e5b0d3f8, size: 10, name: anon.da74ff5ca703ae4911699f8f40b2d820.49.llvm.3979318154283445493 },
    Symbol { offset: 5573e5b0d408, size: 18, name: anon.da74ff5ca703ae4911699f8f40b2d820.51.llvm.3979318154283445493 },
    Symbol { offset: 5573e59ef4af, size: 3c, name: anon.da74ff5ca703ae4911699f8f40b2d820.48.llvm.3979318154283445493 },
    Symbol { offset: 5573e59ef4eb, size: 7f, name: anon.da74ff5ca703ae4911699f8f40b2d820.50.llvm.3979318154283445493 },
    Symbol { offset: 5573e5aaed90, size: 1e0, name: _ZN3std2io18default_read_exact17hef0e7fa779a3b8a8E },
    Symbol { offset: 5573e5b0d420, size: 18, name: anon.f836db6c8ff5285d1b145492d3ddd11e.1.llvm.1689916947228989092 },
    Symbol { offset: 5573e5b0d438, size: 18, name: anon.f836db6c8ff5285d1b145492d3ddd11e.3.llvm.1689916947228989092 },
    Symbol { offset: 5573e5aaef70, size: a4, name: _ZN4core3ptr42drop_in_place$LT$std..io..error..Error$GT$17hceed483e0783cb2aE.llvm.1689916947228989092 },
    Symbol { offset: 5573e5b0d450, size: 10, name: anon.f836db6c8ff5285d1b145492d3ddd11e.19.llvm.1689916947228989092 },
    Symbol { offset: 5573e5b0d460, size: 20, name: anon.f836db6c8ff5285d1b145492d3ddd11e.20.llvm.1689916947228989092 },
    Symbol { offset: 5573e5aaf020, size: 493, name: _ZN8codspeed6shared1_77_$LT$impl$u20$serde..ser..Serialize$u20$for$u20$codspeed..shared..Command$GT$9serialize17hc04227a738f58b0dE },
    Symbol { offset: 5573e5b0d4a0, size: 20, name: anon.f836db6c8ff5285d1b145492d3ddd11e.23.llvm.1689916947228989092 },
    Symbol { offset: 5573e59ef598, size: 1b, name: anon.f836db6c8ff5285d1b145492d3ddd11e.0.llvm.1689916947228989092 },
    Symbol { offset: 5573e59ef5b3, size: 72, name: anon.f836db6c8ff5285d1b145492d3ddd11e.2.llvm.1689916947228989092 },
    Symbol { offset: 5573e59ef625, size: 3, name: anon.f836db6c8ff5285d1b145492d3ddd11e.6.llvm.1689916947228989092 },
    Symbol { offset: 5573e59ef628, size: 3, name: anon.f836db6c8ff5285d1b145492d3ddd11e.7.llvm.1689916947228989092 },
    Symbol { offset: 5573e59fdcb8, size: 4, name: anon.f836db6c8ff5285d1b145492d3ddd11e.13.llvm.1689916947228989092 },
    Symbol { offset: 5573e59ef62b, size: 7, name: anon.f836db6c8ff5285d1b145492d3ddd11e.14.llvm.1689916947228989092 },
    Symbol { offset: 5573e59ef632, size: 18, name: anon.f836db6c8ff5285d1b145492d3ddd11e.18.llvm.1689916947228989092 },
    Symbol { offset: 5573e5b0d480, size: 20, name: anon.f836db6c8ff5285d1b145492d3ddd11e.22.llvm.1689916947228989092 },
    Symbol { offset: 5573e59fdc8c, size: 4, name: .Lanon.68b2846e25c66f4f0fd455d7aad76063.11 },
    Symbol { offset: 5573e59fdca0, size: 4, name: .Lanon.68b2846e25c66f4f0fd455d7aad76063.13 },
    Symbol { offset: 5573e59fdb00, size: 20, name: anon.7bab8c3690ebe1396178895254dab145.2.llvm.16778524574036829039 },
    Symbol { offset: 5573e5aaf4c0, size: 18, name: _ZN4core3ptr42drop_in_place$LT$alloc..string..String$GT$17h7e5438ff300d1878E },
    Symbol { offset: 5573e5aaf5b0, size: 15, name: _ZN53_$LT$core..fmt..Error$u20$as$u20$core..fmt..Debug$GT$3fmt17h6736176c8e29474eE },
    Symbol { offset: 5573e5aaf5d0, size: 14, name: _ZN58_$LT$alloc..string..String$u20$as$u20$core..fmt..Debug$GT$3fmt17h3dbd93d1431a8f2aE },
    Symbol { offset: 5573e5aaf5f0, size: 123, name: _ZN58_$LT$alloc..string..String$u20$as$u20$core..fmt..Write$GT$10write_char17h13db4e3872bba170E },
    Symbol { offset: 5573e5aaf720, size: 67, name: _ZN58_$LT$alloc..string..String$u20$as$u20$core..fmt..Write$GT$9write_str17h3471f8bf4fd2c6acE },
    Symbol { offset: 5573e59fdc8c, size: 4, name: .Lanon.8148d5820b8b8140f491f4695d3819c5.57 },
    Symbol { offset: 5573e5aaf4e0, size: ca, name: _ZN4core3ptr49drop_in_place$LT$serde_json..error..ErrorImpl$GT$17hf11163c8d1b1d60aE.llvm.12628650234377354930 },
    Symbol { offset: 5573e5aaf790, size: 87, name: _ZN10serde_json5error5Error2io17h0a2f0c449eeda65cE },
    Symbol { offset: 5573e5aaf820, size: 259, name: _ZN67_$LT$serde_json..error..ErrorCode$u20$as$u20$core..fmt..Display$GT$3fmt17h911d3ca2e13fe59aE },
    Symbol { offset: 5573e5aafa80, size: 175, name: _ZN61_$LT$serde_json..error..Error$u20$as$u20$core..fmt..Debug$GT$3fmt17h8ad490303d52ea8aE },
    Symbol { offset: 5573e5aafc10, size: 18, name: _ZN4core3ptr42drop_in_place$LT$alloc..string..String$GT$17h7e5438ff300d1878E },
    Symbol { offset: 5573e5aafc30, size: 123, name: _ZN58_$LT$alloc..string..String$u20$as$u20$core..fmt..Write$GT$10write_char17h13db4e3872bba170E },
    Symbol { offset: 5573e5aafd60, size: 67, name: _ZN58_$LT$alloc..string..String$u20$as$u20$core..fmt..Write$GT$9write_str17h3471f8bf4fd2c6acE },
    Symbol { offset: 5573e59fdc8c, size: 4, name: .Lanon.1e74f6e8b373d96dd9450e26f523cbc8.27 },
    Symbol { offset: 5573e5aafc00, size: 10, name: _ZN4core3fmt5Write9write_fmt17hf6c679b9d72b5743E },
    Symbol { offset: 5573e59fdc8c, size: 4, name: .Lanon.42d943d128ff6595e0a664140790fef0.0 },
    Symbol { offset: 5573e59fdca0, size: 4, name: .Lanon.42d943d128ff6595e0a664140790fef0.2 },
    Symbol { offset: 5573e59ef98c, size: 100, name: _ZN10serde_json3ser6ESCAPE17hc0024500f4128677E },
    Symbol { offset: 5573e59ef97c, size: 10, name: _ZN10serde_json3ser9Formatter17write_char_escape10HEX_DIGITS17hd320696970eb9c89E },
    Symbol { offset: 5573e59fdc8c, size: 4, name: .Lanon.2a545d2e5a7cc518be5905de8575e372.4 },
    Symbol { offset: 5573e5aafdd0, size: 6c, name: _ZN5alloc7raw_vec11finish_grow17h19ebe9d2ae1b76cfE.llvm.3257802594661096575 },
    Symbol { offset: 5573e5aafe40, size: f5, name: _ZN5alloc7raw_vec20RawVecInner$LT$A$GT$7reserve21do_reserve_and_handle17ha5a5af79688575d0E },
    Symbol { offset: 5573e5b0d598, size: 18, name: anon.e81c4f0a7c0af213e6655c76f50bcfb8.1.llvm.3257802594661096575 },
    Symbol { offset: 5573e59efa8c, size: 50, name: anon.e81c4f0a7c0af213e6655c76f50bcfb8.0.llvm.3257802594661096575 },
    Symbol { offset: 5573e5aaff40, size: 16f, name: _ZN3ryu6pretty8mantissa19write_mantissa_long17h5613d16a45eb5aecE },
    Symbol { offset: 5573e59efadc, size: c8, name: _ZN3ryu11digit_table11DIGIT_TABLE17h0494b2393b69b49bE },
    Symbol { offset: 5573e59efba8, size: 1560, name: _ZN3ryu14d2s_full_table21DOUBLE_POW5_INV_SPLIT17h7eb8e9bb37d19d7dE },
    Symbol { offset: 5573e59f1108, size: 1460, name: _ZN3ryu14d2s_full_table17DOUBLE_POW5_SPLIT17h8c6572d8c063fbd3E },
    Symbol { offset: 5573e5ab00b0, size: 935, name: _ZN3ryu6pretty8format6417h80ea87c27bc0bfb2E },
    Symbol { offset: 5573e59fd3e0, size: 10, name: .Lanon.58b654d910159386f99f7294c972efdc.32 },
    Symbol { offset: 5573e59fd530, size: 10, name: .Lanon.58b654d910159386f99f7294c972efdc.36 },
    Symbol { offset: 5573e59fd440, size: 10, name: .Lanon.58b654d910159386f99f7294c972efdc.35 },
    Symbol { offset: 5573e59fd7b0, size: 10, name: .Lanon.58b654d910159386f99f7294c972efdc.42 },
    Symbol { offset: 5573e5ab09f0, size: 1c3, name: _ZN4uuid3fmt17format_hyphenated17h3d990eb9916ba968E.llvm.11370538853507089212 },
    Symbol { offset: 5573e5b0d5b0, size: 10, name: anon.58b654d910159386f99f7294c972efdc.46.llvm.11370538853507089212 },
    Symbol { offset: 5573e5b0d5c0, size: 18, name: anon.58b654d910159386f99f7294c972efdc.48.llvm.11370538853507089212 },
    Symbol { offset: 5573e59f2568, size: 2a, name: anon.58b654d910159386f99f7294c972efdc.45.llvm.11370538853507089212 },
    Symbol { offset: 5573e59f2592, size: 5e, name: anon.58b654d910159386f99f7294c972efdc.47.llvm.11370538853507089212 },
    Symbol { offset: 5573e5ab0bc0, size: 35, name: _ZN4uuid3fmt59_$LT$impl$u20$core..fmt..Display$u20$for$u20$uuid..Uuid$GT$3fmt17h77c3e341eed3f1c7E },
    Symbol { offset: 5573e5ab0c00, size: c5, name: _ZN4uuid2v428_$LT$impl$u20$uuid..Uuid$GT$6new_v417hea1629e85a3a3918E },
    Symbol { offset: 5573e5ab0bc0, size: 35, name: _ZN4uuid3fmt60_$LT$impl$u20$core..fmt..LowerHex$u20$for$u20$uuid..Uuid$GT$3fmt17h9ad8e5df8155aad9E },
    Symbol { offset: 5573e5b149d0, size: 8, name: _ZN9getrandom3imp15getrandom_inner13HAS_GETRANDOM17hfc374476861814beE.0 },
    Symbol { offset: 5573e5b149c8, size: 8, name: _ZN9getrandom8use_file10get_rng_fd2FD17hcef1c0b875c08decE.0 },
    Symbol { offset: 5573e5b15728, size: 28, name: _ZN9getrandom8use_file10get_rng_fd5MUTEX17h174c09ae89f30f54E },
    Symbol { offset: 5573e59fdeb8, size: c, name: .Lanon.49415bbff813ed691fbb8eea34cd74fe.26 },
    Symbol { offset: 5573e59fdeeb, size: d, name: .Lanon.49415bbff813ed691fbb8eea34cd74fe.25 },
    Symbol { offset: 5573e5ab0cd0, size: 1fc, name: _ZN62_$LT$getrandom..error..Error$u20$as$u20$core..fmt..Display$GT$3fmt17hf8e910f2f7f69869E },
    Symbol { offset: 5573e5ab0ed0, size: 2ec, name: _ZN9getrandom3imp15getrandom_inner17he64b4b34a3d4ca30E },
    Symbol { offset: 5573e5ab11c0, size: 13, name: _ZN44_$LT$$RF$T$u20$as$u20$core..fmt..Display$GT$3fmt17h961447257585970aE },
    Symbol { offset: 5573e5ab11e0, size: 9, name: _ZN44_$LT$$RF$T$u20$as$u20$core..fmt..Display$GT$3fmt17hb637168ef41a7ac2E },
    Symbol { offset: 5573e5ab11f0, size: 9, name: _ZN44_$LT$$RF$T$u20$as$u20$core..fmt..Display$GT$3fmt17hebbfdf20836a3634E },
    Symbol { offset: 5573e5ab1200, size: e2, name: _ZN4core3ptr46drop_in_place$LT$bincode..error..ErrorKind$GT$17h11c9f285f905e0deE },
    Symbol { offset: 5573e59fd3e0, size: 10, name: .Lanon.3826f8c0dd8161e94fb65b9a0d504886.23 },
    Symbol { offset: 5573e5ab12f0, size: 6, name: _ZN7bincode6config3int17cast_u64_to_usize17hb07a71105e3ff168E },
    Symbol { offset: 5573e5ab1300, size: 9e, name: _ZN64_$LT$bincode..error..ErrorKind$u20$as$u20$core..error..Error$GT$11description17hef2dbd2678d4d870E },
    Symbol { offset: 5573e5ab13a0, size: 74, name: _ZN7bincode5error129_$LT$impl$u20$core..convert..From$LT$std..io..error..Error$GT$$u20$for$u20$alloc..boxed..Box$LT$bincode..error..ErrorKind$GT$$GT$4from17h6f38e7d1c87d3841E },
    Symbol { offset: 5573e5ab1420, size: 26a, name: _ZN64_$LT$bincode..error..ErrorKind$u20$as$u20$core..fmt..Display$GT$3fmt17hbadc6d850e637f7cE },
    Symbol { offset: 5573e5ab1690, size: 13, name: _ZN42_$LT$$RF$T$u20$as$u20$core..fmt..Debug$GT$3fmt17h6a8041201329b9ecE },
    Symbol { offset: 5573e5ab16b0, size: 10, name: _ZN4core3fmt5Write9write_fmt17h41c9d07511fd124cE },
    Symbol { offset: 5573e59fdc50, size: 4, name: .Lanon.2660a61e2e59785f4562f3d9a5f8d936.45 },
    Symbol { offset: 5573e59fde70, size: 8, name: .Lanon.2660a61e2e59785f4562f3d9a5f8d936.43 },
    Symbol { offset: 5573e59fd3e0, size: 10, name: .Lanon.2660a61e2e59785f4562f3d9a5f8d936.58 },
    Symbol { offset: 5573e59fdc60, size: 4, name: .Lanon.2660a61e2e59785f4562f3d9a5f8d936.110 },
    Symbol { offset: 5573e59fdc64, size: 4, name: .Lanon.2660a61e2e59785f4562f3d9a5f8d936.112 },
    Symbol { offset: 5573e5ab16c0, size: 269, name: _ZN60_$LT$serde..de..Unexpected$u20$as$u20$core..fmt..Display$GT$3fmt17h052c38c49401caa1E },
    Symbol { offset: 5573e5ab1960, size: 10f, name: _ZN66_$LT$serde..de..WithDecimalPoint$u20$as$u20$core..fmt..Display$GT$3fmt17hed204bcf79a841feE },
    Symbol { offset: 5573e5ab1930, size: 13, name: _ZN47_$LT$$RF$str$u20$as$u20$serde..de..Expected$GT$3fmt17h99a2f100d6935992E },
    Symbol { offset: 5573e5ab1950, size: 9, name: _ZN66_$LT$dyn$u20$serde..de..Expected$u20$as$u20$core..fmt..Display$GT$3fmt17h0ba93dc673d26169E },
    Symbol { offset: 5573e5ab1a70, size: 6a, name: _ZN128_$LT$$LT$serde..de..WithDecimalPoint$u20$as$u20$core..fmt..Display$GT$..fmt..LookForDecimalPoint$u20$as$u20$core..fmt..Write$GT$9write_str17h566eb2555fb30fe7E },
    Symbol { offset: 5573e5ab1ae0, size: 12, name: _ZN128_$LT$$LT$serde..de..WithDecimalPoint$u20$as$u20$core..fmt..Display$GT$..fmt..LookForDecimalPoint$u20$as$u20$core..fmt..Write$GT$10write_char17hb2752ba385b92621E },
    Symbol { offset: 5573e5ab1930, size: 13, name: _ZN62_$LT$serde..de..value..Error$u20$as$u20$core..fmt..Display$GT$3fmt17hbca3bba33babcc1fE },
    Symbol { offset: 5573e5ab1b00, size: 6c, name: _ZN5alloc7raw_vec11finish_grow17h5d0c9f81dad82d08E.llvm.3621610127177995574 },
    Symbol { offset: 5573e5ab1b70, size: f5, name: _ZN5alloc7raw_vec20RawVecInner$LT$A$GT$7reserve21do_reserve_and_handle17hb744a2794358302aE },
    Symbol { offset: 5573e5b0d7a0, size: 18, name: anon.49d2b90922db7a5afbfd635476197d83.2.llvm.3621610127177995574 },
    Symbol { offset: 5573e5ab1c70, size: 9, name: _ZN6anyhow5error60_$LT$impl$u20$core..fmt..Debug$u20$for$u20$anyhow..Error$GT$3fmt17hc584c4e1e744f151E },
    Symbol { offset: 5573e5ab1c80, size: 8, name: _ZN6anyhow5error65_$LT$impl$u20$core..ops..drop..Drop$u20$for$u20$anyhow..Error$GT$4drop17h4857d91980a8e05eE },
    Symbol { offset: 5573e59f2b6a, size: 50, name: anon.49d2b90922db7a5afbfd635476197d83.1.llvm.3621610127177995574 },
    Symbol { offset: 5573e5ab1cb0, size: 18, name: _ZN4core3ptr42drop_in_place$LT$alloc..string..String$GT$17hf1d409e13a647a25E },
    Symbol { offset: 5573e5ab1e00, size: 123, name: _ZN58_$LT$alloc..string..String$u20$as$u20$core..fmt..Write$GT$10write_char17h13db4e3872bba170E },
    Symbol { offset: 5573e5ab1f30, size: 67, name: _ZN58_$LT$alloc..string..String$u20$as$u20$core..fmt..Write$GT$9write_str17h3471f8bf4fd2c6acE },
    Symbol { offset: 5573e5ab1c90, size: 10, name: _ZN44_$LT$$RF$T$u20$as$u20$core..fmt..Display$GT$3fmt17h03260201d0fa6b1aE },
    Symbol { offset: 5573e5ab1ca0, size: 10, name: _ZN4core3fmt5Write9write_fmt17hae9dc57633361070E },
    Symbol { offset: 5573e5ab1cd0, size: 130, name: _ZN4core3str21_$LT$impl$u20$str$GT$16trim_end_matches17h2543a5adbb9260deE },
    Symbol { offset: 5573e5ab1fa0, size: 14b, name: _ZN5alloc6string6String13replace_range17h76469a04ceb2b95eE },
    Symbol { offset: 5573e59f2c05, size: 2a, name: anon.12dc8580697e72e3090325df583ac15c.6.llvm.17019172083817924261 },
    Symbol { offset: 5573e5b0d7d0, size: 18, name: anon.12dc8580697e72e3090325df583ac15c.8.llvm.17019172083817924261 },
    Symbol { offset: 5573e5b0d7e8, size: 18, name: anon.12dc8580697e72e3090325df583ac15c.9.llvm.17019172083817924261 },
    Symbol { offset: 5573e5b0d7b8, size: 18, name: anon.12dc8580697e72e3090325df583ac15c.2.llvm.17019172083817924261 },
    Symbol { offset: 5573e59f2bba, size: 4b, name: anon.12dc8580697e72e3090325df583ac15c.1.llvm.17019172083817924261 },
    Symbol { offset: 5573e59f2c2f, size: 4b, name: anon.12dc8580697e72e3090325df583ac15c.7.llvm.17019172083817924261 },
    Symbol { offset: 5573e5ab1c90, size: 10, name: _ZN44_$LT$$RF$T$u20$as$u20$core..fmt..Display$GT$3fmt17h54b6ff59799a8023E },
    Symbol { offset: 5573e5ab20f0, size: 6, name: _ZN4core3fmt9Formatter9write_fmt17hdac197d06fcfd859E },
    Symbol { offset: 5573e5ab2100, size: 18, name: _ZN4core3ptr42drop_in_place$LT$alloc..string..String$GT$17hf1d409e13a647a25E },
    Symbol { offset: 5573e5ab2120, size: 15, name: _ZN53_$LT$core..fmt..Error$u20$as$u20$core..fmt..Debug$GT$3fmt17h6736176c8e29474eE },
    Symbol { offset: 5573e5ab2140, size: 123, name: _ZN58_$LT$alloc..string..String$u20$as$u20$core..fmt..Write$GT$10write_char17h13db4e3872bba170E },
    Symbol { offset: 5573e5ab2270, size: 67, name: _ZN58_$LT$alloc..string..String$u20$as$u20$core..fmt..Write$GT$9write_str17h3471f8bf4fd2c6acE },
    Symbol { offset: 5573e5ab22e0, size: 42, name: _ZN5alloc6string6String8truncate17haef83b3a5d9c3c2bE },
    Symbol { offset: 5573e5ab2330, size: 14, name: _ZN60_$LT$alloc..string..String$u20$as$u20$core..fmt..Display$GT$3fmt17h253a895d4ea9e2d1E },
    Symbol { offset: 5573e5ab2350, size: 10, name: _ZN75_$LT$$RF$mut$u20$W$u20$as$u20$core..fmt..Write..write_fmt..SpecWriteFmt$GT$14spec_write_fmt17hbf6df248088bf7bcE },
    Symbol { offset: 5573e59fd3e0, size: 10, name: .Lanon.5df154bf5e963b9c5f2ec8ddd9da4704.14 },
    Symbol { offset: 5573e5ab2360, size: 6, name: _ZN6anyhow5error9ErrorImpl5error17h24c8a0bb7c5f92bdE },
    Symbol { offset: 5573e59f2d31, size: 18, name: anon.5df154bf5e963b9c5f2ec8ddd9da4704.11.llvm.17521677441727861593 },
    Symbol { offset: 5573e5b0d8e0, size: 18, name: anon.5df154bf5e963b9c5f2ec8ddd9da4704.13.llvm.17521677441727861593 },
    Symbol { offset: 5573e5ab2370, size: 481, name: _ZN6anyhow3fmt42_$LT$impl$u20$anyhow..error..ErrorImpl$GT$5debug17hfd005b11f217b677E },
    Symbol { offset: 5573e59f2d49, size: 62, name: anon.5df154bf5e963b9c5f2ec8ddd9da4704.12.llvm.17521677441727861593 },
    Symbol { offset: 5573e5ab2360, size: 6, name: _ZN6anyhow5error9ErrorImpl9error_mut17h47e1574cd0f48a93E },
    Symbol { offset: 5573e59fd3e0, size: 10, name: .Lanon.36af1f4c10d87113c7edf2842599f23d.6 },
    Symbol { offset: 5573e59fdc90, size: 4, name: .Lanon.36af1f4c10d87113c7edf2842599f23d.11 },
    Symbol { offset: 5573e5ab2800, size: d5, name: _ZN4core3fmt5Write10write_char17h0a62921b501c1617E },
    Symbol { offset: 5573e5ab28f0, size: 299, name: _ZN67_$LT$anyhow..fmt..Indented$LT$T$GT$$u20$as$u20$core..fmt..Write$GT$9write_str17h0ed97b6c8e50876aE },
    Symbol { offset: 5573e5ab28e0, size: 10, name: _ZN4core3fmt5Write9write_fmt17hea7ce23fd5135110E },
    Symbol { offset: 5573e5b0d980, size: 18, name: anon.83a51145534009a1f6f8101bf2c50810.5.llvm.16777335983702222676 },
    Symbol { offset: 5573e5ab2b90, size: 55, name: _ZN79_$LT$alloc..vec..drain..Drain$LT$T$C$A$GT$$u20$as$u20$core..ops..drop..Drop$GT$4drop17hcd33cfd9cfc01c31E },
    Symbol { offset: 5573e5ab2bf0, size: 4e0, name: _ZN81_$LT$alloc..vec..splice..Splice$LT$I$C$A$GT$$u20$as$u20$core..ops..drop..Drop$GT$4drop17hf2d5ad9d695988aaE },
    Symbol { offset: 5573e59f2e5f, size: 4c, name: anon.83a51145534009a1f6f8101bf2c50810.4.llvm.16777335983702222676 },
    Symbol { offset: 5573e59fd3e0, size: 10, name: .Lanon.0d8159722d680327fcac3e4ddc7a6159.11 },
    Symbol { offset: 5573e59fdc58, size: 4, name: .Lanon.afd6ec4e4129dc55f2b4df24a5bd1307.9 },
    Symbol { offset: 5573e5ab30d0, size: 82, name: _ZN4core3ptr100drop_in_place$LT$codspeed_divan_compat_examples..the_algorithms..backtracking..rat_in_maze..Maze$GT$17h7a6f2cb235904ec0E },
    Symbol { offset: 5573e5ab3160, size: 82, name: _ZN4core3ptr65drop_in_place$LT$alloc..vec..Vec$LT$alloc..string..String$GT$$GT$17h967c48c8b1ca591cE },
    Symbol { offset: 5573e5ab31f0, size: 86, name: _ZN4core3ptr72drop_in_place$LT$alloc..vec..Vec$LT$alloc..vec..Vec$LT$usize$GT$$GT$$GT$17h7f0ee232b970e19bE },
    Symbol { offset: 5573e5ab3710, size: 1b9, name: _ZN30codspeed_divan_compat_examples14the_algorithms12backtracking25all_combination_of_size_k9backtrack17h885cfe0f3a24bf15E },
    Symbol { offset: 5573e5ab3950, size: 2ff, name: _ZN30codspeed_divan_compat_examples14the_algorithms12backtracking21parentheses_generator8generate17hb1d50b74f2c75a47E },
    Symbol { offset: 5573e5ab4090, size: 1f8, name: _ZN30codspeed_divan_compat_examples14the_algorithms12backtracking11rat_in_maze4Maze5solve17h9193d5cb76e03dbdE },
    Symbol { offset: 5573e5ab4320, size: 84d, name: _ZN30codspeed_divan_compat_examples14the_algorithms12backtracking6sudoku12SudokuSolver5solve17he21d20a010023f1aE },
    Symbol { offset: 5573e5b0d998, size: 18, name: anon.26fbfe36b2c529f812003678afeb697e.1.llvm.10218366341946734634 },
    Symbol { offset: 5573e5ab3280, size: 10c, name: _ZN95_$LT$alloc..string..String$u20$as$u20$core..iter..traits..collect..FromIterator$LT$char$GT$$GT$9from_iter17hcf28102f2fba42d5E },
    Symbol { offset: 5573e5ab3390, size: 1f5, name: _ZN99_$LT$alloc..string..String$u20$as$u20$core..iter..traits..collect..FromIterator$LT$$RF$char$GT$$GT$9from_iter17h06d09b5f0fbdc4b8E },
    Symbol { offset: 5573e5ab3590, size: 17b, name: _ZN30codspeed_divan_compat_examples14the_algorithms12backtracking25all_combination_of_size_k25generate_all_combinations17ha5b1a43969a3a9f8E },
    Symbol { offset: 5573e5ab38d0, size: 78, name: _ZN30codspeed_divan_compat_examples14the_algorithms12backtracking21parentheses_generator20generate_parentheses17h14896e38e116691dE },
    Symbol { offset: 5573e5ab3c50, size: 437, name: _ZN30codspeed_divan_compat_examples14the_algorithms12backtracking11rat_in_maze17find_path_in_maze17h0e38e7d20bd723ddE },
    Symbol { offset: 5573e5ab4290, size: 8c, name: _ZN30codspeed_divan_compat_examples14the_algorithms12backtracking6sudoku13sudoku_solver17h3ab85ee957350d90E },
    Symbol { offset: 5573e59f2eab, size: 79, name: anon.26fbfe36b2c529f812003678afeb697e.0.llvm.10218366341946734634 },
    Symbol { offset: 5573e5ab4b70, size: 153, name: _ZN4core3ptr106drop_in_place$LT$codspeed_divan_compat_examples..the_algorithms..backtracking..n_queens..NQueensSolver$GT$17h6ce69ce1cabccd0fE },
    Symbol { offset: 5573e5ab4cd0, size: 82, name: _ZN4core3ptr65drop_in_place$LT$alloc..vec..Vec$LT$alloc..string..String$GT$$GT$17h967c48c8b1ca591cE },
    Symbol { offset: 5573e5ab52d0, size: 372, name: _ZN30codspeed_divan_compat_examples14the_algorithms12backtracking8n_queens13NQueensSolver12solve_helper17h4c4e17a5e94ce8feE },
    Symbol { offset: 5573e5ab5660, size: 99, name: _ZN30codspeed_divan_compat_examples14the_algorithms12backtracking10subset_sum9backtrack17h155fb32795e0bafbE },
    Symbol { offset: 5573e5ab4d60, size: 6c, name: _ZN5alloc7raw_vec11finish_grow17hf2f8a942bc69b411E.llvm.17680270331315879507 },
    Symbol { offset: 5573e5ab4dd0, size: b8, name: _ZN5alloc7raw_vec19RawVec$LT$T$C$A$GT$8grow_one17h2cc19ba55d56fea3E },
    Symbol { offset: 5573e5ab4e90, size: b4, name: _ZN5alloc7raw_vec19RawVec$LT$T$C$A$GT$8grow_one17h73eb7d05c7147c54E },
    Symbol { offset: 5573e5ab4f50, size: b5, name: _ZN5alloc7raw_vec19RawVec$LT$T$C$A$GT$8grow_one17h7fa7225786f069e9E },
    Symbol { offset: 5573e5ab5010, size: f5, name: _ZN5alloc7raw_vec20RawVecInner$LT$A$GT$7reserve21do_reserve_and_handle17h5fdb3c8378ed3ac9E },
    Symbol { offset: 5573e5b0db60, size: 18, name: anon.eb603a46bcf62603e51907d98ba79566.3.llvm.17680270331315879507 },
    Symbol { offset: 5573e5ab5110, size: 1b9, name: _ZN30codspeed_divan_compat_examples14the_algorithms12backtracking8n_queens15n_queens_solver17h7a45f32c6f0c1532E },
    Symbol { offset: 5573e5ab5650, size: b, name: _ZN30codspeed_divan_compat_examples14the_algorithms12backtracking10subset_sum19has_subset_with_sum17h3e984b97d695aa64E },
    Symbol { offset: 5573e59f3183, size: 79, name: anon.eb603a46bcf62603e51907d98ba79566.2.llvm.17680270331315879507 },
    Symbol { offset: 5573e5ab4dd0, size: b8, name: _ZN5alloc7raw_vec19RawVec$LT$T$C$A$GT$8grow_one17h84fbbb8e0c90c42bE },
    Symbol { offset: 5573e5ab4dd0, size: b8, name: _ZN5alloc7raw_vec19RawVec$LT$T$C$A$GT$8grow_one17h89c5591bed76a337E },
    Symbol { offset: 5573e5ab5700, size: 82, name: _ZN4core3ptr65drop_in_place$LT$alloc..vec..Vec$LT$alloc..string..String$GT$$GT$17h967c48c8b1ca591cE },
    Symbol { offset: 5573e5ab5790, size: 86, name: _ZN4core3ptr72drop_in_place$LT$alloc..vec..Vec$LT$alloc..vec..Vec$LT$isize$GT$$GT$$GT$17he8a5f81bc27434efE },
    Symbol { offset: 5573e5ab5820, size: 2bd, name: _ZN4core5slice4sort6shared9smallsort12sort8_stable17h8e3bbf87fddb0308E },
    Symbol { offset: 5573e5ab6410, size: 262, name: _ZN30codspeed_divan_compat_examples14the_algorithms12backtracking12permutations8generate17h44099d4230b89cd7E },
    Symbol { offset: 5573e5ab5ae0, size: 36f, name: _ZN4core5slice4sort6shared9smallsort31small_sort_general_with_scratch17h7f94491e6c8873feE },
    Symbol { offset: 5573e5ab5e50, size: 135, name: _ZN4core5slice4sort6stable14driftsort_main17he9015d8fc2e28a18E },
    Symbol { offset: 5573e5ab5f90, size: 1b6, name: _ZN30codspeed_divan_compat_examples14the_algorithms16bit_manipulation16n_bits_gray_code18generate_gray_code17h28a9fd8791335ec9E },
    Symbol { offset: 5573e5ab6150, size: 2c0, name: _ZN30codspeed_divan_compat_examples14the_algorithms12backtracking12permutations7permute17h3d997db191db54b7E },
    Symbol { offset: 5573e5ab6680, size: 86, name: _ZN4core3ptr106drop_in_place$LT$codspeed_divan_compat_examples..the_algorithms..backtracking..knight_tour..KnightTour$GT$17hb9a881901273d535E },
    Symbol { offset: 5573e5ab6710, size: 107, name: _ZN4core3ptr112drop_in_place$LT$codspeed_divan_compat_examples..the_algorithms..backtracking..graph_coloring..GraphColoring$GT$17hcc6e13eacc60043dE },
    Symbol { offset: 5573e5ab6820, size: 82, name: _ZN4core3ptr71drop_in_place$LT$alloc..vec..Vec$LT$alloc..vec..Vec$LT$bool$GT$$GT$$GT$17ha820e6daef21c61dE },
    Symbol { offset: 5573e5ab7250, size: 269, name: _ZN30codspeed_divan_compat_examples14the_algorithms12backtracking14graph_coloring13GraphColoring14find_colorings17h8cbdf08f2bd2249cE },
    Symbol { offset: 5573e5ab76e0, size: 15f, name: _ZN30codspeed_divan_compat_examples14the_algorithms12backtracking11knight_tour10KnightTour10solve_tour17habbeb584282b77b6E },
    Symbol { offset: 5573e5ab68b0, size: a7, name: _ZN4core5slice4sort6shared5pivot11median3_rec17hc6286c68487134fcE.llvm.3108414475128677740 },
    Symbol { offset: 5573e5ab6960, size: 6af, name: _ZN4core5slice4sort6stable5drift4sort17h5a0ba0100b0899ecE },
    Symbol { offset: 5573e5ab7010, size: 231, name: _ZN30codspeed_divan_compat_examples14the_algorithms12backtracking14graph_coloring18generate_colorings17h4e93b0f2f337107cE },
    Symbol { offset: 5573e5ab74c0, size: 21a, name: _ZN30codspeed_divan_compat_examples14the_algorithms12backtracking11knight_tour16find_knight_tour17h46d916c0b7068d14E },
    Symbol { offset: 5573e5ab7840, size: 82, name: _ZN4core3ptr65drop_in_place$LT$alloc..vec..Vec$LT$alloc..string..String$GT$$GT$17h967c48c8b1ca591cE.llvm.6843042064655114241 },
    Symbol { offset: 5573e5ab78d0, size: 82, name: _ZN4core3ptr71drop_in_place$LT$alloc..vec..Vec$LT$alloc..vec..Vec$LT$bool$GT$$GT$$GT$17ha820e6daef21c61dE.llvm.6843042064655114241 },
    Symbol { offset: 5573e5ab7960, size: 86, name: _ZN4core3ptr71drop_in_place$LT$alloc..vec..Vec$LT$alloc..vec..Vec$LT$char$GT$$GT$$GT$17h829c8b619c9bab75E.llvm.6843042064655114241 },
    Symbol { offset: 5573e5ab79f0, size: 86, name: _ZN4core3ptr72drop_in_place$LT$alloc..vec..Vec$LT$alloc..vec..Vec$LT$usize$GT$$GT$$GT$17h7f0ee232b970e19bE.llvm.6843042064655114241 },
    Symbol { offset: 5573e5b0de78, size: 18, name: anon.eb05b8bb5cdc262eb1f149b44a8a99b7.3.llvm.6843042064655114241 },
    Symbol { offset: 5573e5ab7a80, size: 2fb, name: _ZN62_$LT$T$u20$as$u20$alloc..vec..spec_from_elem..SpecFromElem$GT$9from_elem17h3063ffa5f6033e89E },
    Symbol { offset: 5573e5b0de90, size: 18, name: anon.eb05b8bb5cdc262eb1f149b44a8a99b7.4.llvm.6843042064655114241 },
    Symbol { offset: 5573e5ab7d80, size: 360, name: _ZN62_$LT$T$u20$as$u20$alloc..vec..spec_from_elem..SpecFromElem$GT$9from_elem17h699eec03267b73c9E },
    Symbol { offset: 5573e5ab80e0, size: 360, name: _ZN62_$LT$T$u20$as$u20$alloc..vec..spec_from_elem..SpecFromElem$GT$9from_elem17hbdf75331d103688cE },
    Symbol { offset: 5573e5ab8440, size: 200, name: _ZN67_$LT$alloc..vec..Vec$LT$T$C$A$GT$$u20$as$u20$core..clone..Clone$GT$5clone17h040582d911a485b5E },
    Symbol { offset: 5573e5b0dea8, size: 18, name: anon.eb05b8bb5cdc262eb1f149b44a8a99b7.5.llvm.6843042064655114241 },
    Symbol { offset: 5573e5ab8640, size: 150, name: _ZN98_$LT$alloc..vec..Vec$LT$T$GT$$u20$as$u20$alloc..vec..spec_from_iter..SpecFromIter$LT$T$C$I$GT$$GT$9from_iter17h67dfe69aa521483fE },
    Symbol { offset: 5573e59f3490, size: 73, name: anon.eb05b8bb5cdc262eb1f149b44a8a99b7.2.llvm.6843042064655114241 },
    Symbol { offset: 5573e5ab8790, size: 82, name: _ZN4core3ptr107drop_in_place$LT$codspeed_divan_compat_examples..the_algorithms..backtracking..hamiltonian_cycle..Graph$GT$17h37f43607620ad9b2E },
    Symbol { offset: 5573e5ab8df0, size: 2a8, name: _ZN30codspeed_divan_compat_examples14the_algorithms12backtracking17hamiltonian_cycle5Graph22hamiltonian_cycle_util17hbe6ef78b97bfd2d8E },
    Symbol { offset: 5573e5ab8820, size: 5d0, name: _ZN4core5slice4sort6stable9quicksort9quicksort17hb7bf3877bf14d601E },
    Symbol { offset: 5573e5ab90a0, size: 3c3, name: _ZN30codspeed_divan_compat_examples14the_algorithms12backtracking17hamiltonian_cycle22find_hamiltonian_cycle17h907242a40fff4597E },
    Symbol { offset: 5573e5ab9470, size: 1a, name: _ZN36_$LT$T$u20$as$u20$core..any..Any$GT$7type_id17h15a99ad6fa19ea84E },
    Symbol { offset: 5573e5ab9490, size: 1a, name: _ZN36_$LT$T$u20$as$u20$core..any..Any$GT$7type_id17ha7d93e114b1d1dacE },
    Symbol { offset: 5573e59fdc9c, size: 4, name: .Lanon.9ba542688b8e296d0080271b2a3eb5fb.139 },
    Symbol { offset: 5573e59fdd24, size: 4, name: .Lanon.9ba542688b8e296d0080271b2a3eb5fb.140 },
    Symbol { offset: 5573e5ab94b0, size: 15, name: _ZN42_$LT$$RF$T$u20$as$u20$core..fmt..Debug$GT$3fmt17h33588e308e4e0824E },
    Symbol { offset: 5573e5ab94d0, size: 2d, name: _ZN42_$LT$$RF$T$u20$as$u20$core..fmt..Debug$GT$3fmt17h4d64995e45ae3235E },
    Symbol { offset: 5573e5ab9500, size: 2d, name: _ZN42_$LT$$RF$T$u20$as$u20$core..fmt..Debug$GT$3fmt17h6ee17d06866f47f8E },
    Symbol { offset: 5573e5ab9530, size: 74, name: _ZN42_$LT$$RF$T$u20$as$u20$core..fmt..Debug$GT$3fmt17hba6f6560d5921ca2E },
    Symbol { offset: 5573e5ab95b0, size: 1a, name: _ZN42_$LT$$RF$T$u20$as$u20$core..fmt..Debug$GT$3fmt17hc092e40a8d735e6fE },
    Symbol { offset: 5573e5ab95d0, size: 2d, name: _ZN42_$LT$$RF$T$u20$as$u20$core..fmt..Debug$GT$3fmt17hd7bfd816cbb7ea89E },
    Symbol { offset: 5573e5ab9600, size: 18, name: _ZN42_$LT$$RF$T$u20$as$u20$core..fmt..Debug$GT$3fmt17he9206c47331b624cE },
    Symbol { offset: 5573e5ab9620, size: 7b, name: _ZN44_$LT$$RF$T$u20$as$u20$core..fmt..Display$GT$3fmt17h1529f64c0f9b353fE },
    Symbol { offset: 5573e5ab96a0, size: 18, name: _ZN44_$LT$$RF$T$u20$as$u20$core..fmt..Display$GT$3fmt17he7a76e7114bf10d3E },
    Symbol { offset: 5573e5ab96c0, size: 2a, name: _ZN4core3fmt3num50_$LT$impl$u20$core..fmt..Debug$u20$for$u20$i32$GT$3fmt17h4e402c08dfbc55c7E },
    Symbol { offset: 5573e5ab96f0, size: 2a, name: _ZN4core3fmt3num52_$LT$impl$u20$core..fmt..Debug$u20$for$u20$usize$GT$3fmt17h7abaade222174992E },
    Symbol { offset: 5573e5ab9720, size: f6, name: _ZN4core3fmt5Write10write_char17h19b07edce3a70564E },
    Symbol { offset: 5573e5abb5c0, size: a4, name: _ZN4core3ptr42drop_in_place$LT$std..io..error..Error$GT$17he7548b4c96d240f5E },
    Symbol { offset: 5573e5ab9820, size: 192, name: _ZN4core3fmt5Write10write_char17h2b17f3c14b06bf1aE },
    Symbol { offset: 5573e5ab99c0, size: f6, name: _ZN4core3fmt5Write10write_char17h4a482e3b0d0152bdE },
    Symbol { offset: 5573e5ab9ac0, size: 142, name: _ZN4core3fmt5Write10write_char17h606739a9ff32e7b7E },
    Symbol { offset: 5573e5ab9c10, size: 105, name: _ZN4core3fmt5Write10write_char17h9bdf2b9906fedae4E },
    Symbol { offset: 5573e5ac5d90, size: da, name: _ZN5alloc7raw_vec20RawVecInner$LT$A$GT$7reserve21do_reserve_and_handle17h670a9f23f7f6b510E },
    Symbol { offset: 5573e5ab9d20, size: 15, name: _ZN4core3fmt5Write9write_fmt17h043340bf94e6921aE },
    Symbol { offset: 5573e5ab9d40, size: 15, name: _ZN4core3fmt5Write9write_fmt17h205b03c948deeea3E },
    Symbol { offset: 5573e5ab9d60, size: 15, name: _ZN4core3fmt5Write9write_fmt17h4f6d78fd0ee2779cE },
    Symbol { offset: 5573e5ab9d80, size: 15, name: _ZN4core3fmt5Write9write_fmt17hd22c06cbf5bd9365E },
    Symbol { offset: 5573e5ab9da0, size: 15, name: _ZN4core3fmt5Write9write_fmt17hf0d9e068c70895c6E },
    Symbol { offset: 5573e5ab9dc0, size: 15, name: _ZN4core3fmt5Write9write_fmt17hfcdf34c3bdca6217E },
    Symbol { offset: 5573e5ab9de0, size: 109, name: _ZN4core3num21_$LT$impl$u20$u64$GT$16from_ascii_radix17h3267784428f24dd8E },
    Symbol { offset: 5573e5ab9ef0, size: 174, name: _ZN4core3num23_$LT$impl$u20$usize$GT$16from_ascii_radix17h975fd71a36bab2e3E },
    Symbol { offset: 5573e5ae4bb0, size: 1da, name: _ZN3std3sys2fs4unix8readlink17h9c8c6556630c0d34E },
    Symbol { offset: 5573e5aba070, size: 1b, name: _ZN4core3ops8function2Fn4call17h68b7e05501b05d6eE },
    Symbol { offset: 5573e5ae4d90, size: d4, name: _ZN3std3sys2fs4unix12canonicalize17h003b96f633afb820E },
    Symbol { offset: 5573e5ae4e70, size: 2c8, name: _ZN3std3sys2fs4unix9try_statx17h9829f7719a7500f0E },
    Symbol { offset: 5573e5aba090, size: d8, name: _ZN4core3ops8function2Fn4call17hef9e0cb4ab4204abE },
    Symbol { offset: 5573e5aba170, size: a, name: _ZN4core3ops8function6FnOnce40call_once$u7b$$u7b$vtable.shim$u7d$$u7d$17h070d8cfa6f3af5e9E },
    Symbol { offset: 5573e5ae00d0, size: 14c, name: _ZN3std3sys9backtrace10_print_fmt28_$u7b$$u7b$closure$u7d$$u7d$17h5f2b45e1c9b2f198E },
    Symbol { offset: 5573e5aba180, size: 99, name: _ZN4core3ops8function6FnOnce40call_once$u7b$$u7b$vtable.shim$u7d$$u7d$17h3b1836714060e601E },
    Symbol { offset: 5573e5ae04d0, size: 119, name: _ZN3std3sys9backtrace15output_filename17h095cb4e9ea829c87E },
    Symbol { offset: 5573e5aba610, size: 2d, name: _ZN4core3ptr118drop_in_place$LT$$LT$std..backtrace..Backtrace$u20$as$u20$core..fmt..Display$GT$..fmt..$u7b$$u7b$closure$u7d$$u7d$$GT$17h60397d870bf821dbE },
    Symbol { offset: 5573e5aba220, size: 87, name: _ZN4core3ops8function6FnOnce40call_once$u7b$$u7b$vtable.shim$u7d$$u7d$17h3d85acfa00f4a637E },
    Symbol { offset: 5573e5aba2b0, size: 11, name: _ZN4core3ops8function6FnOnce40call_once$u7b$$u7b$vtable.shim$u7d$$u7d$17h4cfdcc9aadb0a73cE },
    Symbol { offset: 5573e5aba2d0, size: 1e, name: _ZN4core3ops8function6FnOnce40call_once$u7b$$u7b$vtable.shim$u7d$$u7d$17h5beb73cf84614bb5E },
    Symbol { offset: 5573e5adeda0, size: 27c, name: _ZN3std4sync6poison4once4Once9call_once28_$u7b$$u7b$closure$u7d$$u7d$17h084b1677c2f2a746E },
    Symbol { offset: 5573e5aba2f0, size: 1e, name: _ZN4core3ops8function6FnOnce40call_once$u7b$$u7b$vtable.shim$u7d$$u7d$17h62d94533df7f21aaE },
    Symbol { offset: 5573e5ae22b0, size: 251, name: _ZN3std9backtrace6helper12lazy_resolve28_$u7b$$u7b$closure$u7d$$u7d$28_$u7b$$u7b$closure$u7d$$u7d$17h6ee7fd4e9047121aE },
    Symbol { offset: 5573e5aba310, size: 1e, name: _ZN4core3ops8function6FnOnce40call_once$u7b$$u7b$vtable.shim$u7d$$u7d$17h6bd6d586792b9fbaE },
    Symbol { offset: 5573e5adf020, size: 1de, name: _ZN3std4sync6poison4once4Once9call_once28_$u7b$$u7b$closure$u7d$$u7d$17h93ab614b47dc146dE },
    Symbol { offset: 5573e5aba330, size: 82, name: _ZN4core3ops8function6FnOnce40call_once$u7b$$u7b$vtable.shim$u7d$$u7d$17h8b38724a51f93b8fE },
    Symbol { offset: 5573e5abc010, size: 26, name: _ZN4core3ptr77drop_in_place$LT$std..panicking..begin_panic_handler..FormatStringPayload$GT$17habfcd3ba83f08d1eE },
    Symbol { offset: 5573e5aba3c0, size: 88, name: _ZN4core3ops8function6FnOnce40call_once$u7b$$u7b$vtable.shim$u7d$$u7d$17ha4f9de4c30777a9fE },
    Symbol { offset: 5573e5aba450, size: d, name: _ZN4core3ops8function6FnOnce40call_once$u7b$$u7b$vtable.shim$u7d$$u7d$17ha658793c13c94eb5E },
    Symbol { offset: 5573e5ad87f0, size: 155, name: _ZN3std9backtrace9Backtrace6create28_$u7b$$u7b$closure$u7d$$u7d$17h3ff673e3bc098c66E },
    Symbol { offset: 5573e5aba460, size: 11, name: _ZN4core3ops8function6FnOnce40call_once$u7b$$u7b$vtable.shim$u7d$$u7d$17hda18066a3eaa7f4fE },
    Symbol { offset: 5573e5aba480, size: a, name: _ZN4core3ops8function6FnOnce40call_once$u7b$$u7b$vtable.shim$u7d$$u7d$17hdd452b4828c9b19cE },
    Symbol { offset: 5573e5ae0220, size: 298, name: _ZN3std3sys9backtrace10_print_fmt28_$u7b$$u7b$closure$u7d$$u7d$28_$u7b$$u7b$closure$u7d$$u7d$17hc1bbb2be2d8fdf68E },
    Symbol { offset: 5573e5aba490, size: 49, name: _ZN4core3ops8function6FnOnce40call_once$u7b$$u7b$vtable.shim$u7d$$u7d$17hed2b2b7439ce0869E },
    Symbol { offset: 5573e5aba4e0, size: ab, name: _ZN4core3ops8function6FnOnce40call_once$u7b$$u7b$vtable.shim$u7d$$u7d$17hf8e862da970a516cE },
    Symbol { offset: 5573e5aba590, size: 31, name: _ZN4core3ops8function6FnOnce9call_once17h4277bc41dcad3080E },
    Symbol { offset: 5573e5aba5d0, size: 31, name: _ZN4core3ops8function6FnOnce9call_once17hbba1cfca2ff62155E },
    Symbol { offset: 5573e5aba640, size: 17, name: _ZN4core3ptr119drop_in_place$LT$std..io..default_write_fmt..Adapter$LT$std..io..cursor..Cursor$LT$$RF$mut$u20$$u5b$u8$u5d$$GT$$GT$$GT$17h41ce6725cb488ff2E },
    Symbol { offset: 5573e5aba660, size: 62, name: _ZN4core3ptr123drop_in_place$LT$addr2line..Context$LT$gimli..read..endian_slice..EndianSlice$LT$gimli..endianity..LittleEndian$GT$$GT$$GT$17h8403f5b5343d30ecE },
    Symbol { offset: 5573e5aba820, size: dd, name: _ZN4core3ptr130drop_in_place$LT$addr2line..unit..ResUnits$LT$gimli..read..endian_slice..EndianSlice$LT$gimli..endianity..LittleEndian$GT$$GT$$GT$17h53a6bdbbfad35fe9E },
    Symbol { offset: 5573e5aba900, size: dd, name: _ZN4core3ptr130drop_in_place$LT$addr2line..unit..SupUnits$LT$gimli..read..endian_slice..EndianSlice$LT$gimli..endianity..LittleEndian$GT$$GT$$GT$17hf3df7faf6b2a5d32E },
    Symbol { offset: 5573e5aba6d0, size: f3, name: _ZN4core3ptr129drop_in_place$LT$addr2line..unit..ResUnit$LT$gimli..read..endian_slice..EndianSlice$LT$gimli..endianity..LittleEndian$GT$$GT$$GT$17h7342008494b0f0ccE },
    Symbol { offset: 5573e5abb170, size: 9f, name: _ZN4core3ptr181drop_in_place$LT$core..option..Option$LT$gimli..read..line..IncompleteLineProgram$LT$gimli..read..endian_slice..EndianSlice$LT$gimli..endianity..LittleEndian$GT$$C$usize$GT$$GT$$GT$17h82c0fe46d027eab5E },
    Symbol { offset: 5573e5abc290, size: f9, name: _ZN4core3ptr92drop_in_place$LT$core..result..Result$LT$addr2line..line..Lines$C$gimli..read..Error$GT$$GT$17h852519832365cbbfE },
    Symbol { offset: 5573e5abb210, size: e5, name: _ZN4core3ptr184drop_in_place$LT$core..result..Result$LT$addr2line..function..Functions$LT$gimli..read..endian_slice..EndianSlice$LT$gimli..endianity..LittleEndian$GT$$GT$$C$gimli..read..Error$GT$$GT$17h26c2fb439f2ee553E },
    Symbol { offset: 5573e5abb3a0, size: ae, name: _ZN4core3ptr231drop_in_place$LT$core..result..Result$LT$core..option..Option$LT$alloc..boxed..Box$LT$addr2line..unit..DwoUnit$LT$gimli..read..endian_slice..EndianSlice$LT$gimli..endianity..LittleEndian$GT$$GT$$GT$$GT$$C$gimli..read..Error$GT$$GT$17h628e898bb229f61cE },
    Symbol { offset: 5573e5aba7d0, size: 4b, name: _ZN4core3ptr129drop_in_place$LT$addr2line..unit..SupUnit$LT$gimli..read..endian_slice..EndianSlice$LT$gimli..endianity..LittleEndian$GT$$GT$$GT$17hf851c68c21a64fc7E },
    Symbol { offset: 5573e5aba9e0, size: 5c, name: _ZN4core3ptr130drop_in_place$LT$gimli..read..dwarf..Dwarf$LT$gimli..read..endian_slice..EndianSlice$LT$gimli..endianity..LittleEndian$GT$$GT$$GT$17h0c93c59d36616469E },
    Symbol { offset: 5573e5abbac0, size: dd, name: _ZN4core3ptr60drop_in_place$LT$gimli..read..abbrev..AbbreviationsCache$GT$17hca29b48f79ccdd8cE },
    Symbol { offset: 5573e5abaa40, size: 69, name: _ZN4core3ptr131drop_in_place$LT$alloc..boxed..Box$LT$dyn$u20$core..ops..function..FnOnce$LT$$LP$$RP$$GT$$u2b$Output$u20$$u3d$$u20$$LP$$RP$$GT$$GT$17h3641335b5b807fb4E },
    Symbol { offset: 5573e5abaab0, size: 61, name: _ZN4core3ptr135drop_in_place$LT$std..sync..poison..PoisonError$LT$std..sync..poison..mutex..MutexGuard$LT$std..sync..barrier..BarrierState$GT$$GT$$GT$17h6e1f6fdc711b6091E },
    Symbol { offset: 5573e5abab20, size: 4b, name: _ZN4core3ptr137drop_in_place$LT$gimli..read..dwarf..Unit$LT$gimli..read..endian_slice..EndianSlice$LT$gimli..endianity..LittleEndian$GT$$C$usize$GT$$GT$17h28ef1b4b63fe8adfE },
    Symbol { offset: 5573e5abab70, size: 63, name: _ZN4core3ptr138drop_in_place$LT$addr2line..function..LazyFunction$LT$gimli..read..endian_slice..EndianSlice$LT$gimli..endianity..LittleEndian$GT$$GT$$GT$17ha655929ef2834b13E },
    Symbol { offset: 5573e5ababe0, size: c6, name: _ZN4core3ptr152drop_in_place$LT$alloc..vec..Vec$LT$addr2line..unit..ResUnit$LT$gimli..read..endian_slice..EndianSlice$LT$gimli..endianity..LittleEndian$GT$$GT$$GT$$GT$17h9e27ee3591c33b89E },
    Symbol { offset: 5573e5abacb0, size: f5, name: _ZN4core3ptr152drop_in_place$LT$alloc..vec..Vec$LT$addr2line..unit..SupUnit$LT$gimli..read..endian_slice..EndianSlice$LT$gimli..endianity..LittleEndian$GT$$GT$$GT$$GT$17h9099ff0bcac7ebccE },
    Symbol { offset: 5573e5abadb0, size: 5c, name: _ZN4core3ptr159drop_in_place$LT$alloc..sync..ArcInner$LT$gimli..read..dwarf..Dwarf$LT$gimli..read..endian_slice..EndianSlice$LT$gimli..endianity..LittleEndian$GT$$GT$$GT$$GT$17h885c75a5acd26a2eE },
    Symbol { offset: 5573e5abae10, size: bc, name: _ZN4core3ptr161drop_in_place$LT$alloc..vec..Vec$LT$addr2line..function..LazyFunction$LT$gimli..read..endian_slice..EndianSlice$LT$gimli..endianity..LittleEndian$GT$$GT$$GT$$GT$17hd517f36973f12f1cE },
    Symbol { offset: 5573e5abaed0, size: b8, name: _ZN4core3ptr164drop_in_place$LT$$u5b$alloc..boxed..Box$LT$dyn$u20$core..ops..function..FnOnce$LT$$LP$$RP$$GT$$u2b$Output$u20$$u3d$$u20$$LP$$RP$$u2b$core..marker..Send$GT$$u5d$$GT$17hfc8d8a4ba1eed7faE },
    Symbol { offset: 5573e5abaf90, size: 6c, name: _ZN4core3ptr172drop_in_place$LT$core..result..Result$LT$addr2line..Context$LT$gimli..read..endian_slice..EndianSlice$LT$gimli..endianity..LittleEndian$GT$$GT$$C$gimli..read..Error$GT$$GT$17h05bc5477d85310e4E },
    Symbol { offset: 5573e5abb000, size: af, name: _ZN4core3ptr173drop_in_place$LT$alloc..boxed..Box$LT$$u5b$addr2line..function..LazyFunction$LT$gimli..read..endian_slice..EndianSlice$LT$gimli..endianity..LittleEndian$GT$$GT$$u5d$$GT$$GT$17hc0dcdcbbf1e0a5d1E },
    Symbol { offset: 5573e5abb0b0, size: 3b, name: _ZN4core3ptr175drop_in_place$LT$std..sync..reentrant_lock..ReentrantLockGuard$LT$core..cell..RefCell$LT$std..io..buffered..linewriter..LineWriter$LT$std..io..stdio..StdoutRaw$GT$$GT$$GT$$GT$17h73b78ef6ee6573f0E },
    Symbol { offset: 5573e5abb0f0, size: 71, name: _ZN4core3ptr177drop_in_place$LT$alloc..vec..Vec$LT$alloc..boxed..Box$LT$dyn$u20$core..ops..function..FnOnce$LT$$LP$$RP$$GT$$u2b$Output$u20$$u3d$$u20$$LP$$RP$$u2b$core..marker..Send$GT$$GT$$GT$17hd19bfb813e24fb83E },
    Symbol { offset: 5573e5abb300, size: 68, name: _ZN4core3ptr193drop_in_place$LT$alloc..vec..into_iter..IntoIter$LT$alloc..boxed..Box$LT$dyn$u20$core..ops..function..FnOnce$LT$$LP$$RP$$GT$$u2b$Output$u20$$u3d$$u20$$LP$$RP$$u2b$core..marker..Send$GT$$GT$$GT$17h91880703be25023aE },
    Symbol { offset: 5573e5abb370, size: 25, name: _ZN4core3ptr199drop_in_place$LT$core..result..Result$LT$core..option..Option$LT$alloc..sync..Arc$LT$std..sync..poison..mutex..Mutex$LT$alloc..vec..Vec$LT$u8$GT$$GT$$GT$$GT$$C$std..thread..local..AccessError$GT$$GT$17h270f3e39260d1988E },
    Symbol { offset: 5573e5abb450, size: 1e, name: _ZN4core3ptr238drop_in_place$LT$alloc..boxed..convert..$LT$impl$u20$core..convert..From$LT$alloc..string..String$GT$$u20$for$u20$alloc..boxed..Box$LT$dyn$u20$core..error..Error$u2b$core..marker..Send$u2b$core..marker..Sync$GT$$GT$..from..StringError$GT$17h0a0eeee720ef2dbbE },
    Symbol { offset: 5573e5abb470, size: 96, name: _ZN4core3ptr275drop_in_place$LT$gimli..read..line..LineRows$LT$gimli..read..endian_slice..EndianSlice$LT$gimli..endianity..LittleEndian$GT$$C$gimli..read..line..IncompleteLineProgram$LT$gimli..read..endian_slice..EndianSlice$LT$gimli..endianity..LittleEndian$GT$$C$usize$GT$$C$usize$GT$$GT$17h156475ce9884866bE },
    Symbol { offset: 5573e5abb510, size: 83, name: _ZN4core3ptr280drop_in_place$LT$$LT$alloc..collections..btree..map..IntoIter$LT$K$C$V$C$A$GT$$u20$as$u20$core..ops..drop..Drop$GT$..drop..DropGuard$LT$u64$C$core..result..Result$LT$alloc..sync..Arc$LT$gimli..read..abbrev..Abbreviations$GT$$C$gimli..read..Error$GT$$C$alloc..alloc..Global$GT$$GT$17head685537876b317E },
    Symbol { offset: 5573e5ac4d70, size: 406, name: _ZN5alloc11collections5btree3map25IntoIter$LT$K$C$V$C$A$GT$10dying_next17hd86f0d843cad3973E },
    Symbol { offset: 5573e5abb5a0, size: 1e, name: _ZN4core3ptr42drop_in_place$LT$alloc..string..String$GT$17h7fc22f80bf3e0365E },
    Symbol { offset: 5573e5abb670, size: 5c, name: _ZN4core3ptr44drop_in_place$LT$std..backtrace..Capture$GT$17h0375211dcbc72697E },
    Symbol { offset: 5573e5abb7a0, size: e7, name: _ZN4core3ptr51drop_in_place$LT$std..backtrace..BacktraceFrame$GT$17h9b08c20baac4a2a0E },
    Symbol { offset: 5573e5abb6d0, size: 1e, name: _ZN4core3ptr46drop_in_place$LT$alloc..vec..Vec$LT$u8$GT$$GT$17h2295e2b653d963a7E },
    Symbol { offset: 5573e5abb6f0, size: 64, name: _ZN4core3ptr46drop_in_place$LT$std..io..stdio..StdinLock$GT$17h53192374a7bef973E },
    Symbol { offset: 5573e5abb760, size: 1e, name: _ZN4core3ptr47drop_in_place$LT$std..ffi..os_str..OsString$GT$17hf0ec83bb9efa9a42E },
    Symbol { offset: 5573e5abb780, size: 1e, name: _ZN4core3ptr48drop_in_place$LT$alloc..ffi..c_str..NulError$GT$17h2fd00a4fd7052c99E },
    Symbol { offset: 5573e5abb890, size: 8e, name: _ZN4core3ptr52drop_in_place$LT$std..backtrace..BacktraceSymbol$GT$17h6581cbee995099a5E },
    Symbol { offset: 5573e5abb920, size: 13d, name: _ZN4core3ptr55drop_in_place$LT$gimli..read..abbrev..Abbreviations$GT$17he5a67c267b7e6116E },
    Symbol { offset: 5573e5ac4960, size: 406, name: _ZN5alloc11collections5btree3map25IntoIter$LT$K$C$V$C$A$GT$10dying_next17h0b45c8a0ffdb7857E },
    Symbol { offset: 5573e5abba60, size: 58, name: _ZN4core3ptr55drop_in_place$LT$std..thread..spawnhook..SpawnHooks$GT$17h140705e624936f44E },
    Symbol { offset: 5573e5abbba0, size: 8c, name: _ZN4core3ptr65drop_in_place$LT$alloc..vec..Vec$LT$alloc..string..String$GT$$GT$17he64301ad1fe07053E },
    Symbol { offset: 5573e5abbc30, size: 49, name: _ZN4core3ptr65drop_in_place$LT$std..backtrace_rs..symbolize..gimli..Library$GT$17hf9eb7a7b8f35b645E },
    Symbol { offset: 5573e5abbc80, size: 73, name: _ZN4core3ptr65drop_in_place$LT$std..sys..pal..unix..stack_overflow..Handler$GT$17h55d5bf8708bdfa0bE },
    Symbol { offset: 5573e5b15848, size: 8, name: _ZN3std3sys3pal4unix14stack_overflow3imp9PAGE_SIZE17h08b9af82374e43f3E.0 },
    Symbol { offset: 5573e5abbd00, size: 42, name: _ZN4core3ptr66drop_in_place$LT$std..backtrace_rs..backtrace..libunwind..Bomb$GT$17he5ce97b5c8369e5bE },
    Symbol { offset: 5573e5abbd50, size: 25, name: _ZN4core3ptr69drop_in_place$LT$std..backtrace_rs..symbolize..gimli..elf..Object$GT$17h70b9028ece002166E },
    Symbol { offset: 5573e5abbd80, size: 8c, name: _ZN4core3ptr70drop_in_place$LT$alloc..vec..Vec$LT$std..ffi..os_str..OsString$GT$$GT$17hc0efe34eb1113072E },
    Symbol { offset: 5573e5abbe10, size: dd, name: _ZN4core3ptr70drop_in_place$LT$std..backtrace_rs..symbolize..gimli..stash..Stash$GT$17h3cda65fa33f5918dE },
    Symbol { offset: 5573e5abbef0, size: 90, name: _ZN4core3ptr73drop_in_place$LT$alloc..vec..Vec$LT$addr2line..line..LineSequence$GT$$GT$17h2a8ba00b2fdbd378E },
    Symbol { offset: 5573e5abbf80, size: 82, name: _ZN4core3ptr77drop_in_place$LT$alloc..boxed..Box$LT$$u5b$alloc..string..String$u5d$$GT$$GT$17h98674a386ca742e1E },
    Symbol { offset: 5573e5abc040, size: 107, name: _ZN4core3ptr81drop_in_place$LT$$LP$usize$C$std..backtrace_rs..symbolize..gimli..Mapping$RP$$GT$17h3c829c1253266c07E },
    Symbol { offset: 5573e5abc150, size: 12, name: _ZN4core3ptr81drop_in_place$LT$core..result..Result$LT$$LP$$RP$$C$std..io..error..Error$GT$$GT$17h787b96879b3b5772E },
    Symbol { offset: 5573e5abc170, size: 2f, name: _ZN4core3ptr81drop_in_place$LT$std..io..buffered..bufreader..BufReader$LT$std..fs..File$GT$$GT$17h4d262595971ab202E },
    Symbol { offset: 5573e5abc1a0, size: 1d, name: _ZN4core3ptr86drop_in_place$LT$core..result..Result$LT$std..fs..File$C$std..io..error..Error$GT$$GT$17h63cf366ababc0f63E },
    Symbol { offset: 5573e5abc1c0, size: 54, name: _ZN4core3ptr90drop_in_place$LT$std..io..buffered..bufwriter..BufWriter$LT$W$GT$..flush_buf..BufGuard$GT$17h5252b5aff0765fc8E },
    Symbol { offset: 5573e5abc220, size: 31, name: _ZN4core3ptr91drop_in_place$LT$core..result..Result$LT$alloc..string..String$C$std..env..VarError$GT$$GT$17ha8909b56176e297bE },
    Symbol { offset: 5573e5abc260, size: 23, name: _ZN4core3ptr91drop_in_place$LT$std..sync..poison..rwlock..RwLockReadGuard$LT$std..panicking..Hook$GT$$GT$17hdfe2d6654ea19b97E },
    Symbol { offset: 5573e5abc390, size: fa, name: _ZN4core3ptr95drop_in_place$LT$std..io..buffered..linewriter..LineWriter$LT$std..io..stdio..StdoutRaw$GT$$GT$17h17bde788e166d203E },
    Symbol { offset: 5573e5ada1c0, size: 24d, name: _ZN3std2io8buffered9bufwriter18BufWriter$LT$W$GT$9flush_buf17h07e497946e4518b3E },
    Symbol { offset: 5573e5abc490, size: 94, name: _ZN4core3str11validations15next_code_point17hb53fa198177ab0ceE },
    Symbol { offset: 5573e5abc530, size: 74, name: _ZN4core3str21_$LT$impl$u20$str$GT$10split_once17hd2688da551ca01b2E },
    Symbol { offset: 5573e5ace290, size: 1d8, name: _ZN81_$LT$core..str..pattern..CharSearcher$u20$as$u20$core..str..pattern..Searcher$GT$10next_match17h06e5f2dd80a2a38eE },
    Symbol { offset: 5573e5abc5b0, size: 2ac, name: _ZN4core3str21_$LT$impl$u20$str$GT$12trim_matches17h454bcd5ef61e1d0bE },
    Symbol { offset: 5573e5abc860, size: 180, name: _ZN4core3str21_$LT$impl$u20$str$GT$18trim_start_matches17hca7c0ed12ad47fe2E },
    Symbol { offset: 5573e5abc9e0, size: 8e, name: _ZN4core3str4iter22SplitInternal$LT$P$GT$9next_back17hb964a0c9c33c22bcE },
    Symbol { offset: 5573e5ace500, size: 1b3, name: _ZN88_$LT$core..str..pattern..CharSearcher$u20$as$u20$core..str..pattern..ReverseSearcher$GT$15next_match_back17h5fb142c5c9fc4999E },
    Symbol { offset: 5573e5abca70, size: f2, name: _ZN4core3str7pattern13simd_contains28_$u7b$$u7b$closure$u7d$$u7d$17h32e9e9ce2e9fe7d4E },
    Symbol { offset: 5573e5abcb70, size: 8, name: _ZN4core5error5Error5cause17hdcd37cd101a897c5E },
    Symbol { offset: 5573e5abcb80, size: 6, name: _ZN4core5error5Error7provide17h0d317387783de3a1E },
    Symbol { offset: 5573e5abcb90, size: 1a, name: _ZN4core5error5Error7type_id17h61c1a9fc7b1d62efE },
    Symbol { offset: 5573e5abcbb0, size: 8, name: _ZN4core5panic12PanicPayload6as_str17h022fd5cd9b76175bE },
    Symbol { offset: 5573e5abcbc0, size: b2, name: _ZN4core5slice4sort6shared5pivot11median3_rec17h0a031035748e820fE },
    Symbol { offset: 5573e5abcc80, size: b3, name: _ZN4core5slice4sort6shared5pivot11median3_rec17h0b5dbecd13306e27E },
    Symbol { offset: 5573e5abcd40, size: b2, name: _ZN4core5slice4sort6shared5pivot11median3_rec17h14e753ed116e0f42E },
    Symbol { offset: 5573e5abce00, size: 103, name: _ZN4core5slice4sort6shared5pivot11median3_rec17h1e431042df8bbdddE },
    Symbol { offset: 5573e5abcf10, size: ac, name: _ZN4core5slice4sort6shared5pivot11median3_rec17h54040defd20b2f59E },
    Symbol { offset: 5573e5abcfc0, size: b3, name: _ZN4core5slice4sort6shared5pivot11median3_rec17hc39dc6de912c62a3E },
    Symbol { offset: 5573e5abd080, size: 16a, name: _ZN4core5slice4sort6shared9smallsort12sort4_stable17h13ac6e8efccc3409E },
    Symbol { offset: 5573e5abd1f0, size: 376, name: _ZN4core5slice4sort6shared9smallsort12sort8_stable17h8f4edf004f4742caE },
    Symbol { offset: 5573e5abd570, size: 56a, name: _ZN4core5slice4sort6shared9smallsort18small_sort_general17he1ae1d73cbfcc484E },
    Symbol { offset: 5573e5abdae0, size: 92, name: _ZN4core5slice4sort6shared9smallsort25insertion_sort_shift_left17h0d4d0059a94f0a74E },
    Symbol { offset: 5573e5abdb80, size: c0, name: _ZN4core5slice4sort6shared9smallsort25insertion_sort_shift_left17h9c2aada1eb0420d8E },
    Symbol { offset: 5573e5abfe40, size: 6e2, name: _ZN4core5slice4sort6stable5drift4sort17he3b1106fbcef37eeE },
    Symbol { offset: 5573e5abf070, size: 6d7, name: _ZN4core5slice4sort6stable5drift4sort17hacaaa154793fc177E },
    Symbol { offset: 5573e5abf750, size: 6e3, name: _ZN4core5slice4sort6stable5drift4sort17hc49b739548e049c6E },
    Symbol { offset: 5573e5abe9d0, size: 69d, name: _ZN4core5slice4sort6stable5drift4sort17h07eb7ecae275b654E },
    Symbol { offset: 5573e5abe330, size: 69d, name: _ZN4core5slice4sort6stable5drift4sort17h0237f9e067c2e865E },
    Symbol { offset: 5573e5ac3a50, size: 462, name: _ZN4core5slice4sort8unstable9quicksort9quicksort17h36baedeb96d67e60E },
    Symbol { offset: 5573e5ac3f20, size: e, name: _ZN50_$LT$$BP$mut$u20$T$u20$as$u20$core..fmt..Debug$GT$3fmt17h09fb88b57dfbfcbfE },
    Symbol { offset: 5573e5ac3f30, size: 15, name: _ZN52_$LT$$RF$mut$u20$T$u20$as$u20$core..fmt..Display$GT$3fmt17h6d630c80594d5964E },
    Symbol { offset: 5573e5ac3f50, size: 84b, name: _ZN55_$LT$$RF$str$u20$as$u20$core..str..pattern..Pattern$GT$15is_contained_in17hd2c8571dab7a675eE },
    Symbol { offset: 5573e5ac47a0, size: 19, name: _ZN58_$LT$alloc..string..String$u20$as$u20$core..fmt..Debug$GT$3fmt17h3dbd93d1431a8f2aE },
    Symbol { offset: 5573e5ac47c0, size: 127, name: _ZN58_$LT$alloc..string..String$u20$as$u20$core..fmt..Write$GT$10write_char17h13db4e3872bba170E },
    Symbol { offset: 5573e5ac48f0, size: 67, name: _ZN58_$LT$alloc..string..String$u20$as$u20$core..fmt..Write$GT$9write_str17h3471f8bf4fd2c6acE },
    Symbol { offset: 5573e5ac5480, size: 46, name: _ZN5alloc5alloc15exchange_malloc17h25a694104f40c5fcE },
    Symbol { offset: 5573e5ac54d0, size: 76, name: _ZN5alloc7raw_vec11finish_grow17hc04868b4c8acc361E },
    Symbol { offset: 5573e5ac5e70, size: 2e9, name: _ZN5gimli4read4line13parse_file_v517hd9693875c19b93dfE },
    Symbol { offset: 5573e5ac6540, size: a33, name: _ZN5gimli4read4line15parse_attribute17h9c259d0c0587e1e5E },
    Symbol { offset: 5573e5ac6160, size: 3d2, name: _ZN5gimli4read4line15FileEntryFormat5parse17heb6bd1977e147822E },
    Symbol { offset: 5573e5ac6f80, size: e1, name: _ZN5gimli4read4line18parse_directory_v517h179895d58dd0b393E },
    Symbol { offset: 5573e5ac7070, size: 256, name: _ZN5gimli4read4line27FileEntry$LT$R$C$Offset$GT$5parse17h09f6e0b141a8200fE },
    Symbol { offset: 5573e5ac72d0, size: 1454, name: _ZN5gimli4read4unit15parse_attribute17he5bfac4d5517299cE },
    Symbol { offset: 5573e5accf40, size: 108, name: _ZN5gimli4read6reader6Reader17read_sized_offset17h6ba5b053b73dc522E },
    Symbol { offset: 5573e5accde0, size: ae, name: _ZN5gimli4read6reader6Reader11read_offset17h3fa77fee082dfb30E },
    Symbol { offset: 5573e5ac8730, size: 5bc, name: _ZN5gimli4read4unit15skip_attributes17h51eeebf69c9cdcfcE },
    Symbol { offset: 5573e5ac8cf0, size: 562, name: _ZN5gimli4read4unit18Attribute$LT$R$GT$5value17hcaef8ebeca546cf6E },
    Symbol { offset: 5573e5ac9590, size: 60, name: _ZN5gimli4read4unit32AttributeValue$LT$R$C$Offset$GT$11udata_value17hbcd8fa614dfdb5d0E },
    Symbol { offset: 5573e5ace6c0, size: 55, name: _ZN90_$LT$gimli..read..unit..AttributeValue$LT$R$C$Offset$GT$$u20$as$u20$core..clone..Clone$GT$5clone17h7ff71f5dfd45c4a4E },
    Symbol { offset: 5573e5ac9260, size: 32d, name: _ZN5gimli4read4unit22EntriesCursor$LT$R$GT$10next_entry17hcde5e11afad59493E },
    Symbol { offset: 5573e5ac95f0, size: 63a, name: _ZN5gimli4read4unit33DebugInfoUnitHeadersIter$LT$R$GT$4next17h877279f51e95c82aE },
    Symbol { offset: 5573e5ac9c30, size: 25d1, name: _ZN5gimli4read5dwarf13Unit$LT$R$GT$3new17ha47ce75270b274b2E },
    Symbol { offset: 5573e5acc210, size: 1e3, name: _ZN5gimli4read5dwarf14Dwarf$LT$R$GT$11attr_string17hc4312b0e9613f08aE },
    Symbol { offset: 5573e5acce90, size: af, name: _ZN5gimli4read6reader6Reader12read_uleb12817hfd11e62fde83b2abE },
    Symbol { offset: 5573e5acc400, size: 9de, name: _ZN5gimli4read5index18UnitIndex$LT$R$GT$5parse17h6fe305840898bc8aE },
    Symbol { offset: 5573e5acd050, size: 29e, name: _ZN5gimli4read7aranges30ArangeHeader$LT$R$C$Offset$GT$5parse17had6855f630d21a04E },
    Symbol { offset: 5573e5acd2f0, size: f2e, name: _ZN5gimli4read8rnglists20RngListIter$LT$R$GT$4next17h61cbd166145637efE },
    Symbol { offset: 5573e5ace220, size: 19, name: _ZN60_$LT$alloc..string..String$u20$as$u20$core..fmt..Display$GT$3fmt17h253a895d4ea9e2d1E },
    Symbol { offset: 5573e5ace240, size: 44, name: _ZN64_$LT$alloc..ffi..c_str..NulError$u20$as$u20$core..fmt..Debug$GT$3fmt17h53a5fa9634df040aE },
    Symbol { offset: 5573e59fde38, size: 8, name: .Lanon.9ba542688b8e296d0080271b2a3eb5fb.138 },
    Symbol { offset: 5573e5ace470, size: 82, name: _ZN87_$LT$T$u20$as$u20$alloc..slice..$LT$impl$u20$$u5b$T$u5d$$GT$..to_vec_in..ConvertVec$GT$6to_vec17h2aea88894ab77008E },
    Symbol { offset: 5573e5ace720, size: 153, name: _ZN9addr2line16Context$LT$R$GT$9find_unit17h8fcd20a750ed9c6cE },
    Symbol { offset: 5573e5ace880, size: 486, name: _ZN9addr2line4line11render_file17h0515ced6e2827fa7E },
    Symbol { offset: 5573e5aced10, size: 2666, name: _ZN9addr2line4line9LazyLines6borrow17h1674bf678613ccf7E },
    Symbol { offset: 5573e5ad1380, size: 518, name: _ZN9addr2line4unit16ResUnit$LT$R$GT$25find_function_or_location17hf548ee1882c225abE },
    Symbol { offset: 5573e5ad18a0, size: 19ce, name: _ZN9addr2line4unit16ResUnit$LT$R$GT$25find_function_or_location28_$u7b$$u7b$closure$u7d$$u7d$17hee8b33cd5b612d24E },
    Symbol { offset: 5573e5ad4dd0, size: 19d, name: _ZN9addr2line8function9name_attr17h4c46df5bf8df77afE },
    Symbol { offset: 5573e5ad3c00, size: 11c5, name: _ZN9addr2line8function17Function$LT$R$GT$14parse_children17h9a7d91a5ff6ccb2dE },
    Symbol { offset: 5573e5ad3270, size: 57d, name: _ZN9addr2line6lookup30LoopingLookup$LT$T$C$L$C$F$GT$10new_lookup17h7e2d413194fb62cbE },
    Symbol { offset: 5573e5ad37f0, size: 404, name: _ZN9addr2line8function10name_entry17hf29f3f0b10711643E },
    Symbol { offset: 5573e5ad4f70, size: 46, name: _ZN3std2rt15handle_rt_panic17h9105c578c50848ffE },
    Symbol { offset: 5573e5adcb60, size: 12d, name: _ZN3std2io5Write9write_fmt17h561a66a0340b6995E },
    Symbol { offset: 5573e5ad4fc0, size: 47, name: _ZN3std2rt7cleanup17h8cc1f4f2ce2c81c1E },
    Symbol { offset: 5573e5b15750, size: 4, name: _ZN3std2rt7cleanup7CLEANUP17h1796c4ada6a6c57fE },
    Symbol { offset: 5573e59fdec9, size: a, name: .Lanon.9ba542688b8e296d0080271b2a3eb5fb.829 },
    Symbol { offset: 5573e5b15859, size: 1, name: _ZN3std3sys3pal4unix24ON_BROKEN_PIPE_FLAG_USED17h372269a3a9a30552E.0 },
    Symbol { offset: 5573e59ab0a0, size: 8, name: _ZN3std3sys3pal4unix14stack_overflow3imp5GUARD29_$u7b$$u7b$constant$u7d$$u7d$28_$u7b$$u7b$closure$u7d$$u7d$3VAL17h3a2adbfd45e56303E.0 },
    Symbol { offset: 5573e59ab0a8, size: 8, name: _ZN3std3sys3pal4unix14stack_overflow3imp5GUARD29_$u7b$$u7b$constant$u7d$$u7d$28_$u7b$$u7b$closure$u7d$$u7d$3VAL17h3a2adbfd45e56303E.1 },
    Symbol { offset: 5573e5b15858, size: 1, name: _ZN3std3sys3pal4unix14stack_overflow3imp13NEED_ALTSTACK17h259dbc33c1d355c2E.0 },
    Symbol { offset: 5573e5ae28e0, size: 384, name: _ZN3std3sys3pal4unix14stack_overflow3imp12make_handler17h200b70bc6b88337dE },
    Symbol { offset: 5573e5b15850, size: 8, name: _ZN3std3sys3pal4unix14stack_overflow3imp13MAIN_ALTSTACK17hc820af32abd66ac6E.0 },
    Symbol { offset: 5573e5ae26e0, size: f0, name: _ZN3std3sys3pal4unix14stack_overflow3imp14signal_handler17h5c559957849c4cb9E },
    Symbol { offset: 5573e5b15860, size: 8, name: _ZN3std3sys4args4unix3imp4ARGC17habae266d7bf1b235E.0 },
    Symbol { offset: 5573e5b15868, size: 8, name: _ZN3std3sys4args4unix3imp4ARGV17h4897dbe49d7f8837E.0 },
    Symbol { offset: 5573e5b15838, size: 8, name: _ZN3std6thread8ThreadId3new7COUNTER17hf69a6e6e03c62ba3E },
    Symbol { offset: 5573e5b15840, size: 8, name: _ZN3std6thread11main_thread4MAIN17hcc37fb92de3ea64dE.0 },
    Symbol { offset: 5573e5b15880, size: 8, name: _ZN3std3sys10exit_guard18unique_thread_exit17EXITING_THREAD_ID17hee5cda89f643fe71E },
    Symbol { offset: 5573e5ad6500, size: 3b, name: _ZN3std6thread8ThreadId3new9exhausted17he28d5ef02be2772eE },
    Symbol { offset: 5573e59fdcd0, size: 4, name: .Lanon.9ba542688b8e296d0080271b2a3eb5fb.780 },
    Symbol { offset: 5573e59ab090, size: 8, name: _ZN3std9panicking11panic_count17LOCAL_PANIC_COUNT29_$u7b$$u7b$constant$u7d$$u7d$28_$u7b$$u7b$closure$u7d$$u7d$3VAL17hfd921ba03a31328fE.0 },
    Symbol { offset: 5573e59ab098, size: 1, name: _ZN3std9panicking11panic_count17LOCAL_PANIC_COUNT29_$u7b$$u7b$constant$u7d$$u7d$28_$u7b$$u7b$closure$u7d$$u7d$3VAL17hfd921ba03a31328fE.1 },
    Symbol { offset: 5573e5ad5760, size: 43, name: _ZN3std6thread6scoped9ScopeData8overflow17h7d9921572e56bdc5E },
    Symbol { offset: 5573e5ae6050, size: 105, name: _ZN3std3sys12thread_local5guard3key6enable17hcc9b114abc9c8dc9E },
    Symbol { offset: 5573e5ad58b0, size: 8b, name: _ZN3std6thread7current16try_with_current17h9d8b1ee5b7e14201E },
    Symbol { offset: 5573e5ae27d0, size: 110, name: _ZN3std3sys3pal4unix14stack_overflow3imp14signal_handler28_$u7b$$u7b$closure$u7d$$u7d$17hd955422799cec8b2E },
    Symbol { offset: 5573e59fdd1c, size: 4, name: .Lanon.9ba542688b8e296d0080271b2a3eb5fb.235 },
    Symbol { offset: 5573e5ad5980, size: 16f, name: _ZN3std6thread7current12init_current17h5b86e59cf23c363bE },
    Symbol { offset: 5573e5ae5ec0, size: 5d, name: _ZN3std3sys12thread_local6native5eager7destroy17h4a568e4193c7bee5E },
    Symbol { offset: 5573e59fdc88, size: 4, name: .Lanon.9ba542688b8e296d0080271b2a3eb5fb.796 },
    Symbol { offset: 5573e5ae3fa0, size: c9, name: _ZN3std3sys3pal4unix4time8Timespec3now17he0e91844bf6f21a2E },
    Symbol { offset: 5573e5ae4070, size: cb, name: _ZN3std3sys3pal4unix4time8Timespec12sub_timespec17h7b0e3b91866b52c1E },
    Symbol { offset: 5573e59fdec4, size: 5, name: .Lanon.9ba542688b8e296d0080271b2a3eb5fb.236 },
    Symbol { offset: 5573e59fdcb8, size: 4, name: .Lanon.9ba542688b8e296d0080271b2a3eb5fb.241 },
    Symbol { offset: 5573e5ad9770, size: 182, name: _ZN3std2fs24buffer_capacity_required17hab2fdb567adeceadE },
    Symbol { offset: 5573e5adc0e0, size: 30d, name: _ZN3std2io19default_read_to_end17h7ca4c35d13705ffeE },
    Symbol { offset: 5573e59fd890, size: 10, name: .Lanon.9ba542688b8e296d0080271b2a3eb5fb.812 },
    Symbol { offset: 5573e5ae3090, size: 3c7, name: _ZN3std3sys3pal4unix6thread7cgroups8quota_v128_$u7b$$u7b$closure$u7d$$u7d$17hc5284007578bb891E },
    Symbol { offset: 5573e5b15760, size: 1, name: _ZN3std9backtrace9Backtrace7enabled7ENABLED17hba74e8f9a2bd9c2dE.0 },
    Symbol { offset: 5573e5ad8650, size: 193, name: _ZN3std9backtrace9Backtrace6create17h51905b6f377b383bE },
    Symbol { offset: 5573e5b157fc, size: 8, name: _ZN3std3sys9backtrace4lock4LOCK17h645255f7380ded9eE },
    Symbol { offset: 5573e5ae6300, size: 46, name: _ZN3std12backtrace_rs9backtrace9libunwind5trace8trace_fn17h4af376efa74da882E },
    Symbol { offset: 5573e5ae1d20, size: 3b1, name: _ZN3std12backtrace_rs5print17BacktraceFrameFmt21print_raw_with_column17hf1978358a9a5b310E },
    Symbol { offset: 5573e5b15870, size: c, name: _ZN3std3sys3env4unix8ENV_LOCK17hf667a0a74da4ab11E },
    Symbol { offset: 5573e5ae4890, size: 15b, name: _ZN3std3sys3env4unix6getenv28_$u7b$$u7b$closure$u7d$$u7d$17h4356c1fea84fde45E },
    Symbol { offset: 5573e5adfca0, size: b8, name: _ZN3std3sys3pal6common14small_c_string24run_with_cstr_allocating17hef3ae4ea53f5e55dE },
    Symbol { offset: 5573e5ae4140, size: b7, name: _ZN3std3sys3pal4unix17decode_error_kind17hfd0fddd80bf85f26E },
    Symbol { offset: 5573e59fdeea, size: 1, name: .Lanon.9ba542688b8e296d0080271b2a3eb5fb.29 },
    Symbol { offset: 5573e5adfa90, size: 93, name: _ZN3std3sys3pal6common14small_c_string24run_with_cstr_allocating17h1c8f6ef1329eea31E },
    Symbol { offset: 5573e5ad9d50, size: 46a, name: _ZN3std2fs10DirBuilder14create_dir_all17h6c5eb20f04d60251E },
    Symbol { offset: 5573e5ae4b80, size: 30, name: _ZN3std3sys2fs4unix10DirBuilder5mkdir28_$u7b$$u7b$closure$u7d$$u7d$17had3f32e51e832156E },
    Symbol { offset: 5573e5adfb30, size: aa, name: _ZN3std3sys3pal6common14small_c_string24run_with_cstr_allocating17h93a82700ef7b0403E },
    Symbol { offset: 5573e5addbd0, size: 25e, name: _ZN62_$LT$std..path..Components$u20$as$u20$core..cmp..PartialEq$GT$2eq17h3664336cb1d276bcE },
    Symbol { offset: 5573e59fd3e0, size: 10, name: .Lanon.9ba542688b8e296d0080271b2a3eb5fb.325 },
    Symbol { offset: 5573e59fdce4, size: 4, name: .Lanon.9ba542688b8e296d0080271b2a3eb5fb.387 },
    Symbol { offset: 5573e59fdcc4, size: 4, name: .Lanon.9ba542688b8e296d0080271b2a3eb5fb.385 },
    Symbol { offset: 5573e59fdd2c, size: 4, name: .Lanon.9ba542688b8e296d0080271b2a3eb5fb.390 },
    Symbol { offset: 5573e5adad00, size: 6b, name: _ZN3std2io5impls74_$LT$impl$u20$std..io..Write$u20$for$u20$alloc..vec..Vec$LT$u8$C$A$GT$$GT$5write17h70ef2d190f9bdea9E },
    Symbol { offset: 5573e5adad70, size: 15a, name: _ZN3std2io5impls74_$LT$impl$u20$std..io..Write$u20$for$u20$alloc..vec..Vec$LT$u8$C$A$GT$$GT$14write_vectored17hb06c1e25beee6017E },
    Symbol { offset: 5573e5adaed0, size: 8, name: _ZN3std2io5impls74_$LT$impl$u20$std..io..Write$u20$for$u20$alloc..vec..Vec$LT$u8$C$A$GT$$GT$17is_write_vectored17hb400afa19aab5e35E },
    Symbol { offset: 5573e5adaee0, size: 67, name: _ZN3std2io5impls74_$LT$impl$u20$std..io..Write$u20$for$u20$alloc..vec..Vec$LT$u8$C$A$GT$$GT$9write_all17h5c84bca3bcf628acE },
    Symbol { offset: 5573e5adaf50, size: 13c, name: _ZN3std2io5impls74_$LT$impl$u20$std..io..Write$u20$for$u20$alloc..vec..Vec$LT$u8$C$A$GT$$GT$18write_all_vectored17h4a122b3f8b8bda63E },
    Symbol { offset: 5573e5adb090, size: 8, name: _ZN3std2io5impls74_$LT$impl$u20$std..io..Write$u20$for$u20$alloc..vec..Vec$LT$u8$C$A$GT$$GT$5flush17h65b568d92fa007f7E },
    Symbol { offset: 5573e5adc860, size: 1cb, name: _ZN3std2io5Write18write_all_vectored17h3c4f43077b8d4a23E },
    Symbol { offset: 5573e5b15768, size: 38, name: _ZN3std2io5stdio5stdin8INSTANCE17h36e3d1f12e603492E },
    Symbol { offset: 5573e5adf876, size: 55, name: _ZN3std4sync9once_lock17OnceLock$LT$T$GT$10initialize17h8b512493707c3c4aE },
    Symbol { offset: 5573e5b157a0, size: 40, name: _ZN3std2io5stdio6STDOUT17h167959fd73a1a394E },
    Symbol { offset: 5573e5adf821, size: 55, name: _ZN3std4sync9once_lock17OnceLock$LT$T$GT$10initialize17h2392bf50f07ef956E },
    Symbol { offset: 5573e5b15761, size: 1, name: _ZN3std2io5stdio19OUTPUT_CAPTURE_USED17h246f146d28ee32b6E.0 },
    Symbol { offset: 5573e59ab0c0, size: 10, name: _ZN3std2io5stdio14OUTPUT_CAPTURE29_$u7b$$u7b$constant$u7d$$u7d$28_$u7b$$u7b$closure$u7d$$u7d$3VAL17h1a3a73a5543fe63eE },
    Symbol { offset: 5573e5ae5f20, size: 1f, name: _ZN3std3sys12thread_local6native5eager7destroy17ha1cdc068323d37e4E },
    Symbol { offset: 5573e5adbcc0, size: 250, name: _ZN3std2io5stdio31print_to_buffer_if_capture_used17h0fc85bc4808f7347E },
    Symbol { offset: 5573e5adcc90, size: 12d, name: _ZN3std2io5Write9write_fmt17hfb552b13b10253dcE },
    Symbol { offset: 5573e5adc3f0, size: f5, name: _ZN3std2io19default_read_to_end16small_probe_read17h88093c2a54b1148bE },
    Symbol { offset: 5573e5adc4f0, size: 98, name: _ZN81_$LT$std..io..default_write_fmt..Adapter$LT$T$GT$$u20$as$u20$core..fmt..Write$GT$9write_str17h163c7118a25ac3b8E },
    Symbol { offset: 5573e5adc590, size: f2, name: _ZN81_$LT$std..io..default_write_fmt..Adapter$LT$T$GT$$u20$as$u20$core..fmt..Write$GT$9write_str17h5b52f91221b750f5E },
    Symbol { offset: 5573e5adc690, size: 50, name: _ZN81_$LT$std..io..default_write_fmt..Adapter$LT$T$GT$$u20$as$u20$core..fmt..Write$GT$9write_str17h9d99316a2a396702E },
    Symbol { offset: 5573e5adc6e0, size: 67, name: _ZN81_$LT$std..io..default_write_fmt..Adapter$LT$T$GT$$u20$as$u20$core..fmt..Write$GT$9write_str17he49d96955a49e170E },
    Symbol { offset: 5573e5adc750, size: 50, name: _ZN81_$LT$std..io..default_write_fmt..Adapter$LT$T$GT$$u20$as$u20$core..fmt..Write$GT$9write_str17he5cb547b4dab3268E },
    Symbol { offset: 5573e5adc7a0, size: b9, name: _ZN3std2io5Write9write_all17hfdbe1690329cbb85E },
    Symbol { offset: 5573e5adca30, size: 12d, name: _ZN3std2io5Write9write_fmt17h2089d1c6c542767eE },
    Symbol { offset: 5573e5b157f8, size: 1, name: _ZN3std5panic14SHOULD_CAPTURE17h0880af9339129151E },
    Symbol { offset: 5573e5adce90, size: 14d, name: _ZN3std4path10Components15len_before_body17hafc171aa8eb80194E },
    Symbol { offset: 5573e5add370, size: ea, name: _ZN3std4path10Components25parse_next_component_back17hf70057fb296c601aE },
    Symbol { offset: 5573e5ae2540, size: be, name: _ZN61_$LT$std..path..Component$u20$as$u20$core..cmp..PartialEq$GT$2eq17hc57a21ac99340e46E },
    Symbol { offset: 5573e5ae26c0, size: 15, name: _ZN3std3sys3pal4unix2os4exit17h1bc7fb1aa8c0612bE },
    Symbol { offset: 5573e5ae5290, size: 55e, name: _ZN3std3sys6random5linux9getrandom17hd9898d5b4ec595f1E },
    Symbol { offset: 5573e5adf74d, size: 59, name: _ZN3std4sync9once_lock17OnceLock$LT$T$GT$10initialize17h06976520ae46f9b7E },
    Symbol { offset: 5573e5ae9838, size: 3f01, name: _ZN3std12backtrace_rs9symbolize5gimli5Cache11with_global17hf3fcb02b685aeefaE },
    Symbol { offset: 5573e5adf200, size: 87, name: _ZN3std4sync6poison4once4Once15call_once_force28_$u7b$$u7b$closure$u7d$$u7d$17h60558ec46706fbe7E },
    Symbol { offset: 5573e5adf290, size: ab, name: _ZN3std4sync6poison4once4Once15call_once_force28_$u7b$$u7b$closure$u7d$$u7d$17h91b65117b940796cE },
    Symbol { offset: 5573e5adf340, size: 88, name: _ZN3std4sync6poison4once4Once15call_once_force28_$u7b$$u7b$closure$u7d$$u7d$17h981ea6cb6d7ba1f2E },
    Symbol { offset: 5573e5adf3d0, size: 49, name: _ZN3std4sync6poison4once4Once15call_once_force28_$u7b$$u7b$closure$u7d$$u7d$17ha8fd905eb0b2f405E },
    Symbol { offset: 5573e5adf420, size: 32, name: _ZN76_$LT$std..sync..poison..PoisonError$LT$T$GT$$u20$as$u20$core..fmt..Debug$GT$3fmt17hcf310265a1cb644eE },
    Symbol { offset: 5573e5adf7a6, size: 7b, name: _ZN3std4sync9once_lock17OnceLock$LT$T$GT$10initialize17h0b158d8d767417c5E },
    Symbol { offset: 5573e5b1588c, size: 8, name: _ZN3std3sys6random5linux9getrandom6DEVICE17h917d8b762b662e46E },
    Symbol { offset: 5573e5adf9c0, size: c3, name: _ZN3std3sys3pal6common14small_c_string24run_with_cstr_allocating17h19a0b2523abb9979E },
    Symbol { offset: 5573e5ae4a40, size: 13e, name: _ZN3std3sys2fs4unix4File6open_c17ha15054cdd5a2ceffE },
    Symbol { offset: 5573e5adfbe0, size: bd, name: _ZN3std3sys3pal6common14small_c_string24run_with_cstr_allocating17hd8920f75963f46d4E },
    Symbol { offset: 5573e5adfdd0, size: 58, name: _ZN3std3sys9backtrace13BacktraceLock5print17hafb9d5969adc39a0E },
    Symbol { offset: 5573e5ae00b0, size: 1f, name: _ZN3std3sys9backtrace10_print_fmt28_$u7b$$u7b$closure$u7d$$u7d$17h54fd42bf9c73c249E },
    Symbol { offset: 5573e5ae1720, size: d2, name: _ZN3std9panicking19begin_panic_handler28_$u7b$$u7b$closure$u7d$$u7d$17h159b61b27f96a9c2E },
    Symbol { offset: 5573e59fdd20, size: 4, name: .Lanon.9ba542688b8e296d0080271b2a3eb5fb.586 },
    Symbol { offset: 5573e5ae0870, size: 46, name: _ZN103_$LT$std..sys..thread_local..abort_on_dtor_unwind..DtorUnwindGuard$u20$as$u20$core..ops..drop..Drop$GT$4drop17h06725b4f736eef5eE },
    Symbol { offset: 5573e59fd440, size: 10, name: .Lanon.9ba542688b8e296d0080271b2a3eb5fb.40 },
    Symbol { offset: 5573e5b15808, size: 8, name: _ZN3std5alloc4HOOK17h6419bb8a35243978E },
    Symbol { offset: 5573e5ae08c0, size: 158, name: _ZN3std5alloc24default_alloc_error_hook17h9d915082fe2a7333E },
    Symbol { offset: 5573e5ae0f09, size: 18e, name: _ZN3std9panicking12default_hook28_$u7b$$u7b$closure$u7d$$u7d$17hae2e97a5c4b2b777E },
    Symbol { offset: 5573e5ae10a0, size: 2e0, name: _ZN3std9panicking12default_hook28_$u7b$$u7b$closure$u7d$$u7d$28_$u7b$$u7b$closure$u7d$$u7d$17h1d937a3e1c6b042dE },
    Symbol { offset: 5573e5b149d8, size: 1, name: _ZN3std9panicking12default_hook28_$u7b$$u7b$closure$u7d$$u7d$11FIRST_PANIC17h344470d8555919a7E },
    Symbol { offset: 5573e5ae16e0, size: 10, name: _ZN99_$LT$std..panicking..begin_panic_handler..StaticStrPayload$u20$as$u20$core..panic..PanicPayload$GT$3get17hbeb2faf219e70c8bE },
    Symbol { offset: 5573e5ae16f0, size: d, name: _ZN99_$LT$std..panicking..begin_panic_handler..StaticStrPayload$u20$as$u20$core..panic..PanicPayload$GT$6as_str17h7533090c44773266E },
    Symbol { offset: 5573e5ae20e0, size: 1cb, name: _ZN3std12backtrace_rs5print17BacktraceFrameFmt14print_fileline17hbaa978449716309cE },
    Symbol { offset: 5573e59fd710, size: 10, name: .Lanon.9ba542688b8e296d0080271b2a3eb5fb.679 },
    Symbol { offset: 5573e5ae2510, size: 2d, name: _ZN62_$LT$std..io..error..ErrorKind$u20$as$u20$core..fmt..Debug$GT$3fmt17hea670263d63b1087E },
    Symbol { offset: 5573e5ae2600, size: 35, name: _ZN64_$LT$std..path..StripPrefixError$u20$as$u20$core..fmt..Debug$GT$3fmt17haf31af66e1ec4e13E },
    Symbol { offset: 5573e59fd550, size: 10, name: .Lanon.9ba542688b8e296d0080271b2a3eb5fb.744 },
    Symbol { offset: 5573e5ae2640, size: 4c, name: _ZN3std3sys3pal4unix4weak18DlsymWeak$LT$F$GT$10initialize17h8d0c9e230dce0f35E },
    Symbol { offset: 5573e59fded3, size: 17, name: .Lanon.9ba542688b8e296d0080271b2a3eb5fb.1122 },
    Symbol { offset: 5573e5b15338, size: 8, name: _ZN3std3sys3pal4unix6thread14min_stack_size5DLSYM17hbe92ddcfd0026438E.2 },
    Symbol { offset: 5573e59fde50, size: 8, name: .Lanon.9ba542688b8e296d0080271b2a3eb5fb.751 },
    Symbol { offset: 5573e5ae49f0, size: 46, name: _ZN3std3sys10exit_guard18unique_thread_exit17h2f96313b56ec48dcE },
    Symbol { offset: 5573e5ae2f10, size: fc, name: _ZN3std3sys3pal4unix6thread6Thread3new12thread_start17h1822d22fde68314fE },
    Symbol { offset: 5573e59fdcd8, size: 4, name: .Lanon.9ba542688b8e296d0080271b2a3eb5fb.790 },
    Symbol { offset: 5573e5ae3460, size: b31, name: _ZN3std3sys3pal4unix6thread7cgroups15find_mountpoint17h679cc1c2c2fccd2cE },
    Symbol { offset: 5573e5ae4210, size: 11, name: _ZN3std3sys11personality3gcc14find_eh_action28_$u7b$$u7b$closure$u7d$$u7d$17hc83ce98a73021e5cE },
    Symbol { offset: 5573e5ae4230, size: 11, name: _ZN3std3sys11personality3gcc14find_eh_action28_$u7b$$u7b$closure$u7d$$u7d$17ha45f1a9a417df297E },
    Symbol { offset: 5573e5b15888, size: 1, name: _ZN3std3sys2fs4unix9try_statx17STATX_SAVED_STATE17hf4556d05799fddccE.0 },
    Symbol { offset: 5573e5b149d9, size: 1, name: _ZN3std3sys6random5linux9getrandom19GETRANDOM_AVAILABLE17h256594a69255353bE.0 },
    Symbol { offset: 5573e5b149da, size: 1, name: _ZN3std3sys6random5linux9getrandom23GRND_INSECURE_AVAILABLE17h9bb10a6c2c0c10dfE.0 },
    Symbol { offset: 5573e5b15889, size: 1, name: _ZN3std3sys6random5linux9getrandom13URANDOM_READY17h85220a0c53ec83a8E.0 },
    Symbol { offset: 5573e59fdef8, size: 2, name: .Lanon.9ba542688b8e296d0080271b2a3eb5fb.120 },
    Symbol { offset: 5573e5ae58c0, size: 8, name: _ZN64_$LT$std..sys..stdio..unix..Stderr$u20$as$u20$std..io..Write$GT$17is_write_vectored17hda05ef289e5d0a6dE },
    Symbol { offset: 5573e5ae58d0, size: 8, name: _ZN64_$LT$std..sys..stdio..unix..Stderr$u20$as$u20$std..io..Write$GT$5flush17hc989850da49e9225E },
    Symbol { offset: 5573e5b149e0, size: 8, name: _rust_extern_with_linkage___dso_handle },
    Symbol { offset: 5573e5b149e8, size: 10, name: _ZN3std3sys12thread_local5guard3key6enable5DTORS17he5abafc5d09f101fE },
    Symbol { offset: 5573e5ae6160, size: 147, name: _ZN3std3sys12thread_local5guard3key6enable3run17ha9a467cb310039daE },
    Symbol { offset: 5573e5ae6350, size: 106, name: _ZN3std12backtrace_rs9symbolize5gimli5stash5Stash8allocate17ha7b2db550c018d55E },
    Symbol { offset: 5573e5ae6456, size: 3135, name: _ZN3std12backtrace_rs9symbolize5gimli7Context3new17hdf1c7feb9ae6a9dfE },
    Symbol { offset: 5573e5aeefc0, size: 370, name: _ZN3std12backtrace_rs9symbolize5gimli3elf6Object7section17h96a14479efd8daa4E },
    Symbol { offset: 5573e59fd980, size: 10, name: .Lanon.9ba542688b8e296d0080271b2a3eb5fb.1091 },
    Symbol { offset: 5573e5ae9590, size: 2a8, name: _ZN3std12backtrace_rs9symbolize5gimli4mmap17h0eeeb05fffa95ac9E },
    Symbol { offset: 5573e5b149f8, size: 940, name: _ZN3std12backtrace_rs9symbolize5gimli5Cache11with_global14MAPPINGS_CACHE17h09222c36cc89d9fcE },
    Symbol { offset: 5573e5aefa30, size: 416, name: _ZN3std12backtrace_rs9symbolize5gimli20libs_dl_iterate_phdr8callback17hf68a8c298f706dedE },
    Symbol { offset: 5573e5aee8b0, size: 704, name: _ZN3std12backtrace_rs9symbolize5gimli3elf6Object5parse17hddac159ef186a75cE },
    Symbol { offset: 5573e5aef3f0, size: 183, name: _ZN3std12backtrace_rs9symbolize5gimli3elf6Object8build_id17hd513148975b8e7a0E },
    Symbol { offset: 5573e5aef690, size: 395, name: _ZN3std12backtrace_rs9symbolize5gimli3elf15locate_build_id17hc193ce1fd4165febE },
    Symbol { offset: 5573e5aed740, size: d19, name: _ZN3std12backtrace_rs9symbolize5gimli3elf62_$LT$impl$u20$std..backtrace_rs..symbolize..gimli..Mapping$GT$9new_debug17heb786e91ad96ad54E },
    Symbol { offset: 5573e5aee460, size: 450, name: _ZN3std12backtrace_rs9symbolize5gimli3elf62_$LT$impl$u20$std..backtrace_rs..symbolize..gimli..Mapping$GT$18load_dwarf_package17hd3055551e7c2140bE },
    Symbol { offset: 5573e5aef330, size: b4, name: _ZN3std12backtrace_rs9symbolize5gimli3elf6Object13search_symtab17h334972a17d86aa96E },
    Symbol { offset: 5573e5b15894, size: 1, name: _ZN3std12backtrace_rs9symbolize5gimli3elf17debug_path_exists17DEBUG_PATH_EXISTS17h9d507f3b2f357ecdE.0 },
    Symbol { offset: 5573e5aef580, size: 105, name: _ZN3std12backtrace_rs9symbolize5gimli3elf15decompress_zlib17h969432bb0c89a4b9E },
    Symbol { offset: 5573e5af0640, size: bf, name: _ZN114_$LT$std..backtrace_rs..symbolize..gimli..parse_running_mmaps..MapsEntry$u20$as$u20$core..str..traits..FromStr$GT$8from_str28_$u7b$$u7b$closure$u7d$$u7d$17h060fd3b382b4ffe8E },
    Symbol { offset: 5573e59fda40, size: 10, name: .Lanon.9ba542688b8e296d0080271b2a3eb5fb.687 },
    Symbol { offset: 5573e59fd3f0, size: 10, name: .Lanon.9ba542688b8e296d0080271b2a3eb5fb.695 },
    Symbol { offset: 5573e59fdd38, size: 8, name: .Lanon.9ba542688b8e296d0080271b2a3eb5fb.707 },
    Symbol { offset: 5573e59fde20, size: 8, name: .Lanon.9ba542688b8e296d0080271b2a3eb5fb.715 },
    Symbol { offset: 5573e5ada6b0, size: 2e7, name: _ZN3std2io5error83_$LT$impl$u20$core..fmt..Debug$u20$for$u20$std..io..error..repr_bitpacked..Repr$GT$3fmt17h4b4fb75f960fb51cE },
    Symbol { offset: 5573e5adbac0, size: 128, name: _ZN61_$LT$std..io..stdio..StderrLock$u20$as$u20$std..io..Write$GT$9write_all17h006efce2b24ab97cE },
    Symbol { offset: 5573e5adb500, size: 288, name: _ZN61_$LT$std..io..stdio..StdoutLock$u20$as$u20$std..io..Write$GT$9write_all17h124e724465a803c2E },
    Symbol { offset: 5573e5ae0d67, size: 1a2, name: _ZN3std9panicking12default_hook17h3db1b505cfc4eb79E },
    Symbol { offset: 5573e5ad9aa0, size: 1ef, name: _ZN3std2fs11OpenOptions5_open17hde61930d447f72d3E },
    Symbol { offset: 5573e5ac5280, size: a0, name: _ZN5alloc4sync16Arc$LT$T$C$A$GT$9drop_slow17h6a24e91b8a0dff21E },
    Symbol { offset: 5573e5ac5320, size: 67, name: _ZN5alloc4sync16Arc$LT$T$C$A$GT$9drop_slow17h8422373a999d8beeE },
    Symbol { offset: 5573e5b15830, size: 8, name: _ZN3std9panicking11panic_count18GLOBAL_PANIC_COUNT17he72f51399c537ba0E },
    Symbol { offset: 5573e5ae13d0, size: 1d, name: _ZN3std9panicking11panic_count17is_zero_slow_path17h93d4206a805079bdE },
    Symbol { offset: 5573e5ac5180, size: 4e, name: _ZN5alloc4sync16Arc$LT$T$C$A$GT$9drop_slow17h0a06fd4e05d85d5aE },
    Symbol { offset: 5573e5ac51d0, size: 56, name: _ZN5alloc4sync16Arc$LT$T$C$A$GT$9drop_slow17h36bf26753956958fE },
    Symbol { offset: 5573e5ad5af0, size: dd, name: _ZN76_$LT$std..thread..spawnhook..SpawnHooks$u20$as$u20$core..ops..drop..Drop$GT$4drop17hac680f435d010254E },
    Symbol { offset: 5573e5ac5390, size: ed, name: _ZN5alloc4sync16Arc$LT$T$C$A$GT$9drop_slow17hf30731108507f6f0E },
    Symbol { offset: 5573e5ae5de0, size: d7, name: _ZN3std3sys4sync6rwlock5futex6RwLock22wake_writer_or_readers17h9d1fd2e5395e69e1E },
    Symbol { offset: 5573e5abdc40, size: 160, name: _ZN4core5slice4sort6stable14driftsort_main17h4f31c087e98163bfE },
    Symbol { offset: 5573e5abdda0, size: 158, name: _ZN4core5slice4sort6stable14driftsort_main17h5ec73e94468e5cd8E },
    Symbol { offset: 5573e5abdf00, size: 158, name: _ZN4core5slice4sort6stable14driftsort_main17hd4a8d5e06126e738E },
    Symbol { offset: 5573e5abe060, size: 158, name: _ZN4core5slice4sort6stable14driftsort_main17hdaacefc17bdcf8f3E },
    Symbol { offset: 5573e5abe1c0, size: 169, name: _ZN4core5slice4sort6stable14driftsort_main17he67d38f1f0a3c5dfE },
    Symbol { offset: 5573e5ac1980, size: a2f, name: _ZN4core5slice4sort6stable9quicksort9quicksort17ha8d2daaff5d214efE },
    Symbol { offset: 5573e5ac0f20, size: a5f, name: _ZN4core5slice4sort6stable9quicksort9quicksort17h996b59459a13306aE },
    Symbol { offset: 5573e5ac2dc0, size: a9a, name: _ZN4core5slice4sort6stable9quicksort9quicksort17hf0322a71719ebf1fE },
    Symbol { offset: 5573e5ac23b0, size: a04, name: _ZN4core5slice4sort6stable9quicksort9quicksort17hba8f6c5d5dd98850E },
    Symbol { offset: 5573e5ac0530, size: 9ef, name: _ZN4core5slice4sort6stable9quicksort9quicksort17h8442949fb0bffa80E },
    Symbol { offset: 5573e5ac3860, size: db, name: _ZN4core5slice4sort8unstable7ipnsort17ha39d80c5ec2323caE },
    Symbol { offset: 5573e5ac3940, size: 106, name: _ZN4core5slice4sort8unstable8heapsort8heapsort17ha53c30c8e0ef115eE },
    Symbol { offset: 5573e5ac3eb2, size: 30, name: _ZN4core9panicking13assert_failed17h6b7fe04743dd603fE },
    Symbol { offset: 5573e5ac3ee2, size: 30, name: _ZN4core9panicking13assert_failed17hdba3a023e40856c3E },
    Symbol { offset: 5573e5ac5230, size: 4a, name: _ZN5alloc4sync16Arc$LT$T$C$A$GT$9drop_slow17h39d56c0d62006135E },
    Symbol { offset: 5573e5ac5550, size: b7, name: _ZN5alloc7raw_vec19RawVec$LT$T$C$A$GT$8grow_one17h0f74a1674a9e0523E },
    Symbol { offset: 5573e5ac5610, size: b3, name: _ZN5alloc7raw_vec19RawVec$LT$T$C$A$GT$8grow_one17h10a23fd0872560c3E },
    Symbol { offset: 5573e5ac56d0, size: b4, name: _ZN5alloc7raw_vec19RawVec$LT$T$C$A$GT$8grow_one17h10ebc9c95a102119E },
    Symbol { offset: 5573e5ac5790, size: b6, name: _ZN5alloc7raw_vec19RawVec$LT$T$C$A$GT$8grow_one17h16a00ca779bf486dE },
    Symbol { offset: 5573e5ac5850, size: b3, name: _ZN5alloc7raw_vec19RawVec$LT$T$C$A$GT$8grow_one17h189214c374267fb5E },
    Symbol { offset: 5573e5ac5910, size: b3, name: _ZN5alloc7raw_vec19RawVec$LT$T$C$A$GT$8grow_one17h1cee2166311e09e6E },
    Symbol { offset: 5573e5ac59d0, size: b7, name: _ZN5alloc7raw_vec19RawVec$LT$T$C$A$GT$8grow_one17h6882cd36302a57e9E },
    Symbol { offset: 5573e5ac5a90, size: b7, name: _ZN5alloc7raw_vec19RawVec$LT$T$C$A$GT$8grow_one17ha5e1662447508e21E },
    Symbol { offset: 5573e5ac5b50, size: b3, name: _ZN5alloc7raw_vec19RawVec$LT$T$C$A$GT$8grow_one17hb3ee9a95430c2072E },
    Symbol { offset: 5573e5ac5c10, size: b6, name: _ZN5alloc7raw_vec19RawVec$LT$T$C$A$GT$8grow_one17hb8e9c694a177c732E },
    Symbol { offset: 5573e5ac5cd0, size: b4, name: _ZN5alloc7raw_vec19RawVec$LT$T$C$A$GT$8grow_one17he2333703c711bc7aE },
    Symbol { offset: 5573e5ae4200, size: a, name: _ZN3std3sys3pal4unix14abort_internal17h6de20db1dabd0368E },
    Symbol { offset: 5573e5ae5a00, size: 223, name: _ZN3std3sys4sync4once5futex4Once4call17hc350b5daaffc59b3E },
    Symbol { offset: 5573e5ad5010, size: 727, name: _ZN3std2rt19lang_start_internal17ha8ef919ae4984948E },
    Symbol { offset: 5573e59ab088, size: 8, name: _ZN3std6thread7current2id2ID17h7db2101f282e5fa4E },
    Symbol { offset: 5573e5ad5740, size: 11, name: _ZN3std6thread6scoped9ScopeData29increment_num_running_threads17h6ff48f13848fa9f5E },
    Symbol { offset: 5573e5ad57b0, size: 41, name: _ZN3std6thread6scoped9ScopeData29decrement_num_running_threads17h14dd2471513a43fbE },
    Symbol { offset: 5573e5ad5800, size: a3, name: _ZN3std6thread7current11set_current17hb93be68ab12a58b0E },
    Symbol { offset: 5573e59ab0f8, size: 8, name: _ZN3std6thread7current7CURRENT17h4e783fac72fd69c2E },
    Symbol { offset: 5573e5ad6640, size: d0, name: _ZN3std6thread6Thread3new17h1e1b0882db767f60E },
    Symbol { offset: 5573e5ad5940, size: 35, name: _ZN3std6thread7current7current17h124f03a83cbbed7cE },
    Symbol { offset: 5573e5ad5bd0, size: 2fc, name: _ZN3std6thread9spawnhook15run_spawn_hooks17h8f0f9603a1f2a090E },
    Symbol { offset: 5573e59ab0e8, size: 10, name: _ZN3std6thread9spawnhook11SPAWN_HOOKS29_$u7b$$u7b$constant$u7d$$u7d$28_$u7b$$u7b$closure$u7d$$u7d$3VAL17h4207ed9bd428b113E },
    Symbol { offset: 5573e5ae5f40, size: 10d, name: _ZN3std3sys12thread_local11destructors10linux_like8register17hbfaaaa8174d4d0f0E },
    Symbol { offset: 5573e5ad5ed0, size: 27f, name: _ZN3std6thread9spawnhook15ChildSpawnHooks3run17h57b1ab0a34b062ffE },
    Symbol { offset: 5573e5ad6190, size: 53, name: _ZN3std6thread5local18panic_access_error17haac738843e300904E },
    Symbol { offset: 5573e5ad6150, size: 32, name: _ZN68_$LT$std..thread..local..AccessError$u20$as$u20$core..fmt..Debug$GT$3fmt17hbff762e14df5205cE },
    Symbol { offset: 5573e5ad61f0, size: 74, name: _ZN3std6thread7Builder4name17h33680cdf96ba26beE },
    Symbol { offset: 5573e5ad6270, size: b, name: _ZN3std6thread9yield_now17h5ec1329af0087febE },
    Symbol { offset: 5573e5ad6280, size: d1, name: _ZN3std6thread5sleep17ha6e93796dc1526dbE },
    Symbol { offset: 5573e5ad6360, size: 46, name: _ZN65_$LT$std..thread..PanicGuard$u20$as$u20$core..ops..drop..Drop$GT$4drop17h2968683eefbfbd70E },
    Symbol { offset: 5573e5ad63b0, size: 110, name: _ZN3std6thread4park17h608d5a0c4bd0e89fE },
    Symbol { offset: 5573e5ad64c0, size: 32, name: _ZN3std6thread8ThreadId3new17hdf5175a409569747E },
    Symbol { offset: 5573e5ad6540, size: f5, name: _ZN118_$LT$std..thread..thread_name_string..ThreadNameString$u20$as$u20$core..convert..From$LT$alloc..string..String$GT$$GT$4from17h1258ba312b61e5b5E },
    Symbol { offset: 5573e5ad6710, size: b5, name: _ZN3std6thread6Thread4park17h8be4bd6c4bef28ccE },
    Symbol { offset: 5573e5ad67d0, size: f4, name: _ZN3std6thread6Thread12park_timeout17hcfb596287cc5b9f4E },
    Symbol { offset: 5573e5ad68d0, size: 3c, name: _ZN3std6thread6Thread5cname17hfd09de3c5a806b76E },
    Symbol { offset: 5573e5ad6910, size: 1b02, name: _ZN3std6thread21available_parallelism17hd91b7cd09c36abe3E },
    Symbol { offset: 5573e5ae0740, size: 130, name: _ZN3std3sys2fs6exists17hc97bd82527fada2cE },
    Symbol { offset: 5573e5adde30, size: c1, name: _ZN3std4path7PathBuf3pop17ha27433acc619b4c9E },
    Symbol { offset: 5573e5ade5a0, size: 1f1, name: _ZN3std4path4Path12_starts_with17hf6758a65668e265fE },
    Symbol { offset: 5573e5ad9900, size: fa, name: _ZN51_$LT$$RF$std..fs..File$u20$as$u20$std..io..Read$GT$14read_to_string17hb1563eed71000da0E },
    Symbol { offset: 5573e5ae1c40, size: d6, name: _ZN79_$LT$std..backtrace_rs..symbolize..SymbolName$u20$as$u20$core..fmt..Display$GT$3fmt17h997ed81802f2cd0fE },
    Symbol { offset: 5573e5ad8e70, size: 1da, name: _ZN3std3env11current_dir17h2d3897870c48da9aE },
    Symbol { offset: 5573e5ad8420, size: 223, name: _ZN3std9backtrace9Backtrace7capture17hb3e7e1447f8dfa14E },
    Symbol { offset: 5573e5ad90f0, size: 169, name: _ZN3std3env7_var_os17h0495f0815c952e44E },
    Symbol { offset: 5573e5ae58e0, size: f7, name: _ZN3std3sys4sync5mutex5futex5Mutex14lock_contended17h62a1561aafc30ee1E },
    Symbol { offset: 5573e5ad8950, size: 514, name: _ZN64_$LT$std..backtrace..Backtrace$u20$as$u20$core..fmt..Display$GT$3fmt17h407aded97e19fca4E },
    Symbol { offset: 5573e5ae5c30, size: 1af, name: _ZN3std3sys4sync6rwlock5futex6RwLock14read_contended17h694e64af3f33451eE },
    Symbol { offset: 5573e5ad9050, size: 99, name: _ZN3std3env4_var17h22fbfdc381fa63f8E },
    Symbol { offset: 5573e5ad9260, size: 1b8, name: _ZN3std3env11current_exe17hacf3e91bb1916d9fE },
    Symbol { offset: 5573e5ad9420, size: 239, name: _ZN3std3env7args_os17hb25bf4acb3c6e8bdE },
    Symbol { offset: 5573e5ad9660, size: 1f, name: _ZN62_$LT$std..ffi..os_str..Display$u20$as$u20$core..fmt..Debug$GT$3fmt17h8548b44fc544ee2eE },
    Symbol { offset: 5573e5ad9680, size: e4, name: _ZN64_$LT$std..ffi..os_str..Display$u20$as$u20$core..fmt..Display$GT$3fmt17h95e4287f53111669E },
    Symbol { offset: 5573e5ad9a00, size: 4d, name: _ZN47_$LT$std..fs..File$u20$as$u20$std..io..Read$GT$4read17hf284bf5a26c6d9d2E },
    Symbol { offset: 5573e5ad9a50, size: 4d, name: _ZN48_$LT$std..fs..File$u20$as$u20$std..io..Write$GT$5write17h1544c2442f4ba1d6E },
    Symbol { offset: 5573e5ade870, size: 192, name: _ZN3std4path4Path5_join17h3f790f31de26b70dE },
    Symbol { offset: 5573e5ad9c90, size: b7, name: _ZN3std2fs10DirBuilder7_create17h1b45a740b7df27e7E },
    Symbol { offset: 5573e5adeb00, size: e1, name: _ZN3std4path4Path6is_dir17hc18b17a1f237b385E },
    Symbol { offset: 5573e5add810, size: 3b5, name: _ZN95_$LT$std..path..Components$u20$as$u20$core..iter..traits..double_ended..DoubleEndedIterator$GT$9next_back17hf49c6d439bd75fc4E },
    Symbol { offset: 5573e5adcfe0, size: 385, name: _ZN3std4path10Components7as_path17he3077725ece9d5fbE },
    Symbol { offset: 5573e5ada410, size: 13b, name: _ZN3std2io8buffered9bufwriter18BufWriter$LT$W$GT$14write_all_cold17hd8ddc4ed7db7e536E },
    Symbol { offset: 5573e5ada550, size: b, name: _ZN58_$LT$std..io..error..Error$u20$as$u20$core..fmt..Debug$GT$3fmt17hddad94abc0471e03E },
    Symbol { offset: 5573e5ada560, size: 144, name: _ZN3std2io5error5Error3new17hd3c5e87eba616f03E },
    Symbol { offset: 5573e5ada9a0, size: 270, name: _ZN60_$LT$std..io..error..Error$u20$as$u20$core..fmt..Display$GT$3fmt17h8f4b4c77661b5509E },
    Symbol { offset: 5573e5adac10, size: 81, name: _ZN60_$LT$std..io..error..Error$u20$as$u20$core..error..Error$GT$11description17h276e899469d57ce4E },
    Symbol { offset: 5573e5adaca0, size: 21, name: _ZN60_$LT$std..io..error..Error$u20$as$u20$core..error..Error$GT$5cause17h5ef44dde5857f254E },
    Symbol { offset: 5573e5adacd0, size: 21, name: _ZN60_$LT$std..io..error..Error$u20$as$u20$core..error..Error$GT$6source17h5757b7115835f6c5E },
    Symbol { offset: 5573e5adb0a0, size: 25, name: _ZN3std2io5stdio5stdin17h522f8646cbcfeff3E },
    Symbol { offset: 5573e5adb0d0, size: 25, name: _ZN3std2io5stdio6stdout17h24077edea8269616E },
    Symbol { offset: 5573e5adb100, size: 1c, name: _ZN57_$LT$std..io..stdio..Stdout$u20$as$u20$std..io..Write$GT$5flush17ha472da5353fc43dbE },
    Symbol { offset: 5573e5adb120, size: 16a, name: _ZN61_$LT$$RF$std..io..stdio..Stdout$u20$as$u20$std..io..Write$GT$5flush17h9ca1900efff6aec6E },
    Symbol { offset: 5573e5adb290, size: 26a, name: _ZN61_$LT$$RF$std..io..stdio..Stdout$u20$as$u20$std..io..Write$GT$9write_fmt17h0db0b57af9df0c8aE },
    Symbol { offset: 5573e5adb790, size: ba, name: _ZN3std2io5stdio6Stderr4lock17hd1bb9c5be3b5fdefE },
    Symbol { offset: 5573e5adb850, size: 26a, name: _ZN61_$LT$$RF$std..io..stdio..Stderr$u20$as$u20$std..io..Write$GT$9write_fmt17h6f566e7a34bb93d3E },
    Symbol { offset: 5573e5adbbf0, size: c3, name: _ZN3std2io5stdio22try_set_output_capture17hd4b0216193717702E },
    Symbol { offset: 5573e5b157e0, size: 18, name: _ZN3std2io5stdio6stderr8INSTANCE17hf9addec0979cb736E },
    Symbol { offset: 5573e5adbf10, size: e8, name: _ZN3std2io5stdio6_print17h915f3273edec6464E },
    Symbol { offset: 5573e5adc000, size: d6, name: _ZN3std2io5stdio7_eprint17h24e2b5fb5581b2f3E },
    Symbol { offset: 5573e5adcdc0, size: c9, name: _ZN3std5panic19get_backtrace_style17hf22aa94dc7be5a6eE },
    Symbol { offset: 5573e5add460, size: 3a2, name: _ZN80_$LT$std..path..Components$u20$as$u20$core..iter..traits..iterator..Iterator$GT$4next17h2c14b7897081e5e1E },
    Symbol { offset: 5573e5ae5140, size: 14d, name: _ZN3std3sys6os_str5bytes5Slice21check_public_boundary9slow_path17h79546775e81af34bE },
    Symbol { offset: 5573e5addf00, size: 34e, name: _ZN3std4path7PathBuf14_set_extension17h23f0cae1114e6dd7E },
    Symbol { offset: 5573e5ade250, size: 5f, name: _ZN3std4path4Path9file_name17h1fd5491166767303E },
    Symbol { offset: 5573e5ade2b0, size: 2ed, name: _ZN3std4path4Path13_strip_prefix17hc60a3c2bf32b245aE },
    Symbol { offset: 5573e5ade7a0, size: c1, name: _ZN3std4path4Path9file_stem17hd9e1cd373b97033dE },
    Symbol { offset: 5573e5adea10, size: e1, name: _ZN3std4path4Path7is_file17h5253bb5eb0022126E },
    Symbol { offset: 5573e5ae05f0, size: 148, name: _ZN3std3sys2fs8metadata17h012189a03f551c9aE },
    Symbol { offset: 5573e5adebf0, size: b, name: _ZN57_$LT$std..path..Display$u20$as$u20$core..fmt..Display$GT$3fmt17he0167703036885c8E },
    Symbol { offset: 5573e5adec00, size: 14, name: _ZN3std7process4exit17h2f22ed21bfeb17bbE },
    Symbol { offset: 5573e5adec20, size: a, name: _ZN3std7process5abort17h74511507ccd5ab25E },
    Symbol { offset: 5573e5adec30, size: b, name: _ZN3std7process2id17h6eb04a9fc9eafa8bE },
    Symbol { offset: 5573e5adec40, size: 15f, name: _ZN3std4sync4mpmc7context7Context3new17he7c0011d1c4eac03E },
    Symbol { offset: 5573e59ab020, size: 1, name: _ZN3std4sync4mpmc5waker17current_thread_id5DUMMY29_$u7b$$u7b$constant$u7d$$u7d$28_$u7b$$u7b$closure$u7d$$u7d$3VAL17h24ab788f88a1cd3eE },
    Symbol { offset: 5573e5adf460, size: 2ed, name: _ZN3std4sync7barrier7Barrier4wait17h061bf34d65e6ac54E },
    Symbol { offset: 5573e5adf8d0, size: f, name: _ZN3std4time7Instant3now17h6036b261e8d122edE },
    Symbol { offset: 5573e5adf8e0, size: 39, name: _ZN3std4time7Instant14duration_since17h60861f16add11f5dE },
    Symbol { offset: 5573e5adf920, size: 53, name: _ZN3std4time7Instant7elapsed17hff32a7e69fef8150E },
    Symbol { offset: 5573e5adf980, size: 3e, name: _ZN60_$LT$std..time..Instant$u20$as$u20$core..ops..arith..Sub$GT$3sub17h9c075e1189fa0b2fE },
    Symbol { offset: 5573e5adfd60, size: 63, name: _ZN3std3sys9backtrace4lock17h9c8d4bcc3fc8f220E },
    Symbol { offset: 5573e5adfe30, size: 271, name: _ZN98_$LT$std..sys..backtrace..BacktraceLock..print..DisplayBacktrace$u20$as$u20$core..fmt..Display$GT$3fmt17h46a716bba2450163E },
    Symbol { offset: 5573e5ae1b70, size: cf, name: _ZN3std12backtrace_rs9symbolize6Symbol4name17h57ff458302c7430cE },
    Symbol { offset: 5573e5ae04c0, size: 9, name: _ZN3std3sys9backtrace26__rust_end_short_backtrace17h5b56844d75e766fcE },
    Symbol { offset: 5573e5ae0a20, size: 5d, name: _RNvCs691rhTbG0Ee_7___rustc11___rdl_alloc },
    Symbol { offset: 5573e5ae0a80, size: b, name: _RNvCs691rhTbG0Ee_7___rustc13___rdl_dealloc },
    Symbol { offset: 5573e5ae0a90, size: a7, name: _RNvCs691rhTbG0Ee_7___rustc13___rdl_realloc },
    Symbol { offset: 5573e5ae0b40, size: 8c, name: _RNvCs691rhTbG0Ee_7___rustc18___rdl_alloc_zeroed },
    Symbol { offset: 5573e5ae0bd0, size: c7, name: _RNvCs691rhTbG0Ee_7___rustc17___rust_drop_panic },
    Symbol { offset: 5573e5ae0ca0, size: c7, name: _RNvCs691rhTbG0Ee_7___rustc24___rust_foreign_exception },
    Symbol { offset: 5573e5b15810, size: 20, name: _ZN3std9panicking4HOOK17h3330761aea924fb2E },
    Symbol { offset: 5573e5ae1800, size: 83, name: _ZN3std9panicking14payload_as_str17hc20bc10c6236f70fE },
    Symbol { offset: 5573e5ae1380, size: 48, name: _ZN3std9panicking11panic_count8increase17h6d60c59d2d10d72eE },
    Symbol { offset: 5573e5ae13ed, size: 43, name: _ZN3std9panicking3try7cleanup17h4f490ddeca09e89cE },
    Symbol { offset: 5573e5ae1430, size: 1d, name: _RNvCs691rhTbG0Ee_7___rustc17rust_begin_unwind },
    Symbol { offset: 5573e5ae1450, size: 12a, name: _ZN102_$LT$std..panicking..begin_panic_handler..FormatStringPayload$u20$as$u20$core..panic..PanicPayload$GT$8take_box17h9fe4b4681316a900E },
    Symbol { offset: 5573e5ae1580, size: a9, name: _ZN102_$LT$std..panicking..begin_panic_handler..FormatStringPayload$u20$as$u20$core..panic..PanicPayload$GT$3get17h86980894e1a04e09E },
    Symbol { offset: 5573e5ae1630, size: 58, name: _ZN95_$LT$std..panicking..begin_panic_handler..FormatStringPayload$u20$as$u20$core..fmt..Display$GT$3fmt17hde1d5ce5b72237a1E },
    Symbol { offset: 5573e5ae1690, size: 50, name: _ZN99_$LT$std..panicking..begin_panic_handler..StaticStrPayload$u20$as$u20$core..panic..PanicPayload$GT$8take_box17h9f692f74f3e46aa8E },
    Symbol { offset: 5573e5ae1700, size: 18, name: _ZN92_$LT$std..panicking..begin_panic_handler..StaticStrPayload$u20$as$u20$core..fmt..Display$GT$3fmt17h8196b3a4bceae169E },
    Symbol { offset: 5573e5ae1883, size: 279, name: _ZN3std9panicking20rust_panic_with_hook17h409da73ddef13937E },
    Symbol { offset: 5573e5ae1b00, size: 6f, name: _RNvCs691rhTbG0Ee_7___rustc10rust_panic },
    Symbol { offset: 5573e5ae2690, size: 26, name: _ZN3std3sys3pal4unix5futex10futex_wake17hf8d313f7ba9f1baeE },
    Symbol { offset: 5573e5ae2c70, size: 29c, name: _ZN3std3sys3pal4unix6thread6Thread3new17hdb19f87c63e0e024E },
    Symbol { offset: 5573e5ae3010, size: 61, name: _ZN3std3sys3pal4unix6thread6Thread8set_name17h4d381d99d2a8fd31E },
    Symbol { offset: 5573e5ae3080, size: e, name: _ZN77_$LT$std..sys..pal..unix..thread..Thread$u20$as$u20$core..ops..drop..Drop$GT$4drop17hb579d24ba385c22aE },
    Symbol { offset: 5573e5ae4250, size: 616, name: rust_eh_personality },
    Symbol { offset: 5573e5ae4870, size: 17, name: _ZN3std3sys4args4unix3imp15ARGV_INIT_ARRAY12init_wrapper17ha2ca0aed27ecc9d1E },
    Symbol { offset: 5573e5ae57f0, size: 30, name: _ZN3std3sys6random5linux19hashmap_random_keys17hf5f98782b412ab19E },
    Symbol { offset: 5573e5ae5820, size: 50, name: _ZN64_$LT$std..sys..stdio..unix..Stderr$u20$as$u20$std..io..Write$GT$5write17hea69813d10fc5b47E },
    Symbol { offset: 5573e5ae5870, size: 4f, name: _ZN64_$LT$std..sys..stdio..unix..Stderr$u20$as$u20$std..io..Write$GT$14write_vectored17hd08e9801a56c11c6E },
    Symbol { offset: 5573e5ae59e0, size: 1f, name: _ZN3std3sys4sync5mutex5futex5Mutex4wake17h582e9d66664dd268E },
    Symbol { offset: 5573e5ae62b0, size: 21, name: _ZN3std5alloc8rust_oom17hc6bae85804c44578E },
    Symbol { offset: 5573e5ae62e0, size: 13, name: _RNvCs691rhTbG0Ee_7___rustc8___rg_oom },
    Symbol { offset: 5573e5aefe50, size: 7e3, name: _ZN114_$LT$std..backtrace_rs..symbolize..gimli..parse_running_mmaps..MapsEntry$u20$as$u20$core..str..traits..FromStr$GT$8from_str17hb7bcfb091db228b3E },
    Symbol { offset: 5573e5b11760, size: 8, name: _ZN3std3sys4args4unix3imp15ARGV_INIT_ARRAY17h05c1a498d5608d1eE },
    Symbol { offset: 5573e5b15758, size: 8, name: _ZN3std6thread7Builder16spawn_unchecked_28_$u7b$$u7b$closure$u7d$$u7d$3MIN17hacac2fe9f76e4b6dE },
    Symbol { offset: 5573e59ab0b0, size: 10, name: _ZN3std4sync4mpmc7context7Context4with7CONTEXT29_$u7b$$u7b$constant$u7d$$u7d$28_$u7b$$u7b$closure$u7d$$u7d$3VAL17h0e24ed330a3ab221E },
    Symbol { offset: 5573e59ab0d0, size: 18, name: _ZN3std4hash6random11RandomState3new4KEYS29_$u7b$$u7b$constant$u7d$$u7d$28_$u7b$$u7b$closure$u7d$$u7d$3VAL17h7d75c4b6714d2d2dE },
    Symbol { offset: 5573e5ac5850, size: b3, name: _ZN5alloc7raw_vec19RawVec$LT$T$C$A$GT$8grow_one17h4f6c7e1d0a538992E },
    Symbol { offset: 5573e5ac5910, size: b3, name: _ZN5alloc7raw_vec19RawVec$LT$T$C$A$GT$8grow_one17h566e32e1f21188d5E },
    Symbol { offset: 5573e5ac56d0, size: b4, name: _ZN5alloc7raw_vec19RawVec$LT$T$C$A$GT$8grow_one17h97c9420940a466c0E },
    Symbol { offset: 5573e5ac5910, size: b3, name: _ZN5alloc7raw_vec19RawVec$LT$T$C$A$GT$8grow_one17hb2209c37c9b4231bE },
    Symbol { offset: 5573e5ac5850, size: b3, name: _ZN5alloc7raw_vec19RawVec$LT$T$C$A$GT$8grow_one17hb6ce9080d194f851E },
    Symbol { offset: 5573e5ac5850, size: b3, name: _ZN5alloc7raw_vec19RawVec$LT$T$C$A$GT$8grow_one17hdd31563d5e240d8aE },
    Symbol { offset: 5573e5ac5850, size: b3, name: _ZN5alloc7raw_vec19RawVec$LT$T$C$A$GT$8grow_one17hecf6441981b50172E },
    Symbol { offset: 5573e5adf8e0, size: 39, name: _ZN3std4time7Instant25saturating_duration_since17h78e9106f31df1e75E },
    Symbol { offset: 5573e5ac5550, size: b7, name: _ZN5alloc7raw_vec19RawVec$LT$T$C$A$GT$8grow_one17h529b48438c95a50fE },
    Symbol { offset: 5573e5ac5550, size: b7, name: _ZN5alloc7raw_vec19RawVec$LT$T$C$A$GT$8grow_one17h85eaf003d2163eb1E },
    Symbol { offset: 5573e5ac5550, size: b7, name: _ZN5alloc7raw_vec19RawVec$LT$T$C$A$GT$8grow_one17ha6d86d91f95e251dE },
    Symbol { offset: 5573e5ac5550, size: b7, name: _ZN5alloc7raw_vec19RawVec$LT$T$C$A$GT$8grow_one17hb5468a2665c6f266E },
    Symbol { offset: 5573e5ac5a90, size: b7, name: _ZN5alloc7raw_vec19RawVec$LT$T$C$A$GT$8grow_one17hc5b042a0e20b5396E },
    Symbol { offset: 5573e5ac59d0, size: b7, name: _ZN5alloc7raw_vec19RawVec$LT$T$C$A$GT$8grow_one17hc5e7c874e131478dE },
    Symbol { offset: 5573e5ac5b50, size: b3, name: _ZN5alloc7raw_vec19RawVec$LT$T$C$A$GT$8grow_one17hc72e5b1088c9c1c6E },
    Symbol { offset: 5573e5ac5610, size: b3, name: _ZN5alloc7raw_vec19RawVec$LT$T$C$A$GT$8grow_one17hcb88e56ba134a3faE },
    Symbol { offset: 5573e5ac5550, size: b7, name: _ZN5alloc7raw_vec19RawVec$LT$T$C$A$GT$8grow_one17hf9839fd3ee1c746fE },
    Symbol { offset: 5573e5ac5610, size: b3, name: _ZN5alloc7raw_vec19RawVec$LT$T$C$A$GT$8grow_one17hfcb40064a526712bE },
    Symbol { offset: 5573e5adb790, size: ba, name: _ZN3std2io5stdio6Stdout4lock17ha5f5a44ac91123e6E },
    Symbol { offset: 5573e5ad9a50, size: 4d, name: _ZN73_$LT$std..os..unix..net..stream..UnixStream$u20$as$u20$std..io..Write$GT$5write17hf94ae5675625321eE },
    Symbol { offset: 5573e5ad9a50, size: 4d, name: _ZN59_$LT$std..process..ChildStdin$u20$as$u20$std..io..Write$GT$5write17h120b32ec692791ebE },
    Symbol { offset: 5573e5af0700, size: 69, name: _ZN4core3ptr49drop_in_place$LT$panic_unwind..imp..Exception$GT$17h10d68088710b83ecE },
    Symbol { offset: 5573e5af0770, size: 8d, name: _ZN4core3ptr74drop_in_place$LT$alloc..boxed..Box$LT$panic_unwind..imp..Exception$GT$$GT$17h58591d5cc9a1ab54E },
    Symbol { offset: 5573e59f7144, size: 1, name: _ZN12panic_unwind3imp6CANARY17h7e39f969d39b00d1E },
    Symbol { offset: 5573e5af0910, size: 18, name: _ZN12panic_unwind3imp5panic17exception_cleanup17h06c84346a78cc9f5E },
    Symbol { offset: 5573e5af0800, size: 52, name: _RNvCs691rhTbG0Ee_7___rustc20___rust_panic_cleanup },
    Symbol { offset: 5573e5af0860, size: a5, name: _RNvCs691rhTbG0Ee_7___rustc18___rust_start_panic },
    Symbol { offset: 5573e59fdd24, size: 4, name: .Lanon.a7a54b18178085eb95e9c240ea5dbc78.9 },
    Symbol { offset: 5573e59fdc9c, size: 4, name: .Lanon.a7a54b18178085eb95e9c240ea5dbc78.7 },
    Symbol { offset: 5573e59fdcb8, size: 4, name: .Lanon.a7a54b18178085eb95e9c240ea5dbc78.39 },
    Symbol { offset: 5573e5af0930, size: 4f, name: _ZN68_$LT$$RF$$u5b$u8$u5d$$u20$as$u20$object..read..read_ref..ReadRef$GT$19read_bytes_at_until17h6a2ea114740a5c13E },
    Symbol { offset: 5573e59fdce4, size: 4, name: .Lanon.dccf4e39257b506e50a5b3d119613f6f.47 },
    Symbol { offset: 5573e5af0980, size: 1c5, name: _ZN6memchr4arch6x86_646memchr10memchr_raw9find_sse217hcd747fbd30471addE },
    Symbol { offset: 5573e5b15340, size: 8, name: _ZN6memchr4arch6x86_646memchr10memchr_raw2FN17h7d3649e519c92257E },
    Symbol { offset: 5573e5af0b50, size: 1d5, name: _ZN6memchr4arch6x86_646memchr10memchr_raw6detect17h09b74f15f965cd7eE },
    Symbol { offset: 5573e5af1080, size: 80, name: _ZN9addr2line4line16has_windows_root17h63c423c1ec19bcf9E },
    Symbol { offset: 5573e5af0d25, size: 64, name: _ZN132_$LT$alloc..vec..Vec$LT$T$C$A$GT$$u20$as$u20$alloc..vec..spec_extend..SpecExtend$LT$$RF$T$C$core..slice..iter..Iter$LT$T$GT$$GT$$GT$11spec_extend17hcf5ccbed4852be19E },
    Symbol { offset: 5573e5af0d89, size: 31, name: _ZN5alloc7raw_vec20RawVecInner$LT$A$GT$7reserve21do_reserve_and_handle17h385d5fc7c124abf1E },
    Symbol { offset: 5573e5af0dba, size: 12a, name: _ZN9addr2line4line5Lines13find_location17h5bb34830575d6fd0E },
    Symbol { offset: 5573e5af0ee4, size: 19c, name: _ZN9addr2line4line9path_push17h6564d479abc5ea34E },
    Symbol { offset: 5573e59fdcb8, size: 4, name: .Lanon.d1b1d82483a86a8fde26702e316c5062.1796 },
    Symbol { offset: 5573e59fdb00, size: 20, name: .Lanon.d1b1d82483a86a8fde26702e316c5062.9 },
    Symbol { offset: 5573e59fde50, size: 8, name: .Lanon.d1b1d82483a86a8fde26702e316c5062.31 },
    Symbol { offset: 5573e5af1100, size: 7d, name: _ZN5alloc11collections5btree3map25BTreeMap$LT$K$C$V$C$A$GT$3get17h598b51201eb59dbaE },
    Symbol { offset: 5573e5af117d, size: ab, name: _ZN5alloc11collections5btree3map25BTreeMap$LT$K$C$V$C$A$GT$5entry17h5a23632b8136014dE },
    Symbol { offset: 5573e5af1228, size: cc, name: _ZN5alloc11collections5btree3map5entry28VacantEntry$LT$K$C$V$C$A$GT$12insert_entry17h9b85edb010cf211bE },
    Symbol { offset: 5573e5af1741, size: 269, name: _ZN5alloc11collections5btree4node210Handle$LT$alloc..collections..btree..node..NodeRef$LT$alloc..collections..btree..node..marker..Mut$C$K$C$V$C$alloc..collections..btree..node..marker..Leaf$GT$$C$alloc..collections..btree..node..marker..Edge$GT$16insert_recursing17h6e4a298f328e8670E },
    Symbol { offset: 5573e5af1fc2, size: 34, name: _ZN5alloc5boxed16Box$LT$T$C$A$GT$13new_uninit_in17h5c05aec4e0940d95E },
    Symbol { offset: 5573e5af12f4, size: 9e, name: _ZN5alloc11collections5btree4node115NodeRef$LT$alloc..collections..btree..node..marker..Mut$C$K$C$V$C$alloc..collections..btree..node..marker..Leaf$GT$16push_with_handle17he1630ed679d4c016E },
    Symbol { offset: 5573e5af2130, size: 47, name: _ZN5alloc7raw_vec20RawVecInner$LT$A$GT$10deallocate17h06eec048b34db7f5E },
    Symbol { offset: 5573e5af1392, size: c5, name: _ZN5alloc11collections5btree4node119NodeRef$LT$alloc..collections..btree..node..marker..Mut$C$K$C$V$C$alloc..collections..btree..node..marker..Internal$GT$4push17h07a6ec1443103262E },
    Symbol { offset: 5573e5af1ff6, size: 34, name: _ZN5alloc5boxed16Box$LT$T$C$A$GT$13new_uninit_in17h87b663a45a11670eE },
    Symbol { offset: 5573e5af1457, size: 147, name: _ZN5alloc11collections5btree4node171Handle$LT$alloc..collections..btree..node..NodeRef$LT$alloc..collections..btree..node..marker..Mut$C$K$C$V$C$NodeType$GT$$C$alloc..collections..btree..node..marker..KV$GT$15split_leaf_data17h321cb2b603380857E },
    Symbol { offset: 5573e5af159e, size: 9c, name: _ZN5alloc11collections5btree4node208Handle$LT$alloc..collections..btree..node..NodeRef$LT$alloc..collections..btree..node..marker..Mut$C$K$C$V$C$alloc..collections..btree..node..marker..Leaf$GT$$C$alloc..collections..btree..node..marker..KV$GT$5split17h8c2a42b0c7751fd4E },
    Symbol { offset: 5573e5af163a, size: 107, name: _ZN5alloc11collections5btree4node210Handle$LT$alloc..collections..btree..node..NodeRef$LT$alloc..collections..btree..node..marker..Mut$C$K$C$V$C$alloc..collections..btree..node..marker..Leaf$GT$$C$alloc..collections..btree..node..marker..Edge$GT$10insert_fit17h07f3bc221bc89d6fE },
    Symbol { offset: 5573e5af19aa, size: 18a, name: _ZN5alloc11collections5btree4node210Handle$LT$alloc..collections..btree..node..NodeRef$LT$alloc..collections..btree..node..marker..Mut$C$K$C$V$C$alloc..collections..btree..node..marker..Leaf$GT$$C$alloc..collections..btree..node..marker..Edge$GT$6insert17h2f3c43429806e928E },
    Symbol { offset: 5573e5af1e0d, size: 1b5, name: _ZN5alloc11collections5btree4node214Handle$LT$alloc..collections..btree..node..NodeRef$LT$alloc..collections..btree..node..marker..Mut$C$K$C$V$C$alloc..collections..btree..node..marker..Internal$GT$$C$alloc..collections..btree..node..marker..Edge$GT$6insert17h1aed7c866c954bfeE },
    Symbol { offset: 5573e5af1b34, size: 18a, name: _ZN5alloc11collections5btree4node212Handle$LT$alloc..collections..btree..node..NodeRef$LT$alloc..collections..btree..node..marker..Mut$C$K$C$V$C$alloc..collections..btree..node..marker..Internal$GT$$C$alloc..collections..btree..node..marker..KV$GT$5split17hbcd4eda6b6dbd241E },
    Symbol { offset: 5573e5af1cbe, size: 14f, name: _ZN5alloc11collections5btree4node214Handle$LT$alloc..collections..btree..node..NodeRef$LT$alloc..collections..btree..node..marker..Mut$C$K$C$V$C$alloc..collections..btree..node..marker..Internal$GT$$C$alloc..collections..btree..node..marker..Edge$GT$10insert_fit17h6a50e5e0e1447a15E },
    Symbol { offset: 5573e5af202a, size: 78, name: _ZN5alloc7raw_vec11finish_grow17h64eb04e0aa211b72E },
    Symbol { offset: 5573e5af20a2, size: 47, name: _ZN5alloc7raw_vec19RawVec$LT$T$C$A$GT$8grow_one17hba58adb5ff742c28E },
    Symbol { offset: 5573e5af2177, size: f3, name: _ZN5alloc7raw_vec20RawVecInner$LT$A$GT$14grow_amortized17h4ef16fb9008c9989E },
    Symbol { offset: 5573e5af20e9, size: 47, name: _ZN5alloc7raw_vec19RawVec$LT$T$C$A$GT$8grow_one17hecb32e87807d5090E },
    Symbol { offset: 5573e5af226a, size: b4, name: _ZN5alloc7raw_vec20RawVecInner$LT$A$GT$15try_allocate_in17h4f7e38587b6f6112E },
    Symbol { offset: 5573e5af231e, size: 6, name: _ZN70_$LT$alloc..vec..Vec$LT$T$C$A$GT$$u20$as$u20$core..ops..drop..Drop$GT$4drop17h3cad85dcbc7cf70aE },
    Symbol { offset: 5573e5af2324, size: 22, name: _ZN73_$LT$$u5b$A$u5d$$u20$as$u20$core..slice..cmp..SlicePartialEq$LT$B$GT$$GT$5equal17h6d28515a6594dd55E },
    Symbol { offset: 5573e5af2346, size: 15, name: _ZN77_$LT$alloc..raw_vec..RawVec$LT$T$C$A$GT$$u20$as$u20$core..ops..drop..Drop$GT$4drop17h207b169ff2d583b0E },
    Symbol { offset: 5573e5af235b, size: 101, name: _ZN5gimli4read6abbrev13Abbreviations6insert17h60a9271c63d9b209E },
    Symbol { offset: 5573e5af245c, size: 8b, name: _ZN5gimli4read6abbrev12Abbreviation3new17h6c3521af4c3686f9E },
    Symbol { offset: 5573e5af24e7, size: 16d, name: _ZN5gimli4read6abbrev10Attributes4push17hf0a41d164d76125dE },
    Symbol { offset: 5573e5af2654, size: 3c, name: _ZN75_$LT$gimli..read..abbrev..Attributes$u20$as$u20$core..ops..deref..Deref$GT$5deref17h15022a6a01c1b6e3E },
    Symbol { offset: 5573e5af231e, size: 6, name: _ZN70_$LT$alloc..vec..Vec$LT$T$C$A$GT$$u20$as$u20$core..ops..drop..Drop$GT$4drop17he78ffeecac60e956E },
    Symbol { offset: 5573e5af1457, size: 147, name: _ZN5alloc11collections5btree4node171Handle$LT$alloc..collections..btree..node..NodeRef$LT$alloc..collections..btree..node..marker..Mut$C$K$C$V$C$NodeType$GT$$C$alloc..collections..btree..node..marker..KV$GT$15split_leaf_data17hca34a28c28802ddeE },
    Symbol { offset: 5573e5af2690, size: 30e, name: _ZN104_$LT$core..iter..sources..from_fn..FromFn$LT$F$GT$$u20$as$u20$core..iter..traits..iterator..Iterator$GT$4next17hfadbf926ac3a5466E },
    Symbol { offset: 5573e5af31d1, size: 1b, name: _ZN81_$LT$core..str..iter..Chars$u20$as$u20$core..iter..traits..iterator..Iterator$GT$5count17hec967fd046e9122eE },
    Symbol { offset: 5573e5af2a1f, size: 1a, name: _ZN45_$LT$$LP$$RP$$u20$as$u20$core..fmt..Debug$GT$3fmt17hb5124022a727dda6E },
    Symbol { offset: 5573e5af2e68, size: 369, name: _ZN80_$LT$core..str..pattern..StrSearcher$u20$as$u20$core..str..pattern..Searcher$GT$4next17hd621983bafb03bd5E },
    Symbol { offset: 5573e5af2beb, size: 14e, name: _ZN4core3str4iter22SplitInternal$LT$P$GT$4next17h118ce86856e16885E },
    Symbol { offset: 5573e59fd440, size: 10, name: .Lanon.061845d3c3704435161bc38ba186afc3.8 },
    Symbol { offset: 5573e5af2e09, size: 1a, name: _ZN53_$LT$core..fmt..Error$u20$as$u20$core..fmt..Debug$GT$3fmt17h6736176c8e29474eE },
    Symbol { offset: 5573e5af2e23, size: 45, name: _ZN68_$LT$core..num..error..ParseIntError$u20$as$u20$core..fmt..Debug$GT$3fmt17h9d974530281c97f3E },
    Symbol { offset: 5573e59fdce4, size: 4, name: .Lanon.061845d3c3704435161bc38ba186afc3.22 },
    Symbol { offset: 5573e5af5666, size: 6e0, name: _ZN14rustc_demangle2v07Printer10print_path17hbd8c36db6060b33fE },
    Symbol { offset: 5573e5af40c3, size: fe, name: _ZN14rustc_demangle2v010HexNibbles14try_parse_uint17h94b7640e82bcab0aE },
    Symbol { offset: 5573e5af41c1, size: 31, name: _ZN14rustc_demangle2v010basic_type17h9f185ab0feea733cE },
    Symbol { offset: 5573e5af41f2, size: 9f, name: _ZN14rustc_demangle2v06Parser11hex_nibbles17ha785dbba0085b7e9E },
    Symbol { offset: 5573e5af4291, size: a7, name: _ZN14rustc_demangle2v06Parser10integer_6217h5918be41e14fd766E },
    Symbol { offset: 5573e5af4338, size: 74, name: _ZN14rustc_demangle2v06Parser14opt_integer_6217h29066bdf5734d43eE },
    Symbol { offset: 5573e5af43ac, size: 54, name: _ZN14rustc_demangle2v06Parser9namespace17hbddc6a31e204523eE },
    Symbol { offset: 5573e5af4400, size: 7e, name: _ZN14rustc_demangle2v06Parser7backref17h6f9cbe61094e2b00E },
    Symbol { offset: 5573e5af447e, size: 1cd, name: _ZN14rustc_demangle2v06Parser5ident17h87b87b192557e458E },
    Symbol { offset: 5573e5af464b, size: 56, name: _ZN14rustc_demangle2v07Printer17skipping_printing17h8d5b8904b5d3f058E },
    Symbol { offset: 5573e5af46a1, size: ee, name: _ZN14rustc_demangle2v07Printer13print_backref17had0c092bdcfae283E },
    Symbol { offset: 5573e5af671d, size: 674, name: _ZN14rustc_demangle2v07Printer11print_const17ha28eb73837bd7900E },
    Symbol { offset: 5573e59fd5b0, size: 10, name: .Lanon.061845d3c3704435161bc38ba186afc3.118 },
    Symbol { offset: 5573e5af478f, size: e1, name: _ZN14rustc_demangle2v07Printer13print_backref17hb169648227df0ce0E },
    Symbol { offset: 5573e5af5d46, size: 504, name: _ZN14rustc_demangle2v07Printer10print_type17h84a64b46d619a741E },
    Symbol { offset: 5573e5af4870, size: ee, name: _ZN14rustc_demangle2v07Printer13print_backref17hdc88e431424dcf59E },
    Symbol { offset: 5573e5af495e, size: 207, name: _ZN14rustc_demangle2v07Printer26print_quoted_escaped_chars17ha98ea7397491aa4cE },
    Symbol { offset: 5573e5af4b65, size: f1, name: _ZN14rustc_demangle2v07Printer25print_lifetime_from_index17h1d82ab64a55481a7E },
    Symbol { offset: 5573e5af4c56, size: 17e, name: _ZN14rustc_demangle2v07Printer9in_binder17h053fc539f69cfa09E },
    Symbol { offset: 5573e59fdd28, size: 4, name: .Lanon.061845d3c3704435161bc38ba186afc3.122 },
    Symbol { offset: 5573e5af4ff9, size: 224, name: _ZN14rustc_demangle2v07Printer14print_sep_list17h8d37e40ee2bcb49eE },
    Symbol { offset: 5573e5af4dd4, size: 183, name: _ZN14rustc_demangle2v07Printer9in_binder17h22631f68a940ccbeE },
    Symbol { offset: 5573e5af624a, size: 38c, name: _ZN14rustc_demangle2v07Printer10print_type28_$u7b$$u7b$closure$u7d$$u7d$17h8c0736a3fd85efdfE },
    Symbol { offset: 5573e5af4f57, size: a2, name: _ZN14rustc_demangle2v07Printer14print_sep_list17h130f62317590bc5cE },
    Symbol { offset: 5573e5af65d6, size: 147, name: _ZN14rustc_demangle2v07Printer30print_path_maybe_open_generics17haed12602d40460adE },
    Symbol { offset: 5573e5af521d, size: 97, name: _ZN14rustc_demangle2v07Printer14print_sep_list17h956ccee43e03a97bE },
    Symbol { offset: 5573e5af52b4, size: 1d1, name: _ZN14rustc_demangle2v07Printer14print_sep_list17h96721ee52d3c7424E },
    Symbol { offset: 5573e5af5485, size: 9d, name: _ZN14rustc_demangle2v07Printer14print_sep_list17h9b8d9f98c725f4ecE },
    Symbol { offset: 5573e5af5522, size: 144, name: _ZN14rustc_demangle2v07Printer14print_sep_list17hd805fff0621ac6dbE },
    Symbol { offset: 5573e59fdcb0, size: 4, name: .Lanon.061845d3c3704435161bc38ba186afc3.132 },
    Symbol { offset: 5573e59fdc74, size: 4, name: .Lanon.061845d3c3704435161bc38ba186afc3.129 },
    Symbol { offset: 5573e59fdca8, size: 4, name: .Lanon.061845d3c3704435161bc38ba186afc3.137 },
    Symbol { offset: 5573e59fdc68, size: 4, name: .Lanon.061845d3c3704435161bc38ba186afc3.134 },
    Symbol { offset: 5573e59fdd88, size: 8, name: .Lanon.061845d3c3704435161bc38ba186afc3.140 },
    Symbol { offset: 5573e59fdc70, size: 4, name: .Lanon.061845d3c3704435161bc38ba186afc3.144 },
    Symbol { offset: 5573e5af6d91, size: 169, name: _ZN14rustc_demangle2v07Printer16print_const_uint17h064c8604778f0e69E },
    Symbol { offset: 5573e59fdca0, size: 4, name: .Lanon.061845d3c3704435161bc38ba186afc3.147 },
    Symbol { offset: 5573e5af6efa, size: 384, name: _ZN14rustc_demangle2v07Printer23print_const_str_literal17hf36db53d5803ae7dE },
    Symbol { offset: 5573e59fd3e0, size: 10, name: .Lanon.061845d3c3704435161bc38ba186afc3.158 },
    Symbol { offset: 5573e5af7fca, size: 1a, name: _ZN71_$LT$rustc_demangle..SizeLimitExhausted$u20$as$u20$core..fmt..Debug$GT$3fmt17hec3428fd6c49e178E },
    Symbol { offset: 5573e59fdc80, size: 4, name: .Lanon.061845d3c3704435161bc38ba186afc3.19 },
    Symbol { offset: 5573e5af2df1, size: 18, name: _ZN50_$LT$$RF$mut$u20$T$u20$as$u20$core..fmt..Debug$GT$3fmt17h8c65a419c53f9d4dE },
    Symbol { offset: 5573e5af29ce, size: 18, name: _ZN42_$LT$$RF$T$u20$as$u20$core..fmt..Debug$GT$3fmt17ha496a8c71e00bc03E },
    Symbol { offset: 5573e5af299e, size: 30, name: _ZN42_$LT$$RF$T$u20$as$u20$core..fmt..Debug$GT$3fmt17h1b8ee3ab654f8904E },
    Symbol { offset: 5573e5af29e6, size: 2b, name: _ZN42_$LT$$RF$T$u20$as$u20$core..fmt..Debug$GT$3fmt17hcc65f483d4a509cfE },
    Symbol { offset: 5573e5af2a11, size: e, name: _ZN44_$LT$$RF$T$u20$as$u20$core..fmt..Display$GT$3fmt17h5d60816cf98c50f9E },
    Symbol { offset: 5573e5af7e1c, size: 43, name: _ZN68_$LT$rustc_demangle..DemangleStyle$u20$as$u20$core..fmt..Display$GT$3fmt17hda20823edba765e5E },
    Symbol { offset: 5573e5af2a39, size: 6d, name: _ZN48_$LT$$u5b$T$u5d$$u20$as$u20$core..fmt..Debug$GT$3fmt17hfd8dce5ae4f54cffE },
    Symbol { offset: 5573e5af2aa6, size: ba, name: _ZN4core3fmt5Write10write_char17h0cbb9946e8fbd844E },
    Symbol { offset: 5573e5af7e5f, size: 2b, name: _ZN83_$LT$rustc_demangle..SizeLimitedFmtAdapter$LT$F$GT$$u20$as$u20$core..fmt..Write$GT$9write_str17h2df3350c4ef6ad9aE },
    Symbol { offset: 5573e5af2b60, size: 15, name: _ZN4core3fmt5Write9write_fmt17h1aa0fc05028cef44E },
    Symbol { offset: 5573e5af2b75, size: 76, name: _ZN4core3str21_$LT$impl$u20$str$GT$18trim_start_matches17h554917e79ffb81b7E },
    Symbol { offset: 5573e5af2d39, size: b8, name: _ZN4core6escape14escape_unicode17h4841460ecaaaccecE },
    Symbol { offset: 5573e5af31ec, size: acb, name: _ZN71_$LT$rustc_demangle..legacy..Demangle$u20$as$u20$core..fmt..Display$GT$3fmt17h5a77a002e9a12872E },
    Symbol { offset: 5573e5af3cb7, size: 40c, name: _ZN64_$LT$rustc_demangle..v0..Ident$u20$as$u20$core..fmt..Display$GT$3fmt17hbe037180ebb91ddfE },
    Symbol { offset: 5573e5af727e, size: b49, name: _ZN14rustc_demangle8demangle17he72e7f5569f8f002E },
    Symbol { offset: 5573e5af7dc7, size: 55, name: _ZN14rustc_demangle12try_demangle17h2b094a4f037404a1E },
    Symbol { offset: 5573e5af7e8a, size: 140, name: _ZN63_$LT$rustc_demangle..Demangle$u20$as$u20$core..fmt..Display$GT$3fmt17h2b79cedd9036d902E },
    Symbol { offset: 5573e5af7ff0, size: 42, name: _ZN9hashbrown3raw11Fallibility17capacity_overflow17hb6c51339c548b2acE },
    Symbol { offset: 5573e5af8040, size: 18, name: _ZN9hashbrown3raw11Fallibility9alloc_err17hb27a050813e1a7bbE },
    Symbol { offset: 5573e5af8121, size: 455, name: _ZN11miniz_oxide7inflate4core9init_tree17h553c919e6806e51cE },
    Symbol { offset: 5573e5af8576, size: 43a, name: _ZN11miniz_oxide7inflate4core8transfer17h377de62ed2bd1250E },
    Symbol { offset: 5573e5af89b0, size: 1cf, name: _ZN11miniz_oxide7inflate4core11apply_match17hc44600e5c6d39296E },
    Symbol { offset: 5573e59fdae0, size: 20, name: .Lanon.15f0ac86678c7f30d7b53467dd2fda46.45 },
    Symbol { offset: 5573e5af8058, size: 7e, name: _ZN4core5slice29_$LT$impl$u20$$u5b$T$u5d$$GT$11copy_within17h5e30c2d8bb1bcff3E },
    Symbol { offset: 5573e5af80d6, size: 4b, name: _ZN4core5slice5index5range17h520f52bfcb23a7c2E },
    Symbol { offset: 5573e5af8b7f, size: 1a3b, name: _ZN11miniz_oxide7inflate4core10decompress17hce48230e011c9d91E },
    Symbol { offset: 5573e5afa5c0, size: 3e1, name: _ZN6adler27Adler3211write_slice17hc7666613ea080d08E },
    Symbol { offset: 5573e59fdd24, size: 4, name: .Lanon.38cf5e84a9682489615e8b34a43bde4a.7 },
    Symbol { offset: 5573e59fdc9c, size: 4, name: .Lanon.38cf5e84a9682489615e8b34a43bde4a.5 },
    Symbol { offset: 5573e5afa9b0, size: 15, name: _ZN4core3fmt5Write9write_fmt17h1ae16778873cceccE },
    Symbol { offset: 5573e5afa9d0, size: 1e, name: _ZN4core3ptr42drop_in_place$LT$alloc..string..String$GT$17h01d23767156fe9b7E },
    Symbol { offset: 5573e5afaa70, size: a5, name: _ZN5alloc7raw_vec20RawVecInner$LT$A$GT$7reserve21do_reserve_and_handle17h366b06ffbd67de15E },
    Symbol { offset: 5573e5afa9f0, size: 1a, name: _ZN53_$LT$core..fmt..Error$u20$as$u20$core..fmt..Debug$GT$3fmt17h6736176c8e29474eE },
    Symbol { offset: 5573e5afaa10, size: 1a, name: _ZN69_$LT$core..alloc..layout..LayoutError$u20$as$u20$core..fmt..Debug$GT$3fmt17hbaa65eea7f1a89d3E },
    Symbol { offset: 5573e5afaa30, size: 37, name: _ZN5alloc7raw_vec17capacity_overflow17h1b4b301db4b7931fE },
    Symbol { offset: 5573e5afab20, size: 76, name: _ZN5alloc7raw_vec11finish_grow17h61e850b4706b9540E },
    Symbol { offset: 5573e5afb4a0, size: 5c, name: _ZN58_$LT$alloc..string..String$u20$as$u20$core..fmt..Write$GT$9write_str17h3471f8bf4fd2c6acE },
    Symbol { offset: 5573e5afb500, size: 11c, name: _ZN58_$LT$alloc..string..String$u20$as$u20$core..fmt..Write$GT$10write_char17h13db4e3872bba170E },
    Symbol { offset: 5573e5afab96, size: 17, name: _ZN5alloc7raw_vec12handle_error17h891236e332f51b87E },
    Symbol { offset: 5573e5afabad, size: 13, name: _ZN5alloc5alloc18handle_alloc_error17h29c279d8237d34e5E },
    Symbol { offset: 5573e5afabc0, size: e, name: _ZN256_$LT$alloc..boxed..convert..$LT$impl$u20$core..convert..From$LT$alloc..string..String$GT$$u20$for$u20$alloc..boxed..Box$LT$dyn$u20$core..error..Error$u2b$core..marker..Send$u2b$core..marker..Sync$GT$$GT$..from..StringError$u20$as$u20$core..error..Error$GT$11description17h2530c666fb478694E },
    Symbol { offset: 5573e5afabd0, size: 19, name: _ZN256_$LT$alloc..boxed..convert..$LT$impl$u20$core..convert..From$LT$alloc..string..String$GT$$u20$for$u20$alloc..boxed..Box$LT$dyn$u20$core..error..Error$u2b$core..marker..Send$u2b$core..marker..Sync$GT$$GT$..from..StringError$u20$as$u20$core..fmt..Display$GT$3fmt17h45702c79a1faa6e0E },
    Symbol { offset: 5573e5afabf0, size: 19, name: _ZN254_$LT$alloc..boxed..convert..$LT$impl$u20$core..convert..From$LT$alloc..string..String$GT$$u20$for$u20$alloc..boxed..Box$LT$dyn$u20$core..error..Error$u2b$core..marker..Send$u2b$core..marker..Sync$GT$$GT$..from..StringError$u20$as$u20$core..fmt..Debug$GT$3fmt17h245021bb6de39f1dE },
    Symbol { offset: 5573e5afac10, size: 6, name: _ZN93_$LT$alloc..collections..btree..mem..replace..PanicGuard$u20$as$u20$core..ops..drop..Drop$GT$4drop17h7926798457b17142E },
    Symbol { offset: 5573e5afac20, size: 137, name: _ZN72_$LT$$RF$str$u20$as$u20$alloc..ffi..c_str..CString..new..SpecNewImpl$GT$13spec_new_impl17h3b6a56c9872207e6E },
    Symbol { offset: 5573e5afad60, size: 12d, name: _ZN5alloc3ffi5c_str7CString19_from_vec_unchecked17h3e136e712b77954eE },
    Symbol { offset: 5573e5afb030, size: 253, name: _ZN5alloc6string6String15from_utf8_lossy17hab6f1da2a0276508E },
    Symbol { offset: 5573e5afae90, size: 19e, name: _ZN5alloc3fmt6format12format_inner17h8a62f782d788077eE },
    Symbol { offset: 5573e5afb290, size: c2, name: _ZN5alloc6string6String11try_reserve17h8f59d3e890b45184E },
    Symbol { offset: 5573e5afb360, size: 90, name: _ZN60_$LT$alloc..string..String$u20$as$u20$core..clone..Clone$GT$5clone17ha172155c8a66ece7E },
    Symbol { offset: 5573e5afb3f0, size: a7, name: _ZN98_$LT$alloc..string..String$u20$as$u20$core..convert..From$LT$alloc..borrow..Cow$LT$str$GT$$GT$$GT$4from17h2089deafa1a55da5E },
    Symbol { offset: 5573e5afb620, size: 69, name: _ZN5alloc4sync32arcinner_layout_for_value_layout17hddc63a5d7e5923f5E },
    Symbol { offset: 5573e5afb689, size: 60, name: _ZN5alloc3vec16Vec$LT$T$C$A$GT$6insert13assert_failed17h82030a7baf303c1fE },
    Symbol { offset: 5573e5afb6e9, size: 60, name: _ZN5alloc3vec16Vec$LT$T$C$A$GT$6remove13assert_failed17hfc3b932606881249E },
    Symbol { offset: 5573e5afac20, size: 137, name: _ZN81_$LT$$RF$$u5b$u8$u5d$$u20$as$u20$alloc..ffi..c_str..CString..new..SpecNewImpl$GT$13spec_new_impl17he4bfcf6b7da8c708E },
    Symbol { offset: 5573e59fa7c8, size: 28b0, name: _ZN4core3num7dec2flt5table17POWER_OF_FIVE_12817h094cc14f81773113E },
    Symbol { offset: 5573e5afc090, size: 184, name: _ZN4core3num7dec2flt6lemire13compute_float17h65f4ef8d72b9eb31E },
    Symbol { offset: 5573e59f9270, size: 4c, name: _ZN4core3num7flt2dec8strategy6dragon9POW5TO25617h6e45cf7ddafbfbffE },
    Symbol { offset: 5573e59f9220, size: 8, name: _ZN4core3num7flt2dec8strategy6dragon8POW5TO1617h6827a808e26c6a83E },
    Symbol { offset: 5573e59f9228, size: c, name: _ZN4core3num7flt2dec8strategy6dragon8POW5TO3217hc2e056b576777612E },
    Symbol { offset: 5573e59f9234, size: 14, name: _ZN4core3num7flt2dec8strategy6dragon8POW5TO6417h969669ed66a4de7eE },
    Symbol { offset: 5573e59f9248, size: 28, name: _ZN4core3num7flt2dec8strategy6dragon9POW5TO12817h53281e36976a30e1E },
    Symbol { offset: 5573e5afee40, size: 1b7, name: _ZN4core3num7flt2dec8strategy5grisu16format_exact_opt14possibly_round17h513b2c2928f672d9E },
    Symbol { offset: 5573e5aff1c0, size: 1ef, name: _ZN71_$LT$core..ops..range..Range$LT$Idx$GT$$u20$as$u20$core..fmt..Debug$GT$3fmt17hd332746cc7553454E },
    Symbol { offset: 5573e5b062b0, size: 110, name: _ZN4core3fmt3num3imp21_$LT$impl$u20$u64$GT$4_fmt17h4a953e1cbeafa7deE },
    Symbol { offset: 5573e59fd440, size: 10, name: .Lanon.bb011cbb562d8a675bdbb272ca3f2021.147 },
    Symbol { offset: 5573e5aff530, size: 228, name: _ZN4core4char7methods22_$LT$impl$u20$char$GT$16escape_debug_ext17hde9de3d9b738cd1bE },
    Symbol { offset: 5573e59fd3e0, size: 10, name: .Lanon.bb011cbb562d8a675bdbb272ca3f2021.150 },
    Symbol { offset: 5573e5b064c0, size: 18, name: _ZN44_$LT$$RF$T$u20$as$u20$core..fmt..Display$GT$3fmt17hcd558d34095317afE },
    Symbol { offset: 5573e5b064a0, size: 15, name: _ZN42_$LT$$RF$T$u20$as$u20$core..fmt..Debug$GT$3fmt17hb467a72b24c06cc6E },
    Symbol { offset: 5573e59fdca0, size: 4, name: .Lanon.bb011cbb562d8a675bdbb272ca3f2021.308 },
    Symbol { offset: 5573e59fdc90, size: 4, name: .Lanon.bb011cbb562d8a675bdbb272ca3f2021.257 },
    Symbol { offset: 5573e5b00550, size: 3e0, name: _ZN4core3fmt5float29float_to_decimal_common_exact17h2fae940eede76b6bE },
    Symbol { offset: 5573e5b01d50, size: 25a, name: _ZN4core3fmt9Formatter19pad_formatted_parts17h1df8b6c7411274e9E },
    Symbol { offset: 5573e5b00930, size: 2de, name: _ZN4core3fmt5float32float_to_decimal_common_shortest17h554fc4e1d6bdd5b6E },
    Symbol { offset: 5573e5b00c10, size: 387, name: _ZN4core3fmt3num14parse_u64_into17hc2dfca421961d743E },
    Symbol { offset: 5573e5b00fc0, size: 181, name: _ZN4core3fmt3num8fmt_u12817h6265a5569201e4a9E },
    Symbol { offset: 5573e5b01150, size: 15, name: _ZN4core3fmt5Write9write_fmt17h5c9380b63a66aaf9E },
    Symbol { offset: 5573e5b018b0, size: 54, name: _ZN4core3fmt9Formatter12pad_integral12write_prefix17ha8e9531eb095ab51E },
    Symbol { offset: 5573e5b01fb0, size: 259, name: _ZN4core3fmt9Formatter21write_formatted_parts17hfe79a55c5839ac94E },
    Symbol { offset: 5573e59fdeea, size: 1, name: .Lanon.bb011cbb562d8a675bdbb272ca3f2021.352 },
    Symbol { offset: 5573e59fdc00, size: 20, name: .Lanon.bb011cbb562d8a675bdbb272ca3f2021.378 },
    Symbol { offset: 5573e5b04a10, size: 113, name: _ZN4core7unicode9printable5check17hf0ffd31f697a423cE },
    Symbol { offset: 5573e5b06140, size: 114, name: _ZN4core3fmt3num3imp21_$LT$impl$u20$u32$GT$4_fmt17he57d6a6dcb78f0c2E },
    Symbol { offset: 5573e5b063c0, size: d8, name: _ZN42_$LT$$RF$T$u20$as$u20$core..fmt..Debug$GT$3fmt17h5381dd9e9543787fE },
    Symbol { offset: 5573e59fd174, size: d4, name: _ZN4core7unicode12unicode_data10alphabetic17SHORT_OFFSET_RUNS17hfd484268c8f81f85E },
    Symbol { offset: 5573e59f7f40, size: 5eb, name: _ZN4core7unicode12unicode_data10alphabetic7OFFSETS17h57d01095e2abc3baE },
    Symbol { offset: 5573e59fd248, size: 88, name: _ZN4core7unicode12unicode_data15grapheme_extend17SHORT_OFFSET_RUNS17h4467a9ec82a7692fE },
    Symbol { offset: 5573e59f852b, size: 2ef, name: _ZN4core7unicode12unicode_data15grapheme_extend7OFFSETS17h179f01fc20cf8fd7E },
    Symbol { offset: 5573e59fd2d0, size: a8, name: _ZN4core7unicode12unicode_data1n17SHORT_OFFSET_RUNS17h6960ce2c54d0f190E },
    Symbol { offset: 5573e59f881a, size: 121, name: _ZN4core7unicode12unicode_data1n7OFFSETS17h1aa06a056b30d3e8E },
    Symbol { offset: 5573e5affa45, size: 5c, name: _ZN4core9panicking18panic_bounds_check17hda0827d94e974e71E },
    Symbol { offset: 5573e5afb750, size: 101, name: _ZN4core3num7dec2flt11decimal_seq10DecimalSeq5round17hf99320c56c745e44E },
    Symbol { offset: 5573e5afb860, size: 230, name: _ZN4core3num7dec2flt11decimal_seq10DecimalSeq10left_shift17h92dea2f2ce50f576E },
    Symbol { offset: 5573e5b03040, size: a, name: _ZN4core5slice5index26slice_start_index_len_fail17h0596e605fb4610d0E },
    Symbol { offset: 5573e5afba90, size: 1f7, name: _ZN4core3num7dec2flt11decimal_seq10DecimalSeq11right_shift17h2ed000ba492c6672E },
    Symbol { offset: 5573e5afbc90, size: 3f8, name: _ZN4core3num7dec2flt11decimal_seq17parse_decimal_seq17h13639ec2c346ac49E },
    Symbol { offset: 5573e5b03050, size: a, name: _ZN4core5slice5index24slice_end_index_len_fail17hb6890d29d4255062E },
    Symbol { offset: 5573e5afc220, size: 4c7, name: _ZN4core3num7dec2flt5parse12parse_number17h62841297b6f280e3E },
    Symbol { offset: 5573e5afc6f0, size: 38, name: _ZN74_$LT$core..num..dec2flt..ParseFloatError$u20$as$u20$core..fmt..Display$GT$3fmt17h2565232960a77601E },
    Symbol { offset: 5573e5b01910, size: 439, name: _ZN4core3fmt9Formatter3pad17hdd21642e7502b13fE },
    Symbol { offset: 5573e5aff970, size: 3c, name: _ZN4core9panicking5panic17h4a11c031239f36a8E },
    Symbol { offset: 5573e5affac9, size: 30, name: _ZN4core9panicking13assert_failed17h87568c70b5354ac1E },
    Symbol { offset: 5573e5afc730, size: 28d, name: _ZN4core3num7flt2dec8strategy6dragon9mul_pow1017h6e9762fc7149f73aE },
    Symbol { offset: 5573e5b05120, size: 353, name: _ZN4core3num6bignum8Big32x4010mul_digits17h4b90874b37b62714E },
    Symbol { offset: 5573e5b04c50, size: 4c5, name: _ZN4core3num6bignum8Big32x408mul_pow217had3b3fa58d741b77E },
    Symbol { offset: 5573e5afc9c0, size: e14, name: _ZN4core3num7flt2dec8strategy6dragon15format_shortest17h667d5a19b39eaf05E },
    Symbol { offset: 5573e5afd7e0, size: bbb, name: _ZN4core3num7flt2dec8strategy6dragon12format_exact17h3fb18632c5a650a6E },
    Symbol { offset: 5573e59f93e0, size: 510, name: _ZN4core3num7flt2dec8strategy5grisu12CACHED_POW1017hc3d2754a144706bcE },
    Symbol { offset: 5573e5afe3a0, size: 699, name: _ZN4core3num7flt2dec8strategy5grisu19format_shortest_opt17hc32ff21d821d80b8E },
    Symbol { offset: 5573e5b059e0, size: 37, name: _ZN4core9panicking11panic_const23panic_const_div_by_zero17h1a56129937414368E },
    Symbol { offset: 5573e5afea40, size: 3fa, name: _ZN4core3num7flt2dec8strategy5grisu16format_exact_opt17hd5874b6ab0934c01E },
    Symbol { offset: 5573e5aff000, size: 16d, name: _ZN4core3num7flt2dec17digits_to_dec_str17h72b34971d7122599E },
    Symbol { offset: 5573e5aff170, size: 1a, name: _ZN72_$LT$core..num..error..TryFromIntError$u20$as$u20$core..fmt..Display$GT$3fmt17h23a5c0f5b13e18fbE },
    Symbol { offset: 5573e5aff190, size: 2d, name: _ZN70_$LT$core..num..error..ParseIntError$u20$as$u20$core..fmt..Display$GT$3fmt17ha6bc6f6cebd21587E },
    Symbol { offset: 5573e5aff900, size: 20, name: _ZN4core9panicking9panic_fmt17hc8737e8cca20a7c8E },
    Symbol { offset: 5573e5b01190, size: 207, name: _ZN4core3fmt5write17h275e5980d7008551E },
    Symbol { offset: 5573e5b013a0, size: 50f, name: _ZN4core3fmt9Formatter12pad_integral17h5d7264772a4edb89E },
    Symbol { offset: 5573e5aff3b0, size: 77, name: _ZN54_$LT$core..any..TypeId$u20$as$u20$core..fmt..Debug$GT$3fmt17h0f3f4f47efa6dbadE },
    Symbol { offset: 5573e5b05ea0, size: b6, name: _ZN4core3fmt3num54_$LT$impl$u20$core..fmt..LowerHex$u20$for$u20$i128$GT$3fmt17h60a9e0e6ac6671feE },
    Symbol { offset: 5573e5b04410, size: 195, name: _ZN87_$LT$core..str..lossy..Utf8Chunks$u20$as$u20$core..iter..traits..iterator..Iterator$GT$4next17hb8397047fd79c394E },
    Symbol { offset: 5573e5b032e0, size: 5ca, name: _ZN4core3str5count14do_count_chars17h544f3673519241fcE },
    Symbol { offset: 5573e5b02c20, size: cd, name: _ZN43_$LT$char$u20$as$u20$core..fmt..Display$GT$3fmt17h182976fc04369872E },
    Symbol { offset: 5573e5aff430, size: 1e, name: _ZN60_$LT$core..cell..BorrowError$u20$as$u20$core..fmt..Debug$GT$3fmt17hd337d75e4e71692cE },
    Symbol { offset: 5573e5aff450, size: 1e, name: _ZN63_$LT$core..cell..BorrowMutError$u20$as$u20$core..fmt..Debug$GT$3fmt17hdcb61d89f7c95453E },
    Symbol { offset: 5573e5aff470, size: 53, name: _ZN4core4cell22panic_already_borrowed17he89d368eee27c9a6E },
    Symbol { offset: 5573e5aff4d0, size: 53, name: _ZN4core4cell30panic_already_mutably_borrowed17h95c7d326eb19a92aE },
    Symbol { offset: 5573e5b05ba0, size: 7a, name: _ZN4core3fmt3num53_$LT$impl$u20$core..fmt..LowerHex$u20$for$u20$i16$GT$3fmt17hd750e44ed3a99a89E },
    Symbol { offset: 5573e5b067c0, size: fa, name: _ZN4core7unicode12unicode_data15grapheme_extend11lookup_slow17hc9c748a107542a78E },
    Symbol { offset: 5573e5b04b30, size: 11d, name: _ZN4core7unicode9printable12is_printable17h3daa9dacf23b3515E },
    Symbol { offset: 5573e5aff760, size: 11b, name: _ZN4core3ffi5c_str4CStr19from_bytes_with_nul17hc3d1440fb2d39e10E },
    Symbol { offset: 5573e5b030d0, size: 208, name: _ZN4core3str8converts9from_utf817h643f4cdf3dbea228E },
    Symbol { offset: 5573e5afff90, size: 186, name: _ZN4core3fmt8builders11DebugStruct5field17h0c93207c4d9e6aeaE },
    Symbol { offset: 5573e5b05f60, size: 95, name: _ZN4core3fmt3num3imp51_$LT$impl$u20$core..fmt..Display$u20$for$u20$u8$GT$3fmt17h83e05673aa4b319aE },
    Symbol { offset: 5573e5affc40, size: 76, name: _ZN4core6result13unwrap_failed17h727108008d9f4c9bE },
    Symbol { offset: 5573e5b03060, size: a, name: _ZN4core5slice5index22slice_index_order_fail17h262318a3b4cad0daE },
    Symbol { offset: 5573e5b06100, size: 14, name: _ZN4core3fmt3num3imp52_$LT$impl$u20$core..fmt..Display$u20$for$u20$u32$GT$3fmt17heae17e31cadbc382E },
    Symbol { offset: 5573e5aff880, size: 19, name: _ZN4core6option13unwrap_failed17h62317944fa5dc382E },
    Symbol { offset: 5573e5aff8a0, size: 5b, name: _ZN4core6option13expect_failed17h1fcc4e32848a6083E },
    Symbol { offset: 5573e5aff920, size: 45, name: _ZN4core9panicking18panic_nounwind_fmt17hc3cf3432011a3c3fE },
    Symbol { offset: 5573e5affaa1, size: 14, name: _ZN4core9panicking19panic_cannot_unwind17hb8732afd89555502E },
    Symbol { offset: 5573e5aff9b0, size: 42, name: _ZN4core9panicking14panic_nounwind17h0c59dc9f7f043eadE },
    Symbol { offset: 5573e5affa00, size: 45, name: _ZN4core9panicking26panic_nounwind_nobacktrace17hd3a2723694bc24f5E },
    Symbol { offset: 5573e5b06260, size: 15, name: _ZN4core3fmt3num3imp52_$LT$impl$u20$core..fmt..Display$u20$for$u20$u64$GT$3fmt17hc038dffd7e2f7fd6E },
    Symbol { offset: 5573e5b05da0, size: 79, name: _ZN4core3fmt3num53_$LT$impl$u20$core..fmt..LowerHex$u20$for$u20$i64$GT$3fmt17h26299beddca396b9E },
    Symbol { offset: 5573e5affab5, size: 14, name: _ZN4core9panicking16panic_in_cleanup17h51d1753fd07771d1E },
    Symbol { offset: 5573e5affaf9, size: 13e, name: _ZN4core9panicking19assert_failed_inner17h1eff0b41c54ffee0E },
    Symbol { offset: 5573e5b01170, size: 15, name: _ZN59_$LT$core..fmt..Arguments$u20$as$u20$core..fmt..Display$GT$3fmt17hc4d45641ca639cb6E },
    Symbol { offset: 5573e5affcc0, size: 267, name: _ZN68_$LT$core..fmt..builders..PadAdapter$u20$as$u20$core..fmt..Write$GT$9write_str17hb28e218747fd0591E },
    Symbol { offset: 5573e5afff30, size: 5f, name: _ZN68_$LT$core..fmt..builders..PadAdapter$u20$as$u20$core..fmt..Write$GT$10write_char17hdfdcf0d77aaeab52E },
    Symbol { offset: 5573e5b00120, size: a4, name: _ZN4core3fmt8builders11DebugStruct21finish_non_exhaustive17h0d4e365f6c36b335E },
    Symbol { offset: 5573e5b001d0, size: 5c, name: _ZN4core3fmt8builders11DebugStruct6finish17heb12b5c3a04a811fE },
    Symbol { offset: 5573e5b00230, size: 126, name: _ZN4core3fmt8builders10DebugTuple5field17h3f399b20f0a94869E },
    Symbol { offset: 5573e5b00360, size: 87, name: _ZN4core3fmt8builders10DebugTuple6finish17hfc18502d12f6584bE },
    Symbol { offset: 5573e5b003f0, size: 112, name: _ZN4core3fmt8builders8DebugSet5entry17h14b9a5c774dcc77eE },
    Symbol { offset: 5573e5b00510, size: 34, name: _ZN4core3fmt8builders9DebugList6finish17h36cf362e84b5c024E },
    Symbol { offset: 5573e5b00fa0, size: 1c, name: _ZN4core3fmt3num53_$LT$impl$u20$core..fmt..Display$u20$for$u20$u128$GT$3fmt17he6792768fd65592eE },
    Symbol { offset: 5573e5b02210, size: 15, name: _ZN4core3fmt9Formatter9write_str17hf87901323e3d7ac9E },
    Symbol { offset: 5573e5b02230, size: e, name: _ZN4core3fmt9Formatter4fill17h9329695f24fbc94cE },
    Symbol { offset: 5573e5b02240, size: 31, name: _ZN4core3fmt9Formatter12debug_struct17h6c85e2ff3306615eE },
    Symbol { offset: 5573e5b02280, size: aa, name: _ZN4core3fmt9Formatter26debug_struct_field1_finish17h93d22cbd6eba9f8cE },
    Symbol { offset: 5573e5b02330, size: c4, name: _ZN4core3fmt9Formatter26debug_struct_field2_finish17h2a9dd21c6fe9c8e7E },
    Symbol { offset: 5573e5b02400, size: 48, name: _ZN4core3fmt9Formatter11debug_tuple17haac6330874d9b83bE },
    Symbol { offset: 5573e5b02450, size: 13a, name: _ZN4core3fmt9Formatter25debug_tuple_field1_finish17h06aa1c014801bdacE },
    Symbol { offset: 5573e5b02590, size: 19f, name: _ZN4core3fmt9Formatter25debug_tuple_field2_finish17hd39d01c0992321e7E },
    Symbol { offset: 5573e5b02730, size: 37, name: _ZN4core3fmt9Formatter10debug_list17h091d7ad5d6835b04E },
    Symbol { offset: 5573e5b02770, size: 15, name: _ZN57_$LT$core..fmt..Formatter$u20$as$u20$core..fmt..Write$GT$10write_char17h045e1435224ec613E },
    Symbol { offset: 5573e5b02790, size: 38, name: _ZN43_$LT$bool$u20$as$u20$core..fmt..Display$GT$3fmt17h748b986ef6174281E },
    Symbol { offset: 5573e5b027d0, size: 386, name: _ZN40_$LT$str$u20$as$u20$core..fmt..Debug$GT$3fmt17h065f2d040dacb1c0E },
    Symbol { offset: 5573e5b045b0, size: a, name: _ZN4core3str16slice_error_fail17h9f974238edffa500E },
    Symbol { offset: 5573e5b02b60, size: 17, name: _ZN42_$LT$str$u20$as$u20$core..fmt..Display$GT$3fmt17hc34a6706652b50c1E },
    Symbol { offset: 5573e5b02b80, size: 97, name: _ZN41_$LT$char$u20$as$u20$core..fmt..Debug$GT$3fmt17h1ff3c78b6c7cbe75E },
    Symbol { offset: 5573e5b02cf0, size: b2, name: _ZN4core3fmt17pointer_fmt_inner17hbc08c16cf0101593E },
    Symbol { offset: 5573e5b02db0, size: ea, name: _ZN4core5slice6memchr14memchr_aligned17hadcf7d2ba6241b51E },
    Symbol { offset: 5573e5b02ea0, size: 121, name: _ZN4core5slice6memchr7memrchr17hbff69479afdce0a9E },
    Symbol { offset: 5573e5b02fd0, size: 26, name: _ZN4core5slice4sort6stable5drift11sqrt_approx17hafe01fb2b90a9983E },
    Symbol { offset: 5573e5b03000, size: 3b, name: _ZN4core5slice4sort6shared9smallsort22panic_on_ord_violation17h5323cfd9f2ada983E },
    Symbol { offset: 5573e5b064e0, size: 67, name: _ZN4core5slice5index26slice_start_index_len_fail8do_panic7runtime17h5899ba195655148cE },
    Symbol { offset: 5573e5b06550, size: 67, name: _ZN4core5slice5index24slice_end_index_len_fail8do_panic7runtime17h95aad8cf8a7f5738E },
    Symbol { offset: 5573e5b065c0, size: 67, name: _ZN4core5slice5index22slice_index_order_fail8do_panic7runtime17hfc089304f84e3e4fE },
    Symbol { offset: 5573e5b03070, size: 37, name: _ZN4core5slice5index29slice_end_index_overflow_fail17hb8bc3d156926761cE },
    Symbol { offset: 5573e5b030b0, size: 13, name: _ZN4core5slice29_$LT$impl$u20$$u5b$T$u5d$$GT$15copy_from_slice17len_mismatch_fail17hcb07c599de0a38a3E },
    Symbol { offset: 5573e5b06630, size: 67, name: _ZN4core5slice29_$LT$impl$u20$$u5b$T$u5d$$GT$15copy_from_slice17len_mismatch_fail8do_panic7runtime17h8aa0062f604789efE },
    Symbol { offset: 5573e5b038b0, size: b8, name: _ZN4core3str5count23char_count_general_case17ha3b0fb726fb1ffe2E },
    Symbol { offset: 5573e5b03970, size: b5, name: _ZN66_$LT$core..str..error..Utf8Error$u20$as$u20$core..fmt..Display$GT$3fmt17h3e58a5118bfa1168E },
    Symbol { offset: 5573e5b03a30, size: 546, name: _ZN4core3str7pattern11StrSearcher3new17h9d2eddef2ce308f0E },
    Symbol { offset: 5573e5b03f80, size: 48f, name: _ZN60_$LT$core..str..lossy..Debug$u20$as$u20$core..fmt..Debug$GT$3fmt17hc950941d346f9952E },
    Symbol { offset: 5573e5b05b20, size: 75, name: _ZN4core3fmt3num52_$LT$impl$u20$core..fmt..UpperHex$u20$for$u20$i8$GT$3fmt17h5cf2757b663a479cE },
    Symbol { offset: 5573e5b045c0, size: 3e7, name: _ZN4core3str19slice_error_fail_rt17hdfd3754cf92ad503E },
    Symbol { offset: 5573e5b049b0, size: 1e, name: _ZN4core3str21_$LT$impl$u20$str$GT$18split_at_unchecked17he5910ccc6c1aefccE },
    Symbol { offset: 5573e5b049d0, size: 38, name: _ZN72_$LT$core..time..TryFromFloatSecsError$u20$as$u20$core..fmt..Display$GT$3fmt17h653121cc99c4a6a7E },
    Symbol { offset: 5573e5b05ca0, size: 76, name: _ZN4core3fmt3num53_$LT$impl$u20$core..fmt..LowerHex$u20$for$u20$i32$GT$3fmt17h37ee6c74f16648a0E },
    Symbol { offset: 5573e5b05aa0, size: 75, name: _ZN4core3fmt3num52_$LT$impl$u20$core..fmt..LowerHex$u20$for$u20$i8$GT$3fmt17h8da71132a00b59b6E },
    Symbol { offset: 5573e5b05480, size: 55a, name: _ZN4core3num7dec2flt60_$LT$impl$u20$core..str..traits..FromStr$u20$for$u20$f64$GT$8from_str17h6f13875f6a305a42E },
    Symbol { offset: 5573e5b06000, size: ff, name: _ZN4core3fmt3num3imp52_$LT$impl$u20$core..fmt..Display$u20$for$u20$i16$GT$3fmt17ha0a383598e4bb3f1E },
    Symbol { offset: 5573e5b05d20, size: 76, name: _ZN4core3fmt3num53_$LT$impl$u20$core..fmt..UpperHex$u20$for$u20$i32$GT$3fmt17hbdc79dec00e7b550E },
    Symbol { offset: 5573e5b05a20, size: 37, name: _ZN4core9panicking11panic_const23panic_const_rem_by_zero17hbf6b2c15f9ad1e19E },
    Symbol { offset: 5573e5b05a60, size: 3a, name: _ZN4core3fmt5float52_$LT$impl$u20$core..fmt..Display$u20$for$u20$f64$GT$3fmt17hd6cab9f20b78f052E },
    Symbol { offset: 5573e5b05c20, size: 7a, name: _ZN4core3fmt3num53_$LT$impl$u20$core..fmt..UpperHex$u20$for$u20$i16$GT$3fmt17h45172e814c54772aE },
    Symbol { offset: 5573e5b05e20, size: 79, name: _ZN4core3fmt3num53_$LT$impl$u20$core..fmt..UpperHex$u20$for$u20$i64$GT$3fmt17h92a9aa4f3aa04d0bE },
    Symbol { offset: 5573e5b06120, size: 1b, name: _ZN4core3fmt3num3imp52_$LT$impl$u20$core..fmt..Display$u20$for$u20$i32$GT$3fmt17h863d77ac4b43588eE },
    Symbol { offset: 5573e5b06280, size: 23, name: _ZN4core3fmt3num3imp52_$LT$impl$u20$core..fmt..Display$u20$for$u20$i64$GT$3fmt17hde631ae64c57a835E },
    Symbol { offset: 5573e5b066a0, size: fa, name: _ZN4core7unicode12unicode_data10alphabetic6lookup17h918f85a5a51ce970E },
    Symbol { offset: 5573e5b067a0, size: 17, name: _ZN4core7unicode12unicode_data2cc6lookup17ha15477199a7efaeaE },
    Symbol { offset: 5573e5b068c0, size: fa, name: _ZN4core7unicode12unicode_data1n6lookup17he053efda91b32dbeE },
    Symbol { offset: 5573e59f893b, size: 100, name: _ZN4core7unicode12unicode_data11white_space14WHITESPACE_MAP17hd5253c4819e76a22E },
    Symbol { offset: 5573e5b05ea0, size: b6, name: _ZN4core3fmt3num54_$LT$impl$u20$core..fmt..LowerHex$u20$for$u20$u128$GT$3fmt17he2535aa0c2a97276E },
    Symbol { offset: 5573e5b05aa0, size: 75, name: _ZN4core3fmt3num52_$LT$impl$u20$core..fmt..LowerHex$u20$for$u20$u8$GT$3fmt17h8810de32be60e7b5E },
    Symbol { offset: 5573e5b05b20, size: 75, name: _ZN4core3fmt3num52_$LT$impl$u20$core..fmt..UpperHex$u20$for$u20$u8$GT$3fmt17h3d7187c1920aca52E },
    Symbol { offset: 5573e5b05da0, size: 79, name: _ZN4core3fmt3num55_$LT$impl$u20$core..fmt..LowerHex$u20$for$u20$usize$GT$3fmt17hc37455d4f37246bfE },
    Symbol { offset: 5573e5b05e20, size: 79, name: _ZN4core3fmt3num55_$LT$impl$u20$core..fmt..UpperHex$u20$for$u20$usize$GT$3fmt17hca522266251e2e8dE },
    Symbol { offset: 5573e5b05ba0, size: 7a, name: _ZN4core3fmt3num53_$LT$impl$u20$core..fmt..LowerHex$u20$for$u20$u16$GT$3fmt17h897dea8a982c9770E },
    Symbol { offset: 5573e5b05c20, size: 7a, name: _ZN4core3fmt3num53_$LT$impl$u20$core..fmt..UpperHex$u20$for$u20$u16$GT$3fmt17h6d8b5e17e307a256E },
    Symbol { offset: 5573e5b05ca0, size: 76, name: _ZN4core3fmt3num53_$LT$impl$u20$core..fmt..LowerHex$u20$for$u20$u32$GT$3fmt17haf9a59fdde49fc3aE },
    Symbol { offset: 5573e5b05d20, size: 76, name: _ZN4core3fmt3num53_$LT$impl$u20$core..fmt..UpperHex$u20$for$u20$u32$GT$3fmt17hfdb3aac080b97f7cE },
    Symbol { offset: 5573e5b05da0, size: 79, name: _ZN4core3fmt3num55_$LT$impl$u20$core..fmt..LowerHex$u20$for$u20$isize$GT$3fmt17h6955eedffca517b0E },
    Symbol { offset: 5573e5b05e20, size: 79, name: _ZN4core3fmt3num55_$LT$impl$u20$core..fmt..UpperHex$u20$for$u20$isize$GT$3fmt17hbc0e65e2e451fd9fE },
    Symbol { offset: 5573e5b05da0, size: 79, name: _ZN4core3fmt3num53_$LT$impl$u20$core..fmt..LowerHex$u20$for$u20$u64$GT$3fmt17h0f555d52b38295f7E },
    Symbol { offset: 5573e5b05e20, size: 79, name: _ZN4core3fmt3num53_$LT$impl$u20$core..fmt..UpperHex$u20$for$u20$u64$GT$3fmt17h9627c19e7a86531aE },
    Symbol { offset: 5573e5b02210, size: 15, name: _ZN57_$LT$core..fmt..Formatter$u20$as$u20$core..fmt..Write$GT$9write_str17h24d2655088b9ad0bE },
    Symbol { offset: 5573e5b003f0, size: 112, name: _ZN4core3fmt8builders9DebugList5entry17h0d06b4ba5482333fE },
    Symbol { offset: 5573e5b06260, size: 15, name: _ZN4core3fmt3num3imp54_$LT$impl$u20$core..fmt..Display$u20$for$u20$usize$GT$3fmt17hb9928f289d6fcf72E },
    Symbol { offset: 5573e5b06280, size: 23, name: _ZN4core3fmt3num3imp54_$LT$impl$u20$core..fmt..Display$u20$for$u20$isize$GT$3fmt17hf46c573ad4aeeb87E },
    Symbol { offset: 5573e5b069c0, size: 76, name: round },
]
